MODULE Linux x86_64 E46B6B7CF61E9168644F96BA5D875D8D0 libsagegen.so.2.0
INFO CODE_ID 7C6B6BE41EF66891644F96BA5D875D8D4E973547
PUBLIC 1c000 0 _init
PUBLIC 1c9a0 0 (anonymous namespace)::recordSourceMapping(char*, char*) [clone .cold]
PUBLIC 1c9c6 0 (anonymous namespace)::getPrimTypeName(vst_s*, bool) [clone .cold]
PUBLIC 1ca38 0 Sage::getSignature[abi:cxx11](ssl_item_s const*) [clone .cold]
PUBLIC 1ca4e 0 Sage::getLcvName[abi:cxx11](ssl_item_s*, bool) [clone .cold]
PUBLIC 1ca6a 0 Sage::buildUnknownLcvName[abi:cxx11](ssl_item_s*, bool) [clone .cold]
PUBLIC 1ca98 0 (anonymous namespace)::logVlogObj(char const*, xst_s*, long*, std::__cxx11::basic_string<char, std::char_traits<char>, std::allocator<char> > const&) [clone .cold]
PUBLIC 1cb3e 0 (anonymous namespace)::recordHierNodeTypeSignals(ssl_item_s*, int) [clone .isra.0] [clone .cold]
PUBLIC 1cb4b 0 sagegen_ie_propagate_coercion.cold
PUBLIC 1cb58 0 (anonymous namespace)::getNodeTypeId(std::__cxx11::basic_string<char, std::char_traits<char>, std::allocator<char> > const&, bool*) [clone .cold]
PUBLIC 1cb6e 0 std::__detail::_Map_base<std::__cxx11::basic_string<char, std::char_traits<char>, std::allocator<char> >, std::pair<std::__cxx11::basic_string<char, std::char_traits<char>, std::allocator<char> > const, int>, std::allocator<std::pair<std::__cxx11::basic_string<char, std::char_traits<char>, std::allocator<char> > const, int> >, std::__detail::_Select1st, std::equal_to<std::__cxx11::basic_string<char, std::char_traits<char>, std::allocator<char> > >, std::hash<std::__cxx11::basic_string<char, std::char_traits<char>, std::allocator<char> > >, std::__detail::_Mod_range_hashing, std::__detail::_Default_ranged_hash, std::__detail::_Prime_rehash_policy, std::__detail::_Hashtable_traits<true, false, true>, true>::operator[](std::__cxx11::basic_string<char, std::char_traits<char>, std::allocator<char> > const&) [clone .constprop.0] [clone .cold]
PUBLIC 1cb90 0 (anonymous namespace)::getPartitionId(long*) [clone .cold]
PUBLIC 1cba6 0 (anonymous namespace)::getHierParent(int, ssl_item_s*, ssl_item_s const*, int*, std::__cxx11::basic_string<char, std::char_traits<char>, std::allocator<char> > const&) [clone .isra.0] [clone .constprop.0] [clone .cold]
PUBLIC 1cbc7 0 sagegen_ie_get_partition_coercion.cold
PUBLIC 1cc1c 0 _GLOBAL__sub_I_sagegen.cc.cold
PUBLIC 1cd98 0 sagegen_begin_shutdown.cold
PUBLIC 1cdaa 0 sagegen_ie_stitch_pair.cold
PUBLIC 1cefb 0 sagegen_top_instance.cold
PUBLIC 1cf67 0 sagegen_ie_connect_oopr.cold
PUBLIC 1d036 0 (anonymous namespace)::recordHierNodeType(ssl_item_s*, bool) [clone .cold]
PUBLIC 1d149 0 (anonymous namespace)::recordScope(xst_s*, long*, std::__cxx11::basic_string<char, std::char_traits<char>, std::allocator<char> > const&) [clone .constprop.0] [clone .cold]
PUBLIC 1d15b 0 (anonymous namespace)::processXstItems(ssl_item_s*, idaStatusCodeT, char*, char*, std::__cxx11::basic_string<char, std::char_traits<char>, std::allocator<char> > const&) [clone .constprop.0] [clone .cold]
PUBLIC 1d1ff 0 (anonymous namespace)::traverseDesignCallback(ssl_item_s*) [clone .cold]
PUBLIC 1d21e 0 (anonymous namespace)::sagegenGenerate(char*, char*, char*, char*, char*, char*, int, bool, bool, void*, void*) [clone .cold]
PUBLIC 1d3ff 0 sagegen_wait_and_cleanup.cold
PUBLIC 1d45f 0 (anonymous namespace)::exitHandler(long*, int) [clone .cold]
PUBLIC 1d520 0 Sage::Logger::Logger() [clone .cold]
PUBLIC 1d5e8 0 (anonymous namespace)::dumpMsgStr(std::__cxx11::basic_string<char, std::char_traits<char>, std::allocator<char> > const&, google::protobuf::Message&) [clone .cold]
PUBLIC 1d603 0 (anonymous namespace)::send(google::protobuf::Message const&, bool) [clone .cold]
PUBLIC 1d623 0 (anonymous namespace)::send(google::protobuf::Message const&, bool) [clone .constprop.0] [clone .cold]
PUBLIC 1d643 0 (anonymous namespace)::recordHierDataMsg(hiertreeproto_v2::MessageType_Type) [clone .cold]
PUBLIC 1d657 0 (anonymous namespace)::recordTypeObjDataMsg(typeinfoproto_v2::TypeInfoMessageType_Type) [clone .cold]
PUBLIC 1d66b 0 (anonymous namespace)::recordTypeObjDataMsgAndDumpMsg(std::__cxx11::basic_string<char, std::char_traits<char>, std::allocator<char> > const&, typeinfoproto_v2::TypeInfoMessageType_Type) [clone .cold]
PUBLIC 1d67f 0 Sage::Proto::recordHegDataMsg(hegproto_v2::Data_Type) [clone .cold]
PUBLIC 1d693 0 Sage::Proto::finishType() [clone .cold]
PUBLIC 1d6a7 0 Sage::Proto::finishCompositeClass() [clone .cold]
PUBLIC 1d6bd 0 Sage::Proto::finishCompositeQDA() [clone .cold]
PUBLIC 1d6d3 0 Sage::Proto::finishCompositeStaticArray() [clone .cold]
PUBLIC 1d6e9 0 Sage::Proto::finishCompositeMDA() [clone .cold]
PUBLIC 1d6ff 0 Sage::Proto::finishCompositeField() [clone .cold]
PUBLIC 1d715 0 Sage::Proto::finishCompositeStruct() [clone .cold]
PUBLIC 1d72b 0 Sage::Proto::finishCompositeUnion() [clone .cold]
PUBLIC 1d741 0 Sage::Proto::finishCompositeEnum() [clone .cold]
PUBLIC 1d757 0 Sage::Proto::addStartValue() [clone .cold]
PUBLIC 1d76b 0 Sage::Proto::addEndValue() [clone .cold]
PUBLIC 1d77f 0 Sage::Proto::getByteStream(unsigned char*, unsigned long) [clone .cold]
PUBLIC 1d7a7 0 Sage::Proto::recordPathNode(Sage::Util::PathTree::Node const*, bool) [clone .cold]
PUBLIC 1d7d1 0 Sage::Proto::commInit(char const*, bool, bool) [clone .cold]
PUBLIC 1daf9 0 Sage::Proto::startHegMacroArg(int, hegproto_v2::MacroRef&) [clone .cold]
PUBLIC 1db15 0 Sage::Proto::startHegMacroRef(int, int, int, int, int, std::__cxx11::basic_string<char, std::char_traits<char>, std::allocator<char> > const&, bool) [clone .cold]
PUBLIC 1db5f 0 Sage::Proto::addHegTextRef(int, hegproto_v2::TextRef&) [clone .cold]
PUBLIC 1db7a 0 Sage::Proto::addHegMacroElem(std::__cxx11::basic_string<char, std::char_traits<char>, std::allocator<char> > const&, hegproto_v2::MacroElement_Type, int, int, hegproto_v2::MacroRef&) [clone .cold]
PUBLIC 1dbad 0 (anonymous namespace)::createSourceLoc(int, Sage::GenSrcLoc const&, bool) [clone .cold]
PUBLIC 1dbc1 0 (anonymous namespace)::dumpSrcLoc(int, Sage::GenSrcLoc const&) [clone .cold]
PUBLIC 1dc11 0 Sage::Proto::recordSourceLoc(int, Sage::GenSrcLoc const&, bool) [clone .cold]
PUBLIC 1dc25 0 (anonymous namespace)::processSourceMappingMsg(int, std::__cxx11::basic_string<char, std::char_traits<char>, std::allocator<char> > const&, int, std::__cxx11::basic_string<char, std::char_traits<char>, std::allocator<char> > const&, bool) [clone .cold]
PUBLIC 1dc68 0 (anonymous namespace)::processHierEdgeMsg(int, int, hiertreeproto_v2::Edge_EdgeKind, bool) [clone .cold]
PUBLIC 1dc98 0 (anonymous namespace)::processHierNodeMsg(int, int, int, std::__cxx11::basic_string<char, std::char_traits<char>, std::allocator<char> > const&, int, bool) [clone .cold]
PUBLIC 1dcc8 0 (anonymous namespace)::createModuleItem(int, int, std::__cxx11::basic_string<char, std::char_traits<char>, std::allocator<char> > const&, int, hiertreeproto_v2::NamedBlock_Type, std::__cxx11::basic_string<char, std::char_traits<char>, std::allocator<char> > const&, bool) [clone .cold]
PUBLIC 1dcf8 0 Sage::Proto::recordParam(int, int, std::__cxx11::basic_string<char, std::char_traits<char>, std::allocator<char> > const&, int) [clone .cold]
PUBLIC 1dd28 0 Sage::Proto::recordSignal(int, int, std::__cxx11::basic_string<char, std::char_traits<char>, std::allocator<char> > const&, int, bool, bool, bool, hiertreeproto_v2::Signal_Visibility) [clone .cold]
PUBLIC 1dd58 0 Sage::Proto::addPredefinedType(std::__cxx11::basic_string<char, std::char_traits<char>, std::allocator<char> > const&, bool, bool, bool, typeinfoproto_v2::PredefinedType_Type) [clone .cold]
PUBLIC 1dd96 0 Sage::Proto::addStruct(std::__cxx11::basic_string<char, std::char_traits<char>, std::allocator<char> > const&, bool, bool, bool, bool, std::tuple<bool, bool, long, long>&) [clone .cold]
PUBLIC 1ddc0 0 Sage::Proto::addUnion(std::__cxx11::basic_string<char, std::char_traits<char>, std::allocator<char> > const&, bool, bool, bool, bool, std::tuple<bool, bool, long, long>&) [clone .cold]
PUBLIC 1ddea 0 Sage::Proto::addField(std::__cxx11::basic_string<char, std::char_traits<char>, std::allocator<char> > const&, typeinfoproto_v2::TypeInfoMessageType_Type) [clone .cold]
PUBLIC 1de28 0 Sage::Proto::addEnum(std::__cxx11::basic_string<char, std::char_traits<char>, std::allocator<char> > const&, std::vector<std::pair<std::__cxx11::basic_string<char, std::char_traits<char>, std::allocator<char> >, common_v2::ByteStream*>, std::allocator<std::pair<std::__cxx11::basic_string<char, std::char_traits<char>, std::allocator<char> >, common_v2::ByteStream*> > > const&, unsigned long, bool, bool, bool) [clone .cold]
PUBLIC 1dea4 0 Sage::Proto::addHegMacroElem(std::__cxx11::basic_string<char, std::char_traits<char>, std::allocator<char> > const&, hegproto_v2::MacroElement_Type, int, int, hegproto_v2::MacroArg&) [clone .cold]
PUBLIC 1deee 0 (anonymous namespace)::processDimension(std::tuple<bool, bool, long, long> const&) [clone .cold]
PUBLIC 1df18 0 Sage::Proto::addArray(std::__cxx11::basic_string<char, std::char_traits<char>, std::allocator<char> > const&, std::vector<std::tuple<bool, bool, long, long>, std::allocator<std::tuple<bool, bool, long, long> > > const&, typeinfoproto_v2::TypeInfoMessageType_Type, bool, bool) [clone .cold]
PUBLIC 1df71 0 Sage::Proto::addQDA(std::__cxx11::basic_string<char, std::char_traits<char>, std::allocator<char> > const&, typeinfoproto_v2::QDAArray_Type, typeinfoproto_v2::TypeInfoMessageType_Type, typeinfoproto_v2::TypeInfoMessageType_Type) [clone .cold]
PUBLIC 1dfaf 0 Sage::Proto::addClassHandle(std::__cxx11::basic_string<char, std::char_traits<char>, std::allocator<char> > const&, int, int, typeinfoproto_v2::ClassHandle_Type, typeinfoproto_v2::TypeInfoMessageType_Type) [clone .cold]
PUBLIC 1dfdf 0 Sage::Proto::addVirtualInterface(std::__cxx11::basic_string<char, std::char_traits<char>, std::allocator<char> > const&, int, int) [clone .cold]
PUBLIC 1dff3 0 Sage::Proto::markTypeParam() [clone .cold]
PUBLIC 1e022 0 Sage::Proto::addByteStream(unsigned char*, bool, unsigned long) [clone .cold]
PUBLIC 1e051 0 Sage::Proto::addStringValue(char*, unsigned long) [clone .cold]
PUBLIC 1e076 0 (anonymous namespace)::createNamedBlock(int, std::__cxx11::basic_string<char, std::char_traits<char>, std::allocator<char> > const&, int, hiertreeproto_v2::NamedBlock_Type, bool) [clone .cold]
PUBLIC 1e0a5 0 (anonymous namespace)::processGenvarMsg(int, int, std::__cxx11::basic_string<char, std::char_traits<char>, std::allocator<char> > const&, int, int, bool) [clone .cold]
PUBLIC 1e0d5 0 (anonymous namespace)::processPartitionInfoMsg(int, std::__cxx11::basic_string<char, std::char_traits<char>, std::allocator<char> > const&, std::__cxx11::basic_string<char, std::char_traits<char>, std::allocator<char> > const&, std::__cxx11::basic_string<char, std::char_traits<char>, std::allocator<char> > const&, std::__cxx11::basic_string<char, std::char_traits<char>, std::allocator<char> > const&, std::__cxx11::basic_string<char, std::char_traits<char>, std::allocator<char> > const&, std::__cxx11::basic_string<char, std::char_traits<char>, std::allocator<char> > const&, bool) [clone .cold]
PUBLIC 1e11c 0 (anonymous namespace)::processModuleItemPartitionMsg(int, std::__cxx11::basic_string<char, std::char_traits<char>, std::allocator<char> > const&, std::__cxx11::basic_string<char, std::char_traits<char>, std::allocator<char> > const&, std::__cxx11::basic_string<char, std::char_traits<char>, std::allocator<char> > const&, std::__cxx11::basic_string<char, std::char_traits<char>, std::allocator<char> > const&, int, bool) [clone .cold]
PUBLIC 1e14c 0 (anonymous namespace)::processStitchPointMsg(int, std::__cxx11::basic_string<char, std::char_traits<char>, std::allocator<char> > const&, std::__cxx11::basic_string<char, std::char_traits<char>, std::allocator<char> > const&, std::__cxx11::basic_string<char, std::char_traits<char>, std::allocator<char> > const&, int, int, bool) [clone .cold]
PUBLIC 1e17c 0 (anonymous namespace)::processTopInstanceMsg(int, bool) [clone .cold]
PUBLIC 1e1ac 0 (anonymous namespace)::processAttributeMsg(std::__cxx11::basic_string<char, std::char_traits<char>, std::allocator<char> > const&, std::__cxx11::basic_string<char, std::char_traits<char>, std::allocator<char> > const&, bool) [clone .cold]
PUBLIC 1e1f3 0 (anonymous namespace)::processOoprExternMsg(int, std::__cxx11::basic_string<char, std::char_traits<char>, std::allocator<char> > const&, std::__cxx11::basic_string<char, std::char_traits<char>, std::allocator<char> > const&, bool, int, bool) [clone .cold]
PUBLIC 1e244 0 (anonymous namespace)::processOoprTargetMsg(std::__cxx11::basic_string<char, std::char_traits<char>, std::allocator<char> > const&, std::__cxx11::basic_string<char, std::char_traits<char>, std::allocator<char> > const&, int, bool) [clone .cold]
PUBLIC 1e274 0 Sage::Proto::recordHegVariable(int, std::__cxx11::basic_string<char, std::char_traits<char>, std::allocator<char> > const&, int) [clone .cold]
PUBLIC 1e2a3 0 Sage::Proto::recordHegParameter(int, std::__cxx11::basic_string<char, std::char_traits<char>, std::allocator<char> > const&, int) [clone .cold]
PUBLIC 1e2d2 0 Sage::Proto::startHegModule(int, std::__cxx11::basic_string<char, std::char_traits<char>, std::allocator<char> > const&, int, std::vector<int, std::allocator<int> > const&, bool) [clone .cold]
PUBLIC 1e319 0 Sage::Proto::recordHegPortDecl(int, std::__cxx11::basic_string<char, std::char_traits<char>, std::allocator<char> > const&, hegproto_v2::PortDecl_Direction, int, int) [clone .cold]
PUBLIC 1e35e 0 Sage::Proto::recordHegElemRef(int, int, int) [clone .cold]
PUBLIC 1e3a3 0 Sage::Proto::recordHegConstant(int, std::__cxx11::basic_string<char, std::char_traits<char>, std::allocator<char> > const&, int) [clone .cold]
PUBLIC 1e3d2 0 Sage::Proto::recordHegInstance(int, int, std::__cxx11::basic_string<char, std::char_traits<char>, std::allocator<char> > const&, std::vector<int, std::allocator<int> > const&, std::vector<int, std::allocator<int> > const&, int) [clone .cold]
PUBLIC 1e477 0 Sage::Proto::recordHegAssignment(int, hegproto_v2::Assign_Type, int, int, int) [clone .cold]
PUBLIC 1e4d2 0 Sage::Proto::recordHegConditional(int, hegproto_v2::ConditionalStmt_Type, int, int, int, int) [clone .cold]
PUBLIC 1e54d 0 Sage::Proto::recordHegSeqBlock(int, std::__cxx11::basic_string<char, std::char_traits<char>, std::allocator<char> > const&, std::vector<int, std::allocator<int> > const&, int) [clone .cold]
PUBLIC 1e594 0 Sage::Proto::recordHegAlways(int, int, int) [clone .cold]
PUBLIC 1e5d9 0 Sage::Proto::recordHegAlwaysEventControl(int, std::vector<int, std::allocator<int> > const&, int, int) [clone .cold]
PUBLIC 1e637 0 Sage::Proto::recordHegEventExpression(int, hegproto_v2::EventExpression_Type, int, int) [clone .cold]
PUBLIC 1e67c 0 Sage::Proto::recordHegBinaryOp(int, int, int, hegproto_v2::BinaryOperator_Type, int) [clone .cold]
PUBLIC 1e6d7 0 Sage::Proto::recordHegUnaryOp(int, int, hegproto_v2::UnaryOperator_Type, int) [clone .cold]
PUBLIC 1e71c 0 Sage::Proto::recordHegIncludeRef(std::__cxx11::basic_string<char, std::char_traits<char>, std::allocator<char> > const&, int, int) [clone .cold]
PUBLIC 1e763 0 Sage::Proto::recordHegSourceChunk(std::__cxx11::basic_string<char, std::char_traits<char>, std::allocator<char> > const&, int, int, int) [clone .cold]
PUBLIC 1e7a8 0 Sage::Proto::recordHegMacroDef(int, std::__cxx11::basic_string<char, std::char_traits<char>, std::allocator<char> > const&, int, std::__cxx11::basic_string<char, std::char_traits<char>, std::allocator<char> > const&) [clone .cold]
PUBLIC 1e7cb 0 Sage::Proto::startHegTextRef() [clone .cold]
PUBLIC 1e7df 0 Sage::Proto::recordHegUnhandledType(int, int) [clone .cold]
PUBLIC 1e80e 0 (anonymous namespace)::processCoercedPortMsg(int, std::__cxx11::basic_string<char, std::char_traits<char>, std::allocator<char> > const&, bool) [clone .cold]
PUBLIC 1e822 0 Sage::Proto::recordCoercedPort(int, char const*) [clone .cold]
PUBLIC 1e84a 0 Sage::loadLib(char const*) [clone .cold]
PUBLIC 1e870 0 Sage::StringValue::record(unsigned char*, unsigned long) [clone .cold]
PUBLIC 1e8ca 0 Sage::BasicValue::record(unsigned char*, unsigned long) [clone .cold]
PUBLIC 1e928 0 (anonymous namespace)::getTypeName(vst_s*, via_external_s, long*) [clone .cold]
PUBLIC 1e93e 0 Sage::Type::recordDanglingTypeRefs(int, std::__cxx11::basic_string<char, std::char_traits<char>, std::allocator<char> > const&) [clone .cold]
PUBLIC 1e9a4 0 (anonymous namespace)::doVIFCType(std::__cxx11::basic_string<char, std::char_traits<char>, std::allocator<char> > const&, via_external_s, (anonymous namespace)::TypeObj&, bool) [clone .constprop.0] [clone .cold]
PUBLIC 1ea55 0 (anonymous namespace)::doPredefType(std::__cxx11::basic_string<char, std::char_traits<char>, std::allocator<char> > const&, bool, typeinfoproto_v2::PredefinedType_Type, (anonymous namespace)::TypeObj&, Sage::ArrayDimensionStack&, bool, bool, unsigned long, bool, unsigned char*) [clone .cold]
PUBLIC 1ecea 0 (anonymous namespace)::doObjTypeAndValue(vst_s*, via_external_s, (anonymous namespace)::TypeObj&, Sage::ArrayDimensionStack&, bool, std::__cxx11::basic_string<char, std::char_traits<char>, std::allocator<char> >, unsigned char*, unsigned long, bool) [clone .cold]
PUBLIC 1ef9f 0 (anonymous namespace)::doClassType(std::__cxx11::basic_string<char, std::char_traits<char>, std::allocator<char> > const&, via_external_s, (anonymous namespace)::TypeObj&, Sage::ArrayDimensionStack&, typeinfoproto_v2::ClassHandle_Type, bool) [clone .cold]
PUBLIC 1f12b 0 (anonymous namespace)::doStaticArrayType(std::__cxx11::basic_string<char, std::char_traits<char>, std::allocator<char> > const&, via_external_s, bool, (anonymous namespace)::TypeObj&, Sage::ArrayDimensionStack&, xst_s*, long*, unsigned char*, unsigned long, bool, bool) [clone .cold]
PUBLIC 1f2bd 0 (anonymous namespace)::doWireType(xst_s*, long*, vst_s*, via_external_s, (anonymous namespace)::TypeObj&, Sage::ArrayDimensionStack&) [clone .cold]
PUBLIC 1f34b 0 (anonymous namespace)::doVectorType(std::__cxx11::basic_string<char, std::char_traits<char>, std::allocator<char> > const&, via_external_s, bool, (anonymous namespace)::TypeObj&, Sage::ArrayDimensionStack&, xst_s*, long*, unsigned long, bool, unsigned char*, unsigned long, bool, bool) [clone .cold]
PUBLIC 1f5fc 0 (anonymous namespace)::doStructUnionType(std::__cxx11::basic_string<char, std::char_traits<char>, std::allocator<char> > const&, via_external_s, bool, bool, (anonymous namespace)::TypeObj&, Sage::ArrayDimensionStack&, unsigned long, bool, unsigned char*, unsigned long, bool, bool) [clone .cold]
PUBLIC 1fb1c 0 Sage::Type::recordParameter(xst_s*, long*, int) [clone .cold]
PUBLIC 1fc0c 0 Sage::Type::recordSignal(xst_s*, long*, int, bool, bool) [clone .cold]
PUBLIC 1fcea 0 Sage::HDLGraph::doUnhandledType(vst_s*, long*, int) [clone .cold]
PUBLIC 1fd35 0 (anonymous namespace)::doElemRef(vst_s*, long*) [clone .cold]
PUBLIC 1fdc8 0 (anonymous namespace)::doExpr(vst_s*, long*) [clone .cold]
PUBLIC 20021 0 (anonymous namespace)::doAssignment(vst_s*, long*, hegproto_v2::Assign_Type) [clone .cold]
PUBLIC 20087 0 (anonymous namespace)::doStatement(vst_s*, long*) [clone .cold]
PUBLIC 2018a 0 (anonymous namespace)::doEventControls(vst_s*, std::vector<int, std::allocator<int> >&, long*) [clone .cold]
PUBLIC 201dd 0 (anonymous namespace)::doDeclarativeItems(ssl_item_s*) [clone .isra.0] [clone .cold]
PUBLIC 20470 0 Sage::HDLGraph::recordHDLGraph(ssl_item_s*) [clone .cold]
PUBLIC 205d2 0 (anonymous namespace)::getNameFromVst(vst_s*) [clone .cold]
PUBLIC 205e8 0 Sage::Text::getAnnotationLength(vst_s*, long*) [clone .cold]
PUBLIC 20624 0 Sage::Text::endSrcInfo() [clone .cold]
PUBLIC 20c05 0 (anonymous namespace)::getFileNode(std::__cxx11::basic_string<char, std::char_traits<char>, std::allocator<char> > const&, bool*) [clone .cold]
PUBLIC 20c1c 0 Sage::Text::recordSourceChunks(xst_s*) [clone .cold]
PUBLIC 20c88 0 std::_Function_handler<void (Sage::Util::PathTree::Node const*), Sage::Text::endSrcInfo()::{lambda(Sage::Util::PathTree::Node const*)#2}>::_M_invoke(std::_Any_data const&, Sage::Util::PathTree::Node const*&&) [clone .cold]
PUBLIC 20ce2 0 std::_Function_handler<void (Sage::Util::PathTree::Node const*), Sage::Text::endSrcInfo()::{lambda(Sage::Util::PathTree::Node const*)#1}>::_M_invoke(std::_Any_data const&, Sage::Util::PathTree::Node const*&&) [clone .cold]
PUBLIC 20d3c 0 (anonymous namespace)::storeMacroSrcLoc(int, int, int, int, int, std::__cxx11::basic_string<char, std::char_traits<char>, std::allocator<char> > const&, void*, bool) [clone .cold]
PUBLIC 20db9 0 void (anonymous namespace)::doMacroElem<hegproto_v2::MacroArg>(mac_elem_s*, long*, int, std::__cxx11::basic_string<char, std::char_traits<char>, std::allocator<char> > const&, hegproto_v2::MacroArg&, bool) [clone .constprop.0] [clone .cold]
PUBLIC 20dcf 0 Sage::Text::recordIncludeRefs(xst_s*) [clone .cold]
PUBLIC 20f05 0 Sage::Text::recordSourceMapping(std::__cxx11::basic_string<char, std::char_traits<char>, std::allocator<char> > const&, std::__cxx11::basic_string<char, std::char_traits<char>, std::allocator<char> > const&) [clone .cold]
PUBLIC 20f52 0 Sage::Text::recordTextRefs(ssl_item_s*) [clone .cold]
PUBLIC 21072 0 Sage::Text::getDefaultSrcLocId() [clone .cold]
PUBLIC 210ec 0 Sage::Text::getSrcLoc(xst_s*, long*, bool) [clone .cold]
PUBLIC 21108 0 Sage::Text::recordMacroRefs(ssl_item_s*) [clone .cold]
PUBLIC 2129c 0 Sage::IO::IpcStream::connect() [clone .cold]
PUBLIC 212b4 0 Sage::IO::IpcStream::IpcStream() [clone .cold]
PUBLIC 212eb 0 Sage::IO::connectWriter(std::__cxx11::basic_string<char, std::char_traits<char>, std::allocator<char> >, char const*, bool, bool) [clone .cold]
PUBLIC 21328 0 Sage::IO::IpcStream::IpcStream(std::__cxx11::basic_string<char, std::char_traits<char>, std::allocator<char> > const&) [clone .cold]
PUBLIC 21374 0 boost::filesystem::path::operator/=(char const*) [clone .cold]
PUBLIC 2138c 0 boost::filesystem::path::operator/=(boost::filesystem::path const&) [clone .cold]
PUBLIC 213a4 0 boost::filesystem::path::root_directory() const [clone .cold]
PUBLIC 213c8 0 boost::filesystem::path::parent_path() const [clone .cold]
PUBLIC 213ee 0 boost::filesystem::path::begin() const [clone .cold]
PUBLIC 21414 0 boost::filesystem::path::root_name() const [clone .cold]
PUBLIC 21430 0 boost::filesystem::path::root_path() const [clone .cold]
PUBLIC 21458 0 boost::filesystem::path::m_path_iterator_increment(boost::filesystem::path::iterator&) [clone .cold]
PUBLIC 21470 0 boost::filesystem::path::relative_path() const [clone .cold]
PUBLIC 2148c 0 boost::filesystem::path::extension() const [clone .cold]
PUBLIC 214a8 0 boost::filesystem::path::replace_extension(boost::filesystem::path const&) [clone .cold]
PUBLIC 214c4 0 boost::filesystem::path::stem() const [clone .cold]
PUBLIC 214fe 0 boost::filesystem::path::lexically_relative(boost::filesystem::path const&) const [clone .cold]
PUBLIC 215f6 0 boost::filesystem::path::m_path_iterator_decrement(boost::filesystem::path::iterator&) [clone .cold]
PUBLIC 2160e 0 boost::filesystem::path::lexically_normal() const [clone .cold]
PUBLIC 216de 0 boost::filesystem::path::codecvt() [clone .cold]
PUBLIC 216f2 0 boost::filesystem::path::imbue(std::locale const&) [clone .cold]
PUBLIC 21722 0 google::protobuf::internal::LogMessage::operator<<(google::protobuf::util::Status const&) [clone .cold]
PUBLIC 2173e 0 google::protobuf::internal::LogMessage::Finish() [clone .cold]
PUBLIC 21824 0 google::protobuf::internal::LogMessage::operator<<(google::protobuf::uint128 const&) [clone .cold]
PUBLIC 218cc 0 google::protobuf::internal::VerifyVersion(int, int, char const*) [clone .cold]
PUBLIC 2193c 0 google::protobuf::internal::LogMessage::operator<<(google::protobuf::StringPiece const&) [clone .cold]
PUBLIC 21952 0 google::protobuf::uint128::DivModImpl(google::protobuf::uint128, google::protobuf::uint128, google::protobuf::uint128*, google::protobuf::uint128*) [clone .cold]
PUBLIC 21962 0 google::protobuf::operator<<(std::ostream&, google::protobuf::uint128 const&) [clone .cold]
PUBLIC 21a1a 0 google::protobuf::util::Status::Status(google::protobuf::util::error::Code, google::protobuf::StringPiece) [clone .cold]
PUBLIC 21a30 0 google::protobuf::util::Status::ToString[abi:cxx11]() const [clone .cold]
PUBLIC 21a5d 0 google::protobuf::util::operator<<(std::ostream&, google::protobuf::util::Status const&) [clone .cold]
PUBLIC 21a78 0 google::protobuf::internal::ArenaImpl::NewBlock(google::protobuf::internal::ArenaImpl::Block*, unsigned long) [clone .cold]
PUBLIC 21a88 0 google::protobuf::internal::InitProtobufDefaults() [clone .cold]
PUBLIC 21a9c 0 google::protobuf::internal::SerializeMessageNoTable(google::protobuf::MessageLite const*, google::protobuf::internal::ArrayOutput*) [clone .cold]
PUBLIC 21aac 0 google::protobuf::internal::SerializeNotImplemented(int) [clone .cold]
PUBLIC 21abc 0 google::protobuf::internal::GenericSwap(google::protobuf::MessageLite*, google::protobuf::MessageLite*) [clone .cold]
PUBLIC 21ace 0 google::protobuf::internal::InitSCCImpl(google::protobuf::internal::SCCInfoBase*) [clone .cold]
PUBLIC 21ade 0 google::protobuf::internal::SerializeInternalToArray(unsigned char const*, google::protobuf::internal::FieldMetadata const*, int, bool, unsigned char*) [clone .cold]
PUBLIC 21aee 0 google::protobuf::MessageLite::LogInitializationErrorMessage() const [clone .cold]
PUBLIC 21b42 0 google::protobuf::MessageLite::SerializePartialToCodedStream(google::protobuf::io::CodedOutputStream*) const [clone .cold]
PUBLIC 21bb0 0 google::protobuf::MessageLite::SerializePartialToZeroCopyStream(google::protobuf::io::ZeroCopyOutputStream*) const [clone .cold]
PUBLIC 21bd0 0 google::protobuf::MessageLite::AppendPartialToString(std::__cxx11::basic_string<char, std::char_traits<char>, std::allocator<char> >*) const [clone .cold]
PUBLIC 21bf0 0 google::protobuf::MessageLite::SerializePartialToArray(void*, int) const [clone .cold]
PUBLIC 21c10 0 google::protobuf::MessageLite::SerializeAsString[abi:cxx11]() const [clone .cold]
PUBLIC 21c26 0 google::protobuf::MessageLite::SerializePartialAsString[abi:cxx11]() const [clone .cold]
PUBLIC 21c3c 0 google::protobuf::ShutdownProtobufLibrary() [clone .cold]
PUBLIC 21c4c 0 google::protobuf::internal::OnShutdownRun(void (*)(void const*), void const*) [clone .cold]
PUBLIC 21c72 0 google::protobuf::MessageLite::ParseFromFileDescriptor(int) [clone .cold]
PUBLIC 21c9e 0 google::protobuf::MessageLite::ParsePartialFromFileDescriptor(int) [clone .cold]
PUBLIC 21cca 0 google::protobuf::MessageLite::ParseFromIstream(std::istream*) [clone .cold]
PUBLIC 21cf6 0 google::protobuf::MessageLite::ParsePartialFromIstream(std::istream*) [clone .cold]
PUBLIC 21d22 0 google::protobuf::MessageLite::SerializeToFileDescriptor(int) const [clone .cold]
PUBLIC 21d32 0 google::protobuf::MessageLite::SerializePartialToFileDescriptor(int) const [clone .cold]
PUBLIC 21d42 0 google::protobuf::MessageLite::SerializeToOstream(std::ostream*) const [clone .cold]
PUBLIC 21d52 0 google::protobuf::MessageLite::SerializePartialToOstream(std::ostream*) const [clone .cold]
PUBLIC 21d62 0 google::protobuf::internal::VerifyUTF8(google::protobuf::StringPiece, char const*) [clone .cold]
PUBLIC 21d7a 0 google::protobuf::internal::WireFormatLite::SkipField(google::protobuf::io::CodedInputStream*, unsigned int, google::protobuf::io::CodedOutputStream*) [clone .cold]
PUBLIC 21d90 0 google::protobuf::internal::WireFormatLite::WriteString(int, std::__cxx11::basic_string<char, std::char_traits<char>, std::allocator<char> > const&, google::protobuf::io::CodedOutputStream*) [clone .cold]
PUBLIC 21da0 0 google::protobuf::internal::WireFormatLite::WriteStringMaybeAliased(int, std::__cxx11::basic_string<char, std::char_traits<char>, std::allocator<char> > const&, google::protobuf::io::CodedOutputStream*) [clone .cold]
PUBLIC 21db0 0 google::protobuf::internal::WireFormatLite::WriteBytes(int, std::__cxx11::basic_string<char, std::char_traits<char>, std::allocator<char> > const&, google::protobuf::io::CodedOutputStream*) [clone .cold]
PUBLIC 21dc0 0 google::protobuf::internal::WireFormatLite::WriteBytesMaybeAliased(int, std::__cxx11::basic_string<char, std::char_traits<char>, std::allocator<char> > const&, google::protobuf::io::CodedOutputStream*) [clone .cold]
PUBLIC 21dd0 0 google::protobuf::internal::PrintUTF8ErrorLog(char const*, char const*, bool) [clone .cold]
PUBLIC 21dfe 0 google::protobuf::io::CodedInputStream::PrintTotalBytesLimitError() [clone .cold]
PUBLIC 21e0e 0 google::protobuf::io::CodedInputStream::Refresh() [clone .cold]
PUBLIC 21e1e 0 google::protobuf::io::ConcatenatingInputStream::BackUp(int) [clone .cold]
PUBLIC 21e2e 0 google::protobuf::io::FileInputStream::CopyingFileInputStream::Read(void*, int) [clone .cold]
PUBLIC 21e3e 0 google::protobuf::io::FileInputStream::CopyingFileInputStream::Skip(int) [clone .cold]
PUBLIC 21e4e 0 google::protobuf::io::FileOutputStream::CopyingFileOutputStream::Write(void const*, int) [clone .cold]
PUBLIC 21e5e 0 google::protobuf::io::FileInputStream::CopyingFileInputStream::Close() [clone .cold]
PUBLIC 21e6e 0 google::protobuf::io::FileInputStream::FileInputStream(int, int) [clone .cold]
PUBLIC 21e7e 0 google::protobuf::io::FileOutputStream::CopyingFileOutputStream::Close() [clone .cold]
PUBLIC 21e8e 0 google::protobuf::io::FileOutputStream::FileOutputStream(int, int) [clone .cold]
PUBLIC 21e9e 0 google::protobuf::io::IstreamInputStream::IstreamInputStream(std::istream*, int) [clone .cold]
PUBLIC 21eae 0 google::protobuf::io::OstreamOutputStream::OstreamOutputStream(std::ostream*, int) [clone .cold]
PUBLIC 21ebe 0 google::protobuf::io::ArrayInputStream::BackUp(int) [clone .cold]
PUBLIC 21eee 0 google::protobuf::io::ArrayInputStream::Skip(int) [clone .cold]
PUBLIC 21efe 0 google::protobuf::io::ArrayOutputStream::BackUp(int) [clone .cold]
PUBLIC 21f2e 0 google::protobuf::io::StringOutputStream::ByteCount() const [clone .cold]
PUBLIC 21f3e 0 google::protobuf::io::CopyingOutputStreamAdaptor::BackUp(int) [clone .cold]
PUBLIC 21f6e 0 google::protobuf::io::CopyingInputStreamAdaptor::BackUp(int) [clone .cold]
PUBLIC 21f9e 0 google::protobuf::io::StringOutputStream::BackUp(int) [clone .cold]
PUBLIC 21fce 0 google::protobuf::io::StringOutputStream::Next(void**, int*) [clone .cold]
PUBLIC 21fee 0 google::protobuf::io::CopyingInputStreamAdaptor::Skip(int) [clone .cold]
PUBLIC 21ffe 0 google::protobuf::io::CopyingInputStreamAdaptor::FreeBuffer() [clone .cold]
PUBLIC 2200e 0 google::protobuf::(anonymous namespace)::FieldValuePrinterWrapper::PrintMessageEnd(google::protobuf::Message const&, int, int, bool, google::protobuf::TextFormat::BaseTextGenerator*) const [clone .cold]
PUBLIC 2202a 0 google::protobuf::(anonymous namespace)::FieldValuePrinterWrapper::PrintMessageStart(google::protobuf::Message const&, int, int, bool, google::protobuf::TextFormat::BaseTextGenerator*) const [clone .cold]
PUBLIC 22046 0 google::protobuf::(anonymous namespace)::FieldValuePrinterWrapper::PrintFieldName(google::protobuf::Message const&, google::protobuf::Reflection const*, google::protobuf::FieldDescriptor const*, google::protobuf::TextFormat::BaseTextGenerator*) const [clone .cold]
PUBLIC 22062 0 google::protobuf::(anonymous namespace)::FieldValuePrinterWrapper::PrintFieldName(google::protobuf::Message const&, int, int, google::protobuf::Reflection const*, google::protobuf::FieldDescriptor const*, google::protobuf::TextFormat::BaseTextGenerator*) const [clone .cold]
PUBLIC 2207e 0 google::protobuf::(anonymous namespace)::FieldValuePrinterWrapper::PrintEnum(int, std::__cxx11::basic_string<char, std::char_traits<char>, std::allocator<char> > const&, google::protobuf::TextFormat::BaseTextGenerator*) const [clone .cold]
PUBLIC 2209a 0 google::protobuf::(anonymous namespace)::FieldValuePrinterWrapper::PrintBytes(std::__cxx11::basic_string<char, std::char_traits<char>, std::allocator<char> > const&, google::protobuf::TextFormat::BaseTextGenerator*) const [clone .cold]
PUBLIC 220b6 0 google::protobuf::(anonymous namespace)::FieldValuePrinterWrapper::PrintString(std::__cxx11::basic_string<char, std::char_traits<char>, std::allocator<char> > const&, google::protobuf::TextFormat::BaseTextGenerator*) const [clone .cold]
PUBLIC 220d2 0 google::protobuf::(anonymous namespace)::FieldValuePrinterWrapper::PrintDouble(double, google::protobuf::TextFormat::BaseTextGenerator*) const [clone .cold]
PUBLIC 220ee 0 google::protobuf::(anonymous namespace)::FieldValuePrinterWrapper::PrintFloat(float, google::protobuf::TextFormat::BaseTextGenerator*) const [clone .cold]
PUBLIC 2210a 0 google::protobuf::(anonymous namespace)::FieldValuePrinterWrapper::PrintUInt64(unsigned long, google::protobuf::TextFormat::BaseTextGenerator*) const [clone .cold]
PUBLIC 22126 0 google::protobuf::(anonymous namespace)::FieldValuePrinterWrapper::PrintInt64(long, google::protobuf::TextFormat::BaseTextGenerator*) const [clone .cold]
PUBLIC 22142 0 google::protobuf::(anonymous namespace)::FieldValuePrinterWrapper::PrintUInt32(unsigned int, google::protobuf::TextFormat::BaseTextGenerator*) const [clone .cold]
PUBLIC 2215e 0 google::protobuf::(anonymous namespace)::FieldValuePrinterWrapper::PrintInt32(int, google::protobuf::TextFormat::BaseTextGenerator*) const [clone .cold]
PUBLIC 2217a 0 google::protobuf::(anonymous namespace)::FieldValuePrinterWrapper::PrintBool(bool, google::protobuf::TextFormat::BaseTextGenerator*) const [clone .cold]
PUBLIC 22196 0 google::protobuf::TextFormat::FastFieldValuePrinter::PrintString(std::__cxx11::basic_string<char, std::char_traits<char>, std::allocator<char> > const&, google::protobuf::TextFormat::BaseTextGenerator*) const [clone .cold]
PUBLIC 221b2 0 google::protobuf::(anonymous namespace)::FastFieldValuePrinterUtf8Escaping::PrintString(std::__cxx11::basic_string<char, std::char_traits<char>, std::allocator<char> > const&, google::protobuf::TextFormat::BaseTextGenerator*) const [clone .cold]
PUBLIC 221cd 0 google::protobuf::CheckFieldIndex(google::protobuf::FieldDescriptor const*, int) [clone .cold]
PUBLIC 221ed 0 google::protobuf::(anonymous namespace)::CheckParseInputSize(google::protobuf::StringPiece, google::protobuf::io::ErrorCollector*) [clone .isra.0] [clone .cold]
PUBLIC 2220a 0 google::protobuf::TextFormat::Printer::SetDefaultFieldValuePrinter(google::protobuf::TextFormat::FieldValuePrinter const*) [clone .cold]
PUBLIC 22220 0 google::protobuf::TextFormat::Printer::SetUseUtf8StringEscaping(bool) [clone .cold]
PUBLIC 2224a 0 google::protobuf::TextFormat::Printer::Printer() [clone .cold]
PUBLIC 2227c 0 google::protobuf::TextFormat::Printer::RegisterFieldValuePrinter(google::protobuf::FieldDescriptor const*, google::protobuf::TextFormat::FieldValuePrinter const*) [clone .cold]
PUBLIC 222c2 0 google::protobuf::TextFormat::FastFieldValuePrinter::PrintInt32(int, google::protobuf::TextFormat::BaseTextGenerator*) const [clone .cold]
PUBLIC 222d8 0 google::protobuf::TextFormat::FastFieldValuePrinter::PrintUInt32(unsigned int, google::protobuf::TextFormat::BaseTextGenerator*) const [clone .cold]
PUBLIC 222ee 0 google::protobuf::TextFormat::FastFieldValuePrinter::PrintInt64(long, google::protobuf::TextFormat::BaseTextGenerator*) const [clone .cold]
PUBLIC 22304 0 google::protobuf::TextFormat::FastFieldValuePrinter::PrintUInt64(unsigned long, google::protobuf::TextFormat::BaseTextGenerator*) const [clone .cold]
PUBLIC 2231a 0 google::protobuf::TextFormat::Printer::PrintFieldName(google::protobuf::Message const&, int, int, google::protobuf::Reflection const*, google::protobuf::FieldDescriptor const*, google::protobuf::TextFormat::Printer::TextGenerator*) const [clone .cold]
PUBLIC 22330 0 google::protobuf::TextFormat::Printer::PrintUnknownFields(google::protobuf::UnknownFieldSet const&, google::protobuf::TextFormat::Printer::TextGenerator*, int) const [clone .cold]
PUBLIC 22396 0 google::protobuf::TextFormat::Printer::PrintUnknownFields(google::protobuf::UnknownFieldSet const&, google::protobuf::io::ZeroCopyOutputStream*) const [clone .cold]
PUBLIC 223a6 0 google::protobuf::TextFormat::PrintUnknownFields(google::protobuf::UnknownFieldSet const&, google::protobuf::io::ZeroCopyOutputStream*) [clone .cold]
PUBLIC 223b6 0 google::protobuf::TextFormat::PrintUnknownFieldsToString(google::protobuf::UnknownFieldSet const&, std::__cxx11::basic_string<char, std::char_traits<char>, std::allocator<char> >*) [clone .cold]
PUBLIC 223c6 0 google::protobuf::TextFormat::FastFieldValuePrinter::PrintFloat(float, google::protobuf::TextFormat::BaseTextGenerator*) const [clone .cold]
PUBLIC 223dc 0 google::protobuf::TextFormat::FastFieldValuePrinter::PrintDouble(double, google::protobuf::TextFormat::BaseTextGenerator*) const [clone .cold]
PUBLIC 223f2 0 google::protobuf::TextFormat::FieldValuePrinter::PrintBool[abi:cxx11](bool) const [clone .cold]
PUBLIC 22402 0 google::protobuf::TextFormat::FieldValuePrinter::PrintInt32[abi:cxx11](int) const [clone .cold]
PUBLIC 22412 0 google::protobuf::TextFormat::FieldValuePrinter::PrintUInt32[abi:cxx11](unsigned int) const [clone .cold]
PUBLIC 22422 0 google::protobuf::TextFormat::FieldValuePrinter::PrintInt64[abi:cxx11](long) const [clone .cold]
PUBLIC 22432 0 google::protobuf::TextFormat::FieldValuePrinter::PrintUInt64[abi:cxx11](unsigned long) const [clone .cold]
PUBLIC 22442 0 google::protobuf::TextFormat::FieldValuePrinter::PrintFloat[abi:cxx11](float) const [clone .cold]
PUBLIC 22452 0 google::protobuf::TextFormat::FieldValuePrinter::PrintDouble[abi:cxx11](double) const [clone .cold]
PUBLIC 22462 0 google::protobuf::TextFormat::FieldValuePrinter::PrintString(std::__cxx11::basic_string<char, std::char_traits<char>, std::allocator<char> > const&) const [clone .cold]
PUBLIC 22472 0 google::protobuf::TextFormat::FieldValuePrinter::PrintEnum(int, std::__cxx11::basic_string<char, std::char_traits<char>, std::allocator<char> > const&) const [clone .cold]
PUBLIC 22482 0 google::protobuf::TextFormat::FieldValuePrinter::PrintFieldName[abi:cxx11](google::protobuf::Message const&, google::protobuf::Reflection const*, google::protobuf::FieldDescriptor const*) const [clone .cold]
PUBLIC 22492 0 google::protobuf::TextFormat::FieldValuePrinter::PrintMessageStart[abi:cxx11](google::protobuf::Message const&, int, int, bool) const [clone .cold]
PUBLIC 224a2 0 google::protobuf::TextFormat::FieldValuePrinter::PrintMessageEnd[abi:cxx11](google::protobuf::Message const&, int, int, bool) const [clone .cold]
PUBLIC 224b2 0 google::protobuf::internal::MapFieldPrinterHelper::CopyKey(google::protobuf::MapKey const&, google::protobuf::Message*, google::protobuf::FieldDescriptor const*) [clone .cold]
PUBLIC 2259a 0 google::protobuf::internal::MapFieldPrinterHelper::CopyValue(google::protobuf::MapValueRef const&, google::protobuf::Message*, google::protobuf::FieldDescriptor const*) [clone .cold]
PUBLIC 226f6 0 google::protobuf::internal::MapFieldPrinterHelper::SortMap(google::protobuf::Message const&, google::protobuf::Reflection const*, google::protobuf::FieldDescriptor const*, google::protobuf::MessageFactory*, std::vector<google::protobuf::Message const*, std::allocator<google::protobuf::Message const*> >*) [clone .cold]
PUBLIC 22724 0 google::protobuf::TextFormat::Parser::MergeUsingImpl(google::protobuf::io::ZeroCopyInputStream*, google::protobuf::Message*, google::protobuf::TextFormat::Parser::ParserImpl*) [clone .cold]
PUBLIC 22794 0 google::protobuf::TextFormat::Parser::Parse(google::protobuf::io::ZeroCopyInputStream*, google::protobuf::Message*) [clone .cold]
PUBLIC 227e4 0 google::protobuf::TextFormat::ParseFromString(std::__cxx11::basic_string<char, std::char_traits<char>, std::allocator<char> > const&, google::protobuf::Message*) [clone .cold]
PUBLIC 227f4 0 google::protobuf::TextFormat::Parse(google::protobuf::io::ZeroCopyInputStream*, google::protobuf::Message*) [clone .cold]
PUBLIC 22804 0 google::protobuf::TextFormat::Parser::Merge(google::protobuf::io::ZeroCopyInputStream*, google::protobuf::Message*) [clone .cold]
PUBLIC 22854 0 google::protobuf::TextFormat::MergeFromString(std::__cxx11::basic_string<char, std::char_traits<char>, std::allocator<char> > const&, google::protobuf::Message*) [clone .cold]
PUBLIC 22864 0 google::protobuf::TextFormat::Merge(google::protobuf::io::ZeroCopyInputStream*, google::protobuf::Message*) [clone .cold]
PUBLIC 22874 0 google::protobuf::TextFormat::Parser::ParseFieldValueFromString(std::__cxx11::basic_string<char, std::char_traits<char>, std::allocator<char> > const&, google::protobuf::FieldDescriptor const*, google::protobuf::Message*) [clone .cold]
PUBLIC 228c4 0 google::protobuf::TextFormat::ParseFieldValueFromString(std::__cxx11::basic_string<char, std::char_traits<char>, std::allocator<char> > const&, google::protobuf::FieldDescriptor const*, google::protobuf::Message*) [clone .cold]
PUBLIC 228d4 0 google::protobuf::TextFormat::Printer::PrintField(google::protobuf::Message const&, google::protobuf::Reflection const*, google::protobuf::FieldDescriptor const*, google::protobuf::TextFormat::Printer::TextGenerator*) const [clone .cold]
PUBLIC 22906 0 google::protobuf::TextFormat::Printer::Print(google::protobuf::Message const&, google::protobuf::TextFormat::Printer::TextGenerator*) const [clone .cold]
PUBLIC 22942 0 google::protobuf::TextFormat::Printer::PrintAny(google::protobuf::Message const&, google::protobuf::TextFormat::Printer::TextGenerator*) const [clone .cold]
PUBLIC 229dc 0 google::protobuf::TextFormat::Printer::Print(google::protobuf::Message const&, google::protobuf::io::ZeroCopyOutputStream*) const [clone .cold]
PUBLIC 229ec 0 google::protobuf::Message::DebugString[abi:cxx11]() const [clone .cold]
PUBLIC 22a0a 0 google::protobuf::Message::PrintDebugString() const [clone .cold]
PUBLIC 22a26 0 google::protobuf::Message::ShortDebugString[abi:cxx11]() const [clone .cold]
PUBLIC 22a44 0 google::protobuf::Message::Utf8DebugString[abi:cxx11]() const [clone .cold]
PUBLIC 22a62 0 google::protobuf::TextFormat::PrintToString(google::protobuf::Message const&, std::__cxx11::basic_string<char, std::char_traits<char>, std::allocator<char> >*) [clone .cold]
PUBLIC 22a72 0 google::protobuf::TextFormat::Print(google::protobuf::Message const&, google::protobuf::io::ZeroCopyOutputStream*) [clone .cold]
PUBLIC 22a82 0 google::protobuf::TextFormat::Printer::PrintFieldValue(google::protobuf::Message const&, google::protobuf::Reflection const*, google::protobuf::FieldDescriptor const*, int, google::protobuf::TextFormat::Printer::TextGenerator*) const [clone .cold]
PUBLIC 22ad4 0 google::protobuf::TextFormat::Printer::PrintFieldValueToString(google::protobuf::Message const&, google::protobuf::FieldDescriptor const*, int, std::__cxx11::basic_string<char, std::char_traits<char>, std::allocator<char> >*) const [clone .cold]
PUBLIC 22ae4 0 google::protobuf::TextFormat::PrintFieldValueToString(google::protobuf::Message const&, google::protobuf::FieldDescriptor const*, int, std::__cxx11::basic_string<char, std::char_traits<char>, std::allocator<char> >*) [clone .cold]
PUBLIC 22af4 0 google::protobuf::UnknownFieldSet::default_instance() [clone .cold]
PUBLIC 22b08 0 google::protobuf::UnknownField::DeepCopy(google::protobuf::UnknownField const&) [clone .cold]
PUBLIC 22b1e 0 google::protobuf::UnknownFieldSet::MergeFromCodedStream(google::protobuf::io::CodedInputStream*) [clone .cold]
PUBLIC 22b48 0 google::protobuf::UnknownFieldSet::ParseFromZeroCopyStream(google::protobuf::io::ZeroCopyInputStream*) [clone .cold]
PUBLIC 22b58 0 google::protobuf::internal::WireFormat::ParseAndMergeMessageSetField(unsigned int, google::protobuf::FieldDescriptor const*, google::protobuf::Message*, google::protobuf::io::CodedInputStream*) [clone .cold]
PUBLIC 22b68 0 google::protobuf::internal::WireFormat::ParseAndMergeMessageSetItem(google::protobuf::io::CodedInputStream*, google::protobuf::Message*) [clone .cold]
PUBLIC 22b87 0 google::protobuf::internal::MapKeyDataOnlyByteSize(google::protobuf::FieldDescriptor const*, google::protobuf::MapKey const&) [clone .cold]
PUBLIC 22ba7 0 google::protobuf::internal::MapValueRefDataOnlyByteSize(google::protobuf::FieldDescriptor const*, google::protobuf::MapValueRef const&) [clone .cold]
PUBLIC 22bc7 0 google::protobuf::internal::InternalSerializeMapEntry(google::protobuf::FieldDescriptor const*, google::protobuf::MapKey const&, google::protobuf::MapValueRef const&, unsigned char*, google::protobuf::io::EpsCopyOutputStream*) [clone .cold]
PUBLIC 22c08 0 google::protobuf::internal::WireFormat::FieldDataOnlyByteSize(google::protobuf::FieldDescriptor const*, google::protobuf::Message const&) [clone .cold]
PUBLIC 22c3c 0 google::protobuf::internal::WireFormat::ByteSize(google::protobuf::Message const&) [clone .cold]
PUBLIC 22c54 0 google::protobuf::internal::WireFormat::ParseAndMergeField(unsigned int, google::protobuf::FieldDescriptor const*, google::protobuf::Message*, google::protobuf::io::CodedInputStream*) [clone .cold]
PUBLIC 22cca 0 google::protobuf::internal::WireFormat::_InternalParseAndMergeField(google::protobuf::Message*, char const*, google::protobuf::internal::ParseContext*, unsigned long, google::protobuf::Reflection const*, google::protobuf::FieldDescriptor const*) [clone .cold]
PUBLIC 22d16 0 google::protobuf::internal::WireFormat::InternalSerializeField(google::protobuf::FieldDescriptor const*, google::protobuf::Message const&, unsigned char*, google::protobuf::io::EpsCopyOutputStream*) [clone .cold]
PUBLIC 22de6 0 google::protobuf::internal::WireFormat::_InternalSerialize(google::protobuf::Message const&, unsigned char*, google::protobuf::io::EpsCopyOutputStream*) [clone .cold]
PUBLIC 22dfe 0 google::protobuf::io::Tokenizer::Tokenizer(google::protobuf::io::ZeroCopyInputStream*, google::protobuf::io::ErrorCollector*) [clone .cold]
PUBLIC 22e22 0 google::protobuf::io::Tokenizer::ParseFloat(std::__cxx11::basic_string<char, std::char_traits<char>, std::allocator<char> > const&) [clone .cold]
PUBLIC 22e46 0 google::protobuf::io::Tokenizer::ParseStringAppend(std::__cxx11::basic_string<char, std::char_traits<char>, std::allocator<char> > const&, std::__cxx11::basic_string<char, std::char_traits<char>, std::allocator<char> >*) [clone .cold]
PUBLIC 22e6a 0 google::protobuf::io::Tokenizer::ConsumeBlockComment(std::__cxx11::basic_string<char, std::char_traits<char>, std::allocator<char> >*) [clone .cold]
PUBLIC 22e82 0 google::protobuf::io::Tokenizer::ConsumeNumber(bool, bool) [clone .cold]
PUBLIC 22f06 0 google::protobuf::io::Tokenizer::ConsumeString(char) [clone .cold]
PUBLIC 22f8a 0 google::protobuf::io::Tokenizer::Next() [clone .cold]
PUBLIC 22fb0 0 google::protobuf::io::Tokenizer::NextWithComments(std::__cxx11::basic_string<char, std::char_traits<char>, std::allocator<char> >*, std::vector<std::__cxx11::basic_string<char, std::char_traits<char>, std::allocator<char> >, std::allocator<std::__cxx11::basic_string<char, std::char_traits<char>, std::allocator<char> > > >*, std::__cxx11::basic_string<char, std::char_traits<char>, std::allocator<char> >*) [clone .cold]
PUBLIC 22ff1 0 google::protobuf::util::ParseDelimitedFromZeroCopyStream(google::protobuf::MessageLite*, google::protobuf::io::ZeroCopyInputStream*, bool*) [clone .cold]
PUBLIC 23001 0 google::protobuf::util::SerializeDelimitedToZeroCopyStream(google::protobuf::MessageLite const&, google::protobuf::io::ZeroCopyOutputStream*) [clone .cold]
PUBLIC 23011 0 google::protobuf::util::SerializeDelimitedToFileDescriptor(google::protobuf::MessageLite const&, int) [clone .cold]
PUBLIC 23021 0 google::protobuf::util::SerializeDelimitedToOstream(google::protobuf::MessageLite const&, std::ostream*) [clone .cold]
PUBLIC 23031 0 google::protobuf::StringPrintf[abi:cxx11](char const*, ...) [clone .cold]
PUBLIC 23047 0 google::protobuf::StringPrintfVector(char const*, std::vector<std::__cxx11::basic_string<char, std::char_traits<char>, std::allocator<char> >, std::allocator<std::__cxx11::basic_string<char, std::char_traits<char>, std::allocator<char> > > > const&) [clone .cold]
PUBLIC 23057 0 google::protobuf::StringReplace(std::__cxx11::basic_string<char, std::char_traits<char>, std::allocator<char> > const&, std::__cxx11::basic_string<char, std::char_traits<char>, std::allocator<char> > const&, std::__cxx11::basic_string<char, std::char_traits<char>, std::allocator<char> > const&, bool) [clone .cold]
PUBLIC 2306d 0 google::protobuf::JoinStrings(std::vector<std::__cxx11::basic_string<char, std::char_traits<char>, std::allocator<char> >, std::allocator<std::__cxx11::basic_string<char, std::char_traits<char>, std::allocator<char> > > > const&, char const*, std::__cxx11::basic_string<char, std::char_traits<char>, std::allocator<char> >*) [clone .cold]
PUBLIC 2307d 0 google::protobuf::UnescapeCEscapeString(std::__cxx11::basic_string<char, std::char_traits<char>, std::allocator<char> > const&, std::__cxx11::basic_string<char, std::char_traits<char>, std::allocator<char> >*, std::vector<std::__cxx11::basic_string<char, std::char_traits<char>, std::allocator<char> >, std::allocator<std::__cxx11::basic_string<char, std::char_traits<char>, std::allocator<char> > > >*) [clone .cold]
PUBLIC 23095 0 google::protobuf::CEscape(std::__cxx11::basic_string<char, std::char_traits<char>, std::allocator<char> > const&) [clone .cold]
PUBLIC 230ab 0 google::protobuf::FastHexToBuffer(int, char*) [clone .cold]
PUBLIC 230bb 0 google::protobuf::safe_strtob(google::protobuf::StringPiece, bool*) [clone .cold]
PUBLIC 230cb 0 google::protobuf::StrCat[abi:cxx11](google::protobuf::strings::AlphaNum const&, google::protobuf::strings::AlphaNum const&) [clone .cold]
PUBLIC 230e1 0 google::protobuf::StrCat[abi:cxx11](google::protobuf::strings::AlphaNum const&, google::protobuf::strings::AlphaNum const&, google::protobuf::strings::AlphaNum const&) [clone .cold]
PUBLIC 230f7 0 google::protobuf::StrCat[abi:cxx11](google::protobuf::strings::AlphaNum const&, google::protobuf::strings::AlphaNum const&, google::protobuf::strings::AlphaNum const&, google::protobuf::strings::AlphaNum const&) [clone .cold]
PUBLIC 2310d 0 google::protobuf::StrCat[abi:cxx11](google::protobuf::strings::AlphaNum const&, google::protobuf::strings::AlphaNum const&, google::protobuf::strings::AlphaNum const&, google::protobuf::strings::AlphaNum const&, google::protobuf::strings::AlphaNum const&) [clone .cold]
PUBLIC 23125 0 google::protobuf::StrCat[abi:cxx11](google::protobuf::strings::AlphaNum const&, google::protobuf::strings::AlphaNum const&, google::protobuf::strings::AlphaNum const&, google::protobuf::strings::AlphaNum const&, google::protobuf::strings::AlphaNum const&, google::protobuf::strings::AlphaNum const&) [clone .cold]
PUBLIC 2313d 0 google::protobuf::StrCat[abi:cxx11](google::protobuf::strings::AlphaNum const&, google::protobuf::strings::AlphaNum const&, google::protobuf::strings::AlphaNum const&, google::protobuf::strings::AlphaNum const&, google::protobuf::strings::AlphaNum const&, google::protobuf::strings::AlphaNum const&, google::protobuf::strings::AlphaNum const&) [clone .cold]
PUBLIC 23155 0 google::protobuf::StrCat[abi:cxx11](google::protobuf::strings::AlphaNum const&, google::protobuf::strings::AlphaNum const&, google::protobuf::strings::AlphaNum const&, google::protobuf::strings::AlphaNum const&, google::protobuf::strings::AlphaNum const&, google::protobuf::strings::AlphaNum const&, google::protobuf::strings::AlphaNum const&, google::protobuf::strings::AlphaNum const&) [clone .cold]
PUBLIC 2316d 0 google::protobuf::StrCat[abi:cxx11](google::protobuf::strings::AlphaNum const&, google::protobuf::strings::AlphaNum const&, google::protobuf::strings::AlphaNum const&, google::protobuf::strings::AlphaNum const&, google::protobuf::strings::AlphaNum const&, google::protobuf::strings::AlphaNum const&, google::protobuf::strings::AlphaNum const&, google::protobuf::strings::AlphaNum const&, google::protobuf::strings::AlphaNum const&) [clone .cold]
PUBLIC 23185 0 google::protobuf::GlobalReplaceSubstring(std::__cxx11::basic_string<char, std::char_traits<char>, std::allocator<char> > const&, std::__cxx11::basic_string<char, std::char_traits<char>, std::allocator<char> > const&, std::__cxx11::basic_string<char, std::char_traits<char>, std::allocator<char> >*) [clone .cold]
PUBLIC 231ae 0 google::protobuf::Base64EscapeInternal(unsigned char const*, int, char*, int, char const*, bool) [clone .cold]
PUBLIC 231be 0 google::protobuf::internal::NoLocaleStrtod(char const*, char**) [clone .cold]
PUBLIC 23206 0 google::protobuf::UnescapeCEscapeString(std::__cxx11::basic_string<char, std::char_traits<char>, std::allocator<char> > const&) [clone .cold]
PUBLIC 23216 0 google::protobuf::strings::Utf8SafeCEscape(std::__cxx11::basic_string<char, std::char_traits<char>, std::allocator<char> > const&) [clone .cold]
PUBLIC 23226 0 google::protobuf::strings::CHexEscape(std::__cxx11::basic_string<char, std::char_traits<char>, std::allocator<char> > const&) [clone .cold]
PUBLIC 23236 0 google::protobuf::safe_strto32(std::__cxx11::basic_string<char, std::char_traits<char>, std::allocator<char> > const&, int*) [clone .cold]
PUBLIC 2324c 0 google::protobuf::safe_strtou32(std::__cxx11::basic_string<char, std::char_traits<char>, std::allocator<char> > const&, unsigned int*) [clone .cold]
PUBLIC 23262 0 google::protobuf::safe_strto64(std::__cxx11::basic_string<char, std::char_traits<char>, std::allocator<char> > const&, long*) [clone .cold]
PUBLIC 23278 0 google::protobuf::safe_strtou64(std::__cxx11::basic_string<char, std::char_traits<char>, std::allocator<char> > const&, unsigned long*) [clone .cold]
PUBLIC 2328e 0 google::protobuf::CleanStringLineEndings(std::__cxx11::basic_string<char, std::char_traits<char>, std::allocator<char> > const&, std::__cxx11::basic_string<char, std::char_traits<char>, std::allocator<char> >*, bool) [clone .cold]
PUBLIC 232a4 0 google::protobuf::SplitStringUsing(std::__cxx11::basic_string<char, std::char_traits<char>, std::allocator<char> > const&, char const*, std::vector<std::__cxx11::basic_string<char, std::char_traits<char>, std::allocator<char> >, std::allocator<std::__cxx11::basic_string<char, std::char_traits<char>, std::allocator<char> > > >*) [clone .cold]
PUBLIC 232bb 0 google::protobuf::SplitStringAllowEmpty(std::__cxx11::basic_string<char, std::char_traits<char>, std::allocator<char> > const&, char const*, std::vector<std::__cxx11::basic_string<char, std::char_traits<char>, std::allocator<char> >, std::allocator<std::__cxx11::basic_string<char, std::char_traits<char>, std::allocator<char> > > >*) [clone .cold]
PUBLIC 232d2 0 google::protobuf::internal::ArenaStringPtr::CreateInstanceNoArena(std::__cxx11::basic_string<char, std::char_traits<char>, std::allocator<char> > const*) [clone .isra.0] [clone .constprop.0] [clone .cold]
PUBLIC 232e8 0 google::protobuf::internal::AnyMetadata::InternalPackFrom(google::protobuf::MessageLite const&, google::protobuf::StringPiece, google::protobuf::StringPiece) [clone .cold]
PUBLIC 23304 0 google::protobuf::internal::AnyMetadata::InternalIs(google::protobuf::StringPiece) const [clone .cold]
PUBLIC 2332a 0 google::protobuf::internal::ExtensionSet::FindExtensionInfoFromFieldNumber(int, int, google::protobuf::internal::ExtensionFinder*, google::protobuf::internal::ExtensionInfo*, bool*) [clone .cold]
PUBLIC 2333a 0 google::protobuf::internal::ExtensionSet::Extension::ByteSize(int) const [clone .cold]
PUBLIC 2334a 0 google::protobuf::internal::ExtensionSet::Extension::GetSize() const [clone .cold]
PUBLIC 2335a 0 google::protobuf::internal::ExtensionSet::ExtensionType(int) const [clone .cold]
PUBLIC 2337a 0 google::protobuf::internal::ExtensionSet::GetRepeatedInt32(int, int) const [clone .cold]
PUBLIC 2338a 0 google::protobuf::internal::ExtensionSet::GetRepeatedInt64(int, int) const [clone .cold]
PUBLIC 2339a 0 google::protobuf::internal::ExtensionSet::GetRepeatedUInt32(int, int) const [clone .cold]
PUBLIC 233aa 0 google::protobuf::internal::ExtensionSet::GetRepeatedUInt64(int, int) const [clone .cold]
PUBLIC 233ba 0 google::protobuf::internal::ExtensionSet::GetRepeatedFloat(int, int) const [clone .cold]
PUBLIC 233ca 0 google::protobuf::internal::ExtensionSet::GetRepeatedDouble(int, int) const [clone .cold]
PUBLIC 233da 0 google::protobuf::internal::ExtensionSet::GetRepeatedBool(int, int) const [clone .cold]
PUBLIC 233ea 0 google::protobuf::internal::ExtensionSet::GetRepeatedEnum(int, int) const [clone .cold]
PUBLIC 233fa 0 google::protobuf::internal::ExtensionSet::GetRepeatedString[abi:cxx11](int, int) const [clone .cold]
PUBLIC 2340a 0 google::protobuf::internal::ExtensionSet::GetRepeatedMessage(int, int) const [clone .cold]
PUBLIC 2341a 0 google::protobuf::internal::ExtensionSet::SetRepeatedInt32(int, int, int) [clone .cold]
PUBLIC 2342a 0 google::protobuf::internal::ExtensionSet::SetRepeatedInt64(int, int, long) [clone .cold]
PUBLIC 2343a 0 google::protobuf::internal::ExtensionSet::SetRepeatedUInt32(int, int, unsigned int) [clone .cold]
PUBLIC 2344a 0 google::protobuf::internal::ExtensionSet::SetRepeatedUInt64(int, int, unsigned long) [clone .cold]
PUBLIC 2345a 0 google::protobuf::internal::ExtensionSet::SetRepeatedFloat(int, int, float) [clone .cold]
PUBLIC 2346a 0 google::protobuf::internal::ExtensionSet::SetRepeatedDouble(int, int, double) [clone .cold]
PUBLIC 2347a 0 google::protobuf::internal::ExtensionSet::SetRepeatedBool(int, int, bool) [clone .cold]
PUBLIC 2348a 0 google::protobuf::internal::ExtensionSet::MutableRawRepeatedField(int) [clone .cold]
PUBLIC 2349a 0 google::protobuf::internal::ExtensionSet::SetRepeatedEnum(int, int, int) [clone .cold]
PUBLIC 234aa 0 google::protobuf::internal::ExtensionSet::MutableRepeatedString[abi:cxx11](int, int) [clone .cold]
PUBLIC 234ba 0 google::protobuf::internal::ExtensionSet::MutableRepeatedMessage(int, int) [clone .cold]
PUBLIC 234ca 0 google::protobuf::internal::ExtensionSet::RemoveLast(int) [clone .cold]
PUBLIC 234da 0 google::protobuf::internal::ExtensionSet::ReleaseLast(int) [clone .cold]
PUBLIC 234ea 0 google::protobuf::internal::ExtensionSet::SwapElements(int, int, int) [clone .cold]
PUBLIC 234fa 0 google::protobuf::internal::RepeatedPrimitiveDefaults::default_instance() [clone .cold]
PUBLIC 2350e 0 google::protobuf::internal::RepeatedStringTypeTraits::GetDefaultRepeatedField[abi:cxx11]() [clone .cold]
PUBLIC 23532 0 google::protobuf::internal::ExtensionSet::Extension::InternalSerializeFieldWithCachedSizesToArray(int, unsigned char*, google::protobuf::io::EpsCopyOutputStream*) const [clone .cold]
PUBLIC 23542 0 google::protobuf::internal::ExtensionSet::Extension::InternalSerializeMessageSetItemWithCachedSizesToArray(int, unsigned char*, google::protobuf::io::EpsCopyOutputStream*) const [clone .cold]
PUBLIC 23552 0 google::protobuf::internal::(anonymous namespace)::Register(google::protobuf::MessageLite const*, int, google::protobuf::internal::ExtensionInfo) [clone .constprop.0] [clone .cold]
PUBLIC 235c0 0 google::protobuf::internal::ExtensionSet::RegisterMessageExtension(google::protobuf::MessageLite const*, int, unsigned char, bool, bool, google::protobuf::MessageLite const*) [clone .cold]
PUBLIC 235d0 0 google::protobuf::internal::ExtensionSet::RegisterEnumExtension(google::protobuf::MessageLite const*, int, unsigned char, bool, bool, bool (*)(int)) [clone .cold]
PUBLIC 235e0 0 google::protobuf::internal::ExtensionSet::RegisterExtension(google::protobuf::MessageLite const*, int, unsigned char, bool, bool) [clone .cold]
PUBLIC 23610 0 google::protobuf::internal::ExtensionSet::MutableRawRepeatedField(int, unsigned char, bool, google::protobuf::FieldDescriptor const*) [clone .cold]
PUBLIC 23626 0 google::protobuf::internal::ExtensionSet::AddString[abi:cxx11](int, unsigned char, google::protobuf::FieldDescriptor const*) [clone .cold]
PUBLIC 2363c 0 google::protobuf::internal::ExtensionSet::ParseField(unsigned long, char const*, google::protobuf::MessageLite const*, google::protobuf::internal::InternalMetadata*, google::protobuf::internal::ParseContext*) [clone .cold]
PUBLIC 2365c 0 google::protobuf::internal::ExtensionSet::ParseFieldWithExtensionInfo(int, bool, google::protobuf::internal::ExtensionInfo const&, google::protobuf::io::CodedInputStream*, google::protobuf::internal::FieldSkipper*) [clone .cold]
PUBLIC 2366c 0 google::protobuf::internal::ExtensionSet::ParseField(unsigned int, google::protobuf::io::CodedInputStream*, google::protobuf::MessageLite const*) [clone .cold]
PUBLIC 23686 0 google::protobuf::internal::ExtensionSet::ParseField(unsigned int, google::protobuf::io::CodedInputStream*, google::protobuf::MessageLite const*, google::protobuf::io::CodedOutputStream*) [clone .cold]
PUBLIC 236a0 0 google::protobuf::internal::ExtensionSet::ParseMessageSetItemLite(google::protobuf::io::CodedInputStream*, google::protobuf::internal::ExtensionFinder*, google::protobuf::internal::FieldSkipper*) [clone .cold]
PUBLIC 236c0 0 google::protobuf::internal::ExtensionSet::ParseMessageSet(google::protobuf::io::CodedInputStream*, google::protobuf::MessageLite const*, std::__cxx11::basic_string<char, std::char_traits<char>, std::allocator<char> >*) [clone .cold]
PUBLIC 236e2 0 google::protobuf::internal::ExtensionSet::InternalExtensionMergeFrom(int, google::protobuf::internal::ExtensionSet::Extension const&) [clone .cold]
PUBLIC 2370e 0 google::protobuf::internal::ExtensionSet::SwapExtension(google::protobuf::internal::ExtensionSet*, int) [clone .cold]
PUBLIC 2371e 0 google::protobuf::internal::ExtensionSet::Swap(google::protobuf::internal::ExtensionSet*) [clone .cold]
PUBLIC 2372e 0 google::protobuf::io::ZeroCopyOutputStream::WriteAliasedRaw(void const*, int) [clone .cold]
PUBLIC 2373e 0 google::protobuf::internal::ArenaStringPtr::CreateInstanceNoArena(std::__cxx11::basic_string<char, std::char_traits<char>, std::allocator<char> > const*) [clone .isra.0] [clone .constprop.0] [clone .cold]
PUBLIC 23754 0 google::protobuf::internal::AnyMetadata::PackFrom(google::protobuf::Message const&, std::__cxx11::basic_string<char, std::char_traits<char>, std::allocator<char> > const&) [clone .cold]
PUBLIC 23770 0 google::protobuf::internal::AnyMetadata::PackFrom(google::protobuf::Message const&) [clone .cold]
PUBLIC 23788 0 google::protobuf::(anonymous namespace)::OptionsToInterpret::~OptionsToInterpret()
PUBLIC 237c0 0 google::protobuf::(anonymous namespace)::GeneratedDatabase() [clone .cold]
PUBLIC 237e4 0 std::pair<std::__detail::_Node_iterator<std::pair<std::pair<google::protobuf::EnumDescriptor const*, int> const, google::protobuf::EnumValueDescriptor const*>, false, true>, bool> std::_Hashtable<std::pair<google::protobuf::EnumDescriptor const*, int>, std::pair<std::pair<google::protobuf::EnumDescriptor const*, int> const, google::protobuf::EnumValueDescriptor const*>, std::allocator<std::pair<std::pair<google::protobuf::EnumDescriptor const*, int> const, google::protobuf::EnumValueDescriptor const*> >, std::__detail::_Select1st, std::equal_to<std::pair<google::protobuf::EnumDescriptor const*, int> >, google::protobuf::(anonymous namespace)::PointerIntegerPairHash<std::pair<google::protobuf::EnumDescriptor const*, int> >, std::__detail::_Mod_range_hashing, std::__detail::_Default_ranged_hash, std::__detail::_Prime_rehash_policy, std::__detail::_Hashtable_traits<true, false, true> >::_M_insert<std::pair<std::pair<google::protobuf::EnumDescriptor const*, int> const, google::protobuf::EnumValueDescriptor const*> const&, std::__detail::_AllocNode<std::allocator<std::__detail::_Hash_node<std::pair<std::pair<google::protobuf::EnumDescriptor const*, int> const, google::protobuf::EnumValueDescriptor const*>, true> > > >(std::pair<std::pair<google::protobuf::EnumDescriptor const*, int> const, google::protobuf::EnumValueDescriptor const*> const&, std::__detail::_AllocNode<std::allocator<std::__detail::_Hash_node<std::pair<std::pair<google::protobuf::EnumDescriptor const*, int> const, google::protobuf::EnumValueDescriptor const*>, true> > > const&, std::integral_constant<bool, true>, unsigned long) [clone .isra.0] [clone .constprop.0] [clone .cold]
PUBLIC 23820 0 std::pair<std::__detail::_Node_iterator<std::pair<std::pair<void const*, char const*> const, google::protobuf::FieldDescriptor const*>, false, true>, bool> std::_Hashtable<std::pair<void const*, char const*>, std::pair<std::pair<void const*, char const*> const, google::protobuf::FieldDescriptor const*>, std::allocator<std::pair<std::pair<void const*, char const*> const, google::protobuf::FieldDescriptor const*> >, std::__detail::_Select1st, google::protobuf::(anonymous namespace)::PointerStringPairEqual, google::protobuf::(anonymous namespace)::PointerStringPairHash, std::__detail::_Mod_range_hashing, std::__detail::_Default_ranged_hash, std::__detail::_Prime_rehash_policy, std::__detail::_Hashtable_traits<true, false, true> >::_M_insert<std::pair<std::pair<void const*, char const*> const, google::protobuf::FieldDescriptor const*> const&, std::__detail::_AllocNode<std::allocator<std::__detail::_Hash_node<std::pair<std::pair<void const*, char const*> const, google::protobuf::FieldDescriptor const*>, true> > > >(std::pair<std::pair<void const*, char const*> const, google::protobuf::FieldDescriptor const*> const&, std::__detail::_AllocNode<std::allocator<std::__detail::_Hash_node<std::pair<std::pair<void const*, char const*> const, google::protobuf::FieldDescriptor const*>, true> > > const&, std::integral_constant<bool, true>, unsigned long) [clone .isra.0] [clone .constprop.0] [clone .cold]
PUBLIC 2385c 0 std::_Hashtable<std::pair<void const*, char const*>, std::pair<std::pair<void const*, char const*> const, google::protobuf::FieldDescriptor const*>, std::allocator<std::pair<std::pair<void const*, char const*> const, google::protobuf::FieldDescriptor const*> >, std::__detail::_Select1st, google::protobuf::(anonymous namespace)::PointerStringPairEqual, google::protobuf::(anonymous namespace)::PointerStringPairHash, std::__detail::_Mod_range_hashing, std::__detail::_Default_ranged_hash, std::__detail::_Prime_rehash_policy, std::__detail::_Hashtable_traits<true, false, true> >::_Hashtable(unsigned long, google::protobuf::(anonymous namespace)::PointerStringPairHash const&, std::__detail::_Mod_range_hashing const&, std::__detail::_Default_ranged_hash const&, google::protobuf::(anonymous namespace)::PointerStringPairEqual const&, std::__detail::_Select1st const&, std::allocator<std::pair<std::pair<void const*, char const*> const, google::protobuf::FieldDescriptor const*> > const&) [clone .isra.0] [clone .constprop.0] [clone .cold]
PUBLIC 2386c 0 std::_Hashtable<std::pair<google::protobuf::EnumDescriptor const*, int>, std::pair<std::pair<google::protobuf::EnumDescriptor const*, int> const, google::protobuf::EnumValueDescriptor const*>, std::allocator<std::pair<std::pair<google::protobuf::EnumDescriptor const*, int> const, google::protobuf::EnumValueDescriptor const*> >, std::__detail::_Select1st, std::equal_to<std::pair<google::protobuf::EnumDescriptor const*, int> >, google::protobuf::(anonymous namespace)::PointerIntegerPairHash<std::pair<google::protobuf::EnumDescriptor const*, int> >, std::__detail::_Mod_range_hashing, std::__detail::_Default_ranged_hash, std::__detail::_Prime_rehash_policy, std::__detail::_Hashtable_traits<true, false, true> >::_Hashtable(unsigned long, google::protobuf::(anonymous namespace)::PointerIntegerPairHash<std::pair<google::protobuf::EnumDescriptor const*, int> > const&, std::__detail::_Mod_range_hashing const&, std::__detail::_Default_ranged_hash const&, std::equal_to<std::pair<google::protobuf::EnumDescriptor const*, int> > const&, std::__detail::_Select1st const&, std::allocator<std::pair<std::pair<google::protobuf::EnumDescriptor const*, int> const, google::protobuf::EnumValueDescriptor const*> > const&) [clone .isra.0] [clone .constprop.0] [clone .cold]
PUBLIC 2387c 0 std::default_delete<google::protobuf::UnknownFieldSet>::operator()(google::protobuf::UnknownFieldSet*) const [clone .isra.0] [clone .part.0]
PUBLIC 238aa 0 google::protobuf::(anonymous namespace)::SourceLocationCommentPrinter::~SourceLocationCommentPrinter()
PUBLIC 23926 0 google::protobuf::(anonymous namespace)::ToJsonName(std::__cxx11::basic_string<char, std::char_traits<char>, std::allocator<char> > const&) [clone .cold]
PUBLIC 2393e 0 google::protobuf::(anonymous namespace)::ToCamelCase(std::__cxx11::basic_string<char, std::char_traits<char>, std::allocator<char> > const&, bool) [clone .cold]
PUBLIC 23956 0 google::protobuf::FileDescriptor::SyntaxName(google::protobuf::FileDescriptor::Syntax) [clone .cold]
PUBLIC 23966 0 google::protobuf::FileDescriptorTables::AddAliasUnderParent(void const*, std::__cxx11::basic_string<char, std::char_traits<char>, std::allocator<char> > const&, google::protobuf::Symbol) [clone .cold]
PUBLIC 239a2 0 google::protobuf::FileDescriptorTables::AddFieldByNumber(google::protobuf::FieldDescriptor const*) [clone .cold]
PUBLIC 239e0 0 google::protobuf::DescriptorPool::InternalAddGeneratedFile(void const*, int) [clone .cold]
PUBLIC 239f0 0 google::protobuf::Descriptor::CopyJsonNameTo(google::protobuf::DescriptorProto*) const [clone .cold]
PUBLIC 23a00 0 google::protobuf::FileDescriptor::CopyJsonNameTo(google::protobuf::FileDescriptorProto*) const [clone .cold]
PUBLIC 23a10 0 google::protobuf::DescriptorBuilder::AddError(std::__cxx11::basic_string<char, std::char_traits<char>, std::allocator<char> > const&, google::protobuf::Message const&, google::protobuf::DescriptorPool::ErrorCollector::ErrorLocation, std::__cxx11::basic_string<char, std::char_traits<char>, std::allocator<char> > const&) [clone .cold]
PUBLIC 23a30 0 google::protobuf::DescriptorBuilder::AddWarning(std::__cxx11::basic_string<char, std::char_traits<char>, std::allocator<char> > const&, google::protobuf::Message const&, google::protobuf::DescriptorPool::ErrorCollector::ErrorLocation, std::__cxx11::basic_string<char, std::char_traits<char>, std::allocator<char> > const&) [clone .cold]
PUBLIC 23a40 0 google::protobuf::DescriptorBuilder::OptionInterpreter::SetInt32(int, int, google::protobuf::FieldDescriptor::Type, google::protobuf::UnknownFieldSet*) [clone .cold]
PUBLIC 23a50 0 google::protobuf::DescriptorBuilder::OptionInterpreter::SetInt64(int, long, google::protobuf::FieldDescriptor::Type, google::protobuf::UnknownFieldSet*) [clone .cold]
PUBLIC 23a60 0 google::protobuf::DescriptorBuilder::OptionInterpreter::SetUInt32(int, unsigned int, google::protobuf::FieldDescriptor::Type, google::protobuf::UnknownFieldSet*) [clone .cold]
PUBLIC 23a70 0 google::protobuf::DescriptorBuilder::OptionInterpreter::SetUInt64(int, unsigned long, google::protobuf::FieldDescriptor::Type, google::protobuf::UnknownFieldSet*) [clone .cold]
PUBLIC 23a80 0 google::protobuf::internal::LazyDescriptor::Set(google::protobuf::Descriptor const*) [clone .cold]
PUBLIC 23ab0 0 google::protobuf::(anonymous namespace)::SourceLocationCommentPrinter::AddPreComment(std::__cxx11::basic_string<char, std::char_traits<char>, std::allocator<char> >*) [clone .cold]
PUBLIC 23b82 0 google::protobuf::FileDescriptorTables::FileDescriptorTables() [clone .cold]
PUBLIC 23c1e 0 google::protobuf::DescriptorBuilder::AddNotDefinedError(std::__cxx11::basic_string<char, std::char_traits<char>, std::allocator<char> > const&, google::protobuf::Message const&, google::protobuf::DescriptorPool::ErrorCollector::ErrorLocation, std::__cxx11::basic_string<char, std::char_traits<char>, std::allocator<char> > const&) [clone .cold]
PUBLIC 23d40 0 google::protobuf::DescriptorBuilder::AddTwiceListedError(google::protobuf::FileDescriptorProto const&, int) [clone .cold]
PUBLIC 23d6a 0 google::protobuf::DescriptorBuilder::AddImportError(google::protobuf::FileDescriptorProto const&, int) [clone .cold]
PUBLIC 23daa 0 google::protobuf::DescriptorBuilder::OptionInterpreter::ExamineIfOptionIsSet(__gnu_cxx::__normal_iterator<google::protobuf::FieldDescriptor const* const*, std::vector<google::protobuf::FieldDescriptor const*, std::allocator<google::protobuf::FieldDescriptor const*> > >, __gnu_cxx::__normal_iterator<google::protobuf::FieldDescriptor const* const*, std::vector<google::protobuf::FieldDescriptor const*, std::allocator<google::protobuf::FieldDescriptor const*> > >, google::protobuf::FieldDescriptor const*, std::__cxx11::basic_string<char, std::char_traits<char>, std::allocator<char> > const&, google::protobuf::UnknownFieldSet const&) [clone .cold]
PUBLIC 23e10 0 google::protobuf::DescriptorPool::Tables::AllocateString(std::__cxx11::basic_string<char, std::char_traits<char>, std::allocator<char> > const&) [clone .cold]
PUBLIC 23e26 0 google::protobuf::internal::LazyDescriptor::SetLazy(std::__cxx11::basic_string<char, std::char_traits<char>, std::allocator<char> > const&, google::protobuf::FileDescriptor const*) [clone .cold]
PUBLIC 23e96 0 google::protobuf::DescriptorPool::Tables::AllocateFileTables() [clone .cold]
PUBLIC 23eac 0 google::protobuf::DescriptorPool::NewPlaceholderFileWithMutexHeld(std::__cxx11::basic_string<char, std::char_traits<char>, std::allocator<char> > const&) const [clone .cold]
PUBLIC 23eca 0 google::protobuf::DescriptorPool::NewPlaceholderFile(std::__cxx11::basic_string<char, std::char_traits<char>, std::allocator<char> > const&) const [clone .cold]
PUBLIC 23ee9 0 google::protobuf::(anonymous namespace)::RetrieveOptionsAssumingRightPool(int, google::protobuf::Message const&, std::vector<std::__cxx11::basic_string<char, std::char_traits<char>, std::allocator<char> >, std::allocator<std::__cxx11::basic_string<char, std::char_traits<char>, std::allocator<char> > > >*) [clone .cold]
PUBLIC 23fdc 0 google::protobuf::DescriptorBuilder::LogUnusedDependency(google::protobuf::FileDescriptorProto const&, google::protobuf::FileDescriptor const*) [clone .cold]
PUBLIC 2400c 0 google::protobuf::DescriptorBuilder::DetectMapConflicts(google::protobuf::Descriptor const*, google::protobuf::DescriptorProto const&) [clone .cold]
PUBLIC 240e0 0 google::protobuf::DescriptorBuilder::CheckEnumValueUniqueness(google::protobuf::EnumDescriptorProto const&, google::protobuf::EnumDescriptor const*) [clone .cold]
PUBLIC 241d6 0 google::protobuf::DescriptorBuilder::AddError(std::__cxx11::basic_string<char, std::char_traits<char>, std::allocator<char> > const&, google::protobuf::Message const&, google::protobuf::DescriptorPool::ErrorCollector::ErrorLocation, char const*) [clone .cold]
PUBLIC 241ee 0 google::protobuf::DescriptorBuilder::ValidateSymbolName(std::__cxx11::basic_string<char, std::char_traits<char>, std::allocator<char> > const&, std::__cxx11::basic_string<char, std::char_traits<char>, std::allocator<char> > const&, google::protobuf::Message const&) [clone .cold]
PUBLIC 24218 0 google::protobuf::DescriptorBuilder::ValidateMapEntry(google::protobuf::FieldDescriptor*, google::protobuf::FieldDescriptorProto const&) [clone .cold]
PUBLIC 24234 0 google::protobuf::DescriptorBuilder::ValidateJSType(google::protobuf::FieldDescriptor*, google::protobuf::FieldDescriptorProto const&) [clone .cold]
PUBLIC 24250 0 google::protobuf::DescriptorBuilder::DescriptorBuilder(google::protobuf::DescriptorPool const*, google::protobuf::DescriptorPool::Tables*, google::protobuf::DescriptorPool::ErrorCollector*) [clone .cold]
PUBLIC 242ea 0 google::protobuf::DescriptorBuilder::AddRecursiveImportError(google::protobuf::FileDescriptorProto const&, int) [clone .cold]
PUBLIC 24302 0 google::protobuf::DescriptorBuilder::OptionInterpreter::AddWithoutInterpreting(google::protobuf::UninterpretedOption const&, google::protobuf::Message*) [clone .cold]
PUBLIC 2432a 0 google::protobuf::MethodDescriptor::CopyTo(google::protobuf::MethodDescriptorProto*) const [clone .cold]
PUBLIC 24358 0 google::protobuf::DescriptorBuilder::ValidateProto3Field(google::protobuf::FieldDescriptor*, google::protobuf::FieldDescriptorProto const&) [clone .cold]
PUBLIC 2441a 0 google::protobuf::DescriptorPool::NewPlaceholderWithMutexHeld(std::__cxx11::basic_string<char, std::char_traits<char>, std::allocator<char> > const&, google::protobuf::DescriptorPool::PlaceholderType) const [clone .cold]
PUBLIC 24432 0 google::protobuf::DescriptorPool::NewPlaceholder(std::__cxx11::basic_string<char, std::char_traits<char>, std::allocator<char> > const&, google::protobuf::DescriptorPool::PlaceholderType) const [clone .cold]
PUBLIC 24452 0 google::protobuf::FieldDescriptor::DefaultValueAsString[abi:cxx11](bool) const [clone .cold]
PUBLIC 244ac 0 google::protobuf::FieldDescriptor::CopyTo(google::protobuf::FieldDescriptorProto*) const [clone .cold]
PUBLIC 2450e 0 google::protobuf::FileDescriptor::CopyTo(google::protobuf::FileDescriptorProto*) const [clone .cold]
PUBLIC 24526 0 google::protobuf::DescriptorPool::IsSubSymbolOfBuiltType(std::__cxx11::basic_string<char, std::char_traits<char>, std::allocator<char> > const&) const [clone .cold]
PUBLIC 2453c 0 google::protobuf::FileDescriptorTables::GetSourceLocation(std::vector<int, std::allocator<int> > const&, google::protobuf::SourceCodeInfo const*) const [clone .cold]
PUBLIC 24554 0 google::protobuf::FileDescriptor::GetSourceLocation(std::vector<int, std::allocator<int> > const&, google::protobuf::SourceLocation*) const [clone .cold]
PUBLIC 24564 0 google::protobuf::FileDescriptor::GetSourceLocation(google::protobuf::SourceLocation*) const [clone .cold]
PUBLIC 2457a 0 google::protobuf::Descriptor::GetSourceLocation(google::protobuf::SourceLocation*) const [clone .cold]
PUBLIC 24590 0 google::protobuf::FieldDescriptor::GetSourceLocation(google::protobuf::SourceLocation*) const [clone .cold]
PUBLIC 245a6 0 google::protobuf::OneofDescriptor::GetSourceLocation(google::protobuf::SourceLocation*) const [clone .cold]
PUBLIC 245bc 0 google::protobuf::EnumDescriptor::GetSourceLocation(google::protobuf::SourceLocation*) const [clone .cold]
PUBLIC 245d2 0 google::protobuf::MethodDescriptor::GetSourceLocation(google::protobuf::SourceLocation*) const [clone .cold]
PUBLIC 245e8 0 google::protobuf::ServiceDescriptor::GetSourceLocation(google::protobuf::SourceLocation*) const [clone .cold]
PUBLIC 245fe 0 google::protobuf::EnumValueDescriptor::GetSourceLocation(google::protobuf::SourceLocation*) const [clone .cold]
PUBLIC 24614 0 google::protobuf::FileDescriptorTables::BuildLocationsByPath(std::pair<google::protobuf::FileDescriptorTables const*, google::protobuf::SourceCodeInfo const*>*) [clone .cold]
PUBLIC 24690 0 google::protobuf::DescriptorPool::Tables::Tables() [clone .cold]
PUBLIC 24a2a 0 google::protobuf::DescriptorPool::DescriptorPool() [clone .cold]
PUBLIC 24a40 0 google::protobuf::DescriptorPool::DescriptorPool(google::protobuf::DescriptorDatabase*, google::protobuf::DescriptorPool::ErrorCollector*) [clone .cold]
PUBLIC 24a56 0 google::protobuf::DescriptorPool::internal_generated_pool() [clone .cold]
PUBLIC 24a78 0 google::protobuf::EnumDescriptor::FindValueByNumberCreatingIfUnknown(int) const [clone .cold]
PUBLIC 24adc 0 google::protobuf::DescriptorPool::DescriptorPool(google::protobuf::DescriptorPool const*) [clone .cold]
PUBLIC 24af2 0 google::protobuf::DescriptorBuilder::ValidateProto3Message(google::protobuf::Descriptor*, google::protobuf::DescriptorProto const&) [clone .cold]
PUBLIC 24b80 0 google::protobuf::DescriptorBuilder::ValidateEnumOptions(google::protobuf::EnumDescriptor*, google::protobuf::EnumDescriptorProto const&) [clone .cold]
PUBLIC 24be4 0 google::protobuf::DescriptorBuilder::ValidateMessageOptions(google::protobuf::Descriptor*, google::protobuf::DescriptorProto const&) [clone .cold]
PUBLIC 24c00 0 google::protobuf::DescriptorBuilder::ValidateFileOptions(google::protobuf::FileDescriptor*, google::protobuf::FileDescriptorProto const&) [clone .cold]
PUBLIC 24c2a 0 google::protobuf::DescriptorPool::Tables::AddSymbol(std::__cxx11::basic_string<char, std::char_traits<char>, std::allocator<char> > const&, google::protobuf::Symbol) [clone .cold]
PUBLIC 24c4c 0 google::protobuf::DescriptorBuilder::AddSymbol(std::__cxx11::basic_string<char, std::char_traits<char>, std::allocator<char> > const&, void const*, std::__cxx11::basic_string<char, std::char_traits<char>, std::allocator<char> > const&, google::protobuf::Message const&, google::protobuf::Symbol) [clone .cold]
PUBLIC 24d5a 0 google::protobuf::DescriptorBuilder::AddPackage(std::__cxx11::basic_string<char, std::char_traits<char>, std::allocator<char> > const&, google::protobuf::Message const&, google::protobuf::FileDescriptor const*) [clone .cold]
PUBLIC 24dba 0 google::protobuf::DescriptorPool::Tables::AddFile(google::protobuf::FileDescriptor const*) [clone .cold]
PUBLIC 24ddc 0 google::protobuf::ExistingFileMatchesProto(google::protobuf::FileDescriptor const*, google::protobuf::FileDescriptorProto const&) [clone .cold]
PUBLIC 24e12 0 google::protobuf::DescriptorBuilder::OptionInterpreter::OptionInterpreter(google::protobuf::DescriptorBuilder*) [clone .cold]
PUBLIC 24e44 0 google::protobuf::DescriptorBuilder::AllocateOptions(google::protobuf::FileOptions const&, google::protobuf::FileDescriptor*) [clone .cold]
PUBLIC 24e8a 0 google::protobuf::DescriptorBuilder::BuildFieldOrExtension(google::protobuf::FieldDescriptorProto const&, google::protobuf::Descriptor*, google::protobuf::FieldDescriptor*, bool) [clone .cold]
PUBLIC 24f34 0 google::protobuf::DescriptorBuilder::BuildExtensionRange(google::protobuf::DescriptorProto_ExtensionRange const&, google::protobuf::Descriptor const*, google::protobuf::Descriptor::ExtensionRange*) [clone .cold]
PUBLIC 24f5c 0 google::protobuf::DescriptorBuilder::BuildOneof(google::protobuf::OneofDescriptorProto const&, google::protobuf::Descriptor*, google::protobuf::OneofDescriptor*) [clone .cold]
PUBLIC 24f84 0 google::protobuf::DescriptorBuilder::BuildEnumValue(google::protobuf::EnumValueDescriptorProto const&, google::protobuf::EnumDescriptor const*, google::protobuf::EnumValueDescriptor*) [clone .cold]
PUBLIC 2503e 0 google::protobuf::DescriptorBuilder::BuildEnum(google::protobuf::EnumDescriptorProto const&, google::protobuf::Descriptor const*, google::protobuf::EnumDescriptor*) [clone .cold]
PUBLIC 250ec 0 google::protobuf::DescriptorBuilder::BuildMessage(google::protobuf::DescriptorProto const&, google::protobuf::Descriptor const*, google::protobuf::Descriptor*) [clone .cold]
PUBLIC 25164 0 google::protobuf::DescriptorBuilder::BuildMethod(google::protobuf::MethodDescriptorProto const&, google::protobuf::ServiceDescriptor const*, google::protobuf::MethodDescriptor*) [clone .cold]
PUBLIC 2518c 0 google::protobuf::DescriptorBuilder::BuildService(google::protobuf::ServiceDescriptorProto const&, void const*, google::protobuf::ServiceDescriptor*) [clone .cold]
PUBLIC 251b4 0 google::protobuf::DescriptorBuilder::OptionInterpreter::UpdateSourceCodeInfo(google::protobuf::SourceCodeInfo*) [clone .cold]
PUBLIC 251d6 0 google::protobuf::DescriptorBuilder::BuildFileImpl(google::protobuf::FileDescriptorProto const&) [clone .cold]
PUBLIC 2536c 0 google::protobuf::DescriptorPool::BuildFile(google::protobuf::FileDescriptorProto const&) [clone .cold]
PUBLIC 2539c 0 google::protobuf::DescriptorPool::BuildFileCollectingErrors(google::protobuf::FileDescriptorProto const&, google::protobuf::DescriptorPool::ErrorCollector*) [clone .cold]
PUBLIC 253cc 0 google::protobuf::DescriptorPool::BuildFileFromDatabase(google::protobuf::FileDescriptorProto const&) const [clone .cold]
PUBLIC 253dc 0 google::protobuf::DescriptorPool::TryFindFileInFallbackDatabase(std::__cxx11::basic_string<char, std::char_traits<char>, std::allocator<char> > const&) const [clone .cold]
PUBLIC 253ec 0 google::protobuf::DescriptorPool::FindFileByName(std::__cxx11::basic_string<char, std::char_traits<char>, std::allocator<char> > const&) const [clone .cold]
PUBLIC 2540c 0 google::protobuf::FileDescriptor::InternalDependenciesOnceInit() const [clone .cold]
PUBLIC 2541c 0 google::protobuf::DescriptorPool::TryFindSymbolInFallbackDatabase(std::__cxx11::basic_string<char, std::char_traits<char>, std::allocator<char> > const&) const [clone .cold]
PUBLIC 2542c 0 google::protobuf::DescriptorPool::Tables::FindByNameHelper(google::protobuf::DescriptorPool const*, std::__cxx11::basic_string<char, std::char_traits<char>, std::allocator<char> > const&) [clone .cold]
PUBLIC 2544b 0 google::protobuf::(anonymous namespace)::RetrieveOptions(int, google::protobuf::Message const&, google::protobuf::DescriptorPool const*, std::vector<std::__cxx11::basic_string<char, std::char_traits<char>, std::allocator<char> >, std::allocator<std::__cxx11::basic_string<char, std::char_traits<char>, std::allocator<char> > > >*) [clone .constprop.0] [clone .cold]
PUBLIC 25487 0 google::protobuf::(anonymous namespace)::FormatLineOptions(int, google::protobuf::Message const&, google::protobuf::DescriptorPool const*, std::__cxx11::basic_string<char, std::char_traits<char>, std::allocator<char> >*) [clone .cold]
PUBLIC 254b0 0 google::protobuf::MethodDescriptor::DebugString(int, std::__cxx11::basic_string<char, std::char_traits<char>, std::allocator<char> >*, google::protobuf::DebugStringOptions const&) const [clone .cold]
PUBLIC 2556e 0 google::protobuf::MethodDescriptor::DebugStringWithOptions[abi:cxx11](google::protobuf::DebugStringOptions const&) const [clone .cold]
PUBLIC 25584 0 google::protobuf::ServiceDescriptor::DebugString(std::__cxx11::basic_string<char, std::char_traits<char>, std::allocator<char> >*, google::protobuf::DebugStringOptions const&) const [clone .cold]
PUBLIC 2562a 0 google::protobuf::ServiceDescriptor::DebugStringWithOptions[abi:cxx11](google::protobuf::DebugStringOptions const&) const [clone .cold]
PUBLIC 25640 0 google::protobuf::(anonymous namespace)::FormatBracketedOptions(int, google::protobuf::Message const&, google::protobuf::DescriptorPool const*, std::__cxx11::basic_string<char, std::char_traits<char>, std::allocator<char> >*) [clone .constprop.0] [clone .cold]
PUBLIC 25674 0 google::protobuf::EnumValueDescriptor::DebugString(int, std::__cxx11::basic_string<char, std::char_traits<char>, std::allocator<char> >*, google::protobuf::DebugStringOptions const&) const [clone .cold]
PUBLIC 2572e 0 google::protobuf::EnumDescriptor::DebugString(int, std::__cxx11::basic_string<char, std::char_traits<char>, std::allocator<char> >*, google::protobuf::DebugStringOptions const&) const [clone .cold]
PUBLIC 257fc 0 google::protobuf::EnumDescriptor::DebugStringWithOptions[abi:cxx11](google::protobuf::DebugStringOptions const&) const [clone .cold]
PUBLIC 25812 0 google::protobuf::Descriptor::DebugString(int, std::__cxx11::basic_string<char, std::char_traits<char>, std::allocator<char> >*, google::protobuf::DebugStringOptions const&, bool) const [clone .cold]
PUBLIC 258e2 0 google::protobuf::FieldDescriptor::DebugString(int, std::__cxx11::basic_string<char, std::char_traits<char>, std::allocator<char> >*, google::protobuf::DebugStringOptions const&) const [clone .cold]
PUBLIC 25a30 0 google::protobuf::FieldDescriptor::DebugStringWithOptions[abi:cxx11](google::protobuf::DebugStringOptions const&) const [clone .cold]
PUBLIC 25a46 0 google::protobuf::DescriptorBuilder::OptionInterpreter::SetAggregateOption(google::protobuf::FieldDescriptor const*, google::protobuf::UnknownFieldSet*) [clone .cold]
PUBLIC 25b78 0 google::protobuf::OneofDescriptor::DebugString(int, std::__cxx11::basic_string<char, std::char_traits<char>, std::allocator<char> >*, google::protobuf::DebugStringOptions const&) const [clone .cold]
PUBLIC 25c1a 0 google::protobuf::OneofDescriptor::DebugStringWithOptions[abi:cxx11](google::protobuf::DebugStringOptions const&) const [clone .cold]
PUBLIC 25c30 0 google::protobuf::Descriptor::DebugStringWithOptions[abi:cxx11](google::protobuf::DebugStringOptions const&) const [clone .cold]
PUBLIC 25c46 0 google::protobuf::FileDescriptor::DebugStringWithOptions[abi:cxx11](google::protobuf::DebugStringOptions const&) const [clone .cold]
PUBLIC 25eae 0 google::protobuf::EnumValueDescriptor::DebugStringWithOptions[abi:cxx11](google::protobuf::DebugStringOptions const&) const [clone .cold]
PUBLIC 25ec4 0 google::protobuf::DescriptorPool::CrossLinkOnDemandHelper(std::__cxx11::basic_string<char, std::char_traits<char>, std::allocator<char> > const&, bool) const [clone .cold]
PUBLIC 25eda 0 google::protobuf::FieldDescriptor::InternalTypeOnceInit() const [clone .cold]
PUBLIC 25f2e 0 google::protobuf::internal::LazyDescriptor::OnceInternal() [clone .cold]
PUBLIC 25f3e 0 google::protobuf::DescriptorPool::FindFileContainingSymbol(std::__cxx11::basic_string<char, std::char_traits<char>, std::allocator<char> > const&) const [clone .cold]
PUBLIC 25f5e 0 google::protobuf::DescriptorBuilder::FindSymbolNotEnforcingDepsHelper(google::protobuf::DescriptorPool const*, std::__cxx11::basic_string<char, std::char_traits<char>, std::allocator<char> > const&, bool) [clone .cold]
PUBLIC 25f7e 0 google::protobuf::DescriptorBuilder::LookupSymbolNoPlaceholder(std::__cxx11::basic_string<char, std::char_traits<char>, std::allocator<char> > const&, std::__cxx11::basic_string<char, std::char_traits<char>, std::allocator<char> > const&, google::protobuf::DescriptorBuilder::ResolveMode, bool) [clone .cold]
PUBLIC 25fc2 0 google::protobuf::DescriptorBuilder::CrossLinkMethod(google::protobuf::MethodDescriptor*, google::protobuf::MethodDescriptorProto const&) [clone .cold]
PUBLIC 26016 0 google::protobuf::DescriptorBuilder::CrossLinkField(google::protobuf::FieldDescriptor*, google::protobuf::FieldDescriptorProto const&) [clone .cold]
PUBLIC 261e8 0 google::protobuf::DescriptorBuilder::CrossLinkMessage(google::protobuf::Descriptor*, google::protobuf::DescriptorProto const&) [clone .cold]
PUBLIC 26284 0 google::protobuf::DescriptorBuilder::OptionInterpreter::SetOptionValue(google::protobuf::FieldDescriptor const*, google::protobuf::UnknownFieldSet*) [clone .cold]
PUBLIC 2665a 0 google::protobuf::DescriptorBuilder::OptionInterpreter::InterpretSingleOption(google::protobuf::Message*, std::vector<int, std::allocator<int> > const&, std::vector<int, std::allocator<int> > const&) [clone .cold]
PUBLIC 268dc 0 google::protobuf::DescriptorPool::TryFindExtensionInFallbackDatabase(google::protobuf::Descriptor const*, int) const [clone .cold]
PUBLIC 268ec 0 google::protobuf::DescriptorPool::FindExtensionByNumber(google::protobuf::Descriptor const*, int) const [clone .cold]
PUBLIC 2690c 0 google::protobuf::DescriptorPool::FindAllExtensions(google::protobuf::Descriptor const*, std::vector<google::protobuf::FieldDescriptor const*, std::allocator<google::protobuf::FieldDescriptor const*> >*) const [clone .cold]
PUBLIC 2693a 0 google::protobuf::DescriptorPoolDatabase::FindAllExtensionNumbers(std::__cxx11::basic_string<char, std::char_traits<char>, std::allocator<char> > const&, std::vector<int, std::allocator<int> >*) [clone .cold]
PUBLIC 26952 0 google::protobuf::MergedDescriptorDatabase::MergedDescriptorDatabase(std::vector<google::protobuf::DescriptorDatabase*, std::allocator<google::protobuf::DescriptorDatabase*> > const&) [clone .cold]
PUBLIC 26962 0 google::protobuf::MergedDescriptorDatabase::MergedDescriptorDatabase(google::protobuf::DescriptorDatabase*, google::protobuf::DescriptorDatabase*) [clone .cold]
PUBLIC 26980 0 google::protobuf::(anonymous namespace)::RecordMessageNames(google::protobuf::DescriptorProto const&, std::__cxx11::basic_string<char, std::char_traits<char>, std::allocator<char> > const&, std::set<std::__cxx11::basic_string<char, std::char_traits<char>, std::allocator<char> >, std::less<std::__cxx11::basic_string<char, std::char_traits<char>, std::allocator<char> > >, std::allocator<std::__cxx11::basic_string<char, std::char_traits<char>, std::allocator<char> > > >*) [clone .cold]
PUBLIC 269a6 0 google::protobuf::EncodedDescriptorDatabase::Add(void const*, int) [clone .cold]
PUBLIC 269d4 0 google::protobuf::MergedDescriptorDatabase::FindAllExtensionNumbers(std::__cxx11::basic_string<char, std::char_traits<char>, std::allocator<char> > const&, std::vector<int, std::allocator<int> >*) [clone .cold]
PUBLIC 269fa 0 bool google::protobuf::(anonymous namespace)::ForAllFileProtos<google::protobuf::DescriptorDatabase::FindAllPackageNames(std::vector<std::__cxx11::basic_string<char, std::char_traits<char>, std::allocator<char> >, std::allocator<std::__cxx11::basic_string<char, std::char_traits<char>, std::allocator<char> > > >*)::{lambda(google::protobuf::FileDescriptorProto const&, std::set<std::__cxx11::basic_string<char, std::char_traits<char>, std::allocator<char> >, std::less<std::__cxx11::basic_string<char, std::char_traits<char>, std::allocator<char> > >, std::allocator<std::__cxx11::basic_string<char, std::char_traits<char>, std::allocator<char> > > >*)#1}>(google::protobuf::DescriptorDatabase*, google::protobuf::DescriptorDatabase::FindAllPackageNames(std::vector<std::__cxx11::basic_string<char, std::char_traits<char>, std::allocator<char> >, std::allocator<std::__cxx11::basic_string<char, std::char_traits<char>, std::allocator<char> > > >*)::{lambda(google::protobuf::FileDescriptorProto const&, std::set<std::__cxx11::basic_string<char, std::char_traits<char>, std::allocator<char> >, std::less<std::__cxx11::basic_string<char, std::char_traits<char>, std::allocator<char> > >, std::allocator<std::__cxx11::basic_string<char, std::char_traits<char>, std::allocator<char> > > >*)#1}, std::vector<std::__cxx11::basic_string<char, std::char_traits<char>, std::allocator<char> >, std::allocator<std::__cxx11::basic_string<char, std::char_traits<char>, std::allocator<char> > > >*) [clone .isra.0] [clone .cold]
PUBLIC 26a29 0 bool google::protobuf::(anonymous namespace)::ForAllFileProtos<google::protobuf::DescriptorDatabase::FindAllMessageNames(std::vector<std::__cxx11::basic_string<char, std::char_traits<char>, std::allocator<char> >, std::allocator<std::__cxx11::basic_string<char, std::char_traits<char>, std::allocator<char> > > >*)::{lambda(google::protobuf::FileDescriptorProto const&, std::set<std::__cxx11::basic_string<char, std::char_traits<char>, std::allocator<char> >, std::less<std::__cxx11::basic_string<char, std::char_traits<char>, std::allocator<char> > >, std::allocator<std::__cxx11::basic_string<char, std::char_traits<char>, std::allocator<char> > > >*)#1}>(google::protobuf::DescriptorDatabase*, google::protobuf::DescriptorDatabase::FindAllMessageNames(std::vector<std::__cxx11::basic_string<char, std::char_traits<char>, std::allocator<char> >, std::allocator<std::__cxx11::basic_string<char, std::char_traits<char>, std::allocator<char> > > >*)::{lambda(google::protobuf::FileDescriptorProto const&, std::set<std::__cxx11::basic_string<char, std::char_traits<char>, std::allocator<char> >, std::less<std::__cxx11::basic_string<char, std::char_traits<char>, std::allocator<char> > >, std::allocator<std::__cxx11::basic_string<char, std::char_traits<char>, std::allocator<char> > > >*)#1}, std::vector<std::__cxx11::basic_string<char, std::char_traits<char>, std::allocator<char> >, std::allocator<std::__cxx11::basic_string<char, std::char_traits<char>, std::allocator<char> > > >*) [clone .isra.0] [clone .cold]
PUBLIC 26a58 0 google::protobuf::EncodedDescriptorDatabase::FindNameOfFileContainingSymbol(std::__cxx11::basic_string<char, std::char_traits<char>, std::allocator<char> > const&, std::__cxx11::basic_string<char, std::char_traits<char>, std::allocator<char> >*) [clone .cold]
PUBLIC 26a70 0 google::protobuf::MergedDescriptorDatabase::FindFileContainingSymbol(std::__cxx11::basic_string<char, std::char_traits<char>, std::allocator<char> > const&, google::protobuf::FileDescriptorProto*) [clone .cold]
PUBLIC 26a80 0 google::protobuf::MergedDescriptorDatabase::FindFileContainingExtension(std::__cxx11::basic_string<char, std::char_traits<char>, std::allocator<char> > const&, int, google::protobuf::FileDescriptorProto*) [clone .cold]
PUBLIC 26a90 0 google::protobuf::SimpleDescriptorDatabase::Add(google::protobuf::FileDescriptorProto const&) [clone .cold]
PUBLIC 26aa6 0 google::protobuf::SourceCodeInfo_Location::SourceCodeInfo_Location(google::protobuf::Arena*) [clone .cold]
PUBLIC 26ac8 0 google::protobuf::GeneratedCodeInfo_Annotation::GeneratedCodeInfo_Annotation(google::protobuf::Arena*) [clone .cold]
PUBLIC 26ada 0 google::protobuf::DescriptorProto_ExtensionRange* google::protobuf::Arena::CreateMaybeMessage<google::protobuf::DescriptorProto_ExtensionRange>(google::protobuf::Arena*) [clone .cold]
PUBLIC 26af0 0 google::protobuf::DescriptorProto_ReservedRange* google::protobuf::Arena::CreateMaybeMessage<google::protobuf::DescriptorProto_ReservedRange>(google::protobuf::Arena*) [clone .cold]
PUBLIC 26b06 0 google::protobuf::FieldDescriptorProto* google::protobuf::Arena::CreateMaybeMessage<google::protobuf::FieldDescriptorProto>(google::protobuf::Arena*) [clone .cold]
PUBLIC 26b1c 0 google::protobuf::OneofDescriptorProto* google::protobuf::Arena::CreateMaybeMessage<google::protobuf::OneofDescriptorProto>(google::protobuf::Arena*) [clone .cold]
PUBLIC 26b32 0 google::protobuf::EnumDescriptorProto_EnumReservedRange* google::protobuf::Arena::CreateMaybeMessage<google::protobuf::EnumDescriptorProto_EnumReservedRange>(google::protobuf::Arena*) [clone .cold]
PUBLIC 26b48 0 google::protobuf::EnumValueDescriptorProto* google::protobuf::Arena::CreateMaybeMessage<google::protobuf::EnumValueDescriptorProto>(google::protobuf::Arena*) [clone .cold]
PUBLIC 26b5e 0 google::protobuf::MethodDescriptorProto* google::protobuf::Arena::CreateMaybeMessage<google::protobuf::MethodDescriptorProto>(google::protobuf::Arena*) [clone .cold]
PUBLIC 26b74 0 google::protobuf::UninterpretedOption_NamePart* google::protobuf::Arena::CreateMaybeMessage<google::protobuf::UninterpretedOption_NamePart>(google::protobuf::Arena*) [clone .cold]
PUBLIC 26b8a 0 google::protobuf::SourceCodeInfo_Location* google::protobuf::Arena::CreateMaybeMessage<google::protobuf::SourceCodeInfo_Location>(google::protobuf::Arena*) [clone .cold]
PUBLIC 26ba0 0 google::protobuf::GeneratedCodeInfo_Annotation* google::protobuf::Arena::CreateMaybeMessage<google::protobuf::GeneratedCodeInfo_Annotation>(google::protobuf::Arena*) [clone .cold]
PUBLIC 26bb6 0 google::protobuf::UninterpretedOption::UninterpretedOption(google::protobuf::Arena*) [clone .cold]
PUBLIC 26bc8 0 google::protobuf::UninterpretedOption* google::protobuf::Arena::CreateMaybeMessage<google::protobuf::UninterpretedOption>(google::protobuf::Arena*) [clone .cold]
PUBLIC 26bde 0 google::protobuf::ExtensionRangeOptions::ExtensionRangeOptions(google::protobuf::Arena*) [clone .cold]
PUBLIC 26bf8 0 google::protobuf::ExtensionRangeOptions* google::protobuf::Arena::CreateMaybeMessage<google::protobuf::ExtensionRangeOptions>(google::protobuf::Arena*) [clone .cold]
PUBLIC 26c0e 0 google::protobuf::FileOptions::FileOptions(google::protobuf::Arena*) [clone .cold]
PUBLIC 26c28 0 google::protobuf::FileOptions* google::protobuf::Arena::CreateMaybeMessage<google::protobuf::FileOptions>(google::protobuf::Arena*) [clone .cold]
PUBLIC 26c3e 0 google::protobuf::MessageOptions::MessageOptions(google::protobuf::Arena*) [clone .cold]
PUBLIC 26c58 0 google::protobuf::MessageOptions* google::protobuf::Arena::CreateMaybeMessage<google::protobuf::MessageOptions>(google::protobuf::Arena*) [clone .cold]
PUBLIC 26c6e 0 google::protobuf::FieldOptions::FieldOptions(google::protobuf::Arena*) [clone .cold]
PUBLIC 26c88 0 google::protobuf::FieldOptions* google::protobuf::Arena::CreateMaybeMessage<google::protobuf::FieldOptions>(google::protobuf::Arena*) [clone .cold]
PUBLIC 26c9e 0 google::protobuf::OneofOptions::OneofOptions(google::protobuf::Arena*) [clone .cold]
PUBLIC 26cb8 0 google::protobuf::OneofOptions* google::protobuf::Arena::CreateMaybeMessage<google::protobuf::OneofOptions>(google::protobuf::Arena*) [clone .cold]
PUBLIC 26cce 0 google::protobuf::EnumOptions::EnumOptions(google::protobuf::Arena*) [clone .cold]
PUBLIC 26ce8 0 google::protobuf::EnumOptions* google::protobuf::Arena::CreateMaybeMessage<google::protobuf::EnumOptions>(google::protobuf::Arena*) [clone .cold]
PUBLIC 26cfe 0 google::protobuf::EnumValueOptions::EnumValueOptions(google::protobuf::Arena*) [clone .cold]
PUBLIC 26d18 0 google::protobuf::EnumValueOptions* google::protobuf::Arena::CreateMaybeMessage<google::protobuf::EnumValueOptions>(google::protobuf::Arena*) [clone .cold]
PUBLIC 26d2e 0 google::protobuf::ServiceOptions::ServiceOptions(google::protobuf::Arena*) [clone .cold]
PUBLIC 26d48 0 google::protobuf::ServiceOptions* google::protobuf::Arena::CreateMaybeMessage<google::protobuf::ServiceOptions>(google::protobuf::Arena*) [clone .cold]
PUBLIC 26d5e 0 google::protobuf::MethodOptions::MethodOptions(google::protobuf::Arena*) [clone .cold]
PUBLIC 26d78 0 google::protobuf::MethodOptions* google::protobuf::Arena::CreateMaybeMessage<google::protobuf::MethodOptions>(google::protobuf::Arena*) [clone .cold]
PUBLIC 26d8e 0 google::protobuf::EnumDescriptorProto::EnumDescriptorProto(google::protobuf::Arena*) [clone .cold]
PUBLIC 26db0 0 google::protobuf::EnumDescriptorProto* google::protobuf::Arena::CreateMaybeMessage<google::protobuf::EnumDescriptorProto>(google::protobuf::Arena*) [clone .cold]
PUBLIC 26dc6 0 google::protobuf::DescriptorProto::DescriptorProto(google::protobuf::Arena*) [clone .cold]
PUBLIC 26e1c 0 google::protobuf::DescriptorProto* google::protobuf::Arena::CreateMaybeMessage<google::protobuf::DescriptorProto>(google::protobuf::Arena*) [clone .cold]
PUBLIC 26e32 0 google::protobuf::ServiceDescriptorProto::ServiceDescriptorProto(google::protobuf::Arena*) [clone .cold]
PUBLIC 26e44 0 google::protobuf::ServiceDescriptorProto* google::protobuf::Arena::CreateMaybeMessage<google::protobuf::ServiceDescriptorProto>(google::protobuf::Arena*) [clone .cold]
PUBLIC 26e5a 0 google::protobuf::FileDescriptorProto::FileDescriptorProto(google::protobuf::Arena*) [clone .cold]
PUBLIC 26ea6 0 google::protobuf::FileDescriptorProto* google::protobuf::Arena::CreateMaybeMessage<google::protobuf::FileDescriptorProto>(google::protobuf::Arena*) [clone .cold]
PUBLIC 26ebc 0 google::protobuf::SourceCodeInfo::SourceCodeInfo(google::protobuf::Arena*) [clone .cold]
PUBLIC 26ece 0 google::protobuf::SourceCodeInfo* google::protobuf::Arena::CreateMaybeMessage<google::protobuf::SourceCodeInfo>(google::protobuf::Arena*) [clone .cold]
PUBLIC 26ee4 0 google::protobuf::FileDescriptorSet::FileDescriptorSet(google::protobuf::Arena*) [clone .cold]
PUBLIC 26ef6 0 google::protobuf::FileDescriptorSet* google::protobuf::Arena::CreateMaybeMessage<google::protobuf::FileDescriptorSet>(google::protobuf::Arena*) [clone .cold]
PUBLIC 26f0c 0 google::protobuf::GeneratedCodeInfo::GeneratedCodeInfo(google::protobuf::Arena*) [clone .cold]
PUBLIC 26f1e 0 google::protobuf::GeneratedCodeInfo* google::protobuf::Arena::CreateMaybeMessage<google::protobuf::GeneratedCodeInfo>(google::protobuf::Arena*) [clone .cold]
PUBLIC 26f34 0 google::protobuf::GeneratedCodeInfo_Annotation::GeneratedCodeInfo_Annotation(google::protobuf::GeneratedCodeInfo_Annotation const&) [clone .cold]
PUBLIC 26f44 0 google::protobuf::SourceCodeInfo_Location::SourceCodeInfo_Location(google::protobuf::SourceCodeInfo_Location const&) [clone .cold]
PUBLIC 26f64 0 google::protobuf::OneofOptions::OneofOptions(google::protobuf::OneofOptions const&) [clone .cold]
PUBLIC 26f7c 0 google::protobuf::OneofDescriptorProto::OneofDescriptorProto(google::protobuf::OneofDescriptorProto const&) [clone .cold]
PUBLIC 26f92 0 google::protobuf::ExtensionRangeOptions::ExtensionRangeOptions(google::protobuf::ExtensionRangeOptions const&) [clone .cold]
PUBLIC 26faa 0 google::protobuf::DescriptorProto_ExtensionRange::DescriptorProto_ExtensionRange(google::protobuf::DescriptorProto_ExtensionRange const&) [clone .cold]
PUBLIC 26fc0 0 google::protobuf::EnumValueOptions::EnumValueOptions(google::protobuf::EnumValueOptions const&) [clone .cold]
PUBLIC 26fd8 0 google::protobuf::EnumValueDescriptorProto::EnumValueDescriptorProto(google::protobuf::EnumValueDescriptorProto const&) [clone .cold]
PUBLIC 26fee 0 google::protobuf::MessageOptions::MessageOptions(google::protobuf::MessageOptions const&) [clone .cold]
PUBLIC 27006 0 google::protobuf::EnumOptions::EnumOptions(google::protobuf::EnumOptions const&) [clone .cold]
PUBLIC 2701e 0 google::protobuf::EnumDescriptorProto::EnumDescriptorProto(google::protobuf::EnumDescriptorProto const&) [clone .cold]
PUBLIC 2704c 0 google::protobuf::ServiceOptions::ServiceOptions(google::protobuf::ServiceOptions const&) [clone .cold]
PUBLIC 27064 0 google::protobuf::MethodOptions::MethodOptions(google::protobuf::MethodOptions const&) [clone .cold]
PUBLIC 2707c 0 google::protobuf::MethodDescriptorProto::MethodDescriptorProto(google::protobuf::MethodDescriptorProto const&) [clone .cold]
PUBLIC 27092 0 google::protobuf::FieldOptions::FieldOptions(google::protobuf::FieldOptions const&) [clone .cold]
PUBLIC 270aa 0 google::protobuf::FieldDescriptorProto::FieldDescriptorProto(google::protobuf::FieldDescriptorProto const&) [clone .cold]
PUBLIC 270c0 0 google::protobuf::ServiceDescriptorProto::ServiceDescriptorProto(google::protobuf::ServiceDescriptorProto const&) [clone .cold]
PUBLIC 270de 0 google::protobuf::DescriptorProto::DescriptorProto(google::protobuf::DescriptorProto const&) [clone .cold]
PUBLIC 2713e 0 google::protobuf::FileOptions::FileOptions(google::protobuf::FileOptions const&) [clone .cold]
PUBLIC 27156 0 google::protobuf::UninterpretedOption::UninterpretedOption(google::protobuf::UninterpretedOption const&) [clone .cold]
PUBLIC 27166 0 google::protobuf::FileDescriptorSet::FileDescriptorSet(google::protobuf::FileDescriptorSet const&) [clone .cold]
PUBLIC 27176 0 google::protobuf::SourceCodeInfo::SourceCodeInfo(google::protobuf::SourceCodeInfo const&) [clone .cold]
PUBLIC 27186 0 google::protobuf::FileDescriptorProto::FileDescriptorProto(google::protobuf::FileDescriptorProto const&) [clone .cold]
PUBLIC 271ec 0 google::protobuf::GeneratedCodeInfo::GeneratedCodeInfo(google::protobuf::GeneratedCodeInfo const&) [clone .cold]
PUBLIC 271fc 0 google::protobuf::DynamicMessageFactory::DynamicMessageFactory() [clone .cold]
PUBLIC 2720c 0 google::protobuf::DynamicMessageFactory::DynamicMessageFactory(google::protobuf::DescriptorPool const*) [clone .cold]
PUBLIC 2721c 0 google::protobuf::DynamicMessageFactory::GetPrototypeNoLock(google::protobuf::Descriptor const*) [clone .cold]
PUBLIC 272c0 0 google::protobuf::DynamicMessage::CrossLinkPrototypes() [clone .cold]
PUBLIC 272d0 0 google::protobuf::DynamicMessageFactory::GetPrototype(google::protobuf::Descriptor const*) [clone .cold]
PUBLIC 272e6 0 google::protobuf::internal::ExtensionSet::ParseField(unsigned int, google::protobuf::io::CodedInputStream*, google::protobuf::Message const*, google::protobuf::UnknownFieldSet*) [clone .cold]
PUBLIC 27318 0 google::protobuf::internal::ExtensionSet::ParseMessageSetItem(google::protobuf::io::CodedInputStream*, google::protobuf::internal::ExtensionFinder*, google::protobuf::internal::MessageSetFieldSkipper*) [clone .cold]
PUBLIC 27338 0 google::protobuf::internal::ExtensionSet::ParseMessageSet(google::protobuf::io::CodedInputStream*, google::protobuf::Message const*, google::protobuf::UnknownFieldSet*) [clone .cold]
PUBLIC 2736a 0 google::protobuf::internal::DescriptorPoolExtensionFinder::Find(int, google::protobuf::internal::ExtensionInfo*) [clone .cold]
PUBLIC 2737a 0 google::protobuf::internal::ExtensionSet::AddMessage(google::protobuf::FieldDescriptor const*, google::protobuf::MessageFactory*) [clone .cold]
PUBLIC 2738a 0 google::protobuf::internal::ExtensionSet::ParseField(unsigned long, char const*, google::protobuf::Message const*, google::protobuf::internal::InternalMetadata*, google::protobuf::internal::ParseContext*) [clone .cold]
PUBLIC 273ca 0 google::protobuf::(anonymous namespace)::ReportReflectionUsageError(google::protobuf::Descriptor const*, google::protobuf::FieldDescriptor const*, char const*, char const*) [clone .cold]
PUBLIC 273da 0 google::protobuf::(anonymous namespace)::ReportReflectionUsageEnumTypeError(google::protobuf::Descriptor const*, google::protobuf::FieldDescriptor const*, char const*, google::protobuf::EnumValueDescriptor const*) [clone .cold]
PUBLIC 273ea 0 google::protobuf::(anonymous namespace)::ReportReflectionUsageTypeError(google::protobuf::Descriptor const*, google::protobuf::FieldDescriptor const*, char const*, google::protobuf::FieldDescriptor::CppType) [clone .cold]
PUBLIC 273fa 0 google::protobuf::Reflection::SetRepeatedString(google::protobuf::Message*, google::protobuf::FieldDescriptor const*, int, std::__cxx11::basic_string<char, std::char_traits<char>, std::allocator<char> >) const [clone .cold]
PUBLIC 27412 0 google::protobuf::Reflection::AddString(google::protobuf::Message*, google::protobuf::FieldDescriptor const*, std::__cxx11::basic_string<char, std::char_traits<char>, std::allocator<char> >) const [clone .cold]
PUBLIC 2742a 0 google::protobuf::Reflection::RepeatedFieldData(google::protobuf::Message*, google::protobuf::FieldDescriptor const*, google::protobuf::FieldDescriptor::CppType, google::protobuf::Descriptor const*) const [clone .cold]
PUBLIC 27464 0 google::protobuf::Reflection::MutableRawRepeatedField(google::protobuf::Message*, google::protobuf::FieldDescriptor const*, google::protobuf::FieldDescriptor::CppType, int, google::protobuf::Descriptor const*) const [clone .cold]
PUBLIC 27474 0 google::protobuf::Reflection::GetRawRepeatedField(google::protobuf::Message const&, google::protobuf::FieldDescriptor const*, google::protobuf::FieldDescriptor::CppType, int, google::protobuf::Descriptor const*) const [clone .cold]
PUBLIC 27494 0 google::protobuf::Reflection::InsertOrLookupMapValue(google::protobuf::Message*, google::protobuf::FieldDescriptor const*, google::protobuf::MapKey const&, google::protobuf::MapValueRef*) const [clone .cold]
PUBLIC 274ac 0 google::protobuf::Reflection::MapBegin(google::protobuf::Message*, google::protobuf::FieldDescriptor const*) const [clone .cold]
PUBLIC 27500 0 google::protobuf::Reflection::MapEnd(google::protobuf::Message*, google::protobuf::FieldDescriptor const*) const [clone .cold]
PUBLIC 27554 0 google::protobuf::Reflection::FieldSize(google::protobuf::Message const&, google::protobuf::FieldDescriptor const*) const [clone .cold]
PUBLIC 27564 0 google::protobuf::(anonymous namespace)::AssignDescriptorsImpl(google::protobuf::internal::DescriptorTable const*, bool) [clone .cold]
PUBLIC 275ae 0 google::protobuf::Reflection::SetString(google::protobuf::Message*, google::protobuf::FieldDescriptor const*, std::__cxx11::basic_string<char, std::char_traits<char>, std::allocator<char> >) const [clone .cold]
PUBLIC 275c6 0 google::protobuf::Reflection::SwapOneofField(google::protobuf::Message*, google::protobuf::Message*, google::protobuf::OneofDescriptor const*) const [clone .cold]
PUBLIC 27614 0 google::protobuf::Reflection::SwapField(google::protobuf::Message*, google::protobuf::Message*, google::protobuf::FieldDescriptor const*) const [clone .cold]
PUBLIC 2764c 0 google::protobuf::Reflection::Swap(google::protobuf::Message*, google::protobuf::Message*) const [clone .cold]
PUBLIC 27680 0 google::protobuf::Reflection::SwapFields(google::protobuf::Message*, google::protobuf::Message*, std::vector<google::protobuf::FieldDescriptor const*, std::allocator<google::protobuf::FieldDescriptor const*> > const&) const [clone .cold]
PUBLIC 276d0 0 std::_Rb_tree<google::protobuf::internal::KeyView<google::protobuf::MapKey>*, google::protobuf::internal::KeyView<google::protobuf::MapKey>*, std::_Identity<google::protobuf::internal::KeyView<google::protobuf::MapKey>*>, google::protobuf::internal::DerefCompare<google::protobuf::internal::KeyView<google::protobuf::MapKey> >, google::protobuf::internal::MapAllocator<google::protobuf::internal::KeyView<google::protobuf::MapKey>*> >::_M_lower_bound(std::_Rb_tree_node<google::protobuf::internal::KeyView<google::protobuf::MapKey>*>*, std::_Rb_tree_node_base*, google::protobuf::internal::KeyView<google::protobuf::MapKey>* const&) [clone .isra.0] [clone .cold]
PUBLIC 27700 0 google::protobuf::internal::DynamicMapField::SetMapIteratorValue(google::protobuf::MapIterator*) const [clone .cold]
PUBLIC 27720 0 google::protobuf::internal::DynamicMapField::DynamicMapField(google::protobuf::Message const*) [clone .cold]
PUBLIC 27750 0 google::protobuf::internal::DynamicMapField::DynamicMapField(google::protobuf::Message const*, google::protobuf::Arena*) [clone .cold]
PUBLIC 27780 0 google::protobuf::internal::DynamicMapField::SyncRepeatedFieldWithMapNoLock() const [clone .cold]
PUBLIC 278b2 0 google::protobuf::internal::DynamicMapField::SyncMapWithRepeatedFieldNoLock() const [clone .cold]
PUBLIC 278f6 0 google::protobuf::internal::DynamicMapField::MergeFrom(google::protobuf::internal::MapFieldBase const&) [clone .cold]
PUBLIC 27b62 0 google::protobuf::internal::DynamicMapField::Swap(google::protobuf::internal::MapFieldBase*) [clone .cold]
PUBLIC 27c2a 0 google::protobuf::Message::SetCachedSize(int) const [clone .cold]
PUBLIC 27c3a 0 google::protobuf::Message::MergeFrom(google::protobuf::Message const&) [clone .cold]
PUBLIC 27c54 0 google::protobuf::Message::CopyFrom(google::protobuf::Message const&) [clone .cold]
PUBLIC 27c6e 0 google::protobuf::(anonymous namespace)::GeneratedMessageFactory::singleton() [clone .cold]
PUBLIC 27c82 0 google::protobuf::Message::FindInitializationErrors(std::vector<std::__cxx11::basic_string<char, std::char_traits<char>, std::allocator<char> >, std::allocator<std::__cxx11::basic_string<char, std::char_traits<char>, std::allocator<char> > > >*) const [clone .cold]
PUBLIC 27c98 0 google::protobuf::Message::InitializationErrorString[abi:cxx11]() const [clone .cold]
PUBLIC 27ce2 0 google::protobuf::Message::CheckInitialized() const [clone .cold]
PUBLIC 27d06 0 google::protobuf::Reflection::RepeatedFieldAccessor(google::protobuf::FieldDescriptor const*) const [clone .cold]
PUBLIC 27d26 0 google::protobuf::(anonymous namespace)::GeneratedMessageFactory::GetPrototype(google::protobuf::Descriptor const*) [clone .cold]
PUBLIC 27d56 0 google::protobuf::MessageFactory::InternalRegisterGeneratedFile(google::protobuf::internal::DescriptorTable const*) [clone .cold]
PUBLIC 27d88 0 google::protobuf::MessageFactory::InternalRegisterGeneratedMessage(google::protobuf::Descriptor const*, google::protobuf::Message const*) [clone .cold]
PUBLIC 27dba 0 google::protobuf::internal::GenericSwap(google::protobuf::Message*, google::protobuf::Message*) [clone .cold]
PUBLIC 27dd0 0 google::protobuf::internal::GetReflectionOrDie(google::protobuf::Message const&) [clone .cold]
PUBLIC 27df0 0 google::protobuf::internal::ReflectionOps::Merge(google::protobuf::Message const&, google::protobuf::Message*) [clone .cold]
PUBLIC 27e5c 0 google::protobuf::internal::ReflectionOps::Clear(google::protobuf::Message*) [clone .cold]
PUBLIC 27e72 0 google::protobuf::internal::ReflectionOps::IsInitialized(google::protobuf::Message const&) [clone .cold]
PUBLIC 27f6a 0 google::protobuf::internal::ReflectionOps::DiscardUnknownFields(google::protobuf::Message*) [clone .cold]
PUBLIC 2805d 0 google::protobuf::internal::SubMessagePrefix(std::__cxx11::basic_string<char, std::char_traits<char>, std::allocator<char> > const&, google::protobuf::FieldDescriptor const*, int) [clone .cold]
PUBLIC 28082 0 google::protobuf::internal::ReflectionOps::FindInitializationErrors(google::protobuf::Message const&, std::__cxx11::basic_string<char, std::char_traits<char>, std::allocator<char> > const&, std::vector<std::__cxx11::basic_string<char, std::char_traits<char>, std::allocator<char> >, std::allocator<std::__cxx11::basic_string<char, std::char_traits<char>, std::allocator<char> > > >*) [clone .cold]
PUBLIC 280f5 0 google::protobuf::strings::SubstituteAndAppend(std::__cxx11::basic_string<char, std::char_traits<char>, std::allocator<char> >*, char const*, google::protobuf::strings::internal::SubstituteArg const&, google::protobuf::strings::internal::SubstituteArg const&, google::protobuf::strings::internal::SubstituteArg const&, google::protobuf::strings::internal::SubstituteArg const&, google::protobuf::strings::internal::SubstituteArg const&, google::protobuf::strings::internal::SubstituteArg const&, google::protobuf::strings::internal::SubstituteArg const&, google::protobuf::strings::internal::SubstituteArg const&, google::protobuf::strings::internal::SubstituteArg const&, google::protobuf::strings::internal::SubstituteArg const&) [clone .cold]
PUBLIC 2815b 0 google::protobuf::strings::Substitute[abi:cxx11](char const*, google::protobuf::strings::internal::SubstituteArg const&, google::protobuf::strings::internal::SubstituteArg const&, google::protobuf::strings::internal::SubstituteArg const&, google::protobuf::strings::internal::SubstituteArg const&, google::protobuf::strings::internal::SubstituteArg const&, google::protobuf::strings::internal::SubstituteArg const&, google::protobuf::strings::internal::SubstituteArg const&, google::protobuf::strings::internal::SubstituteArg const&, google::protobuf::strings::internal::SubstituteArg const&, google::protobuf::strings::internal::SubstituteArg const&) [clone .cold]
PUBLIC 28172 0 common_v2::Id::~Id() [clone .cold]
PUBLIC 28180 0 common_v2::ByteStream::~ByteStream() [clone .cold]
PUBLIC 2818e 0 common_v2::Id* google::protobuf::Arena::CreateMaybeMessage<common_v2::Id>(google::protobuf::Arena*) [clone .cold]
PUBLIC 281a4 0 common_v2::ByteStream* google::protobuf::Arena::CreateMaybeMessage<common_v2::ByteStream>(google::protobuf::Arena*) [clone .cold]
PUBLIC 281ba 0 common_v2::Id::_InternalParse(char const*, google::protobuf::internal::ParseContext*) [clone .cold]
PUBLIC 281ca 0 common_v2::ByteStream::MergeFrom(common_v2::ByteStream const&) [clone .cold]
PUBLIC 281da 0 common_v2::ByteStream::MergeFrom(google::protobuf::Message const&) [clone .cold]
PUBLIC 281ea 0 common_v2::ByteStream::_InternalParse(char const*, google::protobuf::internal::ParseContext*) [clone .cold]
PUBLIC 281fa 0 common_v2::Id::MergeFrom(common_v2::Id const&) [clone .cold]
PUBLIC 2820a 0 common_v2::Id::MergeFrom(google::protobuf::Message const&) [clone .cold]
PUBLIC 2821a 0 sourcelocproto_v2::PathNode* google::protobuf::Arena::CreateMaybeMessage<sourcelocproto_v2::PathNode>(google::protobuf::Arena*) [clone .cold]
PUBLIC 28230 0 sourcelocproto_v2::SourceLoc* google::protobuf::Arena::CreateMaybeMessage<sourcelocproto_v2::SourceLoc>(google::protobuf::Arena*) [clone .cold]
PUBLIC 28246 0 sourcelocproto_v2::SourceMapping* google::protobuf::Arena::CreateMaybeMessage<sourcelocproto_v2::SourceMapping>(google::protobuf::Arena*) [clone .cold]
PUBLIC 2825c 0 sourcelocproto_v2::SourceLoc::MergeFrom(sourcelocproto_v2::SourceLoc const&) [clone .cold]
PUBLIC 2826c 0 sourcelocproto_v2::SourceLoc::MergeFrom(google::protobuf::Message const&) [clone .cold]
PUBLIC 2827c 0 sourcelocproto_v2::SourceMapping::SourceMapping(sourcelocproto_v2::SourceMapping const&) [clone .cold]
PUBLIC 282a6 0 sourcelocproto_v2::SourceLoc::SourceLoc(sourcelocproto_v2::SourceLoc const&) [clone .cold]
PUBLIC 282d0 0 sourcelocproto_v2::SourceMapping::MergeFrom(sourcelocproto_v2::SourceMapping const&) [clone .cold]
PUBLIC 282e0 0 sourcelocproto_v2::SourceMapping::MergeFrom(google::protobuf::Message const&) [clone .cold]
PUBLIC 282f0 0 sourcelocproto_v2::PathNode::PathNode(sourcelocproto_v2::PathNode const&) [clone .cold]
PUBLIC 2831a 0 sourcelocproto_v2::PathNode::MergeFrom(sourcelocproto_v2::PathNode const&) [clone .cold]
PUBLIC 2832a 0 sourcelocproto_v2::PathNode::MergeFrom(google::protobuf::Message const&) [clone .cold]
PUBLIC 2833a 0 sourcelocproto_v2::PathNode::~PathNode() [clone .cold]
PUBLIC 28348 0 sourcelocproto_v2::SourceLoc::~SourceLoc() [clone .cold]
PUBLIC 28356 0 sourcelocproto_v2::SourceMapping::~SourceMapping() [clone .cold]
PUBLIC 28364 0 sourcelocproto_v2::PathNode::_InternalParse(char const*, google::protobuf::internal::ParseContext*) [clone .cold]
PUBLIC 28374 0 sourcelocproto_v2::SourceLoc::_InternalParse(char const*, google::protobuf::internal::ParseContext*) [clone .cold]
PUBLIC 28384 0 sourcelocproto_v2::SourceMapping::_InternalParse(char const*, google::protobuf::internal::ParseContext*) [clone .cold]
PUBLIC 28394 0 msieproto_v2::Partition* google::protobuf::Arena::CreateMaybeMessage<msieproto_v2::Partition>(google::protobuf::Arena*) [clone .cold]
PUBLIC 283aa 0 msieproto_v2::ModuleItemPartition* google::protobuf::Arena::CreateMaybeMessage<msieproto_v2::ModuleItemPartition>(google::protobuf::Arena*) [clone .cold]
PUBLIC 283c0 0 msieproto_v2::StitchPoint* google::protobuf::Arena::CreateMaybeMessage<msieproto_v2::StitchPoint>(google::protobuf::Arena*) [clone .cold]
PUBLIC 283d6 0 msieproto_v2::TopInstance* google::protobuf::Arena::CreateMaybeMessage<msieproto_v2::TopInstance>(google::protobuf::Arena*) [clone .cold]
PUBLIC 283ec 0 msieproto_v2::OoprExtern* google::protobuf::Arena::CreateMaybeMessage<msieproto_v2::OoprExtern>(google::protobuf::Arena*) [clone .cold]
PUBLIC 28402 0 msieproto_v2::OoprTarget* google::protobuf::Arena::CreateMaybeMessage<msieproto_v2::OoprTarget>(google::protobuf::Arena*) [clone .cold]
PUBLIC 28418 0 msieproto_v2::Partition::Partition(msieproto_v2::Partition const&) [clone .cold]
PUBLIC 2842e 0 msieproto_v2::TopInstance::TopInstance(msieproto_v2::TopInstance const&) [clone .cold]
PUBLIC 28444 0 msieproto_v2::TopInstance::MergeFrom(msieproto_v2::TopInstance const&) [clone .cold]
PUBLIC 28454 0 msieproto_v2::TopInstance::MergeFrom(google::protobuf::Message const&) [clone .cold]
PUBLIC 28464 0 msieproto_v2::OoprTarget::OoprTarget(msieproto_v2::OoprTarget const&) [clone .cold]
PUBLIC 2847a 0 msieproto_v2::OoprTarget::MergeFrom(msieproto_v2::OoprTarget const&) [clone .cold]
PUBLIC 2848a 0 msieproto_v2::OoprTarget::MergeFrom(google::protobuf::Message const&) [clone .cold]
PUBLIC 2849a 0 msieproto_v2::OoprExtern::MergeFrom(msieproto_v2::OoprExtern const&) [clone .cold]
PUBLIC 284aa 0 msieproto_v2::OoprExtern::MergeFrom(google::protobuf::Message const&) [clone .cold]
PUBLIC 284ba 0 msieproto_v2::OoprExtern::OoprExtern(msieproto_v2::OoprExtern const&) [clone .cold]
PUBLIC 284e4 0 msieproto_v2::Partition::MergeFrom(msieproto_v2::Partition const&) [clone .cold]
PUBLIC 284f4 0 msieproto_v2::Partition::MergeFrom(google::protobuf::Message const&) [clone .cold]
PUBLIC 28504 0 msieproto_v2::ModuleItemPartition::MergeFrom(msieproto_v2::ModuleItemPartition const&) [clone .cold]
PUBLIC 28514 0 msieproto_v2::ModuleItemPartition::MergeFrom(google::protobuf::Message const&) [clone .cold]
PUBLIC 28524 0 msieproto_v2::StitchPoint::MergeFrom(msieproto_v2::StitchPoint const&) [clone .cold]
PUBLIC 28534 0 msieproto_v2::StitchPoint::MergeFrom(google::protobuf::Message const&) [clone .cold]
PUBLIC 28544 0 msieproto_v2::ModuleItemPartition::ModuleItemPartition(msieproto_v2::ModuleItemPartition const&) [clone .cold]
PUBLIC 2856e 0 msieproto_v2::StitchPoint::StitchPoint(msieproto_v2::StitchPoint const&) [clone .cold]
PUBLIC 285ae 0 msieproto_v2::Partition::~Partition() [clone .cold]
PUBLIC 285bc 0 msieproto_v2::ModuleItemPartition::~ModuleItemPartition() [clone .cold]
PUBLIC 285ca 0 msieproto_v2::StitchPoint::~StitchPoint() [clone .cold]
PUBLIC 285d8 0 msieproto_v2::TopInstance::~TopInstance() [clone .cold]
PUBLIC 285e6 0 msieproto_v2::OoprExtern::~OoprExtern() [clone .cold]
PUBLIC 285f4 0 msieproto_v2::OoprTarget::~OoprTarget() [clone .cold]
PUBLIC 28602 0 msieproto_v2::Partition::_InternalParse(char const*, google::protobuf::internal::ParseContext*) [clone .cold]
PUBLIC 28612 0 msieproto_v2::ModuleItemPartition::_InternalParse(char const*, google::protobuf::internal::ParseContext*) [clone .cold]
PUBLIC 28622 0 msieproto_v2::StitchPoint::_InternalParse(char const*, google::protobuf::internal::ParseContext*) [clone .cold]
PUBLIC 28632 0 msieproto_v2::TopInstance::_InternalParse(char const*, google::protobuf::internal::ParseContext*) [clone .cold]
PUBLIC 28642 0 msieproto_v2::OoprExtern::_InternalParse(char const*, google::protobuf::internal::ParseContext*) [clone .cold]
PUBLIC 28652 0 msieproto_v2::OoprTarget::_InternalParse(char const*, google::protobuf::internal::ParseContext*) [clone .cold]
PUBLIC 28662 0 typeinfoproto_v2::StaticArray::~StaticArray() [clone .cold]
PUBLIC 28670 0 typeinfoproto_v2::Union::~Union() [clone .cold]
PUBLIC 2867e 0 typeinfoproto_v2::PredefinedType::~PredefinedType() [clone .cold]
PUBLIC 2868c 0 typeinfoproto_v2::MultiDimensionArray::~MultiDimensionArray() [clone .cold]
PUBLIC 2869a 0 typeinfoproto_v2::DimensionInfo::~DimensionInfo() [clone .cold]
PUBLIC 286a8 0 typeinfoproto_v2::Enum::~Enum() [clone .cold]
PUBLIC 286b6 0 typeinfoproto_v2::Struct::~Struct() [clone .cold]
PUBLIC 286c4 0 typeinfoproto_v2::TypeInfoMessageType::~TypeInfoMessageType() [clone .cold]
PUBLIC 286d2 0 typeinfoproto_v2::QDAArray::~QDAArray() [clone .cold]
PUBLIC 286e0 0 typeinfoproto_v2::Field::~Field() [clone .cold]
PUBLIC 286ee 0 typeinfoproto_v2::TypeInfoMessageType* google::protobuf::Arena::CreateMaybeMessage<typeinfoproto_v2::TypeInfoMessageType>(google::protobuf::Arena*) [clone .cold]
PUBLIC 28704 0 typeinfoproto_v2::Enum* google::protobuf::Arena::CreateMaybeMessage<typeinfoproto_v2::Enum>(google::protobuf::Arena*) [clone .cold]
PUBLIC 2871a 0 typeinfoproto_v2::EnumFieldInfo* google::protobuf::Arena::CreateMaybeMessage<typeinfoproto_v2::EnumFieldInfo>(google::protobuf::Arena*) [clone .cold]
PUBLIC 28730 0 typeinfoproto_v2::DimensionInfo* google::protobuf::Arena::CreateMaybeMessage<typeinfoproto_v2::DimensionInfo>(google::protobuf::Arena*) [clone .cold]
PUBLIC 28746 0 typeinfoproto_v2::PredefinedType* google::protobuf::Arena::CreateMaybeMessage<typeinfoproto_v2::PredefinedType>(google::protobuf::Arena*) [clone .cold]
PUBLIC 2875c 0 typeinfoproto_v2::QDAArray* google::protobuf::Arena::CreateMaybeMessage<typeinfoproto_v2::QDAArray>(google::protobuf::Arena*) [clone .cold]
PUBLIC 28772 0 typeinfoproto_v2::ClassHandle* google::protobuf::Arena::CreateMaybeMessage<typeinfoproto_v2::ClassHandle>(google::protobuf::Arena*) [clone .cold]
PUBLIC 28788 0 typeinfoproto_v2::VirtualInterface* google::protobuf::Arena::CreateMaybeMessage<typeinfoproto_v2::VirtualInterface>(google::protobuf::Arena*) [clone .cold]
PUBLIC 2879e 0 typeinfoproto_v2::StaticArray* google::protobuf::Arena::CreateMaybeMessage<typeinfoproto_v2::StaticArray>(google::protobuf::Arena*) [clone .cold]
PUBLIC 287b4 0 typeinfoproto_v2::Struct* google::protobuf::Arena::CreateMaybeMessage<typeinfoproto_v2::Struct>(google::protobuf::Arena*) [clone .cold]
PUBLIC 287ca 0 typeinfoproto_v2::Field* google::protobuf::Arena::CreateMaybeMessage<typeinfoproto_v2::Field>(google::protobuf::Arena*) [clone .cold]
PUBLIC 287e0 0 typeinfoproto_v2::Union* google::protobuf::Arena::CreateMaybeMessage<typeinfoproto_v2::Union>(google::protobuf::Arena*) [clone .cold]
PUBLIC 287f6 0 typeinfoproto_v2::MultiDimensionArray* google::protobuf::Arena::CreateMaybeMessage<typeinfoproto_v2::MultiDimensionArray>(google::protobuf::Arena*) [clone .cold]
PUBLIC 2880c 0 typeinfoproto_v2::TypeInfoMessageType::_InternalParse(char const*, google::protobuf::internal::ParseContext*) [clone .cold]
PUBLIC 2881c 0 typeinfoproto_v2::DimensionInfo::_InternalParse(char const*, google::protobuf::internal::ParseContext*) [clone .cold]
PUBLIC 2882c 0 typeinfoproto_v2::ClassHandle::MergeFrom(typeinfoproto_v2::ClassHandle const&) [clone .cold]
PUBLIC 2883c 0 typeinfoproto_v2::ClassHandle::MergeFrom(google::protobuf::Message const&) [clone .cold]
PUBLIC 2884c 0 typeinfoproto_v2::Enum::_InternalParse(char const*, google::protobuf::internal::ParseContext*) [clone .cold]
PUBLIC 2885c 0 typeinfoproto_v2::PredefinedType::_InternalParse(char const*, google::protobuf::internal::ParseContext*) [clone .cold]
PUBLIC 2886c 0 typeinfoproto_v2::QDAArray::_InternalParse(char const*, google::protobuf::internal::ParseContext*) [clone .cold]
PUBLIC 2887c 0 typeinfoproto_v2::StaticArray::_InternalParse(char const*, google::protobuf::internal::ParseContext*) [clone .cold]
PUBLIC 2888c 0 typeinfoproto_v2::Struct::_InternalParse(char const*, google::protobuf::internal::ParseContext*) [clone .cold]
PUBLIC 2889c 0 typeinfoproto_v2::Field::_InternalParse(char const*, google::protobuf::internal::ParseContext*) [clone .cold]
PUBLIC 288ac 0 typeinfoproto_v2::Union::_InternalParse(char const*, google::protobuf::internal::ParseContext*) [clone .cold]
PUBLIC 288bc 0 typeinfoproto_v2::MultiDimensionArray::_InternalParse(char const*, google::protobuf::internal::ParseContext*) [clone .cold]
PUBLIC 288cc 0 typeinfoproto_v2::TypeInfoMessageType::MergeFrom(typeinfoproto_v2::TypeInfoMessageType const&) [clone .cold]
PUBLIC 288dc 0 typeinfoproto_v2::TypeInfoMessageType::MergeFrom(google::protobuf::Message const&) [clone .cold]
PUBLIC 288ec 0 typeinfoproto_v2::Field::MergeFrom(typeinfoproto_v2::Field const&) [clone .cold]
PUBLIC 288fc 0 typeinfoproto_v2::Field::MergeFrom(google::protobuf::Message const&) [clone .cold]
PUBLIC 2890c 0 typeinfoproto_v2::EnumFieldInfo::EnumFieldInfo(typeinfoproto_v2::EnumFieldInfo const&) [clone .cold]
PUBLIC 28922 0 typeinfoproto_v2::QDAArray::MergeFrom(typeinfoproto_v2::QDAArray const&) [clone .cold]
PUBLIC 28932 0 typeinfoproto_v2::QDAArray::MergeFrom(google::protobuf::Message const&) [clone .cold]
PUBLIC 28942 0 typeinfoproto_v2::MultiDimensionArray::MergeFrom(typeinfoproto_v2::MultiDimensionArray const&) [clone .cold]
PUBLIC 28952 0 typeinfoproto_v2::MultiDimensionArray::MergeFrom(google::protobuf::Message const&) [clone .cold]
PUBLIC 28962 0 typeinfoproto_v2::StaticArray::MergeFrom(typeinfoproto_v2::StaticArray const&) [clone .cold]
PUBLIC 28972 0 typeinfoproto_v2::StaticArray::MergeFrom(google::protobuf::Message const&) [clone .cold]
PUBLIC 28982 0 typeinfoproto_v2::Enum::MergeFrom(typeinfoproto_v2::Enum const&) [clone .cold]
PUBLIC 28992 0 typeinfoproto_v2::Enum::MergeFrom(google::protobuf::Message const&) [clone .cold]
PUBLIC 289a2 0 typeinfoproto_v2::DimensionInfo::MergeFrom(typeinfoproto_v2::DimensionInfo const&) [clone .cold]
PUBLIC 289b2 0 typeinfoproto_v2::DimensionInfo::MergeFrom(google::protobuf::Message const&) [clone .cold]
PUBLIC 289c2 0 typeinfoproto_v2::EnumFieldInfo::MergeFrom(typeinfoproto_v2::EnumFieldInfo const&) [clone .cold]
PUBLIC 289d2 0 typeinfoproto_v2::EnumFieldInfo::MergeFrom(google::protobuf::Message const&) [clone .cold]
PUBLIC 289e2 0 typeinfoproto_v2::PredefinedType::MergeFrom(typeinfoproto_v2::PredefinedType const&) [clone .cold]
PUBLIC 289f2 0 typeinfoproto_v2::PredefinedType::MergeFrom(google::protobuf::Message const&) [clone .cold]
PUBLIC 28a02 0 typeinfoproto_v2::Struct::MergeFrom(typeinfoproto_v2::Struct const&) [clone .cold]
PUBLIC 28a12 0 typeinfoproto_v2::Struct::MergeFrom(google::protobuf::Message const&) [clone .cold]
PUBLIC 28a22 0 typeinfoproto_v2::Union::MergeFrom(typeinfoproto_v2::Union const&) [clone .cold]
PUBLIC 28a32 0 typeinfoproto_v2::Union::MergeFrom(google::protobuf::Message const&) [clone .cold]
PUBLIC 28a42 0 typeinfoproto_v2::VirtualInterface::VirtualInterface(typeinfoproto_v2::VirtualInterface const&) [clone .cold]
PUBLIC 28a6c 0 typeinfoproto_v2::ClassHandle::ClassHandle(typeinfoproto_v2::ClassHandle const&) [clone .cold]
PUBLIC 28a96 0 typeinfoproto_v2::VirtualInterface::MergeFrom(typeinfoproto_v2::VirtualInterface const&) [clone .cold]
PUBLIC 28aa6 0 typeinfoproto_v2::VirtualInterface::MergeFrom(google::protobuf::Message const&) [clone .cold]
PUBLIC 28ab6 0 typeinfoproto_v2::EnumFieldInfo::~EnumFieldInfo() [clone .cold]
PUBLIC 28ac4 0 typeinfoproto_v2::EnumFieldInfo::_InternalParse(char const*, google::protobuf::internal::ParseContext*) [clone .cold]
PUBLIC 28ae4 0 typeinfoproto_v2::ClassHandle::~ClassHandle() [clone .cold]
PUBLIC 28af2 0 typeinfoproto_v2::VirtualInterface::~VirtualInterface() [clone .cold]
PUBLIC 28b00 0 typeinfoproto_v2::ClassHandle::_InternalParse(char const*, google::protobuf::internal::ParseContext*) [clone .cold]
PUBLIC 28b10 0 typeinfoproto_v2::VirtualInterface::_InternalParse(char const*, google::protobuf::internal::ParseContext*) [clone .cold]
PUBLIC 28b20 0 hegproto_v2::Data::~Data() [clone .cold]
PUBLIC 28b2e 0 hegproto_v2::Variable* google::protobuf::Arena::CreateMaybeMessage<hegproto_v2::Variable>(google::protobuf::Arena*) [clone .cold]
PUBLIC 28b44 0 hegproto_v2::Constant* google::protobuf::Arena::CreateMaybeMessage<hegproto_v2::Constant>(google::protobuf::Arena*) [clone .cold]
PUBLIC 28b5a 0 hegproto_v2::Parameter* google::protobuf::Arena::CreateMaybeMessage<hegproto_v2::Parameter>(google::protobuf::Arena*) [clone .cold]
PUBLIC 28b70 0 hegproto_v2::UnhandledType* google::protobuf::Arena::CreateMaybeMessage<hegproto_v2::UnhandledType>(google::protobuf::Arena*) [clone .cold]
PUBLIC 28b86 0 hegproto_v2::ElemRef* google::protobuf::Arena::CreateMaybeMessage<hegproto_v2::ElemRef>(google::protobuf::Arena*) [clone .cold]
PUBLIC 28b9c 0 hegproto_v2::AlwaysConstruct* google::protobuf::Arena::CreateMaybeMessage<hegproto_v2::AlwaysConstruct>(google::protobuf::Arena*) [clone .cold]
PUBLIC 28bb2 0 hegproto_v2::Assign* google::protobuf::Arena::CreateMaybeMessage<hegproto_v2::Assign>(google::protobuf::Arena*) [clone .cold]
PUBLIC 28bc8 0 hegproto_v2::ConditionalStmt* google::protobuf::Arena::CreateMaybeMessage<hegproto_v2::ConditionalStmt>(google::protobuf::Arena*) [clone .cold]
PUBLIC 28bde 0 hegproto_v2::BinaryOperator* google::protobuf::Arena::CreateMaybeMessage<hegproto_v2::BinaryOperator>(google::protobuf::Arena*) [clone .cold]
PUBLIC 28bf4 0 hegproto_v2::UnaryOperator* google::protobuf::Arena::CreateMaybeMessage<hegproto_v2::UnaryOperator>(google::protobuf::Arena*) [clone .cold]
PUBLIC 28c0a 0 hegproto_v2::PortDecl* google::protobuf::Arena::CreateMaybeMessage<hegproto_v2::PortDecl>(google::protobuf::Arena*) [clone .cold]
PUBLIC 28c20 0 hegproto_v2::DimensionInfo* google::protobuf::Arena::CreateMaybeMessage<hegproto_v2::DimensionInfo>(google::protobuf::Arena*) [clone .cold]
PUBLIC 28c36 0 hegproto_v2::NamePrefix* google::protobuf::Arena::CreateMaybeMessage<hegproto_v2::NamePrefix>(google::protobuf::Arena*) [clone .cold]
PUBLIC 28c4c 0 hegproto_v2::Data* google::protobuf::Arena::CreateMaybeMessage<hegproto_v2::Data>(google::protobuf::Arena*) [clone .cold]
PUBLIC 28c62 0 hegproto_v2::SourceChunk* google::protobuf::Arena::CreateMaybeMessage<hegproto_v2::SourceChunk>(google::protobuf::Arena*) [clone .cold]
PUBLIC 28c78 0 hegproto_v2::IncludeRef* google::protobuf::Arena::CreateMaybeMessage<hegproto_v2::IncludeRef>(google::protobuf::Arena*) [clone .cold]
PUBLIC 28c8e 0 hegproto_v2::MacroElement* google::protobuf::Arena::CreateMaybeMessage<hegproto_v2::MacroElement>(google::protobuf::Arena*) [clone .cold]
PUBLIC 28ca4 0 hegproto_v2::MacroArg* google::protobuf::Arena::CreateMaybeMessage<hegproto_v2::MacroArg>(google::protobuf::Arena*) [clone .cold]
PUBLIC 28cba 0 hegproto_v2::MacroDefinition* google::protobuf::Arena::CreateMaybeMessage<hegproto_v2::MacroDefinition>(google::protobuf::Arena*) [clone .cold]
PUBLIC 28cd0 0 hegproto_v2::Data::_InternalParse(char const*, google::protobuf::internal::ParseContext*) [clone .cold]
PUBLIC 28ce0 0 hegproto_v2::ConditionalStmt::ConditionalStmt(hegproto_v2::ConditionalStmt const&) [clone .cold]
PUBLIC 28d4a 0 hegproto_v2::TextRef::InternalSwap(hegproto_v2::TextRef*) [clone .cold]
PUBLIC 28d6a 0 hegproto_v2::UnhandledConstruct::InternalSwap(hegproto_v2::UnhandledConstruct*) [clone .cold]
PUBLIC 28d8a 0 hegproto_v2::IndexedExpression::InternalSwap(hegproto_v2::IndexedExpression*) [clone .cold]
PUBLIC 28daa 0 hegproto_v2::EventExpression::InternalSwap(hegproto_v2::EventExpression*) [clone .cold]
PUBLIC 28dca 0 hegproto_v2::EventCtrlStmt::InternalSwap(hegproto_v2::EventCtrlStmt*) [clone .cold]
PUBLIC 28dea 0 hegproto_v2::ModuleInstantiation::InternalSwap(hegproto_v2::ModuleInstantiation*) [clone .cold]
PUBLIC 28e2a 0 hegproto_v2::SourceChunk::SourceChunk(hegproto_v2::SourceChunk const&) [clone .cold]
PUBLIC 28e40 0 hegproto_v2::Data::MergeFrom(hegproto_v2::Data const&) [clone .cold]
PUBLIC 28e50 0 hegproto_v2::Data::MergeFrom(google::protobuf::Message const&) [clone .cold]
PUBLIC 28e60 0 hegproto_v2::Block::InternalSwap(hegproto_v2::Block*) [clone .cold]
PUBLIC 28e80 0 hegproto_v2::InstantiationInfo::InternalSwap(hegproto_v2::InstantiationInfo*) [clone .cold]
PUBLIC 28ea0 0 hegproto_v2::Module::InternalSwap(hegproto_v2::Module*) [clone .cold]
PUBLIC 28ec0 0 hegproto_v2::IncludeRef::IncludeRef(hegproto_v2::IncludeRef const&) [clone .cold]
PUBLIC 28eea 0 hegproto_v2::UnhandledType::UnhandledType(hegproto_v2::UnhandledType const&) [clone .cold]
PUBLIC 28f14 0 hegproto_v2::SourceChunk::MergeFrom(hegproto_v2::SourceChunk const&) [clone .cold]
PUBLIC 28f24 0 hegproto_v2::SourceChunk::MergeFrom(google::protobuf::Message const&) [clone .cold]
PUBLIC 28f34 0 hegproto_v2::DimensionInfo::DimensionInfo(hegproto_v2::DimensionInfo const&) [clone .cold]
PUBLIC 28f5e 0 hegproto_v2::MacroRef::InternalSwap(hegproto_v2::MacroRef*) [clone .cold]
PUBLIC 28f9e 0 hegproto_v2::UnhandledType::MergeFrom(hegproto_v2::UnhandledType const&) [clone .cold]
PUBLIC 28fae 0 hegproto_v2::UnhandledType::MergeFrom(google::protobuf::Message const&) [clone .cold]
PUBLIC 28fbe 0 hegproto_v2::IncludeRef::MergeFrom(hegproto_v2::IncludeRef const&) [clone .cold]
PUBLIC 28fce 0 hegproto_v2::IncludeRef::MergeFrom(google::protobuf::Message const&) [clone .cold]
PUBLIC 28fde 0 hegproto_v2::Variable::Variable(hegproto_v2::Variable const&) [clone .cold]
PUBLIC 29008 0 hegproto_v2::Parameter::Parameter(hegproto_v2::Parameter const&) [clone .cold]
PUBLIC 29032 0 hegproto_v2::Constant::Constant(hegproto_v2::Constant const&) [clone .cold]
PUBLIC 2905c 0 hegproto_v2::MacroElement::MacroElement(hegproto_v2::MacroElement const&) [clone .cold]
PUBLIC 29086 0 hegproto_v2::MacroArg::MacroArg(hegproto_v2::MacroArg const&) [clone .cold]
PUBLIC 290b0 0 hegproto_v2::Variable::MergeFrom(hegproto_v2::Variable const&) [clone .cold]
PUBLIC 290c0 0 hegproto_v2::Variable::MergeFrom(google::protobuf::Message const&) [clone .cold]
PUBLIC 290d0 0 hegproto_v2::Constant::MergeFrom(hegproto_v2::Constant const&) [clone .cold]
PUBLIC 290e0 0 hegproto_v2::Constant::MergeFrom(google::protobuf::Message const&) [clone .cold]
PUBLIC 290f0 0 hegproto_v2::Parameter::MergeFrom(hegproto_v2::Parameter const&) [clone .cold]
PUBLIC 29100 0 hegproto_v2::Parameter::MergeFrom(google::protobuf::Message const&) [clone .cold]
PUBLIC 29110 0 hegproto_v2::MacroElement::MergeFrom(hegproto_v2::MacroElement const&) [clone .cold]
PUBLIC 29120 0 hegproto_v2::MacroElement::MergeFrom(google::protobuf::Message const&) [clone .cold]
PUBLIC 29130 0 hegproto_v2::MacroArg::MergeFrom(hegproto_v2::MacroArg const&) [clone .cold]
PUBLIC 29140 0 hegproto_v2::MacroArg::MergeFrom(google::protobuf::Message const&) [clone .cold]
PUBLIC 29150 0 hegproto_v2::ElemRef::ElemRef(hegproto_v2::ElemRef const&) [clone .cold]
PUBLIC 29190 0 hegproto_v2::AlwaysConstruct::AlwaysConstruct(hegproto_v2::AlwaysConstruct const&) [clone .cold]
PUBLIC 291d0 0 hegproto_v2::MacroDefinition::MergeFrom(hegproto_v2::MacroDefinition const&) [clone .cold]
PUBLIC 291e0 0 hegproto_v2::MacroDefinition::MergeFrom(google::protobuf::Message const&) [clone .cold]
PUBLIC 291f0 0 hegproto_v2::UnaryOperator::UnaryOperator(hegproto_v2::UnaryOperator const&) [clone .cold]
PUBLIC 29230 0 hegproto_v2::AlwaysConstruct::MergeFrom(hegproto_v2::AlwaysConstruct const&) [clone .cold]
PUBLIC 29240 0 hegproto_v2::AlwaysConstruct::MergeFrom(google::protobuf::Message const&) [clone .cold]
PUBLIC 29250 0 hegproto_v2::ElemRef::MergeFrom(hegproto_v2::ElemRef const&) [clone .cold]
PUBLIC 29260 0 hegproto_v2::ElemRef::MergeFrom(google::protobuf::Message const&) [clone .cold]
PUBLIC 29270 0 hegproto_v2::DimensionInfo::MergeFrom(hegproto_v2::DimensionInfo const&) [clone .cold]
PUBLIC 29280 0 hegproto_v2::DimensionInfo::MergeFrom(google::protobuf::Message const&) [clone .cold]
PUBLIC 29290 0 hegproto_v2::MacroDefinition::MacroDefinition(hegproto_v2::MacroDefinition const&) [clone .cold]
PUBLIC 292ba 0 hegproto_v2::UnaryOperator::MergeFrom(hegproto_v2::UnaryOperator const&) [clone .cold]
PUBLIC 292ca 0 hegproto_v2::UnaryOperator::MergeFrom(google::protobuf::Message const&) [clone .cold]
PUBLIC 292da 0 hegproto_v2::PortDecl::MergeFrom(hegproto_v2::PortDecl const&) [clone .cold]
PUBLIC 292ea 0 hegproto_v2::PortDecl::MergeFrom(google::protobuf::Message const&) [clone .cold]
PUBLIC 292fa 0 hegproto_v2::PortDecl::PortDecl(hegproto_v2::PortDecl const&) [clone .cold]
PUBLIC 2933a 0 hegproto_v2::BinaryOperator::BinaryOperator(hegproto_v2::BinaryOperator const&) [clone .cold]
PUBLIC 2938e 0 hegproto_v2::Assign::Assign(hegproto_v2::Assign const&) [clone .cold]
PUBLIC 293e2 0 hegproto_v2::BinaryOperator::MergeFrom(hegproto_v2::BinaryOperator const&) [clone .cold]
PUBLIC 293f2 0 hegproto_v2::BinaryOperator::MergeFrom(google::protobuf::Message const&) [clone .cold]
PUBLIC 29402 0 hegproto_v2::Assign::MergeFrom(hegproto_v2::Assign const&) [clone .cold]
PUBLIC 29412 0 hegproto_v2::Assign::MergeFrom(google::protobuf::Message const&) [clone .cold]
PUBLIC 29422 0 hegproto_v2::ConditionalStmt::MergeFrom(hegproto_v2::ConditionalStmt const&) [clone .cold]
PUBLIC 29432 0 hegproto_v2::ConditionalStmt::MergeFrom(google::protobuf::Message const&) [clone .cold]
PUBLIC 29442 0 hegproto_v2::TextRef::MergeFrom(hegproto_v2::TextRef const&) [clone .cold]
PUBLIC 29462 0 hegproto_v2::TextRef::MergeFrom(google::protobuf::Message const&) [clone .cold]
PUBLIC 29472 0 hegproto_v2::UnhandledConstruct::MergeFrom(hegproto_v2::UnhandledConstruct const&) [clone .cold]
PUBLIC 29492 0 hegproto_v2::UnhandledConstruct::MergeFrom(google::protobuf::Message const&) [clone .cold]
PUBLIC 294a2 0 hegproto_v2::ModuleInstantiation::MergeFrom(hegproto_v2::ModuleInstantiation const&) [clone .cold]
PUBLIC 294d2 0 hegproto_v2::ModuleInstantiation::MergeFrom(google::protobuf::Message const&) [clone .cold]
PUBLIC 294e2 0 hegproto_v2::EventExpression::MergeFrom(hegproto_v2::EventExpression const&) [clone .cold]
PUBLIC 29502 0 hegproto_v2::EventExpression::MergeFrom(google::protobuf::Message const&) [clone .cold]
PUBLIC 29512 0 hegproto_v2::Block::MergeFrom(hegproto_v2::Block const&) [clone .cold]
PUBLIC 29532 0 hegproto_v2::Block::MergeFrom(google::protobuf::Message const&) [clone .cold]
PUBLIC 29542 0 hegproto_v2::InstantiationInfo::MergeFrom(hegproto_v2::InstantiationInfo const&) [clone .cold]
PUBLIC 29562 0 hegproto_v2::InstantiationInfo::MergeFrom(google::protobuf::Message const&) [clone .cold]
PUBLIC 29572 0 hegproto_v2::Module::MergeFrom(hegproto_v2::Module const&) [clone .cold]
PUBLIC 29592 0 hegproto_v2::Module::MergeFrom(google::protobuf::Message const&) [clone .cold]
PUBLIC 295a2 0 hegproto_v2::EventCtrlStmt::MergeFrom(hegproto_v2::EventCtrlStmt const&) [clone .cold]
PUBLIC 295c2 0 hegproto_v2::EventCtrlStmt::MergeFrom(google::protobuf::Message const&) [clone .cold]
PUBLIC 295d2 0 hegproto_v2::IndexedExpression::MergeFrom(hegproto_v2::IndexedExpression const&) [clone .cold]
PUBLIC 295f2 0 hegproto_v2::IndexedExpression::MergeFrom(google::protobuf::Message const&) [clone .cold]
PUBLIC 29602 0 hegproto_v2::MacroRef::MergeFrom(hegproto_v2::MacroRef const&) [clone .cold]
PUBLIC 29632 0 hegproto_v2::MacroRef::MergeFrom(google::protobuf::Message const&) [clone .cold]
PUBLIC 29642 0 hegproto_v2::Variable::~Variable() [clone .cold]
PUBLIC 29650 0 hegproto_v2::Constant::~Constant() [clone .cold]
PUBLIC 2965e 0 hegproto_v2::Parameter::~Parameter() [clone .cold]
PUBLIC 2966c 0 hegproto_v2::UnhandledType::~UnhandledType() [clone .cold]
PUBLIC 2967a 0 hegproto_v2::ElemRef::~ElemRef() [clone .cold]
PUBLIC 29688 0 hegproto_v2::Block::Block(google::protobuf::Arena*) [clone .cold]
PUBLIC 2969a 0 hegproto_v2::Block* google::protobuf::Arena::CreateMaybeMessage<hegproto_v2::Block>(google::protobuf::Arena*) [clone .cold]
PUBLIC 296b0 0 hegproto_v2::Block::Block(hegproto_v2::Block const&) [clone .cold]
PUBLIC 296fc 0 hegproto_v2::EventCtrlStmt::EventCtrlStmt(google::protobuf::Arena*) [clone .cold]
PUBLIC 2970e 0 hegproto_v2::EventCtrlStmt* google::protobuf::Arena::CreateMaybeMessage<hegproto_v2::EventCtrlStmt>(google::protobuf::Arena*) [clone .cold]
PUBLIC 29724 0 hegproto_v2::EventCtrlStmt::EventCtrlStmt(hegproto_v2::EventCtrlStmt const&) [clone .cold]
PUBLIC 29762 0 hegproto_v2::EventExpression::EventExpression(google::protobuf::Arena*) [clone .cold]
PUBLIC 29774 0 hegproto_v2::EventExpression* google::protobuf::Arena::CreateMaybeMessage<hegproto_v2::EventExpression>(google::protobuf::Arena*) [clone .cold]
PUBLIC 2978a 0 hegproto_v2::EventExpression::EventExpression(hegproto_v2::EventExpression const&) [clone .cold]
PUBLIC 297d6 0 hegproto_v2::ModuleInstantiation::ModuleInstantiation(google::protobuf::Arena*) [clone .cold]
PUBLIC 297f0 0 hegproto_v2::ModuleInstantiation* google::protobuf::Arena::CreateMaybeMessage<hegproto_v2::ModuleInstantiation>(google::protobuf::Arena*) [clone .cold]
PUBLIC 29806 0 hegproto_v2::ModuleInstantiation::ModuleInstantiation(hegproto_v2::ModuleInstantiation const&) [clone .cold]
PUBLIC 29878 0 hegproto_v2::InstantiationInfo::InstantiationInfo(google::protobuf::Arena*) [clone .cold]
PUBLIC 2988a 0 hegproto_v2::InstantiationInfo* google::protobuf::Arena::CreateMaybeMessage<hegproto_v2::InstantiationInfo>(google::protobuf::Arena*) [clone .cold]
PUBLIC 298a0 0 hegproto_v2::InstantiationInfo::InstantiationInfo(hegproto_v2::InstantiationInfo const&) [clone .cold]
PUBLIC 298ec 0 hegproto_v2::IndexedExpression::IndexedExpression(google::protobuf::Arena*) [clone .cold]
PUBLIC 298fe 0 hegproto_v2::IndexedExpression* google::protobuf::Arena::CreateMaybeMessage<hegproto_v2::IndexedExpression>(google::protobuf::Arena*) [clone .cold]
PUBLIC 29914 0 hegproto_v2::IndexedExpression::IndexedExpression(hegproto_v2::IndexedExpression const&) [clone .cold]
PUBLIC 29952 0 hegproto_v2::Module::Module(google::protobuf::Arena*) [clone .cold]
PUBLIC 29964 0 hegproto_v2::Module* google::protobuf::Arena::CreateMaybeMessage<hegproto_v2::Module>(google::protobuf::Arena*) [clone .cold]
PUBLIC 2997a 0 hegproto_v2::Module::Module(hegproto_v2::Module const&) [clone .cold]
PUBLIC 299c6 0 hegproto_v2::UnhandledConstruct::UnhandledConstruct(google::protobuf::Arena*) [clone .cold]
PUBLIC 299d8 0 hegproto_v2::UnhandledConstruct* google::protobuf::Arena::CreateMaybeMessage<hegproto_v2::UnhandledConstruct>(google::protobuf::Arena*) [clone .cold]
PUBLIC 299ee 0 hegproto_v2::UnhandledConstruct::UnhandledConstruct(hegproto_v2::UnhandledConstruct const&) [clone .cold]
PUBLIC 29a2c 0 hegproto_v2::TextRef::TextRef(google::protobuf::Arena*) [clone .cold]
PUBLIC 29a3e 0 hegproto_v2::TextRef* google::protobuf::Arena::CreateMaybeMessage<hegproto_v2::TextRef>(google::protobuf::Arena*) [clone .cold]
PUBLIC 29a54 0 hegproto_v2::TextRef::TextRef(hegproto_v2::TextRef const&) [clone .cold]
PUBLIC 29a84 0 hegproto_v2::AlwaysConstruct::~AlwaysConstruct() [clone .cold]
PUBLIC 29a92 0 hegproto_v2::Assign::~Assign() [clone .cold]
PUBLIC 29aa0 0 hegproto_v2::ConditionalStmt::~ConditionalStmt() [clone .cold]
PUBLIC 29aae 0 hegproto_v2::BinaryOperator::~BinaryOperator() [clone .cold]
PUBLIC 29abc 0 hegproto_v2::UnaryOperator::~UnaryOperator() [clone .cold]
PUBLIC 29aca 0 hegproto_v2::PortDecl::~PortDecl() [clone .cold]
PUBLIC 29ad8 0 hegproto_v2::DimensionInfo::~DimensionInfo() [clone .cold]
PUBLIC 29ae6 0 hegproto_v2::NamePrefix::MergeFrom(hegproto_v2::NamePrefix const&) [clone .cold]
PUBLIC 29af6 0 hegproto_v2::NamePrefix::MergeFrom(google::protobuf::Message const&) [clone .cold]
PUBLIC 29b06 0 hegproto_v2::NamePrefix::NamePrefix(hegproto_v2::NamePrefix const&) [clone .cold]
PUBLIC 29b1c 0 hegproto_v2::NamePrefix::~NamePrefix() [clone .cold]
PUBLIC 29b2a 0 hegproto_v2::SourceChunk::~SourceChunk() [clone .cold]
PUBLIC 29b38 0 hegproto_v2::IncludeRef::~IncludeRef() [clone .cold]
PUBLIC 29b46 0 hegproto_v2::MacroElement::~MacroElement() [clone .cold]
PUBLIC 29b54 0 hegproto_v2::MacroArg::~MacroArg() [clone .cold]
PUBLIC 29b62 0 hegproto_v2::MacroRef::MacroRef(google::protobuf::Arena*) [clone .cold]
PUBLIC 29b7c 0 hegproto_v2::MacroRef* google::protobuf::Arena::CreateMaybeMessage<hegproto_v2::MacroRef>(google::protobuf::Arena*) [clone .cold]
PUBLIC 29b92 0 hegproto_v2::MacroRef::MacroRef(hegproto_v2::MacroRef const&) [clone .cold]
PUBLIC 29c12 0 hegproto_v2::MacroRef::~MacroRef() [clone .cold]
PUBLIC 29c20 0 hegproto_v2::MacroDefinition::~MacroDefinition() [clone .cold]
PUBLIC 29c2e 0 hegproto_v2::Block::~Block() [clone .cold]
PUBLIC 29c3c 0 hegproto_v2::TextRef::~TextRef() [clone .cold]
PUBLIC 29c4a 0 hegproto_v2::EventExpression::~EventExpression() [clone .cold]
PUBLIC 29c58 0 hegproto_v2::InstantiationInfo::~InstantiationInfo() [clone .cold]
PUBLIC 29c66 0 hegproto_v2::Module::~Module() [clone .cold]
PUBLIC 29c74 0 hegproto_v2::IndexedExpression::~IndexedExpression() [clone .cold]
PUBLIC 29c82 0 hegproto_v2::EventCtrlStmt::~EventCtrlStmt() [clone .cold]
PUBLIC 29c90 0 hegproto_v2::UnhandledConstruct::~UnhandledConstruct() [clone .cold]
PUBLIC 29c9e 0 hegproto_v2::ModuleInstantiation::~ModuleInstantiation() [clone .cold]
PUBLIC 29cac 0 hegproto_v2::Variable::_InternalParse(char const*, google::protobuf::internal::ParseContext*) [clone .cold]
PUBLIC 29cbc 0 hegproto_v2::Constant::_InternalParse(char const*, google::protobuf::internal::ParseContext*) [clone .cold]
PUBLIC 29ccc 0 hegproto_v2::Parameter::_InternalParse(char const*, google::protobuf::internal::ParseContext*) [clone .cold]
PUBLIC 29cdc 0 hegproto_v2::UnhandledType::_InternalParse(char const*, google::protobuf::internal::ParseContext*) [clone .cold]
PUBLIC 29cec 0 hegproto_v2::ElemRef::_InternalParse(char const*, google::protobuf::internal::ParseContext*) [clone .cold]
PUBLIC 29cfc 0 hegproto_v2::Block::_InternalParse(char const*, google::protobuf::internal::ParseContext*) [clone .cold]
PUBLIC 29d0c 0 hegproto_v2::EventCtrlStmt::_InternalParse(char const*, google::protobuf::internal::ParseContext*) [clone .cold]
PUBLIC 29d1c 0 hegproto_v2::EventExpression::_InternalParse(char const*, google::protobuf::internal::ParseContext*) [clone .cold]
PUBLIC 29d2c 0 hegproto_v2::AlwaysConstruct::_InternalParse(char const*, google::protobuf::internal::ParseContext*) [clone .cold]
PUBLIC 29d3c 0 hegproto_v2::Assign::_InternalParse(char const*, google::protobuf::internal::ParseContext*) [clone .cold]
PUBLIC 29d4c 0 hegproto_v2::ConditionalStmt::_InternalParse(char const*, google::protobuf::internal::ParseContext*) [clone .cold]
PUBLIC 29d5c 0 hegproto_v2::BinaryOperator::_InternalParse(char const*, google::protobuf::internal::ParseContext*) [clone .cold]
PUBLIC 29d6c 0 hegproto_v2::UnaryOperator::_InternalParse(char const*, google::protobuf::internal::ParseContext*) [clone .cold]
PUBLIC 29d7c 0 hegproto_v2::ModuleInstantiation::_InternalParse(char const*, google::protobuf::internal::ParseContext*) [clone .cold]
PUBLIC 29d8c 0 hegproto_v2::InstantiationInfo::_InternalParse(char const*, google::protobuf::internal::ParseContext*) [clone .cold]
PUBLIC 29d9c 0 hegproto_v2::PortDecl::_InternalParse(char const*, google::protobuf::internal::ParseContext*) [clone .cold]
PUBLIC 29dac 0 hegproto_v2::IndexedExpression::_InternalParse(char const*, google::protobuf::internal::ParseContext*) [clone .cold]
PUBLIC 29dbc 0 hegproto_v2::DimensionInfo::_InternalParse(char const*, google::protobuf::internal::ParseContext*) [clone .cold]
PUBLIC 29dcc 0 hegproto_v2::NamePrefix::_InternalParse(char const*, google::protobuf::internal::ParseContext*) [clone .cold]
PUBLIC 29ddc 0 hegproto_v2::Module::_InternalParse(char const*, google::protobuf::internal::ParseContext*) [clone .cold]
PUBLIC 29dec 0 hegproto_v2::UnhandledConstruct::_InternalParse(char const*, google::protobuf::internal::ParseContext*) [clone .cold]
PUBLIC 29dfc 0 hegproto_v2::SourceChunk::_InternalParse(char const*, google::protobuf::internal::ParseContext*) [clone .cold]
PUBLIC 29e0c 0 hegproto_v2::IncludeRef::_InternalParse(char const*, google::protobuf::internal::ParseContext*) [clone .cold]
PUBLIC 29e1c 0 hegproto_v2::MacroElement::_InternalParse(char const*, google::protobuf::internal::ParseContext*) [clone .cold]
PUBLIC 29e2c 0 hegproto_v2::MacroArg::_InternalParse(char const*, google::protobuf::internal::ParseContext*) [clone .cold]
PUBLIC 29e3c 0 hegproto_v2::MacroRef::_InternalParse(char const*, google::protobuf::internal::ParseContext*) [clone .cold]
PUBLIC 29e5c 0 hegproto_v2::MacroDefinition::_InternalParse(char const*, google::protobuf::internal::ParseContext*) [clone .cold]
PUBLIC 29e6c 0 hegproto_v2::TextRef::_InternalParse(char const*, google::protobuf::internal::ParseContext*) [clone .cold]
PUBLIC 29e7c 0 hegproto_v2::Block::_InternalSerialize(unsigned char*, google::protobuf::io::EpsCopyOutputStream*) const [clone .cold]
PUBLIC 29e9c 0 hegproto_v2::EventCtrlStmt::_InternalSerialize(unsigned char*, google::protobuf::io::EpsCopyOutputStream*) const [clone .cold]
PUBLIC 29ebc 0 hegproto_v2::EventExpression::_InternalSerialize(unsigned char*, google::protobuf::io::EpsCopyOutputStream*) const [clone .cold]
PUBLIC 29edc 0 hegproto_v2::ModuleInstantiation::_InternalSerialize(unsigned char*, google::protobuf::io::EpsCopyOutputStream*) const [clone .cold]
PUBLIC 29f1c 0 hegproto_v2::InstantiationInfo::_InternalSerialize(unsigned char*, google::protobuf::io::EpsCopyOutputStream*) const [clone .cold]
PUBLIC 29f3c 0 hegproto_v2::IndexedExpression::_InternalSerialize(unsigned char*, google::protobuf::io::EpsCopyOutputStream*) const [clone .cold]
PUBLIC 29f5c 0 hegproto_v2::Module::_InternalSerialize(unsigned char*, google::protobuf::io::EpsCopyOutputStream*) const [clone .cold]
PUBLIC 29f7c 0 hegproto_v2::UnhandledConstruct::_InternalSerialize(unsigned char*, google::protobuf::io::EpsCopyOutputStream*) const [clone .cold]
PUBLIC 29f9c 0 hegproto_v2::TextRef::_InternalSerialize(unsigned char*, google::protobuf::io::EpsCopyOutputStream*) const [clone .cold]
PUBLIC 29fbc 0 hegproto_v2::MacroRef::_InternalSerialize(unsigned char*, google::protobuf::io::EpsCopyOutputStream*) const [clone .cold]
PUBLIC 29ffc 0 hiertreeproto_v2::Attribute::~Attribute() [clone .cold]
PUBLIC 2a00a 0 hiertreeproto_v2::MessageType::~MessageType() [clone .cold]
PUBLIC 2a018 0 hiertreeproto_v2::Signal_Attribute::~Signal_Attribute() [clone .cold]
PUBLIC 2a026 0 hiertreeproto_v2::Node* google::protobuf::Arena::CreateMaybeMessage<hiertreeproto_v2::Node>(google::protobuf::Arena*) [clone .cold]
PUBLIC 2a03c 0 hiertreeproto_v2::NamedBlock* google::protobuf::Arena::CreateMaybeMessage<hiertreeproto_v2::NamedBlock>(google::protobuf::Arena*) [clone .cold]
PUBLIC 2a052 0 hiertreeproto_v2::Signal_Attribute* google::protobuf::Arena::CreateMaybeMessage<hiertreeproto_v2::Signal_Attribute>(google::protobuf::Arena*) [clone .cold]
PUBLIC 2a068 0 hiertreeproto_v2::Signal* google::protobuf::Arena::CreateMaybeMessage<hiertreeproto_v2::Signal>(google::protobuf::Arena*) [clone .cold]
PUBLIC 2a07e 0 hiertreeproto_v2::ModuleItem* google::protobuf::Arena::CreateMaybeMessage<hiertreeproto_v2::ModuleItem>(google::protobuf::Arena*) [clone .cold]
PUBLIC 2a094 0 hiertreeproto_v2::Edge* google::protobuf::Arena::CreateMaybeMessage<hiertreeproto_v2::Edge>(google::protobuf::Arena*) [clone .cold]
PUBLIC 2a0aa 0 hiertreeproto_v2::Genvar* google::protobuf::Arena::CreateMaybeMessage<hiertreeproto_v2::Genvar>(google::protobuf::Arena*) [clone .cold]
PUBLIC 2a0c0 0 hiertreeproto_v2::ParameterValue* google::protobuf::Arena::CreateMaybeMessage<hiertreeproto_v2::ParameterValue>(google::protobuf::Arena*) [clone .cold]
PUBLIC 2a0d6 0 hiertreeproto_v2::Parameter* google::protobuf::Arena::CreateMaybeMessage<hiertreeproto_v2::Parameter>(google::protobuf::Arena*) [clone .cold]
PUBLIC 2a0ec 0 hiertreeproto_v2::Attribute* google::protobuf::Arena::CreateMaybeMessage<hiertreeproto_v2::Attribute>(google::protobuf::Arena*) [clone .cold]
PUBLIC 2a102 0 hiertreeproto_v2::MessageType* google::protobuf::Arena::CreateMaybeMessage<hiertreeproto_v2::MessageType>(google::protobuf::Arena*) [clone .cold]
PUBLIC 2a118 0 hiertreeproto_v2::CoercedPort* google::protobuf::Arena::CreateMaybeMessage<hiertreeproto_v2::CoercedPort>(google::protobuf::Arena*) [clone .cold]
PUBLIC 2a12e 0 hiertreeproto_v2::Signal_Attribute::_InternalParse(char const*, google::protobuf::internal::ParseContext*) [clone .cold]
PUBLIC 2a13e 0 hiertreeproto_v2::MessageType::_InternalParse(char const*, google::protobuf::internal::ParseContext*) [clone .cold]
PUBLIC 2a14e 0 hiertreeproto_v2::Node::Node(hiertreeproto_v2::Node const&) [clone .cold]
PUBLIC 2a1a2 0 hiertreeproto_v2::Attribute::_InternalParse(char const*, google::protobuf::internal::ParseContext*) [clone .cold]
PUBLIC 2a1b2 0 hiertreeproto_v2::CoercedPort::CoercedPort(hiertreeproto_v2::CoercedPort const&) [clone .cold]
PUBLIC 2a1c8 0 hiertreeproto_v2::MessageType::MergeFrom(hiertreeproto_v2::MessageType const&) [clone .cold]
PUBLIC 2a1d8 0 hiertreeproto_v2::MessageType::MergeFrom(google::protobuf::Message const&) [clone .cold]
PUBLIC 2a1e8 0 hiertreeproto_v2::Attribute::MergeFrom(hiertreeproto_v2::Attribute const&) [clone .cold]
PUBLIC 2a1f8 0 hiertreeproto_v2::Attribute::MergeFrom(google::protobuf::Message const&) [clone .cold]
PUBLIC 2a208 0 hiertreeproto_v2::ParameterValue::ParameterValue(hiertreeproto_v2::ParameterValue const&) [clone .cold]
PUBLIC 2a21e 0 hiertreeproto_v2::CoercedPort::MergeFrom(hiertreeproto_v2::CoercedPort const&) [clone .cold]
PUBLIC 2a22e 0 hiertreeproto_v2::CoercedPort::MergeFrom(google::protobuf::Message const&) [clone .cold]
PUBLIC 2a23e 0 hiertreeproto_v2::Signal_Attribute::MergeFrom(hiertreeproto_v2::Signal_Attribute const&) [clone .cold]
PUBLIC 2a24e 0 hiertreeproto_v2::Signal_Attribute::MergeFrom(google::protobuf::Message const&) [clone .cold]
PUBLIC 2a25e 0 hiertreeproto_v2::Edge::Edge(hiertreeproto_v2::Edge const&) [clone .cold]
PUBLIC 2a288 0 hiertreeproto_v2::ParameterValue::MergeFrom(hiertreeproto_v2::ParameterValue const&) [clone .cold]
PUBLIC 2a298 0 hiertreeproto_v2::ParameterValue::MergeFrom(google::protobuf::Message const&) [clone .cold]
PUBLIC 2a2a8 0 hiertreeproto_v2::Edge::MergeFrom(hiertreeproto_v2::Edge const&) [clone .cold]
PUBLIC 2a2b8 0 hiertreeproto_v2::Edge::MergeFrom(google::protobuf::Message const&) [clone .cold]
PUBLIC 2a2c8 0 hiertreeproto_v2::NamedBlock::NamedBlock(hiertreeproto_v2::NamedBlock const&) [clone .cold]
PUBLIC 2a2f2 0 hiertreeproto_v2::NamedBlock::MergeFrom(hiertreeproto_v2::NamedBlock const&) [clone .cold]
PUBLIC 2a302 0 hiertreeproto_v2::NamedBlock::MergeFrom(google::protobuf::Message const&) [clone .cold]
PUBLIC 2a312 0 hiertreeproto_v2::Parameter::MergeFrom(hiertreeproto_v2::Parameter const&) [clone .cold]
PUBLIC 2a322 0 hiertreeproto_v2::Parameter::MergeFrom(google::protobuf::Message const&) [clone .cold]
PUBLIC 2a332 0 hiertreeproto_v2::Parameter::Parameter(hiertreeproto_v2::Parameter const&) [clone .cold]
PUBLIC 2a372 0 hiertreeproto_v2::Genvar::MergeFrom(hiertreeproto_v2::Genvar const&) [clone .cold]
PUBLIC 2a382 0 hiertreeproto_v2::Genvar::MergeFrom(google::protobuf::Message const&) [clone .cold]
PUBLIC 2a392 0 hiertreeproto_v2::Genvar::Genvar(hiertreeproto_v2::Genvar const&) [clone .cold]
PUBLIC 2a3d2 0 hiertreeproto_v2::ModuleItem::MergeFrom(hiertreeproto_v2::ModuleItem const&) [clone .cold]
PUBLIC 2a3e2 0 hiertreeproto_v2::ModuleItem::MergeFrom(google::protobuf::Message const&) [clone .cold]
PUBLIC 2a3f2 0 hiertreeproto_v2::Signal::MergeFrom(hiertreeproto_v2::Signal const&) [clone .cold]
PUBLIC 2a402 0 hiertreeproto_v2::Signal::MergeFrom(google::protobuf::Message const&) [clone .cold]
PUBLIC 2a412 0 hiertreeproto_v2::Node::MergeFrom(hiertreeproto_v2::Node const&) [clone .cold]
PUBLIC 2a422 0 hiertreeproto_v2::Node::MergeFrom(google::protobuf::Message const&) [clone .cold]
PUBLIC 2a432 0 hiertreeproto_v2::ModuleItem::ModuleItem(hiertreeproto_v2::ModuleItem const&) [clone .cold]
PUBLIC 2a472 0 hiertreeproto_v2::Signal::Signal(hiertreeproto_v2::Signal const&) [clone .cold]
PUBLIC 2a4c6 0 hiertreeproto_v2::Node::~Node() [clone .cold]
PUBLIC 2a4d4 0 hiertreeproto_v2::NamedBlock::~NamedBlock() [clone .cold]
PUBLIC 2a4e2 0 hiertreeproto_v2::Signal::~Signal() [clone .cold]
PUBLIC 2a4f0 0 hiertreeproto_v2::ModuleItem::~ModuleItem() [clone .cold]
PUBLIC 2a4fe 0 hiertreeproto_v2::Edge::~Edge() [clone .cold]
PUBLIC 2a50c 0 hiertreeproto_v2::Genvar::~Genvar() [clone .cold]
PUBLIC 2a51a 0 hiertreeproto_v2::Parameter::~Parameter() [clone .cold]
PUBLIC 2a528 0 hiertreeproto_v2::CoercedPort::~CoercedPort() [clone .cold]
PUBLIC 2a536 0 hiertreeproto_v2::Node::_InternalParse(char const*, google::protobuf::internal::ParseContext*) [clone .cold]
PUBLIC 2a546 0 hiertreeproto_v2::NamedBlock::_InternalParse(char const*, google::protobuf::internal::ParseContext*) [clone .cold]
PUBLIC 2a556 0 hiertreeproto_v2::Signal::_InternalParse(char const*, google::protobuf::internal::ParseContext*) [clone .cold]
PUBLIC 2a576 0 hiertreeproto_v2::ModuleItem::_InternalParse(char const*, google::protobuf::internal::ParseContext*) [clone .cold]
PUBLIC 2a586 0 hiertreeproto_v2::Edge::_InternalParse(char const*, google::protobuf::internal::ParseContext*) [clone .cold]
PUBLIC 2a596 0 hiertreeproto_v2::Genvar::_InternalParse(char const*, google::protobuf::internal::ParseContext*) [clone .cold]
PUBLIC 2a5a6 0 hiertreeproto_v2::Parameter::_InternalParse(char const*, google::protobuf::internal::ParseContext*) [clone .cold]
PUBLIC 2a5b6 0 hiertreeproto_v2::CoercedPort::_InternalParse(char const*, google::protobuf::internal::ParseContext*) [clone .cold]
PUBLIC 2a5c6 0 hiertreeproto_v2::ParameterValue::~ParameterValue() [clone .cold]
PUBLIC 2a5d4 0 hiertreeproto_v2::ParameterValue::_InternalParse(char const*, google::protobuf::internal::ParseContext*) [clone .cold]
PUBLIC 2a600 0 _GLOBAL__sub_I_sagegen.cc
PUBLIC 2af40 0 _GLOBAL__sub_I_logger.cc
PUBLIC 2af90 0 _GLOBAL__sub_I_protobuf_producer.cc
PUBLIC 2b100 0 _GLOBAL__sub_I_values.cc
PUBLIC 2b140 0 _GLOBAL__sub_I_typeobj.cc
PUBLIC 2b220 0 _GLOBAL__sub_I_hdlgraph.cc
PUBLIC 2b2d0 0 _GLOBAL__sub_I_source_info.cc
PUBLIC 2b4b0 0 _GLOBAL__sub_I_io.cc
PUBLIC 2b4e0 0 _GLOBAL__sub_I_proto_api.cc
PUBLIC 2b520 0 _GLOBAL__sub_I_error_code.cpp
PUBLIC 2b550 0 _GLOBAL__sub_I_common.cc
PUBLIC 2b580 0 _GLOBAL__sub_I_int128.cc
PUBLIC 2b5b0 0 _GLOBAL__sub_I_status.cc
PUBLIC 2b670 0 _GLOBAL__sub_I_arena.cc
PUBLIC 2b6a0 0 _GLOBAL__sub_I_generated_message_util.cc
PUBLIC 2b6d0 0 _GLOBAL__sub_I_implicit_weak_message.cc
PUBLIC 2b700 0 _GLOBAL__sub_I_message_lite.cc
PUBLIC 2b730 0 _GLOBAL__sub_I_parse_context.cc
PUBLIC 2b760 0 _GLOBAL__sub_I_repeated_field.cc
PUBLIC 2b790 0 _GLOBAL__sub_I_wire_format_lite.cc
PUBLIC 2b7c0 0 _GLOBAL__sub_I_coded_stream.cc
PUBLIC 2b7f0 0 _GLOBAL__sub_I_zero_copy_stream_impl.cc
PUBLIC 2b820 0 _GLOBAL__sub_I_zero_copy_stream_impl_lite.cc
PUBLIC 2b850 0 _GLOBAL__sub_I_text_format.cc
PUBLIC 2b880 0 _GLOBAL__sub_I_unknown_field_set.cc
PUBLIC 2b8b0 0 _GLOBAL__sub_I_wire_format.cc
PUBLIC 2b8e0 0 _GLOBAL__sub_I_tokenizer.cc
PUBLIC 2b910 0 _GLOBAL__sub_I_delimited_message_util.cc
PUBLIC 2b940 0 _GLOBAL__sub_I_stringprintf.cc
PUBLIC 2b970 0 _GLOBAL__sub_I_structurally_valid.cc
PUBLIC 2b9b0 0 _GLOBAL__sub_I_strutil.cc
PUBLIC 2b9e0 0 _GLOBAL__sub_I_any_lite.cc
PUBLIC 2ba10 0 _GLOBAL__sub_I_extension_set.cc
PUBLIC 2ba40 0 _GLOBAL__sub_I_strtod.cc
PUBLIC 2ba70 0 _GLOBAL__sub_I_zero_copy_stream.cc
PUBLIC 2baa0 0 _GLOBAL__sub_I_any.cc
PUBLIC 2bad0 0 _GLOBAL__sub_I_descriptor.cc
PUBLIC 2bb20 0 _GLOBAL__sub_I_descriptor_database.cc
PUBLIC 2bb50 0 _GLOBAL__sub_I_descriptor.pb.cc
PUBLIC 2bb90 0 _GLOBAL__sub_I_dynamic_message.cc
PUBLIC 2bbc0 0 _GLOBAL__sub_I_extension_set_heavy.cc
PUBLIC 2bbf0 0 _GLOBAL__sub_I_generated_message_reflection.cc
PUBLIC 2bc20 0 _GLOBAL__sub_I_map_field.cc
PUBLIC 2bc50 0 _GLOBAL__sub_I_message.cc
PUBLIC 2bc80 0 _GLOBAL__sub_I_reflection_ops.cc
PUBLIC 2bcb0 0 _GLOBAL__sub_I_substitute.cc
PUBLIC 2bce0 0 _GLOBAL__sub_I_common_v2.pb.cc
PUBLIC 2bd20 0 _GLOBAL__sub_I_sourcelocdb_v2.pb.cc
PUBLIC 2bd60 0 _GLOBAL__sub_I_msiedb_v2.pb.cc
PUBLIC 2bda0 0 _GLOBAL__sub_I_typeinfo_v2.pb.cc
PUBLIC 2bde0 0 _GLOBAL__sub_I_hegdb_v2.pb.cc
PUBLIC 2be20 0 _GLOBAL__sub_I_hiertreedb_v2.pb.cc
PUBLIC 2be60 0 deregister_tm_clones
PUBLIC 2be90 0 register_tm_clones
PUBLIC 2bed0 0 __do_global_dtors_aux
PUBLIC 2bf10 0 frame_dummy
PUBLIC 2bf20 0 (anonymous namespace)::isValidScope(xst_s*)
PUBLIC 2c060 0 Sage::FuncLoader<&(anonymous namespace)::dsngenLibName, &(anonymous namespace)::str_dsngen_lcvname, char*, ssl_item_s*, int>::~FuncLoader()
PUBLIC 2c070 0 __tcf_0
PUBLIC 2c0c0 0 Sage::LibLoader<&(anonymous namespace)::dsngenLibName>::libInit() [clone .isra.0] [clone .part.0]
PUBLIC 2c0e0 0 Sage::Logger::stream(int) [clone .constprop.0]
PUBLIC 2c140 0 void std::__cxx11::basic_string<char, std::char_traits<char>, std::allocator<char> >::_M_construct<char*>(char*, char*, std::forward_iterator_tag) [clone .constprop.0]
PUBLIC 2c1e0 0 std::__cxx11::basic_string<char, std::char_traits<char>, std::allocator<char> >::basic_string(char const*, std::allocator<char> const&) [clone .isra.0]
PUBLIC 2c2a0 0 Sage::FuncLoader<&(anonymous namespace)::dsngenLibName, &(anonymous namespace)::str_dsngen_record_aname_to_db, void, char*, ssl_item_s*>::funcInit() [clone .isra.0]
PUBLIC 2c300 0 Sage::FuncLoader<&(anonymous namespace)::dsngenLibName, &(anonymous namespace)::str_dsngen_process_scope_oomrs, void, ssl_item_s*, char*, char*, ._831 (ssl_item_s*, xst_s*, ssl_item_s*, char const*, char const*, char const*, char const*, char const*)>::funcInit() [clone .isra.0]
PUBLIC 2c360 0 Sage::FuncLoader<&(anonymous namespace)::dsngenLibName, &(anonymous namespace)::str_dsngen_idaDesignRecordHierarchyEntry, idaStatusCodeT, char const*, char const*, char const*, idaHierarchyKindT, idaHierarchySubKindT, int, char const*, char const*, char const*, int, int>::funcInit() [clone .isra.0]
PUBLIC 2c3c0 0 Sage::FuncLoader<&(anonymous namespace)::dsngenLibName, &(anonymous namespace)::str_dsngen_print_scope_path_to_buf, char const*, char*, ssl_item_s*, char const*>::funcInit() [clone .isra.0]
PUBLIC 2c420 0 (anonymous namespace)::escapeWrap(std::__cxx11::basic_string<char, std::char_traits<char>, std::allocator<char> > const&, std::__cxx11::basic_string<char, std::char_traits<char>, std::allocator<char> >&)
PUBLIC 2c490 0 (anonymous namespace)::fileSysErr(std::__cxx11::basic_string<char, std::char_traits<char>, std::allocator<char> > const&, std::__cxx11::basic_string<char, std::char_traits<char>, std::allocator<char> > const&)
PUBLIC 2c660 0 (anonymous namespace)::recordSourceMapping(char*, char*)
PUBLIC 2c8c0 0 std::__cxx11::basic_string<char, std::char_traits<char>, std::allocator<char> > __gnu_cxx::__to_xstring<std::__cxx11::basic_string<char, std::char_traits<char>, std::allocator<char> >, char>(int (*)(char*, unsigned long, char const*, __va_list_tag*), unsigned long, char const*, ...) [clone .constprop.0]
PUBLIC 2c9f0 0 (anonymous namespace)::getPrimTypeName(vst_s*, bool)
PUBLIC 2d200 0 Sage::getSvStringData(unsigned char*, unsigned long&)
PUBLIC 2d310 0 Sage::getSignature[abi:cxx11](ssl_item_s const*)
PUBLIC 2d790 0 Sage::getLcvName[abi:cxx11](ssl_item_s*, bool)
PUBLIC 2db60 0 Sage::buildUnknownLcvName[abi:cxx11](ssl_item_s*, bool)
PUBLIC 2dce0 0 (anonymous namespace)::logVlogObj(char const*, xst_s*, long*, std::__cxx11::basic_string<char, std::char_traits<char>, std::allocator<char> > const&)
PUBLIC 2e860 0 Sage::getLcvName[abi:cxx11](xst_s*, long*, bool)
PUBLIC 2e890 0 Sage::getCurrentIdCounter()
PUBLIC 2e8a0 0 Sage::getIdCounterAndIncrement()
PUBLIC 2e8b0 0 Sage::incrementIdCounter()
PUBLIC 2e8c0 0 Sage::incrementIdCounterAndGet()
PUBLIC 2e8d0 0 Sage::getTypeIdMap[abi:cxx11]()
PUBLIC 2e8e0 0 Sage::sagegenProfPush(int)
PUBLIC 2e940 0 Sage::sagegenProfPop()
PUBLIC 2e9b0 0 (anonymous namespace)::recordHierNodeTypeSignals(ssl_item_s*, int) [clone .isra.0]
PUBLIC 2ebd0 0 sagegen_generate_xmclone
PUBLIC 2ebe0 0 sagegen_xmclone_prepare
PUBLIC 2ebf0 0 sagegen_xmclone_complete
PUBLIC 2ec00 0 sagegen_xmclone_start_cb
PUBLIC 2ec10 0 sagegen_xmclone_end_cb
PUBLIC 2ec20 0 sagegen_ie_propagate_coercion
PUBLIC 2ece0 0 std::_Rb_tree_iterator<std::pair<std::pair<std::__cxx11::basic_string<char, std::char_traits<char>, std::allocator<char> >, int> const, int> > std::_Rb_tree<std::pair<std::__cxx11::basic_string<char, std::char_traits<char>, std::allocator<char> >, int>, std::pair<std::pair<std::__cxx11::basic_string<char, std::char_traits<char>, std::allocator<char> >, int> const, int>, std::_Select1st<std::pair<std::pair<std::__cxx11::basic_string<char, std::char_traits<char>, std::allocator<char> >, int> const, int> >, std::less<std::pair<std::__cxx11::basic_string<char, std::char_traits<char>, std::allocator<char> >, int> >, std::allocator<std::pair<std::pair<std::__cxx11::basic_string<char, std::char_traits<char>, std::allocator<char> >, int> const, int> > >::_M_emplace_hint_unique<std::piecewise_construct_t const&, std::tuple<std::pair<std::__cxx11::basic_string<char, std::char_traits<char>, std::allocator<char> >, int>&&>, std::tuple<> >(std::_Rb_tree_const_iterator<std::pair<std::pair<std::__cxx11::basic_string<char, std::char_traits<char>, std::allocator<char> >, int> const, int> >, std::piecewise_construct_t const&, std::tuple<std::pair<std::__cxx11::basic_string<char, std::char_traits<char>, std::allocator<char> >, int>&&>&&, std::tuple<>&&) [clone .isra.0]
PUBLIC 2f4a0 0 (anonymous namespace)::getNodeTypeId(std::__cxx11::basic_string<char, std::char_traits<char>, std::allocator<char> > const&, bool*)
PUBLIC 2f790 0 std::__detail::_Map_base<std::__cxx11::basic_string<char, std::char_traits<char>, std::allocator<char> >, std::pair<std::__cxx11::basic_string<char, std::char_traits<char>, std::allocator<char> > const, int>, std::allocator<std::pair<std::__cxx11::basic_string<char, std::char_traits<char>, std::allocator<char> > const, int> >, std::__detail::_Select1st, std::equal_to<std::__cxx11::basic_string<char, std::char_traits<char>, std::allocator<char> > >, std::hash<std::__cxx11::basic_string<char, std::char_traits<char>, std::allocator<char> > >, std::__detail::_Mod_range_hashing, std::__detail::_Default_ranged_hash, std::__detail::_Prime_rehash_policy, std::__detail::_Hashtable_traits<true, false, true>, true>::operator[](std::__cxx11::basic_string<char, std::char_traits<char>, std::allocator<char> > const&) [clone .constprop.0]
PUBLIC 2f8a0 0 (anonymous namespace)::getPartitionId(long*)
PUBLIC 2f930 0 (anonymous namespace)::getNodeId(xst_s*, long*, bool*)
PUBLIC 2fd40 0 (anonymous namespace)::getHierParent(int, ssl_item_s*, ssl_item_s const*, int*, std::__cxx11::basic_string<char, std::char_traits<char>, std::allocator<char> > const&) [clone .isra.0] [clone .constprop.0]
PUBLIC 302b0 0 sagegen_ie_get_partition_coercion
PUBLIC 311a0 0 (anonymous namespace)::recordCoercedPort(ssl_item_s*, ssl_item_s*)
PUBLIC 312e0 0 sagegen_begin_shutdown
PUBLIC 31840 0 sagegen_ie_stitch_pair
PUBLIC 32f90 0 sagegen_top_instance
PUBLIC 33360 0 sagegen_ie_connect_oopr
PUBLIC 33d30 0 (anonymous namespace)::recordHierNodeType(ssl_item_s*, bool)
PUBLIC 34f20 0 (anonymous namespace)::recordScope(xst_s*, long*, std::__cxx11::basic_string<char, std::char_traits<char>, std::allocator<char> > const&) [clone .constprop.0]
PUBLIC 35b70 0 (anonymous namespace)::processXstItems(ssl_item_s*, idaStatusCodeT, char*, char*, std::__cxx11::basic_string<char, std::char_traits<char>, std::allocator<char> > const&) [clone .constprop.0]
PUBLIC 37110 0 (anonymous namespace)::traverseDesignCallback(ssl_item_s*)
PUBLIC 37a40 0 (anonymous namespace)::sagegenGenerate(char*, char*, char*, char*, char*, char*, int, bool, bool, void*, void*)
PUBLIC 3a310 0 sagegen_generate
PUBLIC 3a330 0 sagegen_wait_and_cleanup
PUBLIC 3a5b0 0 (anonymous namespace)::exitHandler(long*, int)
PUBLIC 3a920 0 std::ctype<char>::do_widen(char) const
PUBLIC 3a930 0 Sage::ProtoAPI::commInit(char const*, bool, bool)
PUBLIC 3a940 0 Sage::ProtoAPI::commSignalShutdown()
PUBLIC 3a950 0 Sage::ProtoAPI::commWaitAndCleanup()
PUBLIC 3a960 0 Sage::ProtoAPI::recordSourceLoc(int, Sage::GenSrcLoc const&, bool)
PUBLIC 3a970 0 Sage::ProtoAPI::recordSourceMapping(int, std::__cxx11::basic_string<char, std::char_traits<char>, std::allocator<char> > const&, int, std::__cxx11::basic_string<char, std::char_traits<char>, std::allocator<char> > const&)
PUBLIC 3a980 0 Sage::ProtoAPI::recordPathNode(Sage::Util::PathTree::Node const*, bool)
PUBLIC 3a990 0 Sage::ProtoAPI::recordHierEdge(int, int, hiertreeproto_v2::Edge_EdgeKind)
PUBLIC 3a9a0 0 Sage::ProtoAPI::recordHierNode(int, int, int, std::__cxx11::basic_string<char, std::char_traits<char>, std::allocator<char> > const&, int)
PUBLIC 3a9b0 0 Sage::ProtoAPI::startHierNodeType(int, int, std::__cxx11::basic_string<char, std::char_traits<char>, std::allocator<char> > const&, std::__cxx11::basic_string<char, std::char_traits<char>, std::allocator<char> > const&, int, hiertreeproto_v2::NamedBlock_Type)
PUBLIC 3a9c0 0 Sage::ProtoAPI::recordCoercedPort(int, char const*)
PUBLIC 3a9d0 0 Sage::ProtoAPI::addParam(int, int, std::__cxx11::basic_string<char, std::char_traits<char>, std::allocator<char> > const&, int)
PUBLIC 3a9e0 0 Sage::ProtoAPI::finishType()
PUBLIC 3a9f0 0 Sage::ProtoAPI::addSignal(int, int, std::__cxx11::basic_string<char, std::char_traits<char>, std::allocator<char> > const&, int, bool, bool, bool, hiertreeproto_v2::Signal_Visibility)
PUBLIC 3aa00 0 Sage::ProtoAPI::addPredefinedType(std::__cxx11::basic_string<char, std::char_traits<char>, std::allocator<char> > const&, bool, bool, bool, typeinfoproto_v2::PredefinedType_Type)
PUBLIC 3aa10 0 Sage::ProtoAPI::addStruct(std::__cxx11::basic_string<char, std::char_traits<char>, std::allocator<char> > const&, bool, bool, bool, bool, std::tuple<bool, bool, long, long>&)
PUBLIC 3aa20 0 Sage::ProtoAPI::addUnion(std::__cxx11::basic_string<char, std::char_traits<char>, std::allocator<char> > const&, bool, bool, bool, bool, std::tuple<bool, bool, long, long>&)
PUBLIC 3aa30 0 Sage::ProtoAPI::finishCompositeClass()
PUBLIC 3aa40 0 Sage::ProtoAPI::finishCompositeQDA()
PUBLIC 3aa50 0 Sage::ProtoAPI::finishCompositeStaticArray()
PUBLIC 3aa60 0 Sage::ProtoAPI::finishCompositeMDA()
PUBLIC 3aa70 0 Sage::ProtoAPI::finishCompositeField()
PUBLIC 3aa80 0 Sage::ProtoAPI::finishCompositeStruct()
PUBLIC 3aa90 0 Sage::ProtoAPI::finishCompositeUnion()
PUBLIC 3aaa0 0 Sage::ProtoAPI::finishCompositeEnum()
PUBLIC 3aab0 0 Sage::ProtoAPI::addField(std::__cxx11::basic_string<char, std::char_traits<char>, std::allocator<char> > const&, typeinfoproto_v2::TypeInfoMessageType_Type)
PUBLIC 3aac0 0 Sage::ProtoAPI::getByteStream(unsigned char*, unsigned long)
PUBLIC 3aad0 0 Sage::ProtoAPI::addEnum(std::__cxx11::basic_string<char, std::char_traits<char>, std::allocator<char> > const&, std::vector<std::pair<std::__cxx11::basic_string<char, std::char_traits<char>, std::allocator<char> >, common_v2::ByteStream*>, std::allocator<std::pair<std::__cxx11::basic_string<char, std::char_traits<char>, std::allocator<char> >, common_v2::ByteStream*> > > const&, unsigned long, bool, bool, bool)
PUBLIC 3aae0 0 Sage::ProtoAPI::addArray(std::__cxx11::basic_string<char, std::char_traits<char>, std::allocator<char> > const&, std::vector<std::tuple<bool, bool, long, long>, std::allocator<std::tuple<bool, bool, long, long> > > const&, typeinfoproto_v2::TypeInfoMessageType_Type, bool, bool)
PUBLIC 3aaf0 0 Sage::ProtoAPI::addQDA(std::__cxx11::basic_string<char, std::char_traits<char>, std::allocator<char> > const&, typeinfoproto_v2::QDAArray_Type, typeinfoproto_v2::TypeInfoMessageType_Type, typeinfoproto_v2::TypeInfoMessageType_Type)
PUBLIC 3ab00 0 Sage::ProtoAPI::addClassHandle(std::__cxx11::basic_string<char, std::char_traits<char>, std::allocator<char> > const&, int, int, typeinfoproto_v2::ClassHandle_Type, typeinfoproto_v2::TypeInfoMessageType_Type)
PUBLIC 3ab10 0 Sage::ProtoAPI::addVirtualInterface(std::__cxx11::basic_string<char, std::char_traits<char>, std::allocator<char> > const&, int, int)
PUBLIC 3ab20 0 Sage::ProtoAPI::markTypeParam()
PUBLIC 3ab30 0 Sage::ProtoAPI::addByteStream(unsigned char*, bool, unsigned long)
PUBLIC 3ab40 0 Sage::ProtoAPI::addStringValue(char*, unsigned long)
PUBLIC 3ab50 0 Sage::ProtoAPI::addStartValue()
PUBLIC 3ab60 0 Sage::ProtoAPI::addEndValue()
PUBLIC 3ab70 0 Sage::ProtoAPI::recordPrimitiveType(int, std::__cxx11::basic_string<char, std::char_traits<char>, std::allocator<char> > const&, int, hiertreeproto_v2::NamedBlock_Type)
PUBLIC 3ab80 0 Sage::ProtoAPI::recordGenvar(int, int, std::__cxx11::basic_string<char, std::char_traits<char>, std::allocator<char> > const&, int, int)
PUBLIC 3ab90 0 Sage::ProtoAPI::recordPartitionInfo(int, std::__cxx11::basic_string<char, std::char_traits<char>, std::allocator<char> > const&, std::__cxx11::basic_string<char, std::char_traits<char>, std::allocator<char> > const&, std::__cxx11::basic_string<char, std::char_traits<char>, std::allocator<char> > const&, std::__cxx11::basic_string<char, std::char_traits<char>, std::allocator<char> > const&, std::__cxx11::basic_string<char, std::char_traits<char>, std::allocator<char> > const&, std::__cxx11::basic_string<char, std::char_traits<char>, std::allocator<char> > const&)
PUBLIC 3aba0 0 Sage::ProtoAPI::recordStitchPoint(int, std::__cxx11::basic_string<char, std::char_traits<char>, std::allocator<char> > const&, std::__cxx11::basic_string<char, std::char_traits<char>, std::allocator<char> > const&, std::__cxx11::basic_string<char, std::char_traits<char>, std::allocator<char> > const&, int, int)
PUBLIC 3abb0 0 Sage::ProtoAPI::recordModuleItemPartition(int, std::__cxx11::basic_string<char, std::char_traits<char>, std::allocator<char> > const&, std::__cxx11::basic_string<char, std::char_traits<char>, std::allocator<char> > const&, std::__cxx11::basic_string<char, std::char_traits<char>, std::allocator<char> > const&, std::__cxx11::basic_string<char, std::char_traits<char>, std::allocator<char> > const&, int)
PUBLIC 3abc0 0 Sage::ProtoAPI::recordTopInstance(int)
PUBLIC 3abd0 0 Sage::ProtoAPI::recordAttribute(std::__cxx11::basic_string<char, std::char_traits<char>, std::allocator<char> > const&, std::__cxx11::basic_string<char, std::char_traits<char>, std::allocator<char> > const&)
PUBLIC 3abe0 0 Sage::ProtoAPI::recordOoprExtern(int, std::__cxx11::basic_string<char, std::char_traits<char>, std::allocator<char> > const&, std::__cxx11::basic_string<char, std::char_traits<char>, std::allocator<char> > const&, bool, int)
PUBLIC 3abf0 0 Sage::ProtoAPI::recordOoprTarget(std::__cxx11::basic_string<char, std::char_traits<char>, std::allocator<char> > const&, std::__cxx11::basic_string<char, std::char_traits<char>, std::allocator<char> > const&, int)
PUBLIC 3ac00 0 Sage::ProtoAPI::recordHegDataMsg(hegproto_v2::Data_Type)
PUBLIC 3ac10 0 Sage::ProtoAPI::recordHegVariable(int, std::__cxx11::basic_string<char, std::char_traits<char>, std::allocator<char> > const&, int)
PUBLIC 3ac20 0 Sage::ProtoAPI::recordHegParameter(int, std::__cxx11::basic_string<char, std::char_traits<char>, std::allocator<char> > const&, int)
PUBLIC 3ac30 0 Sage::ProtoAPI::recordHegPortDecl(int, std::__cxx11::basic_string<char, std::char_traits<char>, std::allocator<char> > const&, hegproto_v2::PortDecl_Direction, int, int)
PUBLIC 3ac40 0 Sage::ProtoAPI::startHegModule(int, std::__cxx11::basic_string<char, std::char_traits<char>, std::allocator<char> > const&, int, std::vector<int, std::allocator<int> > const&, bool)
PUBLIC 3ac50 0 Sage::ProtoAPI::recordHegElemRef(int, int, int)
PUBLIC 3ac60 0 Sage::ProtoAPI::recordHegConstant(int, std::__cxx11::basic_string<char, std::char_traits<char>, std::allocator<char> > const&, int)
PUBLIC 3ac70 0 Sage::ProtoAPI::recordHegInstance(int, int, std::__cxx11::basic_string<char, std::char_traits<char>, std::allocator<char> > const&, std::vector<int, std::allocator<int> > const&, std::vector<int, std::allocator<int> > const&, int)
PUBLIC 3ac80 0 Sage::ProtoAPI::recordHegAssignment(int, hegproto_v2::Assign_Type, int, int, int)
PUBLIC 3ac90 0 Sage::ProtoAPI::recordHegConditional(int, hegproto_v2::ConditionalStmt_Type, int, int, int, int)
PUBLIC 3aca0 0 Sage::ProtoAPI::recordHegSeqBlock(int, std::__cxx11::basic_string<char, std::char_traits<char>, std::allocator<char> > const&, std::vector<int, std::allocator<int> > const&, int)
PUBLIC 3acb0 0 Sage::ProtoAPI::recordHegAlways(int, int, int)
PUBLIC 3acc0 0 Sage::ProtoAPI::recordHegAlwaysEventControl(int, std::vector<int, std::allocator<int> > const&, int, int)
PUBLIC 3acd0 0 Sage::ProtoAPI::recordHegEventExpression(int, hegproto_v2::EventExpression_Type, int, int)
PUBLIC 3ace0 0 Sage::ProtoAPI::recordHegBinaryOp(int, int, int, hegproto_v2::BinaryOperator_Type, int)
PUBLIC 3acf0 0 Sage::ProtoAPI::recordHegUnaryOp(int, int, hegproto_v2::UnaryOperator_Type, int)
PUBLIC 3ad00 0 Sage::ProtoAPI::recordHegIncludeRef(std::__cxx11::basic_string<char, std::char_traits<char>, std::allocator<char> > const&, int, int)
PUBLIC 3ad10 0 Sage::ProtoAPI::recordHegSourceChunk(std::__cxx11::basic_string<char, std::char_traits<char>, std::allocator<char> > const&, int, int, int)
PUBLIC 3ad20 0 Sage::ProtoAPI::startHegMacroRef(int, int, int, int, int, std::__cxx11::basic_string<char, std::char_traits<char>, std::allocator<char> > const&, bool)
PUBLIC 3ad30 0 Sage::ProtoAPI::finishHegMacroRef(hegproto_v2::MacroRef&)
PUBLIC 3ad40 0 Sage::ProtoAPI::startHegMacroArg(int, hegproto_v2::MacroRef&)
PUBLIC 3ad50 0 Sage::ProtoAPI::recordHegMacroDef(int, std::__cxx11::basic_string<char, std::char_traits<char>, std::allocator<char> > const&, int, std::__cxx11::basic_string<char, std::char_traits<char>, std::allocator<char> > const&)
PUBLIC 3ad60 0 Sage::ProtoAPI::addHegMacroElem(std::__cxx11::basic_string<char, std::char_traits<char>, std::allocator<char> > const&, hegproto_v2::MacroElement_Type, int, int, hegproto_v2::MacroRef&)
PUBLIC 3ad70 0 Sage::ProtoAPI::addHegMacroElem(std::__cxx11::basic_string<char, std::char_traits<char>, std::allocator<char> > const&, hegproto_v2::MacroElement_Type, int, int, hegproto_v2::MacroArg&)
PUBLIC 3ad80 0 Sage::ProtoAPI::startHegTextRef()
PUBLIC 3ad90 0 Sage::ProtoAPI::addHegTextRef(int, hegproto_v2::TextRef&)
PUBLIC 3ada0 0 Sage::ProtoAPI::finishHegTextRef(hegproto_v2::TextRef&)
PUBLIC 3adb0 0 Sage::ProtoAPI::recordHegUnhandledType(int, int)
PUBLIC 3adc0 0 std::vector<std::__cxx11::basic_string<char, std::char_traits<char>, std::allocator<char> >, std::allocator<std::__cxx11::basic_string<char, std::char_traits<char>, std::allocator<char> > > >::~vector()
PUBLIC 3ae30 0 std::vector<std::pair<vst_s*, long*>, std::allocator<std::pair<vst_s*, long*> > >::~vector()
PUBLIC 3ae50 0 Sage::CompleteProtoAPI::recordPrimitiveType(int, std::__cxx11::basic_string<char, std::char_traits<char>, std::allocator<char> > const&, int, hiertreeproto_v2::NamedBlock_Type)
PUBLIC 3ae60 0 Sage::CompleteProtoAPI::recordHierNode(int, int, int, std::__cxx11::basic_string<char, std::char_traits<char>, std::allocator<char> > const&, int)
PUBLIC 3ae80 0 Sage::CompleteProtoAPI::recordGenvar(int, int, std::__cxx11::basic_string<char, std::char_traits<char>, std::allocator<char> > const&, int, int)
PUBLIC 3aea0 0 Sage::CompleteProtoAPI::startHierNodeType(int, int, std::__cxx11::basic_string<char, std::char_traits<char>, std::allocator<char> > const&, std::__cxx11::basic_string<char, std::char_traits<char>, std::allocator<char> > const&, int, hiertreeproto_v2::NamedBlock_Type)
PUBLIC 3aec0 0 Sage::CompleteProtoAPI::recordModuleItemPartition(int, std::__cxx11::basic_string<char, std::char_traits<char>, std::allocator<char> > const&, std::__cxx11::basic_string<char, std::char_traits<char>, std::allocator<char> > const&, std::__cxx11::basic_string<char, std::char_traits<char>, std::allocator<char> > const&, std::__cxx11::basic_string<char, std::char_traits<char>, std::allocator<char> > const&, int)
PUBLIC 3aee0 0 Sage::CompleteProtoAPI::commSignalShutdown()
PUBLIC 3aef0 0 Sage::CompleteProtoAPI::commWaitAndCleanup()
PUBLIC 3af00 0 Sage::CompleteProtoAPI::recordCoercedPort(int, char const*)
PUBLIC 3af10 0 Sage::CompleteProtoAPI::commInit(char const*, bool, bool)
PUBLIC 3af30 0 Sage::CompleteProtoAPI::recordHegUnhandledType(int, int)
PUBLIC 3af40 0 Sage::CompleteProtoAPI::finishHegTextRef(hegproto_v2::TextRef&)
PUBLIC 3af50 0 Sage::CompleteProtoAPI::addHegTextRef(int, hegproto_v2::TextRef&)
PUBLIC 3af60 0 Sage::CompleteProtoAPI::startHegTextRef()
PUBLIC 3af70 0 Sage::CompleteProtoAPI::addHegMacroElem(std::__cxx11::basic_string<char, std::char_traits<char>, std::allocator<char> > const&, hegproto_v2::MacroElement_Type, int, int, hegproto_v2::MacroArg&)
PUBLIC 3af90 0 Sage::CompleteProtoAPI::addHegMacroElem(std::__cxx11::basic_string<char, std::char_traits<char>, std::allocator<char> > const&, hegproto_v2::MacroElement_Type, int, int, hegproto_v2::MacroRef&)
PUBLIC 3afb0 0 Sage::CompleteProtoAPI::recordHegMacroDef(int, std::__cxx11::basic_string<char, std::char_traits<char>, std::allocator<char> > const&, int, std::__cxx11::basic_string<char, std::char_traits<char>, std::allocator<char> > const&)
PUBLIC 3afc0 0 Sage::CompleteProtoAPI::startHegMacroArg(int, hegproto_v2::MacroRef&)
PUBLIC 3afd0 0 Sage::CompleteProtoAPI::finishHegMacroRef(hegproto_v2::MacroRef&)
PUBLIC 3afe0 0 Sage::CompleteProtoAPI::startHegMacroRef(int, int, int, int, int, std::__cxx11::basic_string<char, std::char_traits<char>, std::allocator<char> > const&, bool)
PUBLIC 3b000 0 Sage::CompleteProtoAPI::recordHegSourceChunk(std::__cxx11::basic_string<char, std::char_traits<char>, std::allocator<char> > const&, int, int, int)
PUBLIC 3b010 0 Sage::CompleteProtoAPI::recordHegIncludeRef(std::__cxx11::basic_string<char, std::char_traits<char>, std::allocator<char> > const&, int, int)
PUBLIC 3b020 0 Sage::CompleteProtoAPI::recordHegUnaryOp(int, int, hegproto_v2::UnaryOperator_Type, int)
PUBLIC 3b030 0 Sage::CompleteProtoAPI::recordHegBinaryOp(int, int, int, hegproto_v2::BinaryOperator_Type, int)
PUBLIC 3b050 0 Sage::CompleteProtoAPI::recordHegEventExpression(int, hegproto_v2::EventExpression_Type, int, int)
PUBLIC 3b060 0 Sage::CompleteProtoAPI::recordHegAlwaysEventControl(int, std::vector<int, std::allocator<int> > const&, int, int)
PUBLIC 3b070 0 Sage::CompleteProtoAPI::recordHegAlways(int, int, int)
PUBLIC 3b080 0 Sage::CompleteProtoAPI::recordHegSeqBlock(int, std::__cxx11::basic_string<char, std::char_traits<char>, std::allocator<char> > const&, std::vector<int, std::allocator<int> > const&, int)
PUBLIC 3b090 0 Sage::CompleteProtoAPI::recordHegConditional(int, hegproto_v2::ConditionalStmt_Type, int, int, int, int)
PUBLIC 3b0b0 0 Sage::CompleteProtoAPI::recordHegAssignment(int, hegproto_v2::Assign_Type, int, int, int)
PUBLIC 3b0d0 0 Sage::CompleteProtoAPI::recordHegInstance(int, int, std::__cxx11::basic_string<char, std::char_traits<char>, std::allocator<char> > const&, std::vector<int, std::allocator<int> > const&, std::vector<int, std::allocator<int> > const&, int)
PUBLIC 3b0f0 0 Sage::CompleteProtoAPI::recordHegConstant(int, std::__cxx11::basic_string<char, std::char_traits<char>, std::allocator<char> > const&, int)
PUBLIC 3b100 0 Sage::CompleteProtoAPI::recordHegElemRef(int, int, int)
PUBLIC 3b110 0 Sage::CompleteProtoAPI::startHegModule(int, std::__cxx11::basic_string<char, std::char_traits<char>, std::allocator<char> > const&, int, std::vector<int, std::allocator<int> > const&, bool)
PUBLIC 3b130 0 Sage::CompleteProtoAPI::recordHegPortDecl(int, std::__cxx11::basic_string<char, std::char_traits<char>, std::allocator<char> > const&, hegproto_v2::PortDecl_Direction, int, int)
PUBLIC 3b150 0 Sage::CompleteProtoAPI::recordHegParameter(int, std::__cxx11::basic_string<char, std::char_traits<char>, std::allocator<char> > const&, int)
PUBLIC 3b160 0 Sage::CompleteProtoAPI::recordHegVariable(int, std::__cxx11::basic_string<char, std::char_traits<char>, std::allocator<char> > const&, int)
PUBLIC 3b170 0 Sage::CompleteProtoAPI::recordHegDataMsg(hegproto_v2::Data_Type)
PUBLIC 3b180 0 Sage::CompleteProtoAPI::recordOoprTarget(std::__cxx11::basic_string<char, std::char_traits<char>, std::allocator<char> > const&, std::__cxx11::basic_string<char, std::char_traits<char>, std::allocator<char> > const&, int)
PUBLIC 3b190 0 Sage::CompleteProtoAPI::recordOoprExtern(int, std::__cxx11::basic_string<char, std::char_traits<char>, std::allocator<char> > const&, std::__cxx11::basic_string<char, std::char_traits<char>, std::allocator<char> > const&, bool, int)
PUBLIC 3b1b0 0 Sage::CompleteProtoAPI::recordAttribute(std::__cxx11::basic_string<char, std::char_traits<char>, std::allocator<char> > const&, std::__cxx11::basic_string<char, std::char_traits<char>, std::allocator<char> > const&)
PUBLIC 3b1c0 0 Sage::CompleteProtoAPI::recordTopInstance(int)
PUBLIC 3b1d0 0 Sage::CompleteProtoAPI::recordStitchPoint(int, std::__cxx11::basic_string<char, std::char_traits<char>, std::allocator<char> > const&, std::__cxx11::basic_string<char, std::char_traits<char>, std::allocator<char> > const&, std::__cxx11::basic_string<char, std::char_traits<char>, std::allocator<char> > const&, int, int)
PUBLIC 3b1f0 0 Sage::CompleteProtoAPI::recordPartitionInfo(int, std::__cxx11::basic_string<char, std::char_traits<char>, std::allocator<char> > const&, std::__cxx11::basic_string<char, std::char_traits<char>, std::allocator<char> > const&, std::__cxx11::basic_string<char, std::char_traits<char>, std::allocator<char> > const&, std::__cxx11::basic_string<char, std::char_traits<char>, std::allocator<char> > const&, std::__cxx11::basic_string<char, std::char_traits<char>, std::allocator<char> > const&, std::__cxx11::basic_string<char, std::char_traits<char>, std::allocator<char> > const&)
PUBLIC 3b220 0 Sage::CompleteProtoAPI::addEndValue()
PUBLIC 3b230 0 Sage::CompleteProtoAPI::addStartValue()
PUBLIC 3b240 0 Sage::CompleteProtoAPI::addStringValue(char*, unsigned long)
PUBLIC 3b250 0 Sage::CompleteProtoAPI::addByteStream(unsigned char*, bool, unsigned long)
PUBLIC 3b260 0 Sage::CompleteProtoAPI::markTypeParam()
PUBLIC 3b270 0 Sage::CompleteProtoAPI::addVirtualInterface(std::__cxx11::basic_string<char, std::char_traits<char>, std::allocator<char> > const&, int, int)
PUBLIC 3b280 0 Sage::CompleteProtoAPI::addClassHandle(std::__cxx11::basic_string<char, std::char_traits<char>, std::allocator<char> > const&, int, int, typeinfoproto_v2::ClassHandle_Type, typeinfoproto_v2::TypeInfoMessageType_Type)
PUBLIC 3b2a0 0 Sage::CompleteProtoAPI::addQDA(std::__cxx11::basic_string<char, std::char_traits<char>, std::allocator<char> > const&, typeinfoproto_v2::QDAArray_Type, typeinfoproto_v2::TypeInfoMessageType_Type, typeinfoproto_v2::TypeInfoMessageType_Type)
PUBLIC 3b2b0 0 Sage::CompleteProtoAPI::addArray(std::__cxx11::basic_string<char, std::char_traits<char>, std::allocator<char> > const&, std::vector<std::tuple<bool, bool, long, long>, std::allocator<std::tuple<bool, bool, long, long> > > const&, typeinfoproto_v2::TypeInfoMessageType_Type, bool, bool)
PUBLIC 3b2d0 0 Sage::CompleteProtoAPI::addEnum(std::__cxx11::basic_string<char, std::char_traits<char>, std::allocator<char> > const&, std::vector<std::pair<std::__cxx11::basic_string<char, std::char_traits<char>, std::allocator<char> >, common_v2::ByteStream*>, std::allocator<std::pair<std::__cxx11::basic_string<char, std::char_traits<char>, std::allocator<char> >, common_v2::ByteStream*> > > const&, unsigned long, bool, bool, bool)
PUBLIC 3b2f0 0 Sage::CompleteProtoAPI::getByteStream(unsigned char*, unsigned long)
PUBLIC 3b300 0 Sage::CompleteProtoAPI::addField(std::__cxx11::basic_string<char, std::char_traits<char>, std::allocator<char> > const&, typeinfoproto_v2::TypeInfoMessageType_Type)
PUBLIC 3b310 0 Sage::CompleteProtoAPI::finishCompositeEnum()
PUBLIC 3b320 0 Sage::CompleteProtoAPI::finishCompositeUnion()
PUBLIC 3b330 0 Sage::CompleteProtoAPI::finishCompositeStruct()
PUBLIC 3b340 0 Sage::CompleteProtoAPI::finishCompositeField()
PUBLIC 3b350 0 Sage::CompleteProtoAPI::finishCompositeMDA()
PUBLIC 3b360 0 Sage::CompleteProtoAPI::finishCompositeStaticArray()
PUBLIC 3b370 0 Sage::CompleteProtoAPI::finishCompositeQDA()
PUBLIC 3b380 0 Sage::CompleteProtoAPI::finishCompositeClass()
PUBLIC 3b390 0 Sage::CompleteProtoAPI::addUnion(std::__cxx11::basic_string<char, std::char_traits<char>, std::allocator<char> > const&, bool, bool, bool, bool, std::tuple<bool, bool, long, long>&)
PUBLIC 3b3c0 0 Sage::CompleteProtoAPI::addStruct(std::__cxx11::basic_string<char, std::char_traits<char>, std::allocator<char> > const&, bool, bool, bool, bool, std::tuple<bool, bool, long, long>&)
PUBLIC 3b3f0 0 Sage::CompleteProtoAPI::addPredefinedType(std::__cxx11::basic_string<char, std::char_traits<char>, std::allocator<char> > const&, bool, bool, bool, typeinfoproto_v2::PredefinedType_Type)
PUBLIC 3b410 0 Sage::CompleteProtoAPI::addSignal(int, int, std::__cxx11::basic_string<char, std::char_traits<char>, std::allocator<char> > const&, int, bool, bool, bool, hiertreeproto_v2::Signal_Visibility)
PUBLIC 3b450 0 Sage::CompleteProtoAPI::finishType()
PUBLIC 3b460 0 Sage::CompleteProtoAPI::addParam(int, int, std::__cxx11::basic_string<char, std::char_traits<char>, std::allocator<char> > const&, int)
PUBLIC 3b470 0 Sage::CompleteProtoAPI::recordHierEdge(int, int, hiertreeproto_v2::Edge_EdgeKind)
PUBLIC 3b480 0 Sage::CompleteProtoAPI::recordPathNode(Sage::Util::PathTree::Node const*, bool)
PUBLIC 3b490 0 Sage::CompleteProtoAPI::recordSourceMapping(int, std::__cxx11::basic_string<char, std::char_traits<char>, std::allocator<char> > const&, int, std::__cxx11::basic_string<char, std::char_traits<char>, std::allocator<char> > const&)
PUBLIC 3b4a0 0 Sage::CompleteProtoAPI::recordSourceLoc(int, Sage::GenSrcLoc const&, bool)
PUBLIC 3b4b0 0 boost::system::system_error::~system_error()
PUBLIC 3b4e0 0 boost::system::system_error::~system_error()
PUBLIC 3b520 0 std::unordered_map<std::pair<xst_s*, long*>, int, Sage::HashFuncPointersPair<xst_s, long>, std::equal_to<std::pair<xst_s*, long*> >, std::allocator<std::pair<std::pair<xst_s*, long*> const, int> > >::~unordered_map()
PUBLIC 3b5a0 0 std::unordered_set<std::__cxx11::basic_string<char, std::char_traits<char>, std::allocator<char> >, std::hash<std::__cxx11::basic_string<char, std::char_traits<char>, std::allocator<char> > >, std::equal_to<std::__cxx11::basic_string<char, std::char_traits<char>, std::allocator<char> > >, std::allocator<std::__cxx11::basic_string<char, std::char_traits<char>, std::allocator<char> > > >::~unordered_set()
PUBLIC 3b640 0 std::unordered_map<std::__cxx11::basic_string<char, std::char_traits<char>, std::allocator<char> >, int, std::hash<std::__cxx11::basic_string<char, std::char_traits<char>, std::allocator<char> > >, std::equal_to<std::__cxx11::basic_string<char, std::char_traits<char>, std::allocator<char> > >, std::allocator<std::pair<std::__cxx11::basic_string<char, std::char_traits<char>, std::allocator<char> > const, int> > >::~unordered_map()
PUBLIC 3b6e0 0 std::__cxx11::basic_string<char, std::char_traits<char>, std::allocator<char> > std::operator+<char, std::char_traits<char>, std::allocator<char> >(std::__cxx11::basic_string<char, std::char_traits<char>, std::allocator<char> >&&, std::__cxx11::basic_string<char, std::char_traits<char>, std::allocator<char> >&&)
PUBLIC 3b7b0 0 std::_Rb_tree<std::pair<std::__cxx11::basic_string<char, std::char_traits<char>, std::allocator<char> >, int>, std::pair<std::pair<std::__cxx11::basic_string<char, std::char_traits<char>, std::allocator<char> >, int> const, int>, std::_Select1st<std::pair<std::pair<std::__cxx11::basic_string<char, std::char_traits<char>, std::allocator<char> >, int> const, int> >, std::less<std::pair<std::__cxx11::basic_string<char, std::char_traits<char>, std::allocator<char> >, int> >, std::allocator<std::pair<std::pair<std::__cxx11::basic_string<char, std::char_traits<char>, std::allocator<char> >, int> const, int> > >::_M_erase(std::_Rb_tree_node<std::pair<std::pair<std::__cxx11::basic_string<char, std::char_traits<char>, std::allocator<char> >, int> const, int> >*)
PUBLIC 3b820 0 std::map<std::pair<std::__cxx11::basic_string<char, std::char_traits<char>, std::allocator<char> >, int>, int, std::less<std::pair<std::__cxx11::basic_string<char, std::char_traits<char>, std::allocator<char> >, int> >, std::allocator<std::pair<std::pair<std::__cxx11::basic_string<char, std::char_traits<char>, std::allocator<char> >, int> const, int> > >::~map()
PUBLIC 3b880 0 std::_Hashtable<std::__cxx11::basic_string<char, std::char_traits<char>, std::allocator<char> >, std::pair<std::__cxx11::basic_string<char, std::char_traits<char>, std::allocator<char> > const, std::unordered_set<std::__cxx11::basic_string<char, std::char_traits<char>, std::allocator<char> >, std::hash<std::__cxx11::basic_string<char, std::char_traits<char>, std::allocator<char> > >, std::equal_to<std::__cxx11::basic_string<char, std::char_traits<char>, std::allocator<char> > >, std::allocator<std::__cxx11::basic_string<char, std::char_traits<char>, std::allocator<char> > > > >, std::allocator<std::pair<std::__cxx11::basic_string<char, std::char_traits<char>, std::allocator<char> > const, std::unordered_set<std::__cxx11::basic_string<char, std::char_traits<char>, std::allocator<char> >, std::hash<std::__cxx11::basic_string<char, std::char_traits<char>, std::allocator<char> > >, std::equal_to<std::__cxx11::basic_string<char, std::char_traits<char>, std::allocator<char> > >, std::allocator<std::__cxx11::basic_string<char, std::char_traits<char>, std::allocator<char> > > > > >, std::__detail::_Select1st, std::equal_to<std::__cxx11::basic_string<char, std::char_traits<char>, std::allocator<char> > >, std::hash<std::__cxx11::basic_string<char, std::char_traits<char>, std::allocator<char> > >, std::__detail::_Mod_range_hashing, std::__detail::_Default_ranged_hash, std::__detail::_Prime_rehash_policy, std::__detail::_Hashtable_traits<true, false, true> >::clear()
PUBLIC 3b990 0 std::unordered_map<std::__cxx11::basic_string<char, std::char_traits<char>, std::allocator<char> >, std::unordered_set<std::__cxx11::basic_string<char, std::char_traits<char>, std::allocator<char> >, std::hash<std::__cxx11::basic_string<char, std::char_traits<char>, std::allocator<char> > >, std::equal_to<std::__cxx11::basic_string<char, std::char_traits<char>, std::allocator<char> > >, std::allocator<std::__cxx11::basic_string<char, std::char_traits<char>, std::allocator<char> > > >, std::hash<std::__cxx11::basic_string<char, std::char_traits<char>, std::allocator<char> > >, std::equal_to<std::__cxx11::basic_string<char, std::char_traits<char>, std::allocator<char> > >, std::allocator<std::pair<std::__cxx11::basic_string<char, std::char_traits<char>, std::allocator<char> > const, std::unordered_set<std::__cxx11::basic_string<char, std::char_traits<char>, std::allocator<char> >, std::hash<std::__cxx11::basic_string<char, std::char_traits<char>, std::allocator<char> > >, std::equal_to<std::__cxx11::basic_string<char, std::char_traits<char>, std::allocator<char> > >, std::allocator<std::__cxx11::basic_string<char, std::char_traits<char>, std::allocator<char> > > > > > >::~unordered_map()
PUBLIC 3b9c0 0 void std::vector<std::__cxx11::basic_string<char, std::char_traits<char>, std::allocator<char> >, std::allocator<std::__cxx11::basic_string<char, std::char_traits<char>, std::allocator<char> > > >::_M_realloc_insert<std::__cxx11::basic_string<char, std::char_traits<char>, std::allocator<char> > const&>(__gnu_cxx::__normal_iterator<std::__cxx11::basic_string<char, std::char_traits<char>, std::allocator<char> >*, std::vector<std::__cxx11::basic_string<char, std::char_traits<char>, std::allocator<char> >, std::allocator<std::__cxx11::basic_string<char, std::char_traits<char>, std::allocator<char> > > > >, std::__cxx11::basic_string<char, std::char_traits<char>, std::allocator<char> > const&)
PUBLIC 3bcb0 0 std::_Rb_tree<std::pair<std::__cxx11::basic_string<char, std::char_traits<char>, std::allocator<char> >, int>, std::pair<std::pair<std::__cxx11::basic_string<char, std::char_traits<char>, std::allocator<char> >, int> const, int>, std::_Select1st<std::pair<std::pair<std::__cxx11::basic_string<char, std::char_traits<char>, std::allocator<char> >, int> const, int> >, std::less<std::pair<std::__cxx11::basic_string<char, std::char_traits<char>, std::allocator<char> >, int> >, std::allocator<std::pair<std::pair<std::__cxx11::basic_string<char, std::char_traits<char>, std::allocator<char> >, int> const, int> > >::_M_get_insert_unique_pos(std::pair<std::__cxx11::basic_string<char, std::char_traits<char>, std::allocator<char> >, int> const&)
PUBLIC 3bf00 0 std::map<std::pair<std::__cxx11::basic_string<char, std::char_traits<char>, std::allocator<char> >, int>, int, std::less<std::pair<std::__cxx11::basic_string<char, std::char_traits<char>, std::allocator<char> >, int> >, std::allocator<std::pair<std::pair<std::__cxx11::basic_string<char, std::char_traits<char>, std::allocator<char> >, int> const, int> > >::operator[](std::pair<std::__cxx11::basic_string<char, std::char_traits<char>, std::allocator<char> >, int>&&)
PUBLIC 3c0f0 0 std::pair<std::_Rb_tree_iterator<std::pair<std::pair<std::__cxx11::basic_string<char, std::char_traits<char>, std::allocator<char> >, int> const, int> >, bool> std::_Rb_tree<std::pair<std::__cxx11::basic_string<char, std::char_traits<char>, std::allocator<char> >, int>, std::pair<std::pair<std::__cxx11::basic_string<char, std::char_traits<char>, std::allocator<char> >, int> const, int>, std::_Select1st<std::pair<std::pair<std::__cxx11::basic_string<char, std::char_traits<char>, std::allocator<char> >, int> const, int> >, std::less<std::pair<std::__cxx11::basic_string<char, std::char_traits<char>, std::allocator<char> >, int> >, std::allocator<std::pair<std::pair<std::__cxx11::basic_string<char, std::char_traits<char>, std::allocator<char> >, int> const, int> > >::_M_insert_unique<std::pair<std::pair<std::__cxx11::basic_string<char, std::char_traits<char>, std::allocator<char> >, int> const, int> >(std::pair<std::pair<std::__cxx11::basic_string<char, std::char_traits<char>, std::allocator<char> >, int> const, int>&&)
PUBLIC 3c340 0 void std::vector<std::pair<vst_s*, long*>, std::allocator<std::pair<vst_s*, long*> > >::_M_realloc_insert<std::pair<vst_s*, long*> >(__gnu_cxx::__normal_iterator<std::pair<vst_s*, long*>*, std::vector<std::pair<vst_s*, long*>, std::allocator<std::pair<vst_s*, long*> > > >, std::pair<vst_s*, long*>&&)
PUBLIC 3c500 0 std::_Hashtable<std::__cxx11::basic_string<char, std::char_traits<char>, std::allocator<char> >, std::pair<std::__cxx11::basic_string<char, std::char_traits<char>, std::allocator<char> > const, int>, std::allocator<std::pair<std::__cxx11::basic_string<char, std::char_traits<char>, std::allocator<char> > const, int> >, std::__detail::_Select1st, std::equal_to<std::__cxx11::basic_string<char, std::char_traits<char>, std::allocator<char> > >, std::hash<std::__cxx11::basic_string<char, std::char_traits<char>, std::allocator<char> > >, std::__detail::_Mod_range_hashing, std::__detail::_Default_ranged_hash, std::__detail::_Prime_rehash_policy, std::__detail::_Hashtable_traits<true, false, true> >::_M_rehash(unsigned long, unsigned long const&)
PUBLIC 3c630 0 std::_Hashtable<std::__cxx11::basic_string<char, std::char_traits<char>, std::allocator<char> >, std::pair<std::__cxx11::basic_string<char, std::char_traits<char>, std::allocator<char> > const, int>, std::allocator<std::pair<std::__cxx11::basic_string<char, std::char_traits<char>, std::allocator<char> > const, int> >, std::__detail::_Select1st, std::equal_to<std::__cxx11::basic_string<char, std::char_traits<char>, std::allocator<char> > >, std::hash<std::__cxx11::basic_string<char, std::char_traits<char>, std::allocator<char> > >, std::__detail::_Mod_range_hashing, std::__detail::_Default_ranged_hash, std::__detail::_Prime_rehash_policy, std::__detail::_Hashtable_traits<true, false, true> >::_M_insert_unique_node(unsigned long, unsigned long, std::__detail::_Hash_node<std::pair<std::__cxx11::basic_string<char, std::char_traits<char>, std::allocator<char> > const, int>, true>*, unsigned long)
PUBLIC 3c730 0 std::pair<std::__detail::_Node_iterator<std::pair<std::__cxx11::basic_string<char, std::char_traits<char>, std::allocator<char> > const, int>, false, true>, bool> std::_Hashtable<std::__cxx11::basic_string<char, std::char_traits<char>, std::allocator<char> >, std::pair<std::__cxx11::basic_string<char, std::char_traits<char>, std::allocator<char> > const, int>, std::allocator<std::pair<std::__cxx11::basic_string<char, std::char_traits<char>, std::allocator<char> > const, int> >, std::__detail::_Select1st, std::equal_to<std::__cxx11::basic_string<char, std::char_traits<char>, std::allocator<char> > >, std::hash<std::__cxx11::basic_string<char, std::char_traits<char>, std::allocator<char> > >, std::__detail::_Mod_range_hashing, std::__detail::_Default_ranged_hash, std::__detail::_Prime_rehash_policy, std::__detail::_Hashtable_traits<true, false, true> >::_M_emplace<std::pair<std::__cxx11::basic_string<char, std::char_traits<char>, std::allocator<char> > const, int> >(std::integral_constant<bool, true>, std::pair<std::__cxx11::basic_string<char, std::char_traits<char>, std::allocator<char> > const, int>&&)
PUBLIC 3c930 0 std::_Hashtable<std::__cxx11::basic_string<char, std::char_traits<char>, std::allocator<char> >, std::pair<std::__cxx11::basic_string<char, std::char_traits<char>, std::allocator<char> > const, std::unordered_set<std::__cxx11::basic_string<char, std::char_traits<char>, std::allocator<char> >, std::hash<std::__cxx11::basic_string<char, std::char_traits<char>, std::allocator<char> > >, std::equal_to<std::__cxx11::basic_string<char, std::char_traits<char>, std::allocator<char> > >, std::allocator<std::__cxx11::basic_string<char, std::char_traits<char>, std::allocator<char> > > > >, std::allocator<std::pair<std::__cxx11::basic_string<char, std::char_traits<char>, std::allocator<char> > const, std::unordered_set<std::__cxx11::basic_string<char, std::char_traits<char>, std::allocator<char> >, std::hash<std::__cxx11::basic_string<char, std::char_traits<char>, std::allocator<char> > >, std::equal_to<std::__cxx11::basic_string<char, std::char_traits<char>, std::allocator<char> > >, std::allocator<std::__cxx11::basic_string<char, std::char_traits<char>, std::allocator<char> > > > > >, std::__detail::_Select1st, std::equal_to<std::__cxx11::basic_string<char, std::char_traits<char>, std::allocator<char> > >, std::hash<std::__cxx11::basic_string<char, std::char_traits<char>, std::allocator<char> > >, std::__detail::_Mod_range_hashing, std::__detail::_Default_ranged_hash, std::__detail::_Prime_rehash_policy, std::__detail::_Hashtable_traits<true, false, true> >::_M_rehash(unsigned long, unsigned long const&)
PUBLIC 3ca60 0 std::_Hashtable<std::__cxx11::basic_string<char, std::char_traits<char>, std::allocator<char> >, std::pair<std::__cxx11::basic_string<char, std::char_traits<char>, std::allocator<char> > const, std::unordered_set<std::__cxx11::basic_string<char, std::char_traits<char>, std::allocator<char> >, std::hash<std::__cxx11::basic_string<char, std::char_traits<char>, std::allocator<char> > >, std::equal_to<std::__cxx11::basic_string<char, std::char_traits<char>, std::allocator<char> > >, std::allocator<std::__cxx11::basic_string<char, std::char_traits<char>, std::allocator<char> > > > >, std::allocator<std::pair<std::__cxx11::basic_string<char, std::char_traits<char>, std::allocator<char> > const, std::unordered_set<std::__cxx11::basic_string<char, std::char_traits<char>, std::allocator<char> >, std::hash<std::__cxx11::basic_string<char, std::char_traits<char>, std::allocator<char> > >, std::equal_to<std::__cxx11::basic_string<char, std::char_traits<char>, std::allocator<char> > >, std::allocator<std::__cxx11::basic_string<char, std::char_traits<char>, std::allocator<char> > > > > >, std::__detail::_Select1st, std::equal_to<std::__cxx11::basic_string<char, std::char_traits<char>, std::allocator<char> > >, std::hash<std::__cxx11::basic_string<char, std::char_traits<char>, std::allocator<char> > >, std::__detail::_Mod_range_hashing, std::__detail::_Default_ranged_hash, std::__detail::_Prime_rehash_policy, std::__detail::_Hashtable_traits<true, false, true> >::_M_insert_unique_node(unsigned long, unsigned long, std::__detail::_Hash_node<std::pair<std::__cxx11::basic_string<char, std::char_traits<char>, std::allocator<char> > const, std::unordered_set<std::__cxx11::basic_string<char, std::char_traits<char>, std::allocator<char> >, std::hash<std::__cxx11::basic_string<char, std::char_traits<char>, std::allocator<char> > >, std::equal_to<std::__cxx11::basic_string<char, std::char_traits<char>, std::allocator<char> > >, std::allocator<std::__cxx11::basic_string<char, std::char_traits<char>, std::allocator<char> > > > >, true>*, unsigned long)
PUBLIC 3cbd0 0 std::__detail::_Map_base<std::__cxx11::basic_string<char, std::char_traits<char>, std::allocator<char> >, std::pair<std::__cxx11::basic_string<char, std::char_traits<char>, std::allocator<char> > const, std::unordered_set<std::__cxx11::basic_string<char, std::char_traits<char>, std::allocator<char> >, std::hash<std::__cxx11::basic_string<char, std::char_traits<char>, std::allocator<char> > >, std::equal_to<std::__cxx11::basic_string<char, std::char_traits<char>, std::allocator<char> > >, std::allocator<std::__cxx11::basic_string<char, std::char_traits<char>, std::allocator<char> > > > >, std::allocator<std::pair<std::__cxx11::basic_string<char, std::char_traits<char>, std::allocator<char> > const, std::unordered_set<std::__cxx11::basic_string<char, std::char_traits<char>, std::allocator<char> >, std::hash<std::__cxx11::basic_string<char, std::char_traits<char>, std::allocator<char> > >, std::equal_to<std::__cxx11::basic_string<char, std::char_traits<char>, std::allocator<char> > >, std::allocator<std::__cxx11::basic_string<char, std::char_traits<char>, std::allocator<char> > > > > >, std::__detail::_Select1st, std::equal_to<std::__cxx11::basic_string<char, std::char_traits<char>, std::allocator<char> > >, std::hash<std::__cxx11::basic_string<char, std::char_traits<char>, std::allocator<char> > >, std::__detail::_Mod_range_hashing, std::__detail::_Default_ranged_hash, std::__detail::_Prime_rehash_policy, std::__detail::_Hashtable_traits<true, false, true>, true>::operator[](std::__cxx11::basic_string<char, std::char_traits<char>, std::allocator<char> >&&)
PUBLIC 3cd50 0 std::_Hashtable<std::pair<xst_s*, long*>, std::pair<std::pair<xst_s*, long*> const, int>, std::allocator<std::pair<std::pair<xst_s*, long*> const, int> >, std::__detail::_Select1st, std::equal_to<std::pair<xst_s*, long*> >, Sage::HashFuncPointersPair<xst_s, long>, std::__detail::_Mod_range_hashing, std::__detail::_Default_ranged_hash, std::__detail::_Prime_rehash_policy, std::__detail::_Hashtable_traits<true, false, true> >::_M_rehash(unsigned long, unsigned long const&)
PUBLIC 3ce80 0 std::_Hashtable<std::pair<xst_s*, long*>, std::pair<std::pair<xst_s*, long*> const, int>, std::allocator<std::pair<std::pair<xst_s*, long*> const, int> >, std::__detail::_Select1st, std::equal_to<std::pair<xst_s*, long*> >, Sage::HashFuncPointersPair<xst_s, long>, std::__detail::_Mod_range_hashing, std::__detail::_Default_ranged_hash, std::__detail::_Prime_rehash_policy, std::__detail::_Hashtable_traits<true, false, true> >::_M_insert_unique_node(unsigned long, unsigned long, std::__detail::_Hash_node<std::pair<std::pair<xst_s*, long*> const, int>, true>*, unsigned long)
PUBLIC 3cf70 0 std::pair<std::__detail::_Node_iterator<std::pair<std::pair<xst_s*, long*> const, int>, false, true>, bool> std::_Hashtable<std::pair<xst_s*, long*>, std::pair<std::pair<xst_s*, long*> const, int>, std::allocator<std::pair<std::pair<xst_s*, long*> const, int> >, std::__detail::_Select1st, std::equal_to<std::pair<xst_s*, long*> >, Sage::HashFuncPointersPair<xst_s, long>, std::__detail::_Mod_range_hashing, std::__detail::_Default_ranged_hash, std::__detail::_Prime_rehash_policy, std::__detail::_Hashtable_traits<true, false, true> >::_M_emplace<std::pair<std::pair<xst_s*, long*> const, int> >(std::integral_constant<bool, true>, std::pair<std::pair<xst_s*, long*> const, int>&&)
PUBLIC 3d060 0 std::_Hashtable<std::__cxx11::basic_string<char, std::char_traits<char>, std::allocator<char> >, std::__cxx11::basic_string<char, std::char_traits<char>, std::allocator<char> >, std::allocator<std::__cxx11::basic_string<char, std::char_traits<char>, std::allocator<char> > >, std::__detail::_Identity, std::equal_to<std::__cxx11::basic_string<char, std::char_traits<char>, std::allocator<char> > >, std::hash<std::__cxx11::basic_string<char, std::char_traits<char>, std::allocator<char> > >, std::__detail::_Mod_range_hashing, std::__detail::_Default_ranged_hash, std::__detail::_Prime_rehash_policy, std::__detail::_Hashtable_traits<true, true, true> >::_M_rehash(unsigned long, unsigned long const&)
PUBLIC 3d190 0 std::_Hashtable<std::__cxx11::basic_string<char, std::char_traits<char>, std::allocator<char> >, std::__cxx11::basic_string<char, std::char_traits<char>, std::allocator<char> >, std::allocator<std::__cxx11::basic_string<char, std::char_traits<char>, std::allocator<char> > >, std::__detail::_Identity, std::equal_to<std::__cxx11::basic_string<char, std::char_traits<char>, std::allocator<char> > >, std::hash<std::__cxx11::basic_string<char, std::char_traits<char>, std::allocator<char> > >, std::__detail::_Mod_range_hashing, std::__detail::_Default_ranged_hash, std::__detail::_Prime_rehash_policy, std::__detail::_Hashtable_traits<true, true, true> >::_M_insert_unique_node(unsigned long, unsigned long, std::__detail::_Hash_node<std::__cxx11::basic_string<char, std::char_traits<char>, std::allocator<char> >, true>*, unsigned long)
PUBLIC 3d290 0 std::pair<std::__detail::_Node_iterator<std::__cxx11::basic_string<char, std::char_traits<char>, std::allocator<char> >, true, true>, bool> std::_Hashtable<std::__cxx11::basic_string<char, std::char_traits<char>, std::allocator<char> >, std::__cxx11::basic_string<char, std::char_traits<char>, std::allocator<char> >, std::allocator<std::__cxx11::basic_string<char, std::char_traits<char>, std::allocator<char> > >, std::__detail::_Identity, std::equal_to<std::__cxx11::basic_string<char, std::char_traits<char>, std::allocator<char> > >, std::hash<std::__cxx11::basic_string<char, std::char_traits<char>, std::allocator<char> > >, std::__detail::_Mod_range_hashing, std::__detail::_Default_ranged_hash, std::__detail::_Prime_rehash_policy, std::__detail::_Hashtable_traits<true, true, true> >::_M_insert<std::__cxx11::basic_string<char, std::char_traits<char>, std::allocator<char> > const&, std::__detail::_AllocNode<std::allocator<std::__detail::_Hash_node<std::__cxx11::basic_string<char, std::char_traits<char>, std::allocator<char> >, true> > > >(std::__cxx11::basic_string<char, std::char_traits<char>, std::allocator<char> > const&, std::__detail::_AllocNode<std::allocator<std::__detail::_Hash_node<std::__cxx11::basic_string<char, std::char_traits<char>, std::allocator<char> >, true> > > const&, std::integral_constant<bool, true>, unsigned long)
PUBLIC 3d3d0 0 Sage::ProtoAPI::get()
PUBLIC 3d590 0 boost::system::system_error::what() const
PUBLIC 3d6b0 0 Sage::Logger::~Logger()
PUBLIC 3d700 0 Sage::Logger::Logger(bool)
PUBLIC 3d730 0 Sage::Logger::Logger()
PUBLIC 3dea0 0 std::__cxx11::basic_string<char, std::char_traits<char>, std::allocator<char> > __gnu_cxx::__to_xstring<std::__cxx11::basic_string<char, std::char_traits<char>, std::allocator<char> >, char>(int (*)(char*, unsigned long, char const*, __va_list_tag*), unsigned long, char const*, ...)
PUBLIC 3dfd0 0 void (anonymous namespace)::hash_combine<unsigned int>(unsigned int&, unsigned int const&)
PUBLIC 3e030 0 (anonymous namespace)::emptyFilter(std::__cxx11::basic_string<char, std::char_traits<char>, std::allocator<char> > const&)
PUBLIC 3e050 0 std::__cxx11::basic_string<char, std::char_traits<char>, std::allocator<char> >::basic_string(char const*, std::allocator<char> const&) [clone .isra.0]
PUBLIC 3e110 0 (anonymous namespace)::dumpMsgStr(std::__cxx11::basic_string<char, std::char_traits<char>, std::allocator<char> > const&, google::protobuf::Message&)
PUBLIC 3e2e0 0 (anonymous namespace)::send(google::protobuf::Message const&, bool)
PUBLIC 3e600 0 (anonymous namespace)::send(google::protobuf::Message const&, bool) [clone .constprop.0]
PUBLIC 3e910 0 (anonymous namespace)::recordHierDataMsg(hiertreeproto_v2::MessageType_Type)
PUBLIC 3e990 0 (anonymous namespace)::recordTypeObjDataMsg(typeinfoproto_v2::TypeInfoMessageType_Type)
PUBLIC 3ea10 0 (anonymous namespace)::recordTypeObjDataMsgAndDumpMsg(std::__cxx11::basic_string<char, std::char_traits<char>, std::allocator<char> > const&, typeinfoproto_v2::TypeInfoMessageType_Type)
PUBLIC 3ead0 0 (anonymous namespace)::passThroughFilter(std::__cxx11::basic_string<char, std::char_traits<char>, std::allocator<char> > const&)
PUBLIC 3eb90 0 Sage::checkAllocFailure(void const*, char const*)
PUBLIC 3ebd0 0 Sage::Proto::recordHegDataMsg(hegproto_v2::Data_Type)
PUBLIC 3ec50 0 Sage::Proto::finishType()
PUBLIC 3ecd0 0 Sage::Proto::finishCompositeClass()
PUBLIC 3ed30 0 Sage::Proto::finishCompositeQDA()
PUBLIC 3ed90 0 Sage::Proto::finishCompositeStaticArray()
PUBLIC 3edf0 0 Sage::Proto::finishCompositeMDA()
PUBLIC 3ee50 0 Sage::Proto::finishCompositeField()
PUBLIC 3eeb0 0 Sage::Proto::finishCompositeStruct()
PUBLIC 3ef10 0 Sage::Proto::finishCompositeUnion()
PUBLIC 3ef70 0 Sage::Proto::finishCompositeEnum()
PUBLIC 3efd0 0 Sage::Proto::addStartValue()
PUBLIC 3f050 0 Sage::Proto::addEndValue()
PUBLIC 3f0d0 0 Sage::Proto::finishHegTextRef(hegproto_v2::TextRef&)
PUBLIC 3f180 0 Sage::Proto::commSignalShutdown()
PUBLIC 3f380 0 Sage::Proto::commWaitAndCleanup()
PUBLIC 3f3c0 0 (anonymous namespace)::trimPath(std::__cxx11::basic_string<char, std::char_traits<char>, std::allocator<char> > const&, int)
PUBLIC 3f540 0 (anonymous namespace)::pathTrimFilter(std::__cxx11::basic_string<char, std::char_traits<char>, std::allocator<char> > const&)
PUBLIC 3f560 0 Sage::Proto::getByteStream(unsigned char*, unsigned long)
PUBLIC 3f6e0 0 Sage::Proto::recordPathNode(Sage::Util::PathTree::Node const*, bool)
PUBLIC 3f920 0 std::__detail::_Map_base<std::__cxx11::basic_string<char, std::char_traits<char>, std::allocator<char> >, std::pair<std::__cxx11::basic_string<char, std::char_traits<char>, std::allocator<char> > const, std::__cxx11::basic_string<char, std::char_traits<char>, std::allocator<char> > (*)(std::__cxx11::basic_string<char, std::char_traits<char>, std::allocator<char> > const&)>, std::allocator<std::pair<std::__cxx11::basic_string<char, std::char_traits<char>, std::allocator<char> > const, std::__cxx11::basic_string<char, std::char_traits<char>, std::allocator<char> > (*)(std::__cxx11::basic_string<char, std::char_traits<char>, std::allocator<char> > const&)> >, std::__detail::_Select1st, std::equal_to<std::__cxx11::basic_string<char, std::char_traits<char>, std::allocator<char> > >, std::hash<std::__cxx11::basic_string<char, std::char_traits<char>, std::allocator<char> > >, std::__detail::_Mod_range_hashing, std::__detail::_Default_ranged_hash, std::__detail::_Prime_rehash_policy, std::__detail::_Hashtable_traits<true, false, true>, true>::operator[](std::__cxx11::basic_string<char, std::char_traits<char>, std::allocator<char> >&&) [clone .constprop.0]
PUBLIC 3fa50 0 Sage::Proto::commInit(char const*, bool, bool)
PUBLIC 409d0 0 (anonymous namespace)::dumpRegressionMsg(int, std::__cxx11::basic_string<char, std::char_traits<char>, std::allocator<char> > const&, google::protobuf::Message&, int)
PUBLIC 40bd0 0 (anonymous namespace)::dumpRegressionMsg(int, std::__cxx11::basic_string<char, std::char_traits<char>, std::allocator<char> > const&, int)
PUBLIC 40ef0 0 Sage::Proto::startHegMacroArg(int, hegproto_v2::MacroRef&)
PUBLIC 41170 0 (anonymous namespace)::dumpHegDelayedRefs(int)
PUBLIC 412c0 0 (anonymous namespace)::dumpHegRef(int, int, std::__cxx11::basic_string<char, std::char_traits<char>, std::allocator<char> > const&, unsigned int)
PUBLIC 414b0 0 Sage::Proto::startHegMacroRef(int, int, int, int, int, std::__cxx11::basic_string<char, std::char_traits<char>, std::allocator<char> > const&, bool)
PUBLIC 416f0 0 Sage::Proto::addHegTextRef(int, hegproto_v2::TextRef&)
PUBLIC 417e0 0 Sage::Proto::addHegMacroElem(std::__cxx11::basic_string<char, std::char_traits<char>, std::allocator<char> > const&, hegproto_v2::MacroElement_Type, int, int, hegproto_v2::MacroRef&)
PUBLIC 41bf0 0 (anonymous namespace)::createSourceLoc(int, Sage::GenSrcLoc const&, bool)
PUBLIC 41d40 0 (anonymous namespace)::dumpSrcLoc(int, Sage::GenSrcLoc const&)
PUBLIC 42510 0 Sage::Proto::recordSourceLoc(int, Sage::GenSrcLoc const&, bool)
PUBLIC 426c0 0 (anonymous namespace)::processSourceMappingMsg(int, std::__cxx11::basic_string<char, std::char_traits<char>, std::allocator<char> > const&, int, std::__cxx11::basic_string<char, std::char_traits<char>, std::allocator<char> > const&, bool)
PUBLIC 429e0 0 Sage::Proto::recordSourceMapping(int, std::__cxx11::basic_string<char, std::char_traits<char>, std::allocator<char> > const&, int, std::__cxx11::basic_string<char, std::char_traits<char>, std::allocator<char> > const&)
PUBLIC 42a40 0 (anonymous namespace)::processHierEdgeMsg(int, int, hiertreeproto_v2::Edge_EdgeKind, bool)
PUBLIC 42dc0 0 Sage::Proto::recordHierEdge(int, int, hiertreeproto_v2::Edge_EdgeKind)
PUBLIC 42e10 0 (anonymous namespace)::processHierNodeMsg(int, int, int, std::__cxx11::basic_string<char, std::char_traits<char>, std::allocator<char> > const&, int, bool)
PUBLIC 43280 0 Sage::Proto::recordHierNode(int, int, int, std::__cxx11::basic_string<char, std::char_traits<char>, std::allocator<char> > const&, int)
PUBLIC 432e0 0 (anonymous namespace)::createModuleItem(int, int, std::__cxx11::basic_string<char, std::char_traits<char>, std::allocator<char> > const&, int, hiertreeproto_v2::NamedBlock_Type, std::__cxx11::basic_string<char, std::char_traits<char>, std::allocator<char> > const&, bool)
PUBLIC 43630 0 Sage::Proto::recordHierNodeType(int, int, std::__cxx11::basic_string<char, std::char_traits<char>, std::allocator<char> > const&, std::__cxx11::basic_string<char, std::char_traits<char>, std::allocator<char> > const&, int, hiertreeproto_v2::NamedBlock_Type)
PUBLIC 43760 0 Sage::Proto::recordParam(int, int, std::__cxx11::basic_string<char, std::char_traits<char>, std::allocator<char> > const&, int)
PUBLIC 43a30 0 Sage::Proto::recordSignal(int, int, std::__cxx11::basic_string<char, std::char_traits<char>, std::allocator<char> > const&, int, bool, bool, bool, hiertreeproto_v2::Signal_Visibility)
PUBLIC 43d90 0 Sage::Proto::addPredefinedType(std::__cxx11::basic_string<char, std::char_traits<char>, std::allocator<char> > const&, bool, bool, bool, typeinfoproto_v2::PredefinedType_Type)
PUBLIC 43fb0 0 Sage::Proto::addStruct(std::__cxx11::basic_string<char, std::char_traits<char>, std::allocator<char> > const&, bool, bool, bool, bool, std::tuple<bool, bool, long, long>&)
PUBLIC 44130 0 Sage::Proto::addUnion(std::__cxx11::basic_string<char, std::char_traits<char>, std::allocator<char> > const&, bool, bool, bool, bool, std::tuple<bool, bool, long, long>&)
PUBLIC 442b0 0 Sage::Proto::addField(std::__cxx11::basic_string<char, std::char_traits<char>, std::allocator<char> > const&, typeinfoproto_v2::TypeInfoMessageType_Type)
PUBLIC 44480 0 Sage::Proto::addEnum(std::__cxx11::basic_string<char, std::char_traits<char>, std::allocator<char> > const&, std::vector<std::pair<std::__cxx11::basic_string<char, std::char_traits<char>, std::allocator<char> >, common_v2::ByteStream*>, std::allocator<std::pair<std::__cxx11::basic_string<char, std::char_traits<char>, std::allocator<char> >, common_v2::ByteStream*> > > const&, unsigned long, bool, bool, bool)
PUBLIC 44900 0 Sage::Proto::finishHegMacroRef(hegproto_v2::MacroRef&)
PUBLIC 449c0 0 Sage::Proto::addHegMacroElem(std::__cxx11::basic_string<char, std::char_traits<char>, std::allocator<char> > const&, hegproto_v2::MacroElement_Type, int, int, hegproto_v2::MacroArg&)
PUBLIC 44e10 0 (anonymous namespace)::processDimension(std::tuple<bool, bool, long, long> const&)
PUBLIC 44f50 0 Sage::Proto::addArray(std::__cxx11::basic_string<char, std::char_traits<char>, std::allocator<char> > const&, std::vector<std::tuple<bool, bool, long, long>, std::allocator<std::tuple<bool, bool, long, long> > > const&, typeinfoproto_v2::TypeInfoMessageType_Type, bool, bool)
PUBLIC 45260 0 Sage::Proto::addQDA(std::__cxx11::basic_string<char, std::char_traits<char>, std::allocator<char> > const&, typeinfoproto_v2::QDAArray_Type, typeinfoproto_v2::TypeInfoMessageType_Type, typeinfoproto_v2::TypeInfoMessageType_Type)
PUBLIC 45460 0 Sage::Proto::addClassHandle(std::__cxx11::basic_string<char, std::char_traits<char>, std::allocator<char> > const&, int, int, typeinfoproto_v2::ClassHandle_Type, typeinfoproto_v2::TypeInfoMessageType_Type)
PUBLIC 457e0 0 Sage::Proto::addVirtualInterface(std::__cxx11::basic_string<char, std::char_traits<char>, std::allocator<char> > const&, int, int)
PUBLIC 45b30 0 Sage::Proto::markTypeParam()
PUBLIC 45c40 0 Sage::Proto::addByteStream(unsigned char*, bool, unsigned long)
PUBLIC 45df0 0 Sage::Proto::addStringValue(char*, unsigned long)
PUBLIC 46060 0 (anonymous namespace)::createNamedBlock(int, std::__cxx11::basic_string<char, std::char_traits<char>, std::allocator<char> > const&, int, hiertreeproto_v2::NamedBlock_Type, bool)
PUBLIC 46250 0 Sage::Proto::recordPrimitiveType(int, std::__cxx11::basic_string<char, std::char_traits<char>, std::allocator<char> > const&, int, hiertreeproto_v2::NamedBlock_Type)
PUBLIC 46360 0 (anonymous namespace)::processGenvarMsg(int, int, std::__cxx11::basic_string<char, std::char_traits<char>, std::allocator<char> > const&, int, int, bool)
PUBLIC 46750 0 Sage::Proto::recordGenvar(int, int, std::__cxx11::basic_string<char, std::char_traits<char>, std::allocator<char> > const&, int, int)
PUBLIC 467b0 0 (anonymous namespace)::processPartitionInfoMsg(int, std::__cxx11::basic_string<char, std::char_traits<char>, std::allocator<char> > const&, std::__cxx11::basic_string<char, std::char_traits<char>, std::allocator<char> > const&, std::__cxx11::basic_string<char, std::char_traits<char>, std::allocator<char> > const&, std::__cxx11::basic_string<char, std::char_traits<char>, std::allocator<char> > const&, std::__cxx11::basic_string<char, std::char_traits<char>, std::allocator<char> > const&, std::__cxx11::basic_string<char, std::char_traits<char>, std::allocator<char> > const&, bool)
PUBLIC 46dc0 0 Sage::Proto::recordPartitionInfo(int, std::__cxx11::basic_string<char, std::char_traits<char>, std::allocator<char> > const&, std::__cxx11::basic_string<char, std::char_traits<char>, std::allocator<char> > const&, std::__cxx11::basic_string<char, std::char_traits<char>, std::allocator<char> > const&, std::__cxx11::basic_string<char, std::char_traits<char>, std::allocator<char> > const&, std::__cxx11::basic_string<char, std::char_traits<char>, std::allocator<char> > const&, std::__cxx11::basic_string<char, std::char_traits<char>, std::allocator<char> > const&)
PUBLIC 46e40 0 (anonymous namespace)::processModuleItemPartitionMsg(int, std::__cxx11::basic_string<char, std::char_traits<char>, std::allocator<char> > const&, std::__cxx11::basic_string<char, std::char_traits<char>, std::allocator<char> > const&, std::__cxx11::basic_string<char, std::char_traits<char>, std::allocator<char> > const&, std::__cxx11::basic_string<char, std::char_traits<char>, std::allocator<char> > const&, int, bool)
PUBLIC 47360 0 Sage::Proto::recordModuleItemPartition(int, std::__cxx11::basic_string<char, std::char_traits<char>, std::allocator<char> > const&, std::__cxx11::basic_string<char, std::char_traits<char>, std::allocator<char> > const&, std::__cxx11::basic_string<char, std::char_traits<char>, std::allocator<char> > const&, std::__cxx11::basic_string<char, std::char_traits<char>, std::allocator<char> > const&, int)
PUBLIC 473e0 0 (anonymous namespace)::processStitchPointMsg(int, std::__cxx11::basic_string<char, std::char_traits<char>, std::allocator<char> > const&, std::__cxx11::basic_string<char, std::char_traits<char>, std::allocator<char> > const&, std::__cxx11::basic_string<char, std::char_traits<char>, std::allocator<char> > const&, int, int, bool)
PUBLIC 479d0 0 Sage::Proto::recordStitchPoint(int, std::__cxx11::basic_string<char, std::char_traits<char>, std::allocator<char> > const&, std::__cxx11::basic_string<char, std::char_traits<char>, std::allocator<char> > const&, std::__cxx11::basic_string<char, std::char_traits<char>, std::allocator<char> > const&, int, int)
PUBLIC 47a50 0 (anonymous namespace)::processTopInstanceMsg(int, bool)
PUBLIC 47ce0 0 Sage::Proto::recordTopInstance(int)
PUBLIC 47d20 0 (anonymous namespace)::processAttributeMsg(std::__cxx11::basic_string<char, std::char_traits<char>, std::allocator<char> > const&, std::__cxx11::basic_string<char, std::char_traits<char>, std::allocator<char> > const&, bool)
PUBLIC 48120 0 Sage::Proto::recordAttribute(std::__cxx11::basic_string<char, std::char_traits<char>, std::allocator<char> > const&, std::__cxx11::basic_string<char, std::char_traits<char>, std::allocator<char> > const&)
PUBLIC 48170 0 (anonymous namespace)::processOoprExternMsg(int, std::__cxx11::basic_string<char, std::char_traits<char>, std::allocator<char> > const&, std::__cxx11::basic_string<char, std::char_traits<char>, std::allocator<char> > const&, bool, int, bool)
PUBLIC 48700 0 Sage::Proto::recordOoprExtern(int, std::__cxx11::basic_string<char, std::char_traits<char>, std::allocator<char> > const&, std::__cxx11::basic_string<char, std::char_traits<char>, std::allocator<char> > const&, bool, int)
PUBLIC 48770 0 (anonymous namespace)::processOoprTargetMsg(std::__cxx11::basic_string<char, std::char_traits<char>, std::allocator<char> > const&, std::__cxx11::basic_string<char, std::char_traits<char>, std::allocator<char> > const&, int, bool)
PUBLIC 48b10 0 Sage::Proto::recordOoprTarget(std::__cxx11::basic_string<char, std::char_traits<char>, std::allocator<char> > const&, std::__cxx11::basic_string<char, std::char_traits<char>, std::allocator<char> > const&, int)
PUBLIC 48b60 0 Sage::Proto::recordHegVariable(int, std::__cxx11::basic_string<char, std::char_traits<char>, std::allocator<char> > const&, int)
PUBLIC 48d70 0 Sage::Proto::recordHegParameter(int, std::__cxx11::basic_string<char, std::char_traits<char>, std::allocator<char> > const&, int)
PUBLIC 48f80 0 Sage::Proto::startHegModule(int, std::__cxx11::basic_string<char, std::char_traits<char>, std::allocator<char> > const&, int, std::vector<int, std::allocator<int> > const&, bool)
PUBLIC 492d0 0 Sage::Proto::recordHegPortDecl(int, std::__cxx11::basic_string<char, std::char_traits<char>, std::allocator<char> > const&, hegproto_v2::PortDecl_Direction, int, int)
PUBLIC 49590 0 Sage::Proto::recordHegElemRef(int, int, int)
PUBLIC 497e0 0 Sage::Proto::recordHegConstant(int, std::__cxx11::basic_string<char, std::char_traits<char>, std::allocator<char> > const&, int)
PUBLIC 499f0 0 Sage::Proto::recordHegInstance(int, int, std::__cxx11::basic_string<char, std::char_traits<char>, std::allocator<char> > const&, std::vector<int, std::allocator<int> > const&, std::vector<int, std::allocator<int> > const&, int)
PUBLIC 4a110 0 Sage::Proto::recordHegAssignment(int, hegproto_v2::Assign_Type, int, int, int)
PUBLIC 4a420 0 Sage::Proto::recordHegConditional(int, hegproto_v2::ConditionalStmt_Type, int, int, int, int)
PUBLIC 4a7d0 0 Sage::Proto::recordHegSeqBlock(int, std::__cxx11::basic_string<char, std::char_traits<char>, std::allocator<char> > const&, std::vector<int, std::allocator<int> > const&, int)
PUBLIC 4ab30 0 Sage::Proto::recordHegAlways(int, int, int)
PUBLIC 4ad80 0 Sage::Proto::recordHegAlwaysEventControl(int, std::vector<int, std::allocator<int> > const&, int, int)
PUBLIC 4b120 0 Sage::Proto::recordHegEventExpression(int, hegproto_v2::EventExpression_Type, int, int)
PUBLIC 4b3a0 0 Sage::Proto::recordHegBinaryOp(int, int, int, hegproto_v2::BinaryOperator_Type, int)
PUBLIC 4b6b0 0 Sage::Proto::recordHegUnaryOp(int, int, hegproto_v2::UnaryOperator_Type, int)
PUBLIC 4b910 0 Sage::Proto::recordHegIncludeRef(std::__cxx11::basic_string<char, std::char_traits<char>, std::allocator<char> > const&, int, int)
PUBLIC 4bba0 0 Sage::Proto::recordHegSourceChunk(std::__cxx11::basic_string<char, std::char_traits<char>, std::allocator<char> > const&, int, int, int)
PUBLIC 4bd50 0 Sage::Proto::recordHegMacroDef(int, std::__cxx11::basic_string<char, std::char_traits<char>, std::allocator<char> > const&, int, std::__cxx11::basic_string<char, std::char_traits<char>, std::allocator<char> > const&)
PUBLIC 4bf40 0 Sage::Proto::startHegTextRef()
PUBLIC 4c060 0 Sage::Proto::recordHegUnhandledType(int, int)
PUBLIC 4c200 0 (anonymous namespace)::processCoercedPortMsg(int, std::__cxx11::basic_string<char, std::char_traits<char>, std::allocator<char> > const&, bool)
PUBLIC 4c4f0 0 Sage::Proto::recordCoercedPort(int, char const*)
PUBLIC 4c630 0 void google::protobuf::internal::arena_destruct_object<std::__cxx11::basic_string<char, std::char_traits<char>, std::allocator<char> > >(void*)
PUBLIC 4c650 0 std::unordered_map<std::__cxx11::basic_string<char, std::char_traits<char>, std::allocator<char> >, std::__cxx11::basic_string<char, std::char_traits<char>, std::allocator<char> > (*)(std::__cxx11::basic_string<char, std::char_traits<char>, std::allocator<char> > const&), std::hash<std::__cxx11::basic_string<char, std::char_traits<char>, std::allocator<char> > >, std::equal_to<std::__cxx11::basic_string<char, std::char_traits<char>, std::allocator<char> > >, std::allocator<std::pair<std::__cxx11::basic_string<char, std::char_traits<char>, std::allocator<char> > const, std::__cxx11::basic_string<char, std::char_traits<char>, std::allocator<char> > (*)(std::__cxx11::basic_string<char, std::char_traits<char>, std::allocator<char> > const&)> > >::~unordered_map()
PUBLIC 4c6f0 0 std::unordered_map<int, unsigned int, std::hash<int>, std::equal_to<int>, std::allocator<std::pair<int const, unsigned int> > >::~unordered_map()
PUBLIC 4c770 0 std::unordered_map<int, std::vector<unsigned int, std::allocator<unsigned int> >, std::hash<int>, std::equal_to<int>, std::allocator<std::pair<int const, std::vector<unsigned int, std::allocator<unsigned int> > > > >::~unordered_map()
PUBLIC 4c800 0 Sage::Logger::stream(int)
PUBLIC 4c880 0 void std::vector<unsigned int, std::allocator<unsigned int> >::_M_realloc_insert<unsigned int const&>(__gnu_cxx::__normal_iterator<unsigned int*, std::vector<unsigned int, std::allocator<unsigned int> > >, unsigned int const&)
PUBLIC 4c9f0 0 void std::__cxx11::basic_string<char, std::char_traits<char>, std::allocator<char> >::_M_construct<char*>(char*, char*, std::forward_iterator_tag)
PUBLIC 4ca90 0 google::protobuf::internal::ArenaStringPtr::CreateInstance(google::protobuf::Arena*, std::__cxx11::basic_string<char, std::char_traits<char>, std::allocator<char> > const*)
PUBLIC 4cbe0 0 std::_Hashtable<std::__cxx11::basic_string<char, std::char_traits<char>, std::allocator<char> >, std::pair<std::__cxx11::basic_string<char, std::char_traits<char>, std::allocator<char> > const, std::__cxx11::basic_string<char, std::char_traits<char>, std::allocator<char> > (*)(std::__cxx11::basic_string<char, std::char_traits<char>, std::allocator<char> > const&)>, std::allocator<std::pair<std::__cxx11::basic_string<char, std::char_traits<char>, std::allocator<char> > const, std::__cxx11::basic_string<char, std::char_traits<char>, std::allocator<char> > (*)(std::__cxx11::basic_string<char, std::char_traits<char>, std::allocator<char> > const&)> >, std::__detail::_Select1st, std::equal_to<std::__cxx11::basic_string<char, std::char_traits<char>, std::allocator<char> > >, std::hash<std::__cxx11::basic_string<char, std::char_traits<char>, std::allocator<char> > >, std::__detail::_Mod_range_hashing, std::__detail::_Default_ranged_hash, std::__detail::_Prime_rehash_policy, std::__detail::_Hashtable_traits<true, false, true> >::_M_rehash(unsigned long, unsigned long const&)
PUBLIC 4cd10 0 std::_Hashtable<std::__cxx11::basic_string<char, std::char_traits<char>, std::allocator<char> >, std::pair<std::__cxx11::basic_string<char, std::char_traits<char>, std::allocator<char> > const, std::__cxx11::basic_string<char, std::char_traits<char>, std::allocator<char> > (*)(std::__cxx11::basic_string<char, std::char_traits<char>, std::allocator<char> > const&)>, std::allocator<std::pair<std::__cxx11::basic_string<char, std::char_traits<char>, std::allocator<char> > const, std::__cxx11::basic_string<char, std::char_traits<char>, std::allocator<char> > (*)(std::__cxx11::basic_string<char, std::char_traits<char>, std::allocator<char> > const&)> >, std::__detail::_Select1st, std::equal_to<std::__cxx11::basic_string<char, std::char_traits<char>, std::allocator<char> > >, std::hash<std::__cxx11::basic_string<char, std::char_traits<char>, std::allocator<char> > >, std::__detail::_Mod_range_hashing, std::__detail::_Default_ranged_hash, std::__detail::_Prime_rehash_policy, std::__detail::_Hashtable_traits<true, false, true> >::_M_insert_unique_node(unsigned long, unsigned long, std::__detail::_Hash_node<std::pair<std::__cxx11::basic_string<char, std::char_traits<char>, std::allocator<char> > const, std::__cxx11::basic_string<char, std::char_traits<char>, std::allocator<char> > (*)(std::__cxx11::basic_string<char, std::char_traits<char>, std::allocator<char> > const&)>, true>*, unsigned long)
PUBLIC 4ce10 0 std::__detail::_Map_base<std::__cxx11::basic_string<char, std::char_traits<char>, std::allocator<char> >, std::pair<std::__cxx11::basic_string<char, std::char_traits<char>, std::allocator<char> > const, std::__cxx11::basic_string<char, std::char_traits<char>, std::allocator<char> > (*)(std::__cxx11::basic_string<char, std::char_traits<char>, std::allocator<char> > const&)>, std::allocator<std::pair<std::__cxx11::basic_string<char, std::char_traits<char>, std::allocator<char> > const, std::__cxx11::basic_string<char, std::char_traits<char>, std::allocator<char> > (*)(std::__cxx11::basic_string<char, std::char_traits<char>, std::allocator<char> > const&)> >, std::__detail::_Select1st, std::equal_to<std::__cxx11::basic_string<char, std::char_traits<char>, std::allocator<char> > >, std::hash<std::__cxx11::basic_string<char, std::char_traits<char>, std::allocator<char> > >, std::__detail::_Mod_range_hashing, std::__detail::_Default_ranged_hash, std::__detail::_Prime_rehash_policy, std::__detail::_Hashtable_traits<true, false, true>, true>::operator[](std::__cxx11::basic_string<char, std::char_traits<char>, std::allocator<char> > const&)
PUBLIC 4cf40 0 std::_Hashtable<int, std::pair<int const, unsigned int>, std::allocator<std::pair<int const, unsigned int> >, std::__detail::_Select1st, std::equal_to<int>, std::hash<int>, std::__detail::_Mod_range_hashing, std::__detail::_Default_ranged_hash, std::__detail::_Prime_rehash_policy, std::__detail::_Hashtable_traits<false, false, true> >::_M_rehash(unsigned long, unsigned long const&)
PUBLIC 4d070 0 std::_Hashtable<int, std::pair<int const, unsigned int>, std::allocator<std::pair<int const, unsigned int> >, std::__detail::_Select1st, std::equal_to<int>, std::hash<int>, std::__detail::_Mod_range_hashing, std::__detail::_Default_ranged_hash, std::__detail::_Prime_rehash_policy, std::__detail::_Hashtable_traits<false, false, true> >::_M_insert_unique_node(unsigned long, unsigned long, std::__detail::_Hash_node<std::pair<int const, unsigned int>, false>*, unsigned long)
PUBLIC 4d160 0 std::__detail::_Map_base<int, std::pair<int const, unsigned int>, std::allocator<std::pair<int const, unsigned int> >, std::__detail::_Select1st, std::equal_to<int>, std::hash<int>, std::__detail::_Mod_range_hashing, std::__detail::_Default_ranged_hash, std::__detail::_Prime_rehash_policy, std::__detail::_Hashtable_traits<false, false, true>, true>::operator[](int const&)
PUBLIC 4d220 0 std::_Hashtable<int, std::pair<int const, std::vector<unsigned int, std::allocator<unsigned int> > >, std::allocator<std::pair<int const, std::vector<unsigned int, std::allocator<unsigned int> > > >, std::__detail::_Select1st, std::equal_to<int>, std::hash<int>, std::__detail::_Mod_range_hashing, std::__detail::_Default_ranged_hash, std::__detail::_Prime_rehash_policy, std::__detail::_Hashtable_traits<false, false, true> >::_M_rehash(unsigned long, unsigned long const&)
PUBLIC 4d350 0 std::_Hashtable<int, std::pair<int const, std::vector<unsigned int, std::allocator<unsigned int> > >, std::allocator<std::pair<int const, std::vector<unsigned int, std::allocator<unsigned int> > > >, std::__detail::_Select1st, std::equal_to<int>, std::hash<int>, std::__detail::_Mod_range_hashing, std::__detail::_Default_ranged_hash, std::__detail::_Prime_rehash_policy, std::__detail::_Hashtable_traits<false, false, true> >::_M_insert_unique_node(unsigned long, unsigned long, std::__detail::_Hash_node<std::pair<int const, std::vector<unsigned int, std::allocator<unsigned int> > >, false>*, unsigned long)
PUBLIC 4d450 0 std::__detail::_Map_base<int, std::pair<int const, std::vector<unsigned int, std::allocator<unsigned int> > >, std::allocator<std::pair<int const, std::vector<unsigned int, std::allocator<unsigned int> > > >, std::__detail::_Select1st, std::equal_to<int>, std::hash<int>, std::__detail::_Mod_range_hashing, std::__detail::_Default_ranged_hash, std::__detail::_Prime_rehash_policy, std::__detail::_Hashtable_traits<false, false, true>, true>::operator[](int const&)
PUBLIC 4d510 0 Sage::loadLib(char const*)
PUBLIC 4d8a0 0 Sage::loadFunc(void*, char const*)
PUBLIC 4d940 0 Sage::CompoundValue::~CompoundValue()
PUBLIC 4d950 0 Sage::CompoundValue::~CompoundValue()
PUBLIC 4d970 0 Sage::ArrayDimensionStack::~ArrayDimensionStack()
PUBLIC 4d9a0 0 Sage::ArrayDimensionStack::insertBack(unsigned long, unsigned long, bool, vst_s*)
PUBLIC 4da40 0 Sage::ArrayDimensionStack::removeLastElements(vst_s*)
PUBLIC 4dab0 0 Sage::ArrayDimensionStack::recordInternal(Sage::ArrayDimensionNode*, unsigned char*, Sage::CompoundValue&) const [clone .localalias]
PUBLIC 4db50 0 Sage::ArrayDimensionStack::record(unsigned char*, Sage::CompoundValue&) const
PUBLIC 4db60 0 Sage::StringValue::record(unsigned char*, unsigned long)
PUBLIC 4dd50 0 Sage::BasicValue::record(unsigned char*, unsigned long)
PUBLIC 4df70 0 Sage::StringValue::~StringValue()
PUBLIC 4df90 0 Sage::StringValue::~StringValue()
PUBLIC 4dfc0 0 Sage::BasicValue::~BasicValue()
PUBLIC 4dfe0 0 Sage::BasicValue::~BasicValue()
PUBLIC 4e010 0 (anonymous namespace)::doStaticArrayType(std::__cxx11::basic_string<char, std::char_traits<char>, std::allocator<char> > const&, via_external_s, bool, (anonymous namespace)::TypeObj&, Sage::ArrayDimensionStack&, xst_s*, long*, unsigned char*, unsigned long, bool, bool)::{lambda(via_external_s)#1}::_FUN(via_external_s)
PUBLIC 4e030 0 (anonymous namespace)::doStaticArrayType(std::__cxx11::basic_string<char, std::char_traits<char>, std::allocator<char> > const&, via_external_s, bool, (anonymous namespace)::TypeObj&, Sage::ArrayDimensionStack&, xst_s*, long*, unsigned char*, unsigned long, bool, bool)::{lambda(via_external_s)#2}::_FUN(via_external_s)
PUBLIC 4e050 0 (anonymous namespace)::doVectorType(std::__cxx11::basic_string<char, std::char_traits<char>, std::allocator<char> > const&, via_external_s, bool, (anonymous namespace)::TypeObj&, Sage::ArrayDimensionStack&, xst_s*, long*, unsigned long, bool, unsigned char*, unsigned long, bool, bool)::{lambda(via_external_s)#1}::_FUN(via_external_s)
PUBLIC 4e070 0 (anonymous namespace)::doVectorType(std::__cxx11::basic_string<char, std::char_traits<char>, std::allocator<char> > const&, via_external_s, bool, (anonymous namespace)::TypeObj&, Sage::ArrayDimensionStack&, xst_s*, long*, unsigned long, bool, unsigned char*, unsigned long, bool, bool)::{lambda(via_external_s)#2}::_FUN(via_external_s)
PUBLIC 4e0c0 0 (anonymous namespace)::getTypeName(vst_s*, via_external_s, long*)
PUBLIC 4e2c0 0 (anonymous namespace)::getTypeInfoType(via_external_s)
PUBLIC 4e530 0 Sage::Type::getSignalForCoercion(xst_s*, long*)
PUBLIC 4e5c0 0 Sage::Type::getVisibility(via_external_s)
PUBLIC 4e600 0 (anonymous namespace)::doDimensions(via_external_s, bool, bool, vst_s*&, via_external_s&, std::vector<std::tuple<bool, bool, long, long>, std::allocator<std::tuple<bool, bool, long, long> > >&, Sage::ArrayDimensionStack&, bool&, bool (&)(via_external_s), bool (*)(via_external_s), bool) [clone .constprop.0]
PUBLIC 4e910 0 Sage::Type::storeSignalForCoercion(xst_s*, long*)
PUBLIC 4e9f0 0 Sage::Type::recordDanglingTypeRefs(int, std::__cxx11::basic_string<char, std::char_traits<char>, std::allocator<char> > const&)
PUBLIC 4ee40 0 (anonymous namespace)::doVIFCType(std::__cxx11::basic_string<char, std::char_traits<char>, std::allocator<char> > const&, via_external_s, (anonymous namespace)::TypeObj&, bool) [clone .constprop.0]
PUBLIC 4f380 0 (anonymous namespace)::doPredefType(std::__cxx11::basic_string<char, std::char_traits<char>, std::allocator<char> > const&, bool, typeinfoproto_v2::PredefinedType_Type, (anonymous namespace)::TypeObj&, Sage::ArrayDimensionStack&, bool, bool, unsigned long, bool, unsigned char*)
PUBLIC 50130 0 (anonymous namespace)::doObjTypeAndValue(vst_s*, via_external_s, (anonymous namespace)::TypeObj&, Sage::ArrayDimensionStack&, bool, std::__cxx11::basic_string<char, std::char_traits<char>, std::allocator<char> >, unsigned char*, unsigned long, bool)
PUBLIC 529d0 0 (anonymous namespace)::doClassType(std::__cxx11::basic_string<char, std::char_traits<char>, std::allocator<char> > const&, via_external_s, (anonymous namespace)::TypeObj&, Sage::ArrayDimensionStack&, typeinfoproto_v2::ClassHandle_Type, bool)
PUBLIC 53360 0 (anonymous namespace)::doStaticArrayType(std::__cxx11::basic_string<char, std::char_traits<char>, std::allocator<char> > const&, via_external_s, bool, (anonymous namespace)::TypeObj&, Sage::ArrayDimensionStack&, xst_s*, long*, unsigned char*, unsigned long, bool, bool)
PUBLIC 53ca0 0 (anonymous namespace)::doWireType(xst_s*, long*, vst_s*, via_external_s, (anonymous namespace)::TypeObj&, Sage::ArrayDimensionStack&)
PUBLIC 547b0 0 (anonymous namespace)::doVectorType(std::__cxx11::basic_string<char, std::char_traits<char>, std::allocator<char> > const&, via_external_s, bool, (anonymous namespace)::TypeObj&, Sage::ArrayDimensionStack&, xst_s*, long*, unsigned long, bool, unsigned char*, unsigned long, bool, bool)
PUBLIC 55c90 0 (anonymous namespace)::doStructUnionType(std::__cxx11::basic_string<char, std::char_traits<char>, std::allocator<char> > const&, via_external_s, bool, bool, (anonymous namespace)::TypeObj&, Sage::ArrayDimensionStack&, unsigned long, bool, unsigned char*, unsigned long, bool, bool)
PUBLIC 57a60 0 Sage::Type::recordParameter(xst_s*, long*, int)
PUBLIC 585d0 0 Sage::Type::recordSignal(xst_s*, long*, int, bool, bool)
PUBLIC 59120 0 std::unordered_map<std::pair<xst_s*, long*>, std::pair<int, bool>, Sage::HashFuncPointersPair<xst_s, long>, std::equal_to<std::pair<xst_s*, long*> >, std::allocator<std::pair<std::pair<xst_s*, long*> const, std::pair<int, bool> > > >::~unordered_map()
PUBLIC 591a0 0 std::unordered_map<std::__cxx11::basic_string<char, std::char_traits<char>, std::allocator<char> >, std::vector<int, std::allocator<int> >, std::hash<std::__cxx11::basic_string<char, std::char_traits<char>, std::allocator<char> > >, std::equal_to<std::__cxx11::basic_string<char, std::char_traits<char>, std::allocator<char> > >, std::allocator<std::pair<std::__cxx11::basic_string<char, std::char_traits<char>, std::allocator<char> > const, std::vector<int, std::allocator<int> > > > >::~unordered_map()
PUBLIC 59240 0 std::_Hashtable<std::__cxx11::basic_string<char, std::char_traits<char>, std::allocator<char> >, std::pair<std::__cxx11::basic_string<char, std::char_traits<char>, std::allocator<char> > const, int>, std::allocator<std::pair<std::__cxx11::basic_string<char, std::char_traits<char>, std::allocator<char> > const, int> >, std::__detail::_Select1st, std::equal_to<std::__cxx11::basic_string<char, std::char_traits<char>, std::allocator<char> > >, std::hash<std::__cxx11::basic_string<char, std::char_traits<char>, std::allocator<char> > >, std::__detail::_Mod_range_hashing, std::__detail::_Default_ranged_hash, std::__detail::_Prime_rehash_policy, std::__detail::_Hashtable_traits<true, false, true> >::find(std::__cxx11::basic_string<char, std::char_traits<char>, std::allocator<char> > const&)
PUBLIC 592e0 0 void std::vector<int, std::allocator<int> >::_M_realloc_insert<int const&>(__gnu_cxx::__normal_iterator<int*, std::vector<int, std::allocator<int> > >, int const&)
PUBLIC 59450 0 void std::vector<std::tuple<bool, bool, long, long>, std::allocator<std::tuple<bool, bool, long, long> > >::_M_realloc_insert<std::tuple<bool, bool, long, long> >(__gnu_cxx::__normal_iterator<std::tuple<bool, bool, long, long>*, std::vector<std::tuple<bool, bool, long, long>, std::allocator<std::tuple<bool, bool, long, long> > > >, std::tuple<bool, bool, long, long>&&)
PUBLIC 59610 0 void std::vector<std::pair<std::__cxx11::basic_string<char, std::char_traits<char>, std::allocator<char> >, common_v2::ByteStream*>, std::allocator<std::pair<std::__cxx11::basic_string<char, std::char_traits<char>, std::allocator<char> >, common_v2::ByteStream*> > >::_M_realloc_insert<std::pair<std::__cxx11::basic_string<char, std::char_traits<char>, std::allocator<char> >, common_v2::ByteStream*> >(__gnu_cxx::__normal_iterator<std::pair<std::__cxx11::basic_string<char, std::char_traits<char>, std::allocator<char> >, common_v2::ByteStream*>*, std::vector<std::pair<std::__cxx11::basic_string<char, std::char_traits<char>, std::allocator<char> >, common_v2::ByteStream*>, std::allocator<std::pair<std::__cxx11::basic_string<char, std::char_traits<char>, std::allocator<char> >, common_v2::ByteStream*> > > >, std::pair<std::__cxx11::basic_string<char, std::char_traits<char>, std::allocator<char> >, common_v2::ByteStream*>&&)
PUBLIC 59920 0 std::_Hashtable<std::__cxx11::basic_string<char, std::char_traits<char>, std::allocator<char> >, std::pair<std::__cxx11::basic_string<char, std::char_traits<char>, std::allocator<char> > const, std::vector<int, std::allocator<int> > >, std::allocator<std::pair<std::__cxx11::basic_string<char, std::char_traits<char>, std::allocator<char> > const, std::vector<int, std::allocator<int> > > >, std::__detail::_Select1st, std::equal_to<std::__cxx11::basic_string<char, std::char_traits<char>, std::allocator<char> > >, std::hash<std::__cxx11::basic_string<char, std::char_traits<char>, std::allocator<char> > >, std::__detail::_Mod_range_hashing, std::__detail::_Default_ranged_hash, std::__detail::_Prime_rehash_policy, std::__detail::_Hashtable_traits<true, false, true> >::_M_rehash(unsigned long, unsigned long const&)
PUBLIC 59a50 0 std::_Hashtable<std::__cxx11::basic_string<char, std::char_traits<char>, std::allocator<char> >, std::pair<std::__cxx11::basic_string<char, std::char_traits<char>, std::allocator<char> > const, std::vector<int, std::allocator<int> > >, std::allocator<std::pair<std::__cxx11::basic_string<char, std::char_traits<char>, std::allocator<char> > const, std::vector<int, std::allocator<int> > > >, std::__detail::_Select1st, std::equal_to<std::__cxx11::basic_string<char, std::char_traits<char>, std::allocator<char> > >, std::hash<std::__cxx11::basic_string<char, std::char_traits<char>, std::allocator<char> > >, std::__detail::_Mod_range_hashing, std::__detail::_Default_ranged_hash, std::__detail::_Prime_rehash_policy, std::__detail::_Hashtable_traits<true, false, true> >::_M_insert_unique_node(unsigned long, unsigned long, std::__detail::_Hash_node<std::pair<std::__cxx11::basic_string<char, std::char_traits<char>, std::allocator<char> > const, std::vector<int, std::allocator<int> > >, true>*, unsigned long)
PUBLIC 59b60 0 std::__detail::_Map_base<std::__cxx11::basic_string<char, std::char_traits<char>, std::allocator<char> >, std::pair<std::__cxx11::basic_string<char, std::char_traits<char>, std::allocator<char> > const, std::vector<int, std::allocator<int> > >, std::allocator<std::pair<std::__cxx11::basic_string<char, std::char_traits<char>, std::allocator<char> > const, std::vector<int, std::allocator<int> > > >, std::__detail::_Select1st, std::equal_to<std::__cxx11::basic_string<char, std::char_traits<char>, std::allocator<char> > >, std::hash<std::__cxx11::basic_string<char, std::char_traits<char>, std::allocator<char> > >, std::__detail::_Mod_range_hashing, std::__detail::_Default_ranged_hash, std::__detail::_Prime_rehash_policy, std::__detail::_Hashtable_traits<true, false, true>, true>::operator[](std::__cxx11::basic_string<char, std::char_traits<char>, std::allocator<char> > const&)
PUBLIC 59d30 0 std::__detail::_Map_base<std::__cxx11::basic_string<char, std::char_traits<char>, std::allocator<char> >, std::pair<std::__cxx11::basic_string<char, std::char_traits<char>, std::allocator<char> > const, int>, std::allocator<std::pair<std::__cxx11::basic_string<char, std::char_traits<char>, std::allocator<char> > const, int> >, std::__detail::_Select1st, std::equal_to<std::__cxx11::basic_string<char, std::char_traits<char>, std::allocator<char> > >, std::hash<std::__cxx11::basic_string<char, std::char_traits<char>, std::allocator<char> > >, std::__detail::_Mod_range_hashing, std::__detail::_Default_ranged_hash, std::__detail::_Prime_rehash_policy, std::__detail::_Hashtable_traits<true, false, true>, true>::operator[](std::__cxx11::basic_string<char, std::char_traits<char>, std::allocator<char> > const&)
PUBLIC 59ef0 0 std::_Hashtable<std::pair<xst_s*, long*>, std::pair<std::pair<xst_s*, long*> const, std::pair<int, bool> >, std::allocator<std::pair<std::pair<xst_s*, long*> const, std::pair<int, bool> > >, std::__detail::_Select1st, std::equal_to<std::pair<xst_s*, long*> >, Sage::HashFuncPointersPair<xst_s, long>, std::__detail::_Mod_range_hashing, std::__detail::_Default_ranged_hash, std::__detail::_Prime_rehash_policy, std::__detail::_Hashtable_traits<true, false, true> >::_M_rehash(unsigned long, unsigned long const&)
PUBLIC 5a020 0 std::_Hashtable<std::pair<xst_s*, long*>, std::pair<std::pair<xst_s*, long*> const, std::pair<int, bool> >, std::allocator<std::pair<std::pair<xst_s*, long*> const, std::pair<int, bool> > >, std::__detail::_Select1st, std::equal_to<std::pair<xst_s*, long*> >, Sage::HashFuncPointersPair<xst_s, long>, std::__detail::_Mod_range_hashing, std::__detail::_Default_ranged_hash, std::__detail::_Prime_rehash_policy, std::__detail::_Hashtable_traits<true, false, true> >::_M_insert_unique_node(unsigned long, unsigned long, std::__detail::_Hash_node<std::pair<std::pair<xst_s*, long*> const, std::pair<int, bool> >, true>*, unsigned long)
PUBLIC 5a110 0 Sage::HDLGraph::hasHegId(void*)
PUBLIC 5a170 0 Sage::HDLGraph::getHegId(void*, bool*, bool)
PUBLIC 5a540 0 Sage::HDLGraph::doUnhandledType(vst_s*, long*, int)
PUBLIC 5a960 0 (anonymous namespace)::doMembersDeclaration(vst_s*, long*)
PUBLIC 5aac0 0 (anonymous namespace)::doElemRef(vst_s*, long*)
PUBLIC 5b060 0 (anonymous namespace)::doExpr(vst_s*, long*)
PUBLIC 5c5a0 0 (anonymous namespace)::doAssignment(vst_s*, long*, hegproto_v2::Assign_Type)
PUBLIC 5c830 0 (anonymous namespace)::doStatement(vst_s*, long*)
PUBLIC 5d220 0 (anonymous namespace)::doEventControls(vst_s*, std::vector<int, std::allocator<int> >&, long*)
PUBLIC 5d840 0 (anonymous namespace)::doDeclarativeItems(ssl_item_s*) [clone .isra.0]
PUBLIC 5efc0 0 Sage::HDLGraph::recordHDLGraph(ssl_item_s*)
PUBLIC 5fba0 0 std::unordered_map<void*, int, std::hash<void*>, std::equal_to<void*>, std::allocator<std::pair<void* const, int> > >::~unordered_map()
PUBLIC 5fc20 0 void std::vector<vst_s*, std::allocator<vst_s*> >::_M_realloc_insert<vst_s* const&>(__gnu_cxx::__normal_iterator<vst_s**, std::vector<vst_s*, std::allocator<vst_s*> > >, vst_s* const&)
PUBLIC 5fd90 0 void std::vector<int, std::allocator<int> >::_M_realloc_insert<int>(__gnu_cxx::__normal_iterator<int*, std::vector<int, std::allocator<int> > >, int&&)
PUBLIC 5ff00 0 std::_Hashtable<void*, std::pair<void* const, int>, std::allocator<std::pair<void* const, int> >, std::__detail::_Select1st, std::equal_to<void*>, std::hash<void*>, std::__detail::_Mod_range_hashing, std::__detail::_Default_ranged_hash, std::__detail::_Prime_rehash_policy, std::__detail::_Hashtable_traits<false, false, true> >::_M_rehash(unsigned long, unsigned long const&)
PUBLIC 60030 0 std::_Hashtable<void*, std::pair<void* const, int>, std::allocator<std::pair<void* const, int> >, std::__detail::_Select1st, std::equal_to<void*>, std::hash<void*>, std::__detail::_Mod_range_hashing, std::__detail::_Default_ranged_hash, std::__detail::_Prime_rehash_policy, std::__detail::_Hashtable_traits<false, false, true> >::_M_insert_unique_node(unsigned long, unsigned long, std::__detail::_Hash_node<std::pair<void* const, int>, false>*, unsigned long)
PUBLIC 60120 0 (anonymous namespace)::getMember(vst_s*, long*, long**)
PUBLIC 60180 0 (anonymous namespace)::getDatatypeFromTypespec(vst_s*, long*, long**)
PUBLIC 60290 0 (anonymous namespace)::isTaskFuncBuiltin(vst_s*)
PUBLIC 60430 0 std::_Function_base::_Base_manager<Sage::Text::endSrcInfo()::{lambda(Sage::Util::PathTree::Node const*)#1}>::_M_manager(std::_Any_data&, std::_Function_base::_Base_manager<Sage::Text::endSrcInfo()::{lambda(Sage::Util::PathTree::Node const*)#1}> const&, std::_Manager_operation)
PUBLIC 60460 0 std::_Function_base::_Base_manager<Sage::Text::endSrcInfo()::{lambda(Sage::Util::PathTree::Node const*)#2}>::_M_manager(std::_Any_data&, std::_Function_base::_Base_manager<Sage::Text::endSrcInfo()::{lambda(Sage::Util::PathTree::Node const*)#2}> const&, std::_Manager_operation)
PUBLIC 60490 0 (anonymous namespace)::getPrefixOrDecl(vst_s*)
PUBLIC 60610 0 (anonymous namespace)::needsInternalScopePib(xst_s*, long*) [clone .part.0]
PUBLIC 606b0 0 void std::__cxx11::basic_string<char, std::char_traits<char>, std::allocator<char> >::_M_construct<char*>(char*, char*, std::forward_iterator_tag) [clone .constprop.0]
PUBLIC 60750 0 (anonymous namespace)::sourceLocation32bitFallback(xst_s*)
PUBLIC 60840 0 std::__cxx11::basic_string<char, std::char_traits<char>, std::allocator<char> >::basic_string(char const*, std::allocator<char> const&) [clone .isra.0]
PUBLIC 60900 0 (anonymous namespace)::getNameFromVst(vst_s*)
PUBLIC 609f0 0 (anonymous namespace)::resolveReference(vst_s*, long*, long**)
PUBLIC 60d90 0 (anonymous namespace)::getDeclItem(vst_s*, long*, ssl_item_s*) [clone .isra.0]
PUBLIC 60fa0 0 (anonymous namespace)::getElementTypespecAndPib(vst_s*, long*, long**)
PUBLIC 61080 0 (anonymous namespace)::getTypespecAndPib(vst_s*, long*, long**)
PUBLIC 61860 0 (anonymous namespace)::getDatatypeAndPib(vst_s*, long*, long**)
PUBLIC 61a10 0 (anonymous namespace)::isTextRefOfInterest(xst_s*, long*, bool, bool) [clone .constprop.0]
PUBLIC 62f50 0 Sage::Text::resolveReference(vst_s*, long*)
PUBLIC 62f60 0 Sage::Text::getAnnotationLength(vst_s*, long*)
PUBLIC 64d10 0 Sage::Text::initSrcInfo()
PUBLIC 64d60 0 Sage::Text::endSrcInfo()
PUBLIC 67ad0 0 (anonymous namespace)::getFileNode(std::__cxx11::basic_string<char, std::char_traits<char>, std::allocator<char> > const&, bool*)
PUBLIC 67d10 0 Sage::Text::getSrcLocObject(xst_s*, long*)
PUBLIC 68250 0 Sage::Text::recordSourceChunks(xst_s*)
PUBLIC 68850 0 std::_Function_handler<void (Sage::Util::PathTree::Node const*), Sage::Text::endSrcInfo()::{lambda(Sage::Util::PathTree::Node const*)#2}>::_M_invoke(std::_Any_data const&, Sage::Util::PathTree::Node const*&&)
PUBLIC 68a30 0 std::_Function_handler<void (Sage::Util::PathTree::Node const*), Sage::Text::endSrcInfo()::{lambda(Sage::Util::PathTree::Node const*)#1}>::_M_invoke(std::_Any_data const&, Sage::Util::PathTree::Node const*&&)
PUBLIC 68c00 0 (anonymous namespace)::storeMacroSrcLoc(int, int, int, int, int, std::__cxx11::basic_string<char, std::char_traits<char>, std::allocator<char> > const&, void*, bool)
PUBLIC 69000 0 void (anonymous namespace)::doMacroElem<hegproto_v2::MacroArg>(mac_elem_s*, long*, int, std::__cxx11::basic_string<char, std::char_traits<char>, std::allocator<char> > const&, hegproto_v2::MacroArg&, bool) [clone .constprop.0]
PUBLIC 69660 0 Sage::Text::recordIncludeRefs(xst_s*)
PUBLIC 6a770 0 Sage::Text::recordSourceMapping(std::__cxx11::basic_string<char, std::char_traits<char>, std::allocator<char> > const&, std::__cxx11::basic_string<char, std::char_traits<char>, std::allocator<char> > const&)
PUBLIC 6abe0 0 Sage::Text::recordTextRefs(ssl_item_s*)
PUBLIC 6b490 0 Sage::Text::getDefaultSrcLocId()
PUBLIC 6b7d0 0 Sage::Text::getSrcLoc(xst_s*, long*, bool)
PUBLIC 6b960 0 Sage::Text::getSrcLoc(ssl_item_s*, bool)
PUBLIC 6b980 0 Sage::Text::getSrcLoc(vst_s*, long*, bool)
PUBLIC 6b990 0 Sage::Text::recordMacroRefs(ssl_item_s*)
PUBLIC 6dca0 0 std::unordered_map<xst_s*, int, Sage::HashFuncPointers<xst_s>, std::equal_to<xst_s*>, std::allocator<std::pair<xst_s* const, int> > >::~unordered_map()
PUBLIC 6dd20 0 std::unordered_map<void*, int, Sage::HashFuncPointers<void>, std::equal_to<void*>, std::allocator<std::pair<void* const, int> > >::~unordered_map()
PUBLIC 6dda0 0 std::unordered_map<xst_s*, std::vector<std::tuple<std::__cxx11::basic_string<char, std::char_traits<char>, std::allocator<char> >, int, int>, std::allocator<std::tuple<std::__cxx11::basic_string<char, std::char_traits<char>, std::allocator<char> >, int, int> > >, std::hash<xst_s*>, std::equal_to<xst_s*>, std::allocator<std::pair<xst_s* const, std::vector<std::tuple<std::__cxx11::basic_string<char, std::char_traits<char>, std::allocator<char> >, int, int>, std::allocator<std::tuple<std::__cxx11::basic_string<char, std::char_traits<char>, std::allocator<char> >, int, int> > > > > >::~unordered_map()
PUBLIC 6de80 0 Sage::Util::PathTree::traverse(std::function<void (Sage::Util::PathTree::Node const*)>)
PUBLIC 6e170 0 std::__cxx11::basic_stringbuf<char, std::char_traits<char>, std::allocator<char> >::~basic_stringbuf()
PUBLIC 6e1b0 0 std::__cxx11::basic_stringbuf<char, std::char_traits<char>, std::allocator<char> >::~basic_stringbuf()
PUBLIC 6e200 0 std::vector<std::tuple<std::__cxx11::basic_string<char, std::char_traits<char>, std::allocator<char> >, int, int>, std::allocator<std::tuple<std::__cxx11::basic_string<char, std::char_traits<char>, std::allocator<char> >, int, int> > >::~vector()
PUBLIC 6e270 0 void std::vector<Sage::Util::PathTree::Node*, std::allocator<Sage::Util::PathTree::Node*> >::_M_realloc_insert<Sage::Util::PathTree::Node* const&>(__gnu_cxx::__normal_iterator<Sage::Util::PathTree::Node**, std::vector<Sage::Util::PathTree::Node*, std::allocator<Sage::Util::PathTree::Node*> > >, Sage::Util::PathTree::Node* const&)
PUBLIC 6e3e0 0 void std::vector<std::tuple<std::__cxx11::basic_string<char, std::char_traits<char>, std::allocator<char> >, int, int>, std::allocator<std::tuple<std::__cxx11::basic_string<char, std::char_traits<char>, std::allocator<char> >, int, int> > >::_M_realloc_insert<std::tuple<std::__cxx11::basic_string<char, std::char_traits<char>, std::allocator<char> >, int, int> >(__gnu_cxx::__normal_iterator<std::tuple<std::__cxx11::basic_string<char, std::char_traits<char>, std::allocator<char> >, int, int>*, std::vector<std::tuple<std::__cxx11::basic_string<char, std::char_traits<char>, std::allocator<char> >, int, int>, std::allocator<std::tuple<std::__cxx11::basic_string<char, std::char_traits<char>, std::allocator<char> >, int, int> > > >, std::tuple<std::__cxx11::basic_string<char, std::char_traits<char>, std::allocator<char> >, int, int>&&)
PUBLIC 6e650 0 __gnu_cxx::__normal_iterator<Sage::Util::PathTree::Node**, std::vector<Sage::Util::PathTree::Node*, std::allocator<Sage::Util::PathTree::Node*> > > std::__find_if<__gnu_cxx::__normal_iterator<Sage::Util::PathTree::Node**, std::vector<Sage::Util::PathTree::Node*, std::allocator<Sage::Util::PathTree::Node*> > >, __gnu_cxx::__ops::_Iter_pred<Sage::Util::PathTree::Node::find(std::__cxx11::basic_string<char, std::char_traits<char>, std::allocator<char> >)::{lambda(Sage::Util::PathTree::Node*)#1}> >(__gnu_cxx::__ops::_Iter_pred<Sage::Util::PathTree::Node::find(std::__cxx11::basic_string<char, std::char_traits<char>, std::allocator<char> >)::{lambda(Sage::Util::PathTree::Node*)#1}>, __gnu_cxx::__ops::_Iter_pred<Sage::Util::PathTree::Node::find(std::__cxx11::basic_string<char, std::char_traits<char>, std::allocator<char> >)::{lambda(Sage::Util::PathTree::Node*)#1}>, __gnu_cxx::__ops::_Iter_pred<Sage::Util::PathTree::Node::find(std::__cxx11::basic_string<char, std::char_traits<char>, std::allocator<char> >)::{lambda(Sage::Util::PathTree::Node*)#1}>, std::random_access_iterator_tag)
PUBLIC 6e840 0 Sage::Util::PathTree::insert(boost::filesystem::path)
PUBLIC 6f340 0 std::_Rb_tree<unsigned long, std::pair<unsigned long const, unsigned long>, std::_Select1st<std::pair<unsigned long const, unsigned long> >, std::less<unsigned long>, std::allocator<std::pair<unsigned long const, unsigned long> > >::_M_erase(std::_Rb_tree_node<std::pair<unsigned long const, unsigned long> >*)
PUBLIC 6f380 0 std::_Rb_tree_iterator<std::pair<unsigned long const, unsigned long> > std::_Rb_tree<unsigned long, std::pair<unsigned long const, unsigned long>, std::_Select1st<std::pair<unsigned long const, unsigned long> >, std::less<unsigned long>, std::allocator<std::pair<unsigned long const, unsigned long> > >::_M_emplace_hint_unique<std::piecewise_construct_t const&, std::tuple<unsigned long const&>, std::tuple<> >(std::_Rb_tree_const_iterator<std::pair<unsigned long const, unsigned long> >, std::piecewise_construct_t const&, std::tuple<unsigned long const&>&&, std::tuple<>&&)
PUBLIC 6f670 0 std::_Hashtable<void*, std::pair<void* const, int>, std::allocator<std::pair<void* const, int> >, std::__detail::_Select1st, std::equal_to<void*>, Sage::HashFuncPointers<void>, std::__detail::_Mod_range_hashing, std::__detail::_Default_ranged_hash, std::__detail::_Prime_rehash_policy, std::__detail::_Hashtable_traits<true, false, true> >::_M_rehash(unsigned long, unsigned long const&)
PUBLIC 6f7a0 0 std::_Hashtable<void*, std::pair<void* const, int>, std::allocator<std::pair<void* const, int> >, std::__detail::_Select1st, std::equal_to<void*>, Sage::HashFuncPointers<void>, std::__detail::_Mod_range_hashing, std::__detail::_Default_ranged_hash, std::__detail::_Prime_rehash_policy, std::__detail::_Hashtable_traits<true, false, true> >::_M_insert_unique_node(unsigned long, unsigned long, std::__detail::_Hash_node<std::pair<void* const, int>, true>*, unsigned long)
PUBLIC 6f890 0 std::_Hashtable<xst_s*, std::pair<xst_s* const, int>, std::allocator<std::pair<xst_s* const, int> >, std::__detail::_Select1st, std::equal_to<xst_s*>, Sage::HashFuncPointers<xst_s>, std::__detail::_Mod_range_hashing, std::__detail::_Default_ranged_hash, std::__detail::_Prime_rehash_policy, std::__detail::_Hashtable_traits<true, false, true> >::_M_rehash(unsigned long, unsigned long const&)
PUBLIC 6f9c0 0 std::_Hashtable<xst_s*, std::pair<xst_s* const, int>, std::allocator<std::pair<xst_s* const, int> >, std::__detail::_Select1st, std::equal_to<xst_s*>, Sage::HashFuncPointers<xst_s>, std::__detail::_Mod_range_hashing, std::__detail::_Default_ranged_hash, std::__detail::_Prime_rehash_policy, std::__detail::_Hashtable_traits<true, false, true> >::_M_insert_unique_node(unsigned long, unsigned long, std::__detail::_Hash_node<std::pair<xst_s* const, int>, true>*, unsigned long)
PUBLIC 6fab0 0 std::_Hashtable<xst_s*, std::pair<xst_s* const, std::vector<std::tuple<std::__cxx11::basic_string<char, std::char_traits<char>, std::allocator<char> >, int, int>, std::allocator<std::tuple<std::__cxx11::basic_string<char, std::char_traits<char>, std::allocator<char> >, int, int> > > >, std::allocator<std::pair<xst_s* const, std::vector<std::tuple<std::__cxx11::basic_string<char, std::char_traits<char>, std::allocator<char> >, int, int>, std::allocator<std::tuple<std::__cxx11::basic_string<char, std::char_traits<char>, std::allocator<char> >, int, int> > > > >, std::__detail::_Select1st, std::equal_to<xst_s*>, std::hash<xst_s*>, std::__detail::_Mod_range_hashing, std::__detail::_Default_ranged_hash, std::__detail::_Prime_rehash_policy, std::__detail::_Hashtable_traits<false, false, true> >::_M_rehash(unsigned long, unsigned long const&)
PUBLIC 6fbe0 0 std::_Hashtable<xst_s*, std::pair<xst_s* const, std::vector<std::tuple<std::__cxx11::basic_string<char, std::char_traits<char>, std::allocator<char> >, int, int>, std::allocator<std::tuple<std::__cxx11::basic_string<char, std::char_traits<char>, std::allocator<char> >, int, int> > > >, std::allocator<std::pair<xst_s* const, std::vector<std::tuple<std::__cxx11::basic_string<char, std::char_traits<char>, std::allocator<char> >, int, int>, std::allocator<std::tuple<std::__cxx11::basic_string<char, std::char_traits<char>, std::allocator<char> >, int, int> > > > >, std::__detail::_Select1st, std::equal_to<xst_s*>, std::hash<xst_s*>, std::__detail::_Mod_range_hashing, std::__detail::_Default_ranged_hash, std::__detail::_Prime_rehash_policy, std::__detail::_Hashtable_traits<false, false, true> >::_M_insert_unique_node(unsigned long, unsigned long, std::__detail::_Hash_node<std::pair<xst_s* const, std::vector<std::tuple<std::__cxx11::basic_string<char, std::char_traits<char>, std::allocator<char> >, int, int>, std::allocator<std::tuple<std::__cxx11::basic_string<char, std::char_traits<char>, std::allocator<char> >, int, int> > > >, false>*, unsigned long)
PUBLIC 6fce0 0 std::pair<std::__detail::_Node_iterator<std::pair<xst_s* const, std::vector<std::tuple<std::__cxx11::basic_string<char, std::char_traits<char>, std::allocator<char> >, int, int>, std::allocator<std::tuple<std::__cxx11::basic_string<char, std::char_traits<char>, std::allocator<char> >, int, int> > > >, false, false>, bool> std::_Hashtable<xst_s*, std::pair<xst_s* const, std::vector<std::tuple<std::__cxx11::basic_string<char, std::char_traits<char>, std::allocator<char> >, int, int>, std::allocator<std::tuple<std::__cxx11::basic_string<char, std::char_traits<char>, std::allocator<char> >, int, int> > > >, std::allocator<std::pair<xst_s* const, std::vector<std::tuple<std::__cxx11::basic_string<char, std::char_traits<char>, std::allocator<char> >, int, int>, std::allocator<std::tuple<std::__cxx11::basic_string<char, std::char_traits<char>, std::allocator<char> >, int, int> > > > >, std::__detail::_Select1st, std::equal_to<xst_s*>, std::hash<xst_s*>, std::__detail::_Mod_range_hashing, std::__detail::_Default_ranged_hash, std::__detail::_Prime_rehash_policy, std::__detail::_Hashtable_traits<false, false, true> >::_M_emplace<std::pair<xst_s* const, std::vector<std::tuple<std::__cxx11::basic_string<char, std::char_traits<char>, std::allocator<char> >, int, int>, std::allocator<std::tuple<std::__cxx11::basic_string<char, std::char_traits<char>, std::allocator<char> >, int, int> > > > >(std::integral_constant<bool, true>, std::pair<xst_s* const, std::vector<std::tuple<std::__cxx11::basic_string<char, std::char_traits<char>, std::allocator<char> >, int, int>, std::allocator<std::tuple<std::__cxx11::basic_string<char, std::char_traits<char>, std::allocator<char> >, int, int> > > >&&)
PUBLIC 6fe10 0 (anonymous namespace)::launchConsumer(char const*, char const*, char const*, bool, bool, bool, char const*)
PUBLIC 6ff10 0 Sage::IO::IpcStream::close()
PUBLIC 6ff60 0 Sage::IO::IpcStream::~IpcStream()
PUBLIC 70360 0 Sage::IO::cleanFifo()
PUBLIC 703d0 0 Sage::IO::handleConsumerStatus(bool)
PUBLIC 704e0 0 Sage::IO::IpcStream::connect()
PUBLIC 70690 0 Sage::IO::IpcStream::IpcStream()
PUBLIC 70970 0 Sage::IO::connectWriter(std::__cxx11::basic_string<char, std::char_traits<char>, std::allocator<char> >, char const*, bool, bool)
PUBLIC 70cd0 0 Sage::IO::IpcStream::IpcStream(std::__cxx11::basic_string<char, std::char_traits<char>, std::allocator<char> > const&)
PUBLIC 70fe0 0 (anonymous namespace)::root_directory_start(std::__cxx11::basic_string<char, std::char_traits<char>, std::allocator<char> > const&, unsigned long)
PUBLIC 71090 0 boost::filesystem::path::m_append_separator_if_needed()
PUBLIC 71130 0 boost::filesystem::path::operator/=(char const*)
PUBLIC 712a0 0 boost::filesystem::path::operator/=(boost::filesystem::path const&)
PUBLIC 713e0 0 boost::filesystem::path::m_erase_redundant_separator(unsigned long)
PUBLIC 71410 0 boost::filesystem::path::remove_trailing_separator()
PUBLIC 71440 0 boost::filesystem::path::root_directory() const
PUBLIC 715a0 0 boost::filesystem::path::m_parent_path_end() const
PUBLIC 716f0 0 boost::filesystem::path::remove_filename()
PUBLIC 71730 0 boost::filesystem::path::parent_path() const
PUBLIC 71890 0 boost::filesystem::detail::dot_path()
PUBLIC 71930 0 boost::filesystem::path::filename() const
PUBLIC 71bf0 0 boost::filesystem::detail::dot_dot_path()
PUBLIC 71c90 0 boost::filesystem::path::begin() const
PUBLIC 71f30 0 boost::filesystem::path::root_name() const
PUBLIC 72020 0 boost::filesystem::path::root_path() const
PUBLIC 720f0 0 boost::filesystem::path::end() const
PUBLIC 72120 0 boost::filesystem::path::m_path_iterator_increment(boost::filesystem::path::iterator&)
PUBLIC 72410 0 boost::filesystem::path::relative_path() const
PUBLIC 72540 0 boost::filesystem::detail::lex_compare(boost::filesystem::path::iterator, boost::filesystem::path::iterator, boost::filesystem::path::iterator, boost::filesystem::path::iterator)
PUBLIC 72700 0 boost::filesystem::path::compare(boost::filesystem::path const&) const
PUBLIC 727e0 0 boost::filesystem::path::extension() const
PUBLIC 72940 0 boost::filesystem::path::replace_extension(boost::filesystem::path const&)
PUBLIC 72a40 0 boost::filesystem::path::stem() const
PUBLIC 72d40 0 boost::filesystem::path::lexically_relative(boost::filesystem::path const&) const
PUBLIC 73590 0 boost::filesystem::path::m_path_iterator_decrement(boost::filesystem::path::iterator&)
PUBLIC 738f0 0 boost::filesystem::path::lexically_normal() const
PUBLIC 74190 0 boost::filesystem::path::codecvt()
PUBLIC 74220 0 boost::filesystem::path::imbue(std::locale const&)
PUBLIC 74320 0 boost::filesystem::path::~path()
PUBLIC 74340 0 boost::system::(anonymous namespace)::generic_error_category::name() const
PUBLIC 74350 0 boost::system::(anonymous namespace)::system_error_category::name() const
PUBLIC 74360 0 boost::system::(anonymous namespace)::system_error_category::~system_error_category()
PUBLIC 74370 0 boost::system::(anonymous namespace)::generic_error_category::~generic_error_category()
PUBLIC 74380 0 boost::system::(anonymous namespace)::system_error_category::~system_error_category()
PUBLIC 74390 0 boost::system::(anonymous namespace)::generic_error_category::~generic_error_category()
PUBLIC 743a0 0 boost::system::(anonymous namespace)::generic_error_category::message(int) const
PUBLIC 745c0 0 boost::system::system_category()
PUBLIC 74640 0 boost::system::generic_category()
PUBLIC 746c0 0 boost::system::(anonymous namespace)::system_error_category::default_error_condition(int) const
PUBLIC 74c50 0 boost::system::(anonymous namespace)::system_error_category::message(int) const
PUBLIC 74c80 0 boost::system::error_category::default_error_condition(int) const
PUBLIC 74c90 0 boost::system::error_category::equivalent(int, boost::system::error_condition const&) const
PUBLIC 74cb0 0 boost::system::error_category::equivalent(boost::system::error_code const&, int) const
PUBLIC 74cd0 0 google::protobuf::internal::NullLogHandler(google::protobuf::LogLevel, char const*, int, std::__cxx11::basic_string<char, std::char_traits<char>, std::allocator<char> > const&)
PUBLIC 74ce0 0 google::protobuf::FatalException::what() const
PUBLIC 74cf0 0 google::protobuf::internal::DefaultLogHandler(google::protobuf::LogLevel, char const*, int, std::__cxx11::basic_string<char, std::char_traits<char>, std::allocator<char> > const&)
PUBLIC 74d40 0 google::protobuf::FatalException::~FatalException()
PUBLIC 74d70 0 google::protobuf::FatalException::~FatalException()
PUBLIC 74d90 0 google::protobuf::internal::LogMessage::operator<<(std::__cxx11::basic_string<char, std::char_traits<char>, std::allocator<char> > const&)
PUBLIC 74db0 0 google::protobuf::internal::LogMessage::operator<<(char const*)
PUBLIC 74e00 0 google::protobuf::internal::LogMessage::operator<<(google::protobuf::util::Status const&)
PUBLIC 74e50 0 google::protobuf::internal::LogMessage::operator<<(char)
PUBLIC 74f00 0 google::protobuf::internal::LogMessage::operator<<(int)
PUBLIC 74fb0 0 google::protobuf::internal::LogMessage::operator<<(unsigned int)
PUBLIC 75060 0 google::protobuf::internal::LogMessage::operator<<(long)
PUBLIC 75110 0 google::protobuf::internal::LogMessage::operator<<(unsigned long)
PUBLIC 751c0 0 google::protobuf::internal::LogMessage::operator<<(double)
PUBLIC 75270 0 google::protobuf::internal::LogMessage::operator<<(void*)
PUBLIC 75320 0 google::protobuf::internal::LogMessage::operator<<(long long)
PUBLIC 753d0 0 google::protobuf::internal::LogMessage::operator<<(unsigned long long)
PUBLIC 75480 0 google::protobuf::internal::LogMessage::LogMessage(google::protobuf::LogLevel, char const*, int)
PUBLIC 754a0 0 google::protobuf::internal::LogMessage::~LogMessage()
PUBLIC 754c0 0 google::protobuf::internal::LogMessage::Finish()
PUBLIC 75510 0 google::protobuf::internal::LogFinisher::operator=(google::protobuf::internal::LogMessage&)
PUBLIC 75520 0 google::protobuf::SetLogHandler(void (*)(google::protobuf::LogLevel, char const*, int, std::__cxx11::basic_string<char, std::char_traits<char>, std::allocator<char> > const&))
PUBLIC 75550 0 google::protobuf::LogSilencer::LogSilencer()
PUBLIC 75560 0 google::protobuf::LogSilencer::~LogSilencer()
PUBLIC 75570 0 google::protobuf::Closure::~Closure()
PUBLIC 75580 0 google::protobuf::internal::FunctionClosure0::~FunctionClosure0()
PUBLIC 755a0 0 google::protobuf::internal::FunctionClosure0::~FunctionClosure0()
PUBLIC 755c0 0 google::protobuf::Closure::~Closure()
PUBLIC 755e0 0 google::protobuf::DoNothing()
PUBLIC 755f0 0 google::protobuf::ghtonl(unsigned int)
PUBLIC 75600 0 google::protobuf::internal::LogMessage::operator<<(google::protobuf::uint128 const&)
PUBLIC 758f0 0 google::protobuf::internal::VersionString[abi:cxx11](int)
PUBLIC 759d0 0 google::protobuf::internal::VerifyVersion(int, int, char const*)
PUBLIC 75c20 0 google::protobuf::internal::LogMessage::operator<<(google::protobuf::StringPiece const&)
PUBLIC 75cb0 0 google::protobuf::internal::FunctionClosure0::Run()
PUBLIC 75cf0 0 void std::__cxx11::basic_string<char, std::char_traits<char>, std::allocator<char> >::_M_construct<char const*>(char const*, char const*, std::forward_iterator_tag)
PUBLIC 75d90 0 google::protobuf::uint128::DivModImpl(google::protobuf::uint128, google::protobuf::uint128, google::protobuf::uint128*, google::protobuf::uint128*)
PUBLIC 760f0 0 google::protobuf::uint128::operator/=(google::protobuf::uint128 const&)
PUBLIC 76160 0 google::protobuf::uint128::operator%=(google::protobuf::uint128 const&)
PUBLIC 761d0 0 google::protobuf::operator<<(std::ostream&, google::protobuf::uint128 const&)
PUBLIC 76970 0 google::protobuf::util::Status::Status()
PUBLIC 76990 0 google::protobuf::util::Status::Status(google::protobuf::util::Status const&)
PUBLIC 76a50 0 google::protobuf::util::Status::operator=(google::protobuf::util::Status const&)
PUBLIC 76a70 0 google::protobuf::util::Status::operator==(google::protobuf::util::Status const&) const
PUBLIC 76ab0 0 google::protobuf::util::Status::Status(google::protobuf::util::error::Code, google::protobuf::StringPiece)
PUBLIC 76bf0 0 google::protobuf::util::Status::ToString[abi:cxx11]() const
PUBLIC 76d90 0 google::protobuf::util::operator<<(std::ostream&, google::protobuf::util::Status const&)
PUBLIC 76de0 0 google::protobuf::util::Status::~Status()
PUBLIC 76e00 0 google::protobuf::util::error::CodeEnumToString[abi:cxx11](google::protobuf::util::error::Code)
PUBLIC 76fc0 0 google::protobuf::internal::ArenaImpl::Block::Block(unsigned long, google::protobuf::internal::ArenaImpl::Block*)
PUBLIC 76fd0 0 google::protobuf::internal::ArenaImpl::NewBlock(google::protobuf::internal::ArenaImpl::Block*, unsigned long)
PUBLIC 770c0 0 google::protobuf::internal::ArenaImpl::SerialArena::AllocateAlignedFallback(unsigned long)
PUBLIC 77130 0 google::protobuf::internal::ArenaImpl::SerialArena::AddCleanupFallback(void*, void (*)(void*))
PUBLIC 77210 0 google::protobuf::internal::ArenaImpl::SpaceAllocated() const
PUBLIC 77220 0 google::protobuf::internal::ArenaImpl::SerialArena::SpaceUsed() const
PUBLIC 77260 0 google::protobuf::internal::ArenaImpl::SpaceUsed() const
PUBLIC 772a0 0 google::protobuf::internal::ArenaImpl::SerialArena::Free(google::protobuf::internal::ArenaImpl::SerialArena*, google::protobuf::internal::ArenaImpl::Block*, void (*)(void*, unsigned long))
PUBLIC 77310 0 google::protobuf::internal::ArenaImpl::FreeBlocks()
PUBLIC 77350 0 google::protobuf::internal::ArenaImpl::SerialArena::CleanupListFallback()
PUBLIC 773b0 0 google::protobuf::internal::ArenaImpl::SerialArena::CleanupList()
PUBLIC 773d0 0 google::protobuf::internal::ArenaImpl::CleanupList()
PUBLIC 77400 0 google::protobuf::internal::ArenaImpl::~ArenaImpl()
PUBLIC 77420 0 google::protobuf::internal::ArenaImpl::SerialArena::New(google::protobuf::internal::ArenaImpl::Block*, void*, google::protobuf::internal::ArenaImpl*)
PUBLIC 77470 0 google::protobuf::internal::ArenaImpl::Init()
PUBLIC 77510 0 google::protobuf::internal::ArenaImpl::Reset()
PUBLIC 77540 0 google::protobuf::internal::ArenaImpl::GetSerialArenaFallback(void*)
PUBLIC 775d0 0 google::protobuf::internal::ArenaImpl::GetSerialArena()
PUBLIC 77630 0 google::protobuf::internal::ArenaImpl::AllocateAlignedFallback(unsigned long)
PUBLIC 77670 0 google::protobuf::internal::ArenaImpl::AllocateAlignedAndAddCleanupFallback(unsigned long, void (*)(void*))
PUBLIC 77700 0 google::protobuf::internal::ArenaImpl::AllocateAlignedAndAddCleanup(unsigned long, void (*)(void*))
PUBLIC 777d0 0 google::protobuf::internal::ArenaImpl::AddCleanupFallback(void*, void (*)(void*))
PUBLIC 77820 0 google::protobuf::internal::ArenaImpl::AddCleanup(void*, void (*)(void*))
PUBLIC 778c0 0 google::protobuf::Arena::AllocateAlignedNoHook(unsigned long)
PUBLIC 77950 0 google::protobuf::Arena::CallDestructorHooks()
PUBLIC 779a0 0 google::protobuf::Arena::OnArenaAllocation(std::type_info const*, unsigned long) const
PUBLIC 779d0 0 google::protobuf::internal::DestroyString(void const*)
PUBLIC 779f0 0 google::protobuf::internal::(anonymous namespace)::InitSCC_DFS(google::protobuf::internal::SCCInfoBase*)
PUBLIC 77a70 0 google::protobuf::io::CodedOutputStream::WriteVarint32ToArray(unsigned int, unsigned char*) [clone .part.0]
PUBLIC 77ac0 0 google::protobuf::io::CodedOutputStream::WriteVarint64ToArray(unsigned long, unsigned char*) [clone .part.0]
PUBLIC 77b20 0 void google::protobuf::internal::SingularFieldHelper<1>::Serialize<google::protobuf::internal::ArrayOutput>(void const*, google::protobuf::internal::FieldMetadata const&, google::protobuf::internal::ArrayOutput*) [clone .isra.0]
PUBLIC 77bb0 0 void google::protobuf::internal::SingularFieldHelper<2>::Serialize<google::protobuf::internal::ArrayOutput>(void const*, google::protobuf::internal::FieldMetadata const&, google::protobuf::internal::ArrayOutput*) [clone .isra.0]
PUBLIC 77c40 0 void google::protobuf::internal::SingularFieldHelper<1>::Serialize<google::protobuf::io::CodedOutputStream>(void const*, google::protobuf::internal::FieldMetadata const&, google::protobuf::io::CodedOutputStream*) [clone .isra.0]
PUBLIC 77d10 0 void google::protobuf::internal::SingularFieldHelper<2>::Serialize<google::protobuf::io::CodedOutputStream>(void const*, google::protobuf::internal::FieldMetadata const&, google::protobuf::io::CodedOutputStream*) [clone .isra.0]
PUBLIC 77de0 0 void google::protobuf::internal::SingularFieldHelper<9>::Serialize<google::protobuf::internal::ArrayOutput>(void const*, google::protobuf::internal::FieldMetadata const&, google::protobuf::internal::ArrayOutput*) [clone .isra.0]
PUBLIC 77e80 0 void google::protobuf::internal::SingularFieldHelper<5>::Serialize<google::protobuf::internal::ArrayOutput>(void const*, google::protobuf::internal::FieldMetadata const&, google::protobuf::internal::ArrayOutput*) [clone .isra.0]
PUBLIC 77f70 0 google::protobuf::internal::DestroyMessage(void const*)
PUBLIC 77f80 0 google::protobuf::internal::InitProtobufDefaults()
PUBLIC 77ff0 0 google::protobuf::internal::StringSpaceUsedExcludingSelfLong(std::__cxx11::basic_string<char, std::char_traits<char>, std::allocator<char> > const&)
PUBLIC 78030 0 google::protobuf::internal::SerializeMessageNoTable(google::protobuf::MessageLite const*, google::protobuf::io::CodedOutputStream*)
PUBLIC 780b0 0 google::protobuf::internal::SerializeMessageNoTable(google::protobuf::MessageLite const*, google::protobuf::internal::ArrayOutput*)
PUBLIC 78190 0 google::protobuf::internal::SerializeNotImplemented(int)
PUBLIC 78200 0 google::protobuf::internal::FieldMetadata::CalculateType(int, google::protobuf::internal::FieldMetadata::FieldTypeClass)
PUBLIC 78210 0 bool google::protobuf::internal::IsNull<9>(void const*)
PUBLIC 78220 0 bool google::protobuf::internal::IsNull<12>(void const*)
PUBLIC 78230 0 bool google::protobuf::internal::IsNull<10>(void const*)
PUBLIC 78240 0 bool google::protobuf::internal::IsNull<11>(void const*)
PUBLIC 78250 0 bool google::protobuf::internal::IsNull<21>(void const*)
PUBLIC 78260 0 google::protobuf::internal::ExtensionSerializer(unsigned char const*, unsigned int, unsigned int, unsigned int, google::protobuf::io::CodedOutputStream*)
PUBLIC 78280 0 google::protobuf::internal::UnknownFieldSerializerLite(unsigned char const*, unsigned int, unsigned int, unsigned int, google::protobuf::io::CodedOutputStream*)
PUBLIC 78300 0 google::protobuf::internal::DuplicateIfNonNullInternal(google::protobuf::MessageLite*)
PUBLIC 783c0 0 google::protobuf::internal::GenericSwap(google::protobuf::MessageLite*, google::protobuf::MessageLite*)
PUBLIC 78550 0 google::protobuf::internal::InitSCCImpl(google::protobuf::internal::SCCInfoBase*)
PUBLIC 78690 0 google::protobuf::internal::GetOwnedMessageInternal(google::protobuf::Arena*, google::protobuf::MessageLite*, google::protobuf::Arena*)
PUBLIC 78720 0 google::protobuf::internal::SerializeInternal(unsigned char const*, google::protobuf::internal::FieldMetadata const*, int, google::protobuf::io::CodedOutputStream*)
PUBLIC 7b660 0 google::protobuf::internal::SerializeMessageDispatch(google::protobuf::MessageLite const&, google::protobuf::internal::FieldMetadata const*, int, int, google::protobuf::io::CodedOutputStream*)
PUBLIC 7b670 0 google::protobuf::internal::SerializeInternalToArray(unsigned char const*, google::protobuf::internal::FieldMetadata const*, int, bool, unsigned char*)
PUBLIC 7e360 0 google::protobuf::internal::SerializeMessageDispatch(google::protobuf::MessageLite const&, google::protobuf::internal::FieldMetadata const*, int, int, google::protobuf::internal::ArrayOutput*)
PUBLIC 7e380 0 google::protobuf::internal::ImplicitWeakMessage::Clear()
PUBLIC 7e390 0 google::protobuf::internal::ImplicitWeakMessage::GetCachedSize() const
PUBLIC 7e3a0 0 void google::protobuf::internal::arena_delete_object<google::protobuf::MessageLite>(void*)
PUBLIC 7e3c0 0 google::protobuf::internal::ImplicitWeakMessage::New() const
PUBLIC 7e400 0 google::protobuf::internal::ImplicitWeakMessage::CheckTypeAndMergeFrom(google::protobuf::MessageLite const&)
PUBLIC 7e420 0 google::protobuf::internal::ImplicitWeakMessage::_InternalSerialize(unsigned char*, google::protobuf::io::EpsCopyOutputStream*) const
PUBLIC 7e460 0 google::protobuf::io::CodedOutputStream::WriteVarint32(unsigned int)
PUBLIC 7e510 0 google::protobuf::io::CodedOutputStream::WriteVarint64(unsigned long)
PUBLIC 7e5d0 0 google::protobuf::internal::PrimitiveTypeHelper<9>::Serialize(void const*, google::protobuf::io::CodedOutputStream*)
PUBLIC 7e6d0 0 void google::protobuf::internal::PackedFieldHelper<9>::Serialize<google::protobuf::io::CodedOutputStream>(void const*, google::protobuf::internal::FieldMetadata const&, google::protobuf::io::CodedOutputStream*)
PUBLIC 7e760 0 void google::protobuf::internal::PackedFieldHelper<9>::Serialize<google::protobuf::internal::ArrayOutput>(void const*, google::protobuf::internal::FieldMetadata const&, google::protobuf::internal::ArrayOutput*)
PUBLIC 7e7f0 0 void google::protobuf::Arena::Own<google::protobuf::MessageLite>(google::protobuf::MessageLite*)
PUBLIC 7e810 0 void google::protobuf::internal::SerializeMessageTo<google::protobuf::io::CodedOutputStream>(google::protobuf::MessageLite const*, void const*, google::protobuf::io::CodedOutputStream*)
PUBLIC 7e9d0 0 void google::protobuf::internal::SerializeGroupTo<google::protobuf::io::CodedOutputStream>(google::protobuf::MessageLite const*, void const*, google::protobuf::io::CodedOutputStream*)
PUBLIC 7ea00 0 void google::protobuf::internal::SerializeMessageTo<google::protobuf::internal::ArrayOutput>(google::protobuf::MessageLite const*, void const*, google::protobuf::internal::ArrayOutput*)
PUBLIC 7eb30 0 void google::protobuf::internal::SerializeGroupTo<google::protobuf::internal::ArrayOutput>(google::protobuf::MessageLite const*, void const*, google::protobuf::internal::ArrayOutput*)
PUBLIC 7eb60 0 void google::protobuf::internal::SingularFieldHelper<10>::Serialize<google::protobuf::internal::ArrayOutput>(void const*, google::protobuf::internal::FieldMetadata const&, google::protobuf::internal::ArrayOutput*)
PUBLIC 7ec70 0 google::protobuf::internal::InitImplicitWeakMessageDefaultInstance()
PUBLIC 7ecb0 0 google::protobuf::internal::ImplicitWeakMessage::_InternalParse(char const*, google::protobuf::internal::ParseContext*)
PUBLIC 7ed50 0 google::protobuf::internal::ImplicitWeakMessage::default_instance()
PUBLIC 7edd0 0 google::protobuf::MessageLite::InternalGetTable() const
PUBLIC 7ede0 0 google::protobuf::internal::ImplicitWeakMessage::IsInitialized() const
PUBLIC 7edf0 0 google::protobuf::internal::ImplicitWeakMessage::ByteSizeLong() const
PUBLIC 7ee00 0 std::call_once<void (&)()>(std::once_flag&, void (&)())::{lambda()#2}::_FUN()
PUBLIC 7ee20 0 void google::protobuf::internal::arena_destruct_object<google::protobuf::internal::ImplicitWeakMessage>(void*)
PUBLIC 7ee30 0 google::protobuf::internal::ImplicitWeakMessage::~ImplicitWeakMessage()
PUBLIC 7ee60 0 google::protobuf::internal::ImplicitWeakMessage::~ImplicitWeakMessage()
PUBLIC 7eea0 0 google::protobuf::internal::ImplicitWeakMessage::New(google::protobuf::Arena*) const
PUBLIC 7ef20 0 google::protobuf::internal::ImplicitWeakMessage::GetTypeName[abi:cxx11]() const
PUBLIC 7ef40 0 google::protobuf::internal::RunZeroArgFunc(void const*)
PUBLIC 7ef50 0 google::protobuf::MessageLite::InitializationErrorString[abi:cxx11]() const [clone .localalias]
PUBLIC 7efd0 0 google::protobuf::MessageLite::DebugString[abi:cxx11]() const
PUBLIC 7f020 0 google::protobuf::MessageLite::LogInitializationErrorMessage() const
PUBLIC 7f2c0 0 google::protobuf::MessageLite::MergeFromImpl(google::protobuf::io::CodedInputStream*, google::protobuf::MessageLite::ParseFlags)
PUBLIC 7f450 0 google::protobuf::MessageLite::MergePartialFromCodedStream(google::protobuf::io::CodedInputStream*)
PUBLIC 7f460 0 google::protobuf::MessageLite::MergeFromCodedStream(google::protobuf::io::CodedInputStream*)
PUBLIC 7f470 0 google::protobuf::MessageLite::ParseFromCodedStream(google::protobuf::io::CodedInputStream*)
PUBLIC 7f4d0 0 google::protobuf::MessageLite::ParsePartialFromCodedStream(google::protobuf::io::CodedInputStream*)
PUBLIC 7f530 0 google::protobuf::MessageLite::ParseFromZeroCopyStream(google::protobuf::io::ZeroCopyInputStream*)
PUBLIC 7f580 0 google::protobuf::MessageLite::ParsePartialFromZeroCopyStream(google::protobuf::io::ZeroCopyInputStream*)
PUBLIC 7f5d0 0 google::protobuf::MessageLite::MergePartialFromBoundedZeroCopyStream(google::protobuf::io::ZeroCopyInputStream*, int)
PUBLIC 7f5f0 0 google::protobuf::MessageLite::MergeFromBoundedZeroCopyStream(google::protobuf::io::ZeroCopyInputStream*, int)
PUBLIC 7f610 0 google::protobuf::MessageLite::ParseFromBoundedZeroCopyStream(google::protobuf::io::ZeroCopyInputStream*, int)
PUBLIC 7f670 0 google::protobuf::MessageLite::ParsePartialFromBoundedZeroCopyStream(google::protobuf::io::ZeroCopyInputStream*, int)
PUBLIC 7f6d0 0 google::protobuf::MessageLite::ParseFromString(std::__cxx11::basic_string<char, std::char_traits<char>, std::allocator<char> > const&)
PUBLIC 7f720 0 google::protobuf::MessageLite::ParsePartialFromString(std::__cxx11::basic_string<char, std::char_traits<char>, std::allocator<char> > const&)
PUBLIC 7f770 0 google::protobuf::MessageLite::ParseFromArray(void const*, int)
PUBLIC 7f7d0 0 google::protobuf::MessageLite::ParsePartialFromArray(void const*, int)
PUBLIC 7f830 0 google::protobuf::MessageLite::MergeFromString(std::__cxx11::basic_string<char, std::char_traits<char>, std::allocator<char> > const&)
PUBLIC 7f850 0 google::protobuf::MessageLite::SerializeWithCachedSizesToArray(unsigned char*) const
PUBLIC 7f930 0 google::protobuf::MessageLite::SerializePartialToCodedStream(google::protobuf::io::CodedOutputStream*) const
PUBLIC 7fda0 0 google::protobuf::MessageLite::SerializeToCodedStream(google::protobuf::io::CodedOutputStream*) const
PUBLIC 7fdb0 0 google::protobuf::MessageLite::SerializePartialToZeroCopyStream(google::protobuf::io::ZeroCopyOutputStream*) const
PUBLIC 7ff80 0 google::protobuf::MessageLite::SerializeToZeroCopyStream(google::protobuf::io::ZeroCopyOutputStream*) const
PUBLIC 7ff90 0 google::protobuf::MessageLite::AppendPartialToString(std::__cxx11::basic_string<char, std::char_traits<char>, std::allocator<char> >*) const
PUBLIC 80170 0 google::protobuf::MessageLite::AppendToString(std::__cxx11::basic_string<char, std::char_traits<char>, std::allocator<char> >*) const
PUBLIC 80180 0 google::protobuf::MessageLite::SerializeToString(std::__cxx11::basic_string<char, std::char_traits<char>, std::allocator<char> >*) const
PUBLIC 801a0 0 google::protobuf::MessageLite::SerializePartialToString(std::__cxx11::basic_string<char, std::char_traits<char>, std::allocator<char> >*) const
PUBLIC 801c0 0 google::protobuf::MessageLite::SerializePartialToArray(void*, int) const
PUBLIC 803b0 0 google::protobuf::MessageLite::SerializeToArray(void*, int) const
PUBLIC 803c0 0 google::protobuf::MessageLite::SerializeAsString[abi:cxx11]() const
PUBLIC 80410 0 google::protobuf::MessageLite::SerializePartialAsString[abi:cxx11]() const
PUBLIC 80460 0 google::protobuf::internal::GenericTypeHandler<google::protobuf::MessageLite>::NewFromPrototype(google::protobuf::MessageLite const*, google::protobuf::Arena*)
PUBLIC 80470 0 google::protobuf::internal::GenericTypeHandler<google::protobuf::MessageLite>::Merge(google::protobuf::MessageLite const&, google::protobuf::MessageLite*)
PUBLIC 804b0 0 google::protobuf::internal::GenericTypeHandler<std::__cxx11::basic_string<char, std::char_traits<char>, std::allocator<char> > >::Merge(std::__cxx11::basic_string<char, std::char_traits<char>, std::allocator<char> > const&, std::__cxx11::basic_string<char, std::char_traits<char>, std::allocator<char> >*)
PUBLIC 804c0 0 google::protobuf::ShutdownProtobufLibrary()
PUBLIC 80600 0 google::protobuf::MessageLite::New(google::protobuf::Arena*) const
PUBLIC 80680 0 google::protobuf::internal::OnShutdownRun(void (*)(void const*), void const*)
PUBLIC 807a0 0 google::protobuf::internal::OnShutdown(void (*)())
PUBLIC 807b0 0 google::protobuf::MessageLite::ParseFromFileDescriptor(int)
PUBLIC 80820 0 google::protobuf::MessageLite::ParsePartialFromFileDescriptor(int)
PUBLIC 80890 0 google::protobuf::MessageLite::ParseFromIstream(std::istream*)
PUBLIC 80910 0 google::protobuf::MessageLite::ParsePartialFromIstream(std::istream*)
PUBLIC 80990 0 google::protobuf::MessageLite::SerializeToFileDescriptor(int) const
PUBLIC 809f0 0 google::protobuf::MessageLite::SerializePartialToFileDescriptor(int) const
PUBLIC 80a50 0 google::protobuf::MessageLite::SerializeToOstream(std::ostream*) const
PUBLIC 80ad0 0 google::protobuf::MessageLite::SerializePartialToOstream(std::ostream*) const
PUBLIC 80b20 0 google::protobuf::MessageLite::_InternalParse(char const*, google::protobuf::internal::ParseContext*)
PUBLIC 80b30 0 google::protobuf::ZeroCopyCodedInputStream::BackUp(int)
PUBLIC 80b40 0 google::protobuf::ZeroCopyCodedInputStream::ByteCount() const
PUBLIC 80b50 0 google::protobuf::ZeroCopyCodedInputStream::~ZeroCopyCodedInputStream()
PUBLIC 80b60 0 google::protobuf::ZeroCopyCodedInputStream::~ZeroCopyCodedInputStream()
PUBLIC 80b70 0 google::protobuf::ZeroCopyCodedInputStream::Next(void const**, int*)
PUBLIC 80bd0 0 google::protobuf::ZeroCopyCodedInputStream::Skip(int)
PUBLIC 80c10 0 bool google::protobuf::internal::MergeFromImpl<false>(google::protobuf::StringPiece, google::protobuf::MessageLite*, google::protobuf::MessageLite::ParseFlags)
PUBLIC 80d80 0 bool google::protobuf::internal::MergeFromImpl<true>(google::protobuf::StringPiece, google::protobuf::MessageLite*, google::protobuf::MessageLite::ParseFlags)
PUBLIC 80ef0 0 bool google::protobuf::internal::MergeFromImpl<false>(google::protobuf::io::ZeroCopyInputStream*, google::protobuf::MessageLite*, google::protobuf::MessageLite::ParseFlags)
PUBLIC 80fe0 0 bool google::protobuf::internal::MergeFromImpl<true>(google::protobuf::io::ZeroCopyInputStream*, google::protobuf::MessageLite*, google::protobuf::MessageLite::ParseFlags)
PUBLIC 810d0 0 bool google::protobuf::internal::MergeFromImpl<false>(google::protobuf::internal::BoundedZCIS, google::protobuf::MessageLite*, google::protobuf::MessageLite::ParseFlags)
PUBLIC 81260 0 bool google::protobuf::internal::MergeFromImpl<true>(google::protobuf::internal::BoundedZCIS, google::protobuf::MessageLite*, google::protobuf::MessageLite::ParseFlags)
PUBLIC 813f0 0 void std::vector<std::pair<void (*)(void const*), void const*>, std::allocator<std::pair<void (*)(void const*), void const*> > >::_M_realloc_insert<std::pair<void (*)(void const*), void const*> >(__gnu_cxx::__normal_iterator<std::pair<void (*)(void const*), void const*>*, std::vector<std::pair<void (*)(void const*), void const*>, std::allocator<std::pair<void (*)(void const*), void const*> > > >, std::pair<void (*)(void const*), void const*>&&)
PUBLIC 81570 0 void google::protobuf::internal::byteswap<1>(void*)
PUBLIC 81580 0 void google::protobuf::internal::byteswap<4>(void*)
PUBLIC 81590 0 void google::protobuf::internal::byteswap<8>(void*)
PUBLIC 815a0 0 google::protobuf::internal::EpsCopyInputStream::InitFrom(google::protobuf::io::ZeroCopyInputStream*)
PUBLIC 81680 0 google::protobuf::internal::WriteVarint(unsigned int, unsigned long, std::__cxx11::basic_string<char, std::char_traits<char>, std::allocator<char> >*)
PUBLIC 81870 0 google::protobuf::internal::WriteLengthDelimited(unsigned int, google::protobuf::StringPiece, std::__cxx11::basic_string<char, std::char_traits<char>, std::allocator<char> >*)
PUBLIC 81ad0 0 google::protobuf::internal::VarintParseSlow32(char const*, unsigned int)
PUBLIC 81b20 0 google::protobuf::internal::VarintParseSlow64(char const*, unsigned int)
PUBLIC 81b70 0 google::protobuf::internal::ReadTagFallback(char const*, unsigned int)
PUBLIC 81bb0 0 google::protobuf::internal::ReadSizeFallback(char const*, unsigned int)
PUBLIC 81c20 0 google::protobuf::internal::ParseContext::ParseMessage(google::protobuf::MessageLite*, char const*)
PUBLIC 81cf0 0 google::protobuf::internal::ParseContext::ParseMessage(google::protobuf::Message*, char const*)
PUBLIC 81d00 0 google::protobuf::internal::StringParser(char const*, char const*, void*, google::protobuf::internal::ParseContext*)
PUBLIC 81d40 0 google::protobuf::internal::VerifyUTF8(google::protobuf::StringPiece, char const*)
PUBLIC 81e70 0 google::protobuf::internal::EpsCopyInputStream::Next(int, int)
PUBLIC 821d0 0 google::protobuf::internal::EpsCopyInputStream::DoneFallback(char const*, int)
PUBLIC 822a0 0 google::protobuf::internal::EpsCopyInputStream::SkipFallback(char const*, int)
PUBLIC 82310 0 google::protobuf::internal::EpsCopyInputStream::ReadStringFallback(char const*, int, std::__cxx11::basic_string<char, std::char_traits<char>, std::allocator<char> >*)
PUBLIC 82440 0 google::protobuf::internal::InlineGreedyStringParser(std::__cxx11::basic_string<char, std::char_traits<char>, std::allocator<char> >*, char const*, google::protobuf::internal::ParseContext*)
PUBLIC 824e0 0 google::protobuf::internal::EpsCopyInputStream::AppendStringFallback(char const*, int, std::__cxx11::basic_string<char, std::char_traits<char>, std::allocator<char> >*)
PUBLIC 82600 0 google::protobuf::internal::PackedFixed32Parser(void*, char const*, google::protobuf::internal::ParseContext*)
PUBLIC 82760 0 google::protobuf::internal::PackedSFixed32Parser(void*, char const*, google::protobuf::internal::ParseContext*)
PUBLIC 828c0 0 google::protobuf::internal::PackedFloatParser(void*, char const*, google::protobuf::internal::ParseContext*)
PUBLIC 82a20 0 google::protobuf::internal::PackedDoubleParser(void*, char const*, google::protobuf::internal::ParseContext*)
PUBLIC 82b80 0 google::protobuf::internal::PackedSFixed64Parser(void*, char const*, google::protobuf::internal::ParseContext*)
PUBLIC 82ce0 0 google::protobuf::internal::PackedFixed64Parser(void*, char const*, google::protobuf::internal::ParseContext*)
PUBLIC 82e40 0 google::protobuf::internal::PackedInt32Parser(void*, char const*, google::protobuf::internal::ParseContext*) [clone .localalias]
PUBLIC 82f90 0 google::protobuf::internal::PackedEnumParser(void*, char const*, google::protobuf::internal::ParseContext*)
PUBLIC 82fa0 0 google::protobuf::internal::PackedUInt32Parser(void*, char const*, google::protobuf::internal::ParseContext*)
PUBLIC 830f0 0 google::protobuf::internal::PackedInt64Parser(void*, char const*, google::protobuf::internal::ParseContext*)
PUBLIC 83240 0 google::protobuf::internal::PackedUInt64Parser(void*, char const*, google::protobuf::internal::ParseContext*)
PUBLIC 83390 0 google::protobuf::internal::PackedSInt32Parser(void*, char const*, google::protobuf::internal::ParseContext*)
PUBLIC 834f0 0 google::protobuf::internal::PackedSInt64Parser(void*, char const*, google::protobuf::internal::ParseContext*)
PUBLIC 83650 0 google::protobuf::internal::PackedBoolParser(void*, char const*, google::protobuf::internal::ParseContext*)
PUBLIC 837a0 0 google::protobuf::internal::UnknownGroupLiteParse(std::__cxx11::basic_string<char, std::char_traits<char>, std::allocator<char> >*, char const*, google::protobuf::internal::ParseContext*)
PUBLIC 837c0 0 google::protobuf::internal::UnknownFieldParse(unsigned int, std::__cxx11::basic_string<char, std::char_traits<char>, std::allocator<char> >*, char const*, google::protobuf::internal::ParseContext*)
PUBLIC 837e0 0 char const* google::protobuf::internal::VarintParse<unsigned long>(char const*, unsigned long*)
PUBLIC 83830 0 char const* google::protobuf::internal::FieldParser<google::protobuf::internal::UnknownFieldLiteParserHelper>(unsigned long, google::protobuf::internal::UnknownFieldLiteParserHelper&, char const*, google::protobuf::internal::ParseContext*)
PUBLIC 84430 0 char const* google::protobuf::internal::WireFormatParser<google::protobuf::internal::UnknownFieldLiteParserHelper>(google::protobuf::internal::UnknownFieldLiteParserHelper&, char const*, google::protobuf::internal::ParseContext*)
PUBLIC 84520 0 google::protobuf::internal::RepeatedPtrFieldBase::InternalExtend(int)
PUBLIC 84620 0 google::protobuf::internal::RepeatedPtrFieldBase::Reserve(int)
PUBLIC 84640 0 google::protobuf::internal::RepeatedPtrFieldBase::CloseGap(int, int)
PUBLIC 84690 0 google::protobuf::internal::RepeatedPtrFieldBase::AddWeak(google::protobuf::MessageLite const*)
PUBLIC 847a0 0 void google::protobuf::internal::arena_delete_object<std::__cxx11::basic_string<char, std::char_traits<char>, std::allocator<char> > >(void*)
PUBLIC 847e0 0 void google::protobuf::internal::RepeatedPtrFieldBase::MergeFromInnerLoop<google::protobuf::RepeatedPtrField<std::__cxx11::basic_string<char, std::char_traits<char>, std::allocator<char> > >::TypeHandler>(void**, void**, int, int)
PUBLIC 84900 0 google::protobuf::RepeatedField<bool>::RepeatedField()
PUBLIC 84910 0 google::protobuf::RepeatedField<bool>::RepeatedField(google::protobuf::Arena*)
PUBLIC 84920 0 google::protobuf::RepeatedField<bool>::~RepeatedField()
PUBLIC 84950 0 google::protobuf::RepeatedField<bool>::empty() const
PUBLIC 84960 0 google::protobuf::RepeatedField<bool>::size() const
PUBLIC 84970 0 google::protobuf::RepeatedField<bool>::Get(int) const
PUBLIC 84980 0 google::protobuf::RepeatedField<bool>::Mutable(int)
PUBLIC 84990 0 google::protobuf::RepeatedField<bool>::operator[](int) const
PUBLIC 849a0 0 google::protobuf::RepeatedField<bool>::operator[](int)
PUBLIC 849b0 0 google::protobuf::RepeatedField<bool>::at(int) const
PUBLIC 84aa0 0 google::protobuf::RepeatedField<bool>::at(int)
PUBLIC 84b90 0 google::protobuf::RepeatedField<bool>::Set(int, bool const&)
PUBLIC 84ba0 0 google::protobuf::RepeatedField<bool>::RemoveLast()
PUBLIC 84bb0 0 google::protobuf::RepeatedField<bool>::ExtractSubrange(int, int, bool*)
PUBLIC 84c30 0 google::protobuf::RepeatedField<bool>::Clear()
PUBLIC 84c40 0 google::protobuf::RepeatedField<bool>::Reserve(int)
PUBLIC 84da0 0 google::protobuf::RepeatedField<bool>::Add(bool const&)
PUBLIC 84df0 0 google::protobuf::RepeatedField<bool>::Add()
PUBLIC 84e30 0 google::protobuf::RepeatedField<bool>::RepeatedField(google::protobuf::RepeatedField<bool> const&)
PUBLIC 84e80 0 google::protobuf::RepeatedField<bool>::MergeFrom(google::protobuf::RepeatedField<bool> const&)
PUBLIC 84ed0 0 google::protobuf::RepeatedField<bool>::CopyFrom(google::protobuf::RepeatedField<bool> const&)
PUBLIC 84f30 0 google::protobuf::RepeatedField<bool>::operator=(google::protobuf::RepeatedField<bool> const&)
PUBLIC 84f90 0 google::protobuf::RepeatedField<bool>::RepeatedField(google::protobuf::RepeatedField<bool>&&)
PUBLIC 85020 0 google::protobuf::RepeatedField<bool>::operator=(google::protobuf::RepeatedField<bool>&&)
PUBLIC 850f0 0 google::protobuf::RepeatedField<bool>::Truncate(int)
PUBLIC 85100 0 google::protobuf::RepeatedField<bool>::AddAlreadyReserved(bool const&)
PUBLIC 85120 0 google::protobuf::RepeatedField<bool>::AddAlreadyReserved()
PUBLIC 85130 0 google::protobuf::RepeatedField<bool>::AddNAlreadyReserved(int)
PUBLIC 85150 0 google::protobuf::RepeatedField<bool>::Capacity() const
PUBLIC 85160 0 google::protobuf::RepeatedField<bool>::Resize(int, bool const&)
PUBLIC 851c0 0 google::protobuf::RepeatedField<bool>::mutable_data()
PUBLIC 851d0 0 google::protobuf::RepeatedField<bool>::data() const
PUBLIC 851e0 0 google::protobuf::RepeatedField<bool>::UnsafeArenaSwap(google::protobuf::RepeatedField<bool>*)
PUBLIC 85200 0 google::protobuf::RepeatedField<bool>::Swap(google::protobuf::RepeatedField<bool>*)
PUBLIC 85330 0 google::protobuf::RepeatedField<bool>::SwapElements(int, int)
PUBLIC 85350 0 google::protobuf::RepeatedField<bool>::begin()
PUBLIC 85360 0 google::protobuf::RepeatedField<bool>::begin() const
PUBLIC 85370 0 google::protobuf::RepeatedField<bool>::cbegin() const
PUBLIC 85380 0 google::protobuf::RepeatedField<bool>::end()
PUBLIC 85390 0 google::protobuf::RepeatedField<bool>::end() const
PUBLIC 853a0 0 google::protobuf::RepeatedField<bool>::cend() const
PUBLIC 853b0 0 google::protobuf::RepeatedField<bool>::rbegin()
PUBLIC 853c0 0 google::protobuf::RepeatedField<bool>::rbegin() const
PUBLIC 853d0 0 google::protobuf::RepeatedField<bool>::rend()
PUBLIC 853e0 0 google::protobuf::RepeatedField<bool>::rend() const
PUBLIC 853f0 0 google::protobuf::RepeatedField<bool>::SpaceUsedExcludingSelfLong() const
PUBLIC 85410 0 google::protobuf::RepeatedField<bool>::SpaceUsedExcludingSelf() const
PUBLIC 85430 0 google::protobuf::RepeatedField<bool>::erase(bool const*)
PUBLIC 854a0 0 google::protobuf::RepeatedField<bool>::erase(bool const*, bool const*)
PUBLIC 85510 0 google::protobuf::RepeatedField<bool>::GetArena() const
PUBLIC 85520 0 google::protobuf::RepeatedField<bool>::InternalSwap(google::protobuf::RepeatedField<bool>*)
PUBLIC 85530 0 google::protobuf::RepeatedField<bool>::elements() const
PUBLIC 85540 0 google::protobuf::RepeatedField<bool>::unsafe_elements() const
PUBLIC 85550 0 google::protobuf::RepeatedField<bool>::rep() const
PUBLIC 85560 0 google::protobuf::RepeatedField<bool>::MoveArray(bool*, bool*, int)
PUBLIC 85570 0 google::protobuf::RepeatedField<bool>::CopyArray(bool*, bool const*, int)
PUBLIC 85580 0 google::protobuf::RepeatedField<bool>::InternalDeallocate(google::protobuf::RepeatedField<bool>::Rep*, int)
PUBLIC 855a0 0 google::protobuf::RepeatedField<bool>::FastAdder::FastAdder(google::protobuf::RepeatedField<bool>*)
PUBLIC 855c0 0 google::protobuf::RepeatedField<bool>::FastAdder::~FastAdder()
PUBLIC 855d0 0 google::protobuf::RepeatedField<bool>::FastAdder::Add(bool const&)
PUBLIC 85630 0 google::protobuf::RepeatedField<int>::RepeatedField()
PUBLIC 85640 0 google::protobuf::RepeatedField<int>::RepeatedField(google::protobuf::Arena*)
PUBLIC 85650 0 google::protobuf::RepeatedField<int>::~RepeatedField()
PUBLIC 85680 0 google::protobuf::RepeatedField<int>::empty() const
PUBLIC 85690 0 google::protobuf::RepeatedField<int>::size() const
PUBLIC 856a0 0 google::protobuf::RepeatedField<int>::Get(int) const
PUBLIC 856b0 0 google::protobuf::RepeatedField<int>::Mutable(int)
PUBLIC 856c0 0 google::protobuf::RepeatedField<int>::operator[](int) const
PUBLIC 856d0 0 google::protobuf::RepeatedField<int>::operator[](int)
PUBLIC 856e0 0 google::protobuf::RepeatedField<int>::at(int) const
PUBLIC 857d0 0 google::protobuf::RepeatedField<int>::at(int)
PUBLIC 858c0 0 google::protobuf::RepeatedField<int>::Set(int, int const&)
PUBLIC 858d0 0 google::protobuf::RepeatedField<int>::RemoveLast()
PUBLIC 858e0 0 google::protobuf::RepeatedField<int>::ExtractSubrange(int, int, int*)
PUBLIC 85960 0 google::protobuf::RepeatedField<int>::Clear()
PUBLIC 85970 0 google::protobuf::RepeatedField<int>::Reserve(int)
PUBLIC 85ac0 0 google::protobuf::RepeatedField<int>::Add(int const&)
PUBLIC 85b10 0 google::protobuf::RepeatedField<int>::Add()
PUBLIC 85b50 0 google::protobuf::RepeatedField<int>::RepeatedField(google::protobuf::RepeatedField<int> const&)
PUBLIC 85ba0 0 google::protobuf::RepeatedField<int>::MergeFrom(google::protobuf::RepeatedField<int> const&)
PUBLIC 85bf0 0 google::protobuf::RepeatedField<int>::CopyFrom(google::protobuf::RepeatedField<int> const&)
PUBLIC 85c50 0 google::protobuf::RepeatedField<int>::operator=(google::protobuf::RepeatedField<int> const&)
PUBLIC 85cb0 0 google::protobuf::RepeatedField<int>::RepeatedField(google::protobuf::RepeatedField<int>&&)
PUBLIC 85d40 0 google::protobuf::RepeatedField<int>::operator=(google::protobuf::RepeatedField<int>&&)
PUBLIC 85e10 0 google::protobuf::RepeatedField<int>::Truncate(int)
PUBLIC 85e20 0 google::protobuf::RepeatedField<int>::AddAlreadyReserved(int const&)
PUBLIC 85e40 0 google::protobuf::RepeatedField<int>::AddAlreadyReserved()
PUBLIC 85e60 0 google::protobuf::RepeatedField<int>::AddNAlreadyReserved(int)
PUBLIC 85e80 0 google::protobuf::RepeatedField<int>::Capacity() const
PUBLIC 85e90 0 google::protobuf::RepeatedField<int>::Resize(int, int const&)
PUBLIC 85ef0 0 google::protobuf::RepeatedField<int>::mutable_data()
PUBLIC 85f00 0 google::protobuf::RepeatedField<int>::data() const
PUBLIC 85f10 0 google::protobuf::RepeatedField<int>::UnsafeArenaSwap(google::protobuf::RepeatedField<int>*)
PUBLIC 85f30 0 google::protobuf::RepeatedField<int>::Swap(google::protobuf::RepeatedField<int>*)
PUBLIC 86060 0 google::protobuf::RepeatedField<int>::SwapElements(int, int)
PUBLIC 86080 0 google::protobuf::RepeatedField<int>::begin()
PUBLIC 86090 0 google::protobuf::RepeatedField<int>::begin() const
PUBLIC 860a0 0 google::protobuf::RepeatedField<int>::cbegin() const
PUBLIC 860b0 0 google::protobuf::RepeatedField<int>::end()
PUBLIC 860c0 0 google::protobuf::RepeatedField<int>::end() const
PUBLIC 860d0 0 google::protobuf::RepeatedField<int>::cend() const
PUBLIC 860e0 0 google::protobuf::RepeatedField<int>::rbegin()
PUBLIC 86100 0 google::protobuf::RepeatedField<int>::rbegin() const
PUBLIC 86120 0 google::protobuf::RepeatedField<int>::rend()
PUBLIC 86130 0 google::protobuf::RepeatedField<int>::rend() const
PUBLIC 86140 0 google::protobuf::RepeatedField<int>::SpaceUsedExcludingSelfLong() const
PUBLIC 86160 0 google::protobuf::RepeatedField<int>::SpaceUsedExcludingSelf() const
PUBLIC 86180 0 google::protobuf::RepeatedField<int>::erase(int const*)
PUBLIC 861f0 0 google::protobuf::RepeatedField<int>::erase(int const*, int const*)
PUBLIC 86270 0 google::protobuf::RepeatedField<int>::GetArena() const
PUBLIC 86280 0 google::protobuf::RepeatedField<int>::InternalSwap(google::protobuf::RepeatedField<int>*)
PUBLIC 86290 0 google::protobuf::RepeatedField<int>::elements() const
PUBLIC 862a0 0 google::protobuf::RepeatedField<int>::unsafe_elements() const
PUBLIC 862b0 0 google::protobuf::RepeatedField<int>::rep() const
PUBLIC 862c0 0 google::protobuf::RepeatedField<int>::MoveArray(int*, int*, int)
PUBLIC 862e0 0 google::protobuf::RepeatedField<int>::CopyArray(int*, int const*, int)
PUBLIC 86300 0 google::protobuf::RepeatedField<int>::InternalDeallocate(google::protobuf::RepeatedField<int>::Rep*, int)
PUBLIC 86320 0 google::protobuf::RepeatedField<int>::FastAdder::FastAdder(google::protobuf::RepeatedField<int>*)
PUBLIC 86340 0 google::protobuf::RepeatedField<int>::FastAdder::~FastAdder()
PUBLIC 86350 0 google::protobuf::RepeatedField<int>::FastAdder::Add(int const&)
PUBLIC 863c0 0 google::protobuf::RepeatedField<unsigned int>::RepeatedField()
PUBLIC 863d0 0 google::protobuf::RepeatedField<unsigned int>::RepeatedField(google::protobuf::Arena*)
PUBLIC 863e0 0 google::protobuf::RepeatedField<unsigned int>::~RepeatedField()
PUBLIC 86410 0 google::protobuf::RepeatedField<unsigned int>::empty() const
PUBLIC 86420 0 google::protobuf::RepeatedField<unsigned int>::size() const
PUBLIC 86430 0 google::protobuf::RepeatedField<unsigned int>::Get(int) const
PUBLIC 86440 0 google::protobuf::RepeatedField<unsigned int>::Mutable(int)
PUBLIC 86450 0 google::protobuf::RepeatedField<unsigned int>::operator[](int) const
PUBLIC 86460 0 google::protobuf::RepeatedField<unsigned int>::operator[](int)
PUBLIC 86470 0 google::protobuf::RepeatedField<unsigned int>::at(int) const
PUBLIC 86560 0 google::protobuf::RepeatedField<unsigned int>::at(int)
PUBLIC 86650 0 google::protobuf::RepeatedField<unsigned int>::Set(int, unsigned int const&)
PUBLIC 86660 0 google::protobuf::RepeatedField<unsigned int>::RemoveLast()
PUBLIC 86670 0 google::protobuf::RepeatedField<unsigned int>::ExtractSubrange(int, int, unsigned int*)
PUBLIC 866f0 0 google::protobuf::RepeatedField<unsigned int>::Clear()
PUBLIC 86700 0 google::protobuf::RepeatedField<unsigned int>::Reserve(int)
PUBLIC 86850 0 google::protobuf::RepeatedField<unsigned int>::Add(unsigned int const&)
PUBLIC 868a0 0 google::protobuf::RepeatedField<unsigned int>::Add()
PUBLIC 868e0 0 google::protobuf::RepeatedField<unsigned int>::RepeatedField(google::protobuf::RepeatedField<unsigned int> const&)
PUBLIC 86930 0 google::protobuf::RepeatedField<unsigned int>::MergeFrom(google::protobuf::RepeatedField<unsigned int> const&)
PUBLIC 86980 0 google::protobuf::RepeatedField<unsigned int>::CopyFrom(google::protobuf::RepeatedField<unsigned int> const&)
PUBLIC 869e0 0 google::protobuf::RepeatedField<unsigned int>::operator=(google::protobuf::RepeatedField<unsigned int> const&)
PUBLIC 86a40 0 google::protobuf::RepeatedField<unsigned int>::RepeatedField(google::protobuf::RepeatedField<unsigned int>&&)
PUBLIC 86ad0 0 google::protobuf::RepeatedField<unsigned int>::operator=(google::protobuf::RepeatedField<unsigned int>&&)
PUBLIC 86ba0 0 google::protobuf::RepeatedField<unsigned int>::Truncate(int)
PUBLIC 86bb0 0 google::protobuf::RepeatedField<unsigned int>::AddAlreadyReserved(unsigned int const&)
PUBLIC 86bd0 0 google::protobuf::RepeatedField<unsigned int>::AddAlreadyReserved()
PUBLIC 86bf0 0 google::protobuf::RepeatedField<unsigned int>::AddNAlreadyReserved(int)
PUBLIC 86c10 0 google::protobuf::RepeatedField<unsigned int>::Capacity() const
PUBLIC 86c20 0 google::protobuf::RepeatedField<unsigned int>::Resize(int, unsigned int const&)
PUBLIC 86c80 0 google::protobuf::RepeatedField<unsigned int>::mutable_data()
PUBLIC 86c90 0 google::protobuf::RepeatedField<unsigned int>::data() const
PUBLIC 86ca0 0 google::protobuf::RepeatedField<unsigned int>::UnsafeArenaSwap(google::protobuf::RepeatedField<unsigned int>*)
PUBLIC 86cc0 0 google::protobuf::RepeatedField<unsigned int>::Swap(google::protobuf::RepeatedField<unsigned int>*)
PUBLIC 86df0 0 google::protobuf::RepeatedField<unsigned int>::SwapElements(int, int)
PUBLIC 86e10 0 google::protobuf::RepeatedField<unsigned int>::begin()
PUBLIC 86e20 0 google::protobuf::RepeatedField<unsigned int>::begin() const
PUBLIC 86e30 0 google::protobuf::RepeatedField<unsigned int>::cbegin() const
PUBLIC 86e40 0 google::protobuf::RepeatedField<unsigned int>::end()
PUBLIC 86e50 0 google::protobuf::RepeatedField<unsigned int>::end() const
PUBLIC 86e60 0 google::protobuf::RepeatedField<unsigned int>::cend() const
PUBLIC 86e70 0 google::protobuf::RepeatedField<unsigned int>::rbegin()
PUBLIC 86e90 0 google::protobuf::RepeatedField<unsigned int>::rbegin() const
PUBLIC 86eb0 0 google::protobuf::RepeatedField<unsigned int>::rend()
PUBLIC 86ec0 0 google::protobuf::RepeatedField<unsigned int>::rend() const
PUBLIC 86ed0 0 google::protobuf::RepeatedField<unsigned int>::SpaceUsedExcludingSelfLong() const
PUBLIC 86ef0 0 google::protobuf::RepeatedField<unsigned int>::SpaceUsedExcludingSelf() const
PUBLIC 86f10 0 google::protobuf::RepeatedField<unsigned int>::erase(unsigned int const*)
PUBLIC 86f80 0 google::protobuf::RepeatedField<unsigned int>::erase(unsigned int const*, unsigned int const*)
PUBLIC 87000 0 google::protobuf::RepeatedField<unsigned int>::GetArena() const
PUBLIC 87010 0 google::protobuf::RepeatedField<unsigned int>::InternalSwap(google::protobuf::RepeatedField<unsigned int>*)
PUBLIC 87020 0 google::protobuf::RepeatedField<unsigned int>::elements() const
PUBLIC 87030 0 google::protobuf::RepeatedField<unsigned int>::unsafe_elements() const
PUBLIC 87040 0 google::protobuf::RepeatedField<unsigned int>::rep() const
PUBLIC 87050 0 google::protobuf::RepeatedField<unsigned int>::MoveArray(unsigned int*, unsigned int*, int)
PUBLIC 87070 0 google::protobuf::RepeatedField<unsigned int>::CopyArray(unsigned int*, unsigned int const*, int)
PUBLIC 87090 0 google::protobuf::RepeatedField<unsigned int>::InternalDeallocate(google::protobuf::RepeatedField<unsigned int>::Rep*, int)
PUBLIC 870b0 0 google::protobuf::RepeatedField<unsigned int>::FastAdder::FastAdder(google::protobuf::RepeatedField<unsigned int>*)
PUBLIC 870d0 0 google::protobuf::RepeatedField<unsigned int>::FastAdder::~FastAdder()
PUBLIC 870e0 0 google::protobuf::RepeatedField<unsigned int>::FastAdder::Add(unsigned int const&)
PUBLIC 87150 0 google::protobuf::RepeatedField<long>::RepeatedField()
PUBLIC 87160 0 google::protobuf::RepeatedField<long>::RepeatedField(google::protobuf::Arena*)
PUBLIC 87170 0 google::protobuf::RepeatedField<long>::~RepeatedField()
PUBLIC 871a0 0 google::protobuf::RepeatedField<long>::empty() const
PUBLIC 871b0 0 google::protobuf::RepeatedField<long>::size() const
PUBLIC 871c0 0 google::protobuf::RepeatedField<long>::Get(int) const
PUBLIC 871d0 0 google::protobuf::RepeatedField<long>::Mutable(int)
PUBLIC 871e0 0 google::protobuf::RepeatedField<long>::operator[](int) const
PUBLIC 871f0 0 google::protobuf::RepeatedField<long>::operator[](int)
PUBLIC 87200 0 google::protobuf::RepeatedField<long>::at(int) const
PUBLIC 872f0 0 google::protobuf::RepeatedField<long>::at(int)
PUBLIC 873e0 0 google::protobuf::RepeatedField<long>::Set(int, long const&)
PUBLIC 873f0 0 google::protobuf::RepeatedField<long>::RemoveLast()
PUBLIC 87400 0 google::protobuf::RepeatedField<long>::ExtractSubrange(int, int, long*)
PUBLIC 87490 0 google::protobuf::RepeatedField<long>::Clear()
PUBLIC 874a0 0 google::protobuf::RepeatedField<long>::Reserve(int)
PUBLIC 875f0 0 google::protobuf::RepeatedField<long>::Add(long const&)
PUBLIC 87640 0 google::protobuf::RepeatedField<long>::Add()
PUBLIC 87680 0 google::protobuf::RepeatedField<long>::RepeatedField(google::protobuf::RepeatedField<long> const&)
PUBLIC 876d0 0 google::protobuf::RepeatedField<long>::MergeFrom(google::protobuf::RepeatedField<long> const&)
PUBLIC 87720 0 google::protobuf::RepeatedField<long>::CopyFrom(google::protobuf::RepeatedField<long> const&)
PUBLIC 87780 0 google::protobuf::RepeatedField<long>::operator=(google::protobuf::RepeatedField<long> const&)
PUBLIC 877e0 0 google::protobuf::RepeatedField<long>::RepeatedField(google::protobuf::RepeatedField<long>&&)
PUBLIC 87870 0 google::protobuf::RepeatedField<long>::operator=(google::protobuf::RepeatedField<long>&&)
PUBLIC 87940 0 google::protobuf::RepeatedField<long>::Truncate(int)
PUBLIC 87950 0 google::protobuf::RepeatedField<long>::AddAlreadyReserved(long const&)
PUBLIC 87970 0 google::protobuf::RepeatedField<long>::AddAlreadyReserved()
PUBLIC 87990 0 google::protobuf::RepeatedField<long>::AddNAlreadyReserved(int)
PUBLIC 879b0 0 google::protobuf::RepeatedField<long>::Capacity() const
PUBLIC 879c0 0 google::protobuf::RepeatedField<long>::Resize(int, long const&)
PUBLIC 87a20 0 google::protobuf::RepeatedField<long>::mutable_data()
PUBLIC 87a30 0 google::protobuf::RepeatedField<long>::data() const
PUBLIC 87a40 0 google::protobuf::RepeatedField<long>::UnsafeArenaSwap(google::protobuf::RepeatedField<long>*)
PUBLIC 87a60 0 google::protobuf::RepeatedField<long>::Swap(google::protobuf::RepeatedField<long>*)
PUBLIC 87b90 0 google::protobuf::RepeatedField<long>::SwapElements(int, int)
PUBLIC 87bb0 0 google::protobuf::RepeatedField<long>::begin()
PUBLIC 87bc0 0 google::protobuf::RepeatedField<long>::begin() const
PUBLIC 87bd0 0 google::protobuf::RepeatedField<long>::cbegin() const
PUBLIC 87be0 0 google::protobuf::RepeatedField<long>::end()
PUBLIC 87bf0 0 google::protobuf::RepeatedField<long>::end() const
PUBLIC 87c00 0 google::protobuf::RepeatedField<long>::cend() const
PUBLIC 87c10 0 google::protobuf::RepeatedField<long>::rbegin()
PUBLIC 87c30 0 google::protobuf::RepeatedField<long>::rbegin() const
PUBLIC 87c50 0 google::protobuf::RepeatedField<long>::rend()
PUBLIC 87c60 0 google::protobuf::RepeatedField<long>::rend() const
PUBLIC 87c70 0 google::protobuf::RepeatedField<long>::SpaceUsedExcludingSelfLong() const
PUBLIC 87c90 0 google::protobuf::RepeatedField<long>::SpaceUsedExcludingSelf() const
PUBLIC 87cb0 0 google::protobuf::RepeatedField<long>::erase(long const*)
PUBLIC 87d20 0 google::protobuf::RepeatedField<long>::erase(long const*, long const*)
PUBLIC 87da0 0 google::protobuf::RepeatedField<long>::GetArena() const
PUBLIC 87db0 0 google::protobuf::RepeatedField<long>::InternalSwap(google::protobuf::RepeatedField<long>*)
PUBLIC 87dc0 0 google::protobuf::RepeatedField<long>::elements() const
PUBLIC 87dd0 0 google::protobuf::RepeatedField<long>::unsafe_elements() const
PUBLIC 87de0 0 google::protobuf::RepeatedField<long>::rep() const
PUBLIC 87df0 0 google::protobuf::RepeatedField<long>::MoveArray(long*, long*, int)
PUBLIC 87e10 0 google::protobuf::RepeatedField<long>::CopyArray(long*, long const*, int)
PUBLIC 87e30 0 google::protobuf::RepeatedField<long>::InternalDeallocate(google::protobuf::RepeatedField<long>::Rep*, int)
PUBLIC 87e50 0 google::protobuf::RepeatedField<long>::FastAdder::FastAdder(google::protobuf::RepeatedField<long>*)
PUBLIC 87e70 0 google::protobuf::RepeatedField<long>::FastAdder::~FastAdder()
PUBLIC 87e80 0 google::protobuf::RepeatedField<long>::FastAdder::Add(long const&)
PUBLIC 87ee0 0 google::protobuf::RepeatedField<unsigned long>::RepeatedField()
PUBLIC 87ef0 0 google::protobuf::RepeatedField<unsigned long>::RepeatedField(google::protobuf::Arena*)
PUBLIC 87f00 0 google::protobuf::RepeatedField<unsigned long>::~RepeatedField()
PUBLIC 87f30 0 google::protobuf::RepeatedField<unsigned long>::empty() const
PUBLIC 87f40 0 google::protobuf::RepeatedField<unsigned long>::size() const
PUBLIC 87f50 0 google::protobuf::RepeatedField<unsigned long>::Get(int) const
PUBLIC 87f60 0 google::protobuf::RepeatedField<unsigned long>::Mutable(int)
PUBLIC 87f70 0 google::protobuf::RepeatedField<unsigned long>::operator[](int) const
PUBLIC 87f80 0 google::protobuf::RepeatedField<unsigned long>::operator[](int)
PUBLIC 87f90 0 google::protobuf::RepeatedField<unsigned long>::at(int) const
PUBLIC 88080 0 google::protobuf::RepeatedField<unsigned long>::at(int)
PUBLIC 88170 0 google::protobuf::RepeatedField<unsigned long>::Set(int, unsigned long const&)
PUBLIC 88180 0 google::protobuf::RepeatedField<unsigned long>::RemoveLast()
PUBLIC 88190 0 google::protobuf::RepeatedField<unsigned long>::ExtractSubrange(int, int, unsigned long*)
PUBLIC 88220 0 google::protobuf::RepeatedField<unsigned long>::Clear()
PUBLIC 88230 0 google::protobuf::RepeatedField<unsigned long>::Reserve(int)
PUBLIC 88380 0 google::protobuf::RepeatedField<unsigned long>::Add(unsigned long const&)
PUBLIC 883d0 0 google::protobuf::RepeatedField<unsigned long>::Add()
PUBLIC 88410 0 google::protobuf::RepeatedField<unsigned long>::RepeatedField(google::protobuf::RepeatedField<unsigned long> const&)
PUBLIC 88460 0 google::protobuf::RepeatedField<unsigned long>::MergeFrom(google::protobuf::RepeatedField<unsigned long> const&)
PUBLIC 884b0 0 google::protobuf::RepeatedField<unsigned long>::CopyFrom(google::protobuf::RepeatedField<unsigned long> const&)
PUBLIC 88510 0 google::protobuf::RepeatedField<unsigned long>::operator=(google::protobuf::RepeatedField<unsigned long> const&)
PUBLIC 88570 0 google::protobuf::RepeatedField<unsigned long>::RepeatedField(google::protobuf::RepeatedField<unsigned long>&&)
PUBLIC 88600 0 google::protobuf::RepeatedField<unsigned long>::operator=(google::protobuf::RepeatedField<unsigned long>&&)
PUBLIC 886d0 0 google::protobuf::RepeatedField<unsigned long>::Truncate(int)
PUBLIC 886e0 0 google::protobuf::RepeatedField<unsigned long>::AddAlreadyReserved(unsigned long const&)
PUBLIC 88700 0 google::protobuf::RepeatedField<unsigned long>::AddAlreadyReserved()
PUBLIC 88720 0 google::protobuf::RepeatedField<unsigned long>::AddNAlreadyReserved(int)
PUBLIC 88740 0 google::protobuf::RepeatedField<unsigned long>::Capacity() const
PUBLIC 88750 0 google::protobuf::RepeatedField<unsigned long>::Resize(int, unsigned long const&)
PUBLIC 887b0 0 google::protobuf::RepeatedField<unsigned long>::mutable_data()
PUBLIC 887c0 0 google::protobuf::RepeatedField<unsigned long>::data() const
PUBLIC 887d0 0 google::protobuf::RepeatedField<unsigned long>::UnsafeArenaSwap(google::protobuf::RepeatedField<unsigned long>*)
PUBLIC 887f0 0 google::protobuf::RepeatedField<unsigned long>::Swap(google::protobuf::RepeatedField<unsigned long>*)
PUBLIC 88920 0 google::protobuf::RepeatedField<unsigned long>::SwapElements(int, int)
PUBLIC 88940 0 google::protobuf::RepeatedField<unsigned long>::begin()
PUBLIC 88950 0 google::protobuf::RepeatedField<unsigned long>::begin() const
PUBLIC 88960 0 google::protobuf::RepeatedField<unsigned long>::cbegin() const
PUBLIC 88970 0 google::protobuf::RepeatedField<unsigned long>::end()
PUBLIC 88980 0 google::protobuf::RepeatedField<unsigned long>::end() const
PUBLIC 88990 0 google::protobuf::RepeatedField<unsigned long>::cend() const
PUBLIC 889a0 0 google::protobuf::RepeatedField<unsigned long>::rbegin()
PUBLIC 889c0 0 google::protobuf::RepeatedField<unsigned long>::rbegin() const
PUBLIC 889e0 0 google::protobuf::RepeatedField<unsigned long>::rend()
PUBLIC 889f0 0 google::protobuf::RepeatedField<unsigned long>::rend() const
PUBLIC 88a00 0 google::protobuf::RepeatedField<unsigned long>::SpaceUsedExcludingSelfLong() const
PUBLIC 88a20 0 google::protobuf::RepeatedField<unsigned long>::SpaceUsedExcludingSelf() const
PUBLIC 88a40 0 google::protobuf::RepeatedField<unsigned long>::erase(unsigned long const*)
PUBLIC 88ab0 0 google::protobuf::RepeatedField<unsigned long>::erase(unsigned long const*, unsigned long const*)
PUBLIC 88b30 0 google::protobuf::RepeatedField<unsigned long>::GetArena() const
PUBLIC 88b40 0 google::protobuf::RepeatedField<unsigned long>::InternalSwap(google::protobuf::RepeatedField<unsigned long>*)
PUBLIC 88b50 0 google::protobuf::RepeatedField<unsigned long>::elements() const
PUBLIC 88b60 0 google::protobuf::RepeatedField<unsigned long>::unsafe_elements() const
PUBLIC 88b70 0 google::protobuf::RepeatedField<unsigned long>::rep() const
PUBLIC 88b80 0 google::protobuf::RepeatedField<unsigned long>::MoveArray(unsigned long*, unsigned long*, int)
PUBLIC 88ba0 0 google::protobuf::RepeatedField<unsigned long>::CopyArray(unsigned long*, unsigned long const*, int)
PUBLIC 88bc0 0 google::protobuf::RepeatedField<unsigned long>::InternalDeallocate(google::protobuf::RepeatedField<unsigned long>::Rep*, int)
PUBLIC 88be0 0 google::protobuf::RepeatedField<unsigned long>::FastAdder::FastAdder(google::protobuf::RepeatedField<unsigned long>*)
PUBLIC 88c00 0 google::protobuf::RepeatedField<unsigned long>::FastAdder::~FastAdder()
PUBLIC 88c10 0 google::protobuf::RepeatedField<unsigned long>::FastAdder::Add(unsigned long const&)
PUBLIC 88c70 0 google::protobuf::RepeatedField<float>::RepeatedField()
PUBLIC 88c80 0 google::protobuf::RepeatedField<float>::RepeatedField(google::protobuf::Arena*)
PUBLIC 88c90 0 google::protobuf::RepeatedField<float>::~RepeatedField()
PUBLIC 88cc0 0 google::protobuf::RepeatedField<float>::empty() const
PUBLIC 88cd0 0 google::protobuf::RepeatedField<float>::size() const
PUBLIC 88ce0 0 google::protobuf::RepeatedField<float>::Get(int) const
PUBLIC 88cf0 0 google::protobuf::RepeatedField<float>::Mutable(int)
PUBLIC 88d00 0 google::protobuf::RepeatedField<float>::operator[](int) const
PUBLIC 88d10 0 google::protobuf::RepeatedField<float>::operator[](int)
PUBLIC 88d20 0 google::protobuf::RepeatedField<float>::at(int) const
PUBLIC 88e10 0 google::protobuf::RepeatedField<float>::at(int)
PUBLIC 88f00 0 google::protobuf::RepeatedField<float>::Set(int, float const&)
PUBLIC 88f20 0 google::protobuf::RepeatedField<float>::RemoveLast()
PUBLIC 88f30 0 google::protobuf::RepeatedField<float>::ExtractSubrange(int, int, float*)
PUBLIC 88fd0 0 google::protobuf::RepeatedField<float>::Clear()
PUBLIC 88fe0 0 google::protobuf::RepeatedField<float>::Reserve(int)
PUBLIC 89130 0 google::protobuf::RepeatedField<float>::Add(float const&)
PUBLIC 89180 0 google::protobuf::RepeatedField<float>::Add()
PUBLIC 891c0 0 google::protobuf::RepeatedField<float>::RepeatedField(google::protobuf::RepeatedField<float> const&)
PUBLIC 89210 0 google::protobuf::RepeatedField<float>::MergeFrom(google::protobuf::RepeatedField<float> const&)
PUBLIC 89260 0 google::protobuf::RepeatedField<float>::CopyFrom(google::protobuf::RepeatedField<float> const&)
PUBLIC 892c0 0 google::protobuf::RepeatedField<float>::operator=(google::protobuf::RepeatedField<float> const&)
PUBLIC 89320 0 google::protobuf::RepeatedField<float>::RepeatedField(google::protobuf::RepeatedField<float>&&)
PUBLIC 893b0 0 google::protobuf::RepeatedField<float>::operator=(google::protobuf::RepeatedField<float>&&)
PUBLIC 89480 0 google::protobuf::RepeatedField<float>::Truncate(int)
PUBLIC 89490 0 google::protobuf::RepeatedField<float>::AddAlreadyReserved(float const&)
PUBLIC 894b0 0 google::protobuf::RepeatedField<float>::AddAlreadyReserved()
PUBLIC 894d0 0 google::protobuf::RepeatedField<float>::AddNAlreadyReserved(int)
PUBLIC 894f0 0 google::protobuf::RepeatedField<float>::Capacity() const
PUBLIC 89500 0 google::protobuf::RepeatedField<float>::Resize(int, float const&)
PUBLIC 89560 0 google::protobuf::RepeatedField<float>::mutable_data()
PUBLIC 89570 0 google::protobuf::RepeatedField<float>::data() const
PUBLIC 89580 0 google::protobuf::RepeatedField<float>::UnsafeArenaSwap(google::protobuf::RepeatedField<float>*)
PUBLIC 895a0 0 google::protobuf::RepeatedField<float>::Swap(google::protobuf::RepeatedField<float>*)
PUBLIC 896d0 0 google::protobuf::RepeatedField<float>::SwapElements(int, int)
PUBLIC 89700 0 google::protobuf::RepeatedField<float>::begin()
PUBLIC 89710 0 google::protobuf::RepeatedField<float>::begin() const
PUBLIC 89720 0 google::protobuf::RepeatedField<float>::cbegin() const
PUBLIC 89730 0 google::protobuf::RepeatedField<float>::end()
PUBLIC 89740 0 google::protobuf::RepeatedField<float>::end() const
PUBLIC 89750 0 google::protobuf::RepeatedField<float>::cend() const
PUBLIC 89760 0 google::protobuf::RepeatedField<float>::rbegin()
PUBLIC 89780 0 google::protobuf::RepeatedField<float>::rbegin() const
PUBLIC 897a0 0 google::protobuf::RepeatedField<float>::rend()
PUBLIC 897b0 0 google::protobuf::RepeatedField<float>::rend() const
PUBLIC 897c0 0 google::protobuf::RepeatedField<float>::SpaceUsedExcludingSelfLong() const
PUBLIC 897e0 0 google::protobuf::RepeatedField<float>::SpaceUsedExcludingSelf() const
PUBLIC 89800 0 google::protobuf::RepeatedField<float>::erase(float const*)
PUBLIC 89870 0 google::protobuf::RepeatedField<float>::erase(float const*, float const*)
PUBLIC 898f0 0 google::protobuf::RepeatedField<float>::GetArena() const
PUBLIC 89900 0 google::protobuf::RepeatedField<float>::InternalSwap(google::protobuf::RepeatedField<float>*)
PUBLIC 89910 0 google::protobuf::RepeatedField<float>::elements() const
PUBLIC 89920 0 google::protobuf::RepeatedField<float>::unsafe_elements() const
PUBLIC 89930 0 google::protobuf::RepeatedField<float>::rep() const
PUBLIC 89940 0 google::protobuf::RepeatedField<float>::MoveArray(float*, float*, int)
PUBLIC 89960 0 google::protobuf::RepeatedField<float>::CopyArray(float*, float const*, int)
PUBLIC 89980 0 google::protobuf::RepeatedField<float>::InternalDeallocate(google::protobuf::RepeatedField<float>::Rep*, int)
PUBLIC 899a0 0 google::protobuf::RepeatedField<float>::FastAdder::FastAdder(google::protobuf::RepeatedField<float>*)
PUBLIC 899c0 0 google::protobuf::RepeatedField<float>::FastAdder::~FastAdder()
PUBLIC 899d0 0 google::protobuf::RepeatedField<float>::FastAdder::Add(float const&)
PUBLIC 89a30 0 google::protobuf::RepeatedField<double>::RepeatedField()
PUBLIC 89a40 0 google::protobuf::RepeatedField<double>::RepeatedField(google::protobuf::Arena*)
PUBLIC 89a50 0 google::protobuf::RepeatedField<double>::~RepeatedField()
PUBLIC 89a80 0 google::protobuf::RepeatedField<double>::empty() const
PUBLIC 89a90 0 google::protobuf::RepeatedField<double>::size() const
PUBLIC 89aa0 0 google::protobuf::RepeatedField<double>::Get(int) const
PUBLIC 89ab0 0 google::protobuf::RepeatedField<double>::Mutable(int)
PUBLIC 89ac0 0 google::protobuf::RepeatedField<double>::operator[](int) const
PUBLIC 89ad0 0 google::protobuf::RepeatedField<double>::operator[](int)
PUBLIC 89ae0 0 google::protobuf::RepeatedField<double>::at(int) const
PUBLIC 89bd0 0 google::protobuf::RepeatedField<double>::at(int)
PUBLIC 89cc0 0 google::protobuf::RepeatedField<double>::Set(int, double const&)
PUBLIC 89ce0 0 google::protobuf::RepeatedField<double>::RemoveLast()
PUBLIC 89cf0 0 google::protobuf::RepeatedField<double>::ExtractSubrange(int, int, double*)
PUBLIC 89d90 0 google::protobuf::RepeatedField<double>::Clear()
PUBLIC 89da0 0 google::protobuf::RepeatedField<double>::Reserve(int)
PUBLIC 89ef0 0 google::protobuf::RepeatedField<double>::Add(double const&)
PUBLIC 89f40 0 google::protobuf::RepeatedField<double>::Add()
PUBLIC 89f80 0 google::protobuf::RepeatedField<double>::RepeatedField(google::protobuf::RepeatedField<double> const&)
PUBLIC 89fd0 0 google::protobuf::RepeatedField<double>::MergeFrom(google::protobuf::RepeatedField<double> const&)
PUBLIC 8a020 0 google::protobuf::RepeatedField<double>::CopyFrom(google::protobuf::RepeatedField<double> const&)
PUBLIC 8a080 0 google::protobuf::RepeatedField<double>::operator=(google::protobuf::RepeatedField<double> const&)
PUBLIC 8a0e0 0 google::protobuf::RepeatedField<double>::RepeatedField(google::protobuf::RepeatedField<double>&&)
PUBLIC 8a170 0 google::protobuf::RepeatedField<double>::operator=(google::protobuf::RepeatedField<double>&&)
PUBLIC 8a240 0 google::protobuf::RepeatedField<double>::Truncate(int)
PUBLIC 8a250 0 google::protobuf::RepeatedField<double>::AddAlreadyReserved(double const&)
PUBLIC 8a270 0 google::protobuf::RepeatedField<double>::AddAlreadyReserved()
PUBLIC 8a290 0 google::protobuf::RepeatedField<double>::AddNAlreadyReserved(int)
PUBLIC 8a2b0 0 google::protobuf::RepeatedField<double>::Capacity() const
PUBLIC 8a2c0 0 google::protobuf::RepeatedField<double>::Resize(int, double const&)
PUBLIC 8a320 0 google::protobuf::RepeatedField<double>::mutable_data()
PUBLIC 8a330 0 google::protobuf::RepeatedField<double>::data() const
PUBLIC 8a340 0 google::protobuf::RepeatedField<double>::UnsafeArenaSwap(google::protobuf::RepeatedField<double>*)
PUBLIC 8a360 0 google::protobuf::RepeatedField<double>::Swap(google::protobuf::RepeatedField<double>*)
PUBLIC 8a490 0 google::protobuf::RepeatedField<double>::SwapElements(int, int)
PUBLIC 8a4c0 0 google::protobuf::RepeatedField<double>::begin()
PUBLIC 8a4d0 0 google::protobuf::RepeatedField<double>::begin() const
PUBLIC 8a4e0 0 google::protobuf::RepeatedField<double>::cbegin() const
PUBLIC 8a4f0 0 google::protobuf::RepeatedField<double>::end()
PUBLIC 8a500 0 google::protobuf::RepeatedField<double>::end() const
PUBLIC 8a510 0 google::protobuf::RepeatedField<double>::cend() const
PUBLIC 8a520 0 google::protobuf::RepeatedField<double>::rbegin()
PUBLIC 8a540 0 google::protobuf::RepeatedField<double>::rbegin() const
PUBLIC 8a560 0 google::protobuf::RepeatedField<double>::rend()
PUBLIC 8a570 0 google::protobuf::RepeatedField<double>::rend() const
PUBLIC 8a580 0 google::protobuf::RepeatedField<double>::SpaceUsedExcludingSelfLong() const
PUBLIC 8a5a0 0 google::protobuf::RepeatedField<double>::SpaceUsedExcludingSelf() const
PUBLIC 8a5c0 0 google::protobuf::RepeatedField<double>::erase(double const*)
PUBLIC 8a630 0 google::protobuf::RepeatedField<double>::erase(double const*, double const*)
PUBLIC 8a6b0 0 google::protobuf::RepeatedField<double>::GetArena() const
PUBLIC 8a6c0 0 google::protobuf::RepeatedField<double>::InternalSwap(google::protobuf::RepeatedField<double>*)
PUBLIC 8a6d0 0 google::protobuf::RepeatedField<double>::elements() const
PUBLIC 8a6e0 0 google::protobuf::RepeatedField<double>::unsafe_elements() const
PUBLIC 8a6f0 0 google::protobuf::RepeatedField<double>::rep() const
PUBLIC 8a700 0 google::protobuf::RepeatedField<double>::MoveArray(double*, double*, int)
PUBLIC 8a720 0 google::protobuf::RepeatedField<double>::CopyArray(double*, double const*, int)
PUBLIC 8a740 0 google::protobuf::RepeatedField<double>::InternalDeallocate(google::protobuf::RepeatedField<double>::Rep*, int)
PUBLIC 8a760 0 google::protobuf::RepeatedField<double>::FastAdder::FastAdder(google::protobuf::RepeatedField<double>*)
PUBLIC 8a780 0 google::protobuf::RepeatedField<double>::FastAdder::~FastAdder()
PUBLIC 8a790 0 google::protobuf::RepeatedField<double>::FastAdder::Add(double const&)
PUBLIC 8a7f0 0 google::protobuf::RepeatedPtrField<std::__cxx11::basic_string<char, std::char_traits<char>, std::allocator<char> > >::RepeatedPtrField()
PUBLIC 8a810 0 google::protobuf::RepeatedPtrField<std::__cxx11::basic_string<char, std::char_traits<char>, std::allocator<char> > >::RepeatedPtrField(google::protobuf::Arena*)
PUBLIC 8a830 0 google::protobuf::RepeatedPtrField<std::__cxx11::basic_string<char, std::char_traits<char>, std::allocator<char> > >::RepeatedPtrField(google::protobuf::RepeatedPtrField<std::__cxx11::basic_string<char, std::char_traits<char>, std::allocator<char> > > const&)
PUBLIC 8a8b0 0 google::protobuf::RepeatedPtrField<std::__cxx11::basic_string<char, std::char_traits<char>, std::allocator<char> > >::operator=(google::protobuf::RepeatedPtrField<std::__cxx11::basic_string<char, std::char_traits<char>, std::allocator<char> > > const&)
PUBLIC 8a960 0 google::protobuf::RepeatedPtrField<std::__cxx11::basic_string<char, std::char_traits<char>, std::allocator<char> > >::RepeatedPtrField(google::protobuf::RepeatedPtrField<std::__cxx11::basic_string<char, std::char_traits<char>, std::allocator<char> > >&&)
PUBLIC 8a9f0 0 google::protobuf::RepeatedPtrField<std::__cxx11::basic_string<char, std::char_traits<char>, std::allocator<char> > >::operator=(google::protobuf::RepeatedPtrField<std::__cxx11::basic_string<char, std::char_traits<char>, std::allocator<char> > >&&)
PUBLIC 8aac0 0 google::protobuf::RepeatedPtrField<std::__cxx11::basic_string<char, std::char_traits<char>, std::allocator<char> > >::empty() const
PUBLIC 8aad0 0 google::protobuf::RepeatedPtrField<std::__cxx11::basic_string<char, std::char_traits<char>, std::allocator<char> > >::size() const
PUBLIC 8aae0 0 google::protobuf::RepeatedPtrField<std::__cxx11::basic_string<char, std::char_traits<char>, std::allocator<char> > >::Get(int) const
PUBLIC 8aaf0 0 google::protobuf::RepeatedPtrField<std::__cxx11::basic_string<char, std::char_traits<char>, std::allocator<char> > >::Mutable(int)
PUBLIC 8ab00 0 google::protobuf::RepeatedPtrField<std::__cxx11::basic_string<char, std::char_traits<char>, std::allocator<char> > >::Add()
PUBLIC 8abf0 0 google::protobuf::RepeatedPtrField<std::__cxx11::basic_string<char, std::char_traits<char>, std::allocator<char> > >::Add(std::__cxx11::basic_string<char, std::char_traits<char>, std::allocator<char> >&&)
PUBLIC 8ae00 0 google::protobuf::RepeatedPtrField<std::__cxx11::basic_string<char, std::char_traits<char>, std::allocator<char> > >::operator[](int) const
PUBLIC 8ae10 0 google::protobuf::RepeatedPtrField<std::__cxx11::basic_string<char, std::char_traits<char>, std::allocator<char> > >::operator[](int)
PUBLIC 8ae20 0 google::protobuf::RepeatedPtrField<std::__cxx11::basic_string<char, std::char_traits<char>, std::allocator<char> > >::at(int) const
PUBLIC 8af10 0 google::protobuf::RepeatedPtrField<std::__cxx11::basic_string<char, std::char_traits<char>, std::allocator<char> > >::at(int)
PUBLIC 8b000 0 google::protobuf::RepeatedPtrField<std::__cxx11::basic_string<char, std::char_traits<char>, std::allocator<char> > >::RemoveLast()
PUBLIC 8b030 0 google::protobuf::RepeatedPtrField<std::__cxx11::basic_string<char, std::char_traits<char>, std::allocator<char> > >::DeleteSubrange(int, int)
PUBLIC 8b0d0 0 google::protobuf::RepeatedPtrField<std::__cxx11::basic_string<char, std::char_traits<char>, std::allocator<char> > >::Clear()
PUBLIC 8b120 0 google::protobuf::RepeatedPtrField<std::__cxx11::basic_string<char, std::char_traits<char>, std::allocator<char> > >::MergeFrom(google::protobuf::RepeatedPtrField<std::__cxx11::basic_string<char, std::char_traits<char>, std::allocator<char> > > const&)
PUBLIC 8b180 0 google::protobuf::RepeatedPtrField<std::__cxx11::basic_string<char, std::char_traits<char>, std::allocator<char> > >::CopyFrom(google::protobuf::RepeatedPtrField<std::__cxx11::basic_string<char, std::char_traits<char>, std::allocator<char> > > const&)
PUBLIC 8b230 0 google::protobuf::RepeatedPtrField<std::__cxx11::basic_string<char, std::char_traits<char>, std::allocator<char> > >::Reserve(int)
PUBLIC 8b240 0 google::protobuf::RepeatedPtrField<std::__cxx11::basic_string<char, std::char_traits<char>, std::allocator<char> > >::Capacity() const
PUBLIC 8b250 0 google::protobuf::RepeatedPtrField<std::__cxx11::basic_string<char, std::char_traits<char>, std::allocator<char> > >::mutable_data()
PUBLIC 8b260 0 google::protobuf::RepeatedPtrField<std::__cxx11::basic_string<char, std::char_traits<char>, std::allocator<char> > >::data() const
PUBLIC 8b270 0 google::protobuf::RepeatedPtrField<std::__cxx11::basic_string<char, std::char_traits<char>, std::allocator<char> > >::UnsafeArenaSwap(google::protobuf::RepeatedPtrField<std::__cxx11::basic_string<char, std::char_traits<char>, std::allocator<char> > >*)
PUBLIC 8b290 0 google::protobuf::RepeatedPtrField<std::__cxx11::basic_string<char, std::char_traits<char>, std::allocator<char> > >::SwapElements(int, int)
PUBLIC 8b2c0 0 google::protobuf::RepeatedPtrField<std::__cxx11::basic_string<char, std::char_traits<char>, std::allocator<char> > >::begin()
PUBLIC 8b2d0 0 google::protobuf::RepeatedPtrField<std::__cxx11::basic_string<char, std::char_traits<char>, std::allocator<char> > >::begin() const
PUBLIC 8b2e0 0 google::protobuf::RepeatedPtrField<std::__cxx11::basic_string<char, std::char_traits<char>, std::allocator<char> > >::cbegin() const
PUBLIC 8b2f0 0 google::protobuf::RepeatedPtrField<std::__cxx11::basic_string<char, std::char_traits<char>, std::allocator<char> > >::end()
PUBLIC 8b310 0 google::protobuf::RepeatedPtrField<std::__cxx11::basic_string<char, std::char_traits<char>, std::allocator<char> > >::end() const
PUBLIC 8b330 0 google::protobuf::RepeatedPtrField<std::__cxx11::basic_string<char, std::char_traits<char>, std::allocator<char> > >::cend() const
PUBLIC 8b350 0 google::protobuf::RepeatedPtrField<std::__cxx11::basic_string<char, std::char_traits<char>, std::allocator<char> > >::rbegin()
PUBLIC 8b370 0 google::protobuf::RepeatedPtrField<std::__cxx11::basic_string<char, std::char_traits<char>, std::allocator<char> > >::rbegin() const
PUBLIC 8b390 0 google::protobuf::RepeatedPtrField<std::__cxx11::basic_string<char, std::char_traits<char>, std::allocator<char> > >::rend()
PUBLIC 8b3b0 0 google::protobuf::RepeatedPtrField<std::__cxx11::basic_string<char, std::char_traits<char>, std::allocator<char> > >::rend() const
PUBLIC 8b3d0 0 google::protobuf::RepeatedPtrField<std::__cxx11::basic_string<char, std::char_traits<char>, std::allocator<char> > >::pointer_begin()
PUBLIC 8b3e0 0 google::protobuf::RepeatedPtrField<std::__cxx11::basic_string<char, std::char_traits<char>, std::allocator<char> > >::pointer_begin() const
PUBLIC 8b3f0 0 google::protobuf::RepeatedPtrField<std::__cxx11::basic_string<char, std::char_traits<char>, std::allocator<char> > >::pointer_end()
PUBLIC 8b410 0 google::protobuf::RepeatedPtrField<std::__cxx11::basic_string<char, std::char_traits<char>, std::allocator<char> > >::pointer_end() const
PUBLIC 8b430 0 google::protobuf::RepeatedPtrField<std::__cxx11::basic_string<char, std::char_traits<char>, std::allocator<char> > >::SpaceUsedExcludingSelfLong() const
PUBLIC 8b480 0 google::protobuf::RepeatedPtrField<std::__cxx11::basic_string<char, std::char_traits<char>, std::allocator<char> > >::SpaceUsedExcludingSelf() const
PUBLIC 8b4e0 0 google::protobuf::RepeatedPtrField<std::__cxx11::basic_string<char, std::char_traits<char>, std::allocator<char> > >::ReleaseLast()
PUBLIC 8b560 0 google::protobuf::RepeatedPtrField<std::__cxx11::basic_string<char, std::char_traits<char>, std::allocator<char> > >::UnsafeArenaReleaseLast()
PUBLIC 8b5a0 0 google::protobuf::RepeatedPtrField<std::__cxx11::basic_string<char, std::char_traits<char>, std::allocator<char> > >::ExtractSubrange(int, int, std::__cxx11::basic_string<char, std::char_traits<char>, std::allocator<char> >**)
PUBLIC 8b690 0 google::protobuf::RepeatedPtrField<std::__cxx11::basic_string<char, std::char_traits<char>, std::allocator<char> > >::UnsafeArenaExtractSubrange(int, int, std::__cxx11::basic_string<char, std::char_traits<char>, std::allocator<char> >**)
PUBLIC 8b6e0 0 google::protobuf::RepeatedPtrField<std::__cxx11::basic_string<char, std::char_traits<char>, std::allocator<char> > >::ClearedCount() const
PUBLIC 8b700 0 google::protobuf::RepeatedPtrField<std::__cxx11::basic_string<char, std::char_traits<char>, std::allocator<char> > >::AddCleared(std::__cxx11::basic_string<char, std::char_traits<char>, std::allocator<char> >*)
PUBLIC 8b750 0 google::protobuf::RepeatedPtrField<std::__cxx11::basic_string<char, std::char_traits<char>, std::allocator<char> > >::ReleaseCleared()
PUBLIC 8b770 0 google::protobuf::RepeatedPtrField<std::__cxx11::basic_string<char, std::char_traits<char>, std::allocator<char> > >::erase(google::protobuf::internal::RepeatedPtrIterator<std::__cxx11::basic_string<char, std::char_traits<char>, std::allocator<char> > const>)
PUBLIC 8b860 0 google::protobuf::RepeatedPtrField<std::__cxx11::basic_string<char, std::char_traits<char>, std::allocator<char> > >::erase(google::protobuf::internal::RepeatedPtrIterator<std::__cxx11::basic_string<char, std::char_traits<char>, std::allocator<char> > const>, google::protobuf::internal::RepeatedPtrIterator<std::__cxx11::basic_string<char, std::char_traits<char>, std::allocator<char> > const>)
PUBLIC 8b950 0 google::protobuf::RepeatedPtrField<std::__cxx11::basic_string<char, std::char_traits<char>, std::allocator<char> > >::GetArena() const
PUBLIC 8b960 0 google::protobuf::RepeatedPtrField<std::__cxx11::basic_string<char, std::char_traits<char>, std::allocator<char> > >::InternalSwap(google::protobuf::RepeatedPtrField<std::__cxx11::basic_string<char, std::char_traits<char>, std::allocator<char> > >*)
PUBLIC 8b980 0 google::protobuf::RepeatedPtrField<std::__cxx11::basic_string<char, std::char_traits<char>, std::allocator<char> > >::ExtractSubrangeInternal(int, int, std::__cxx11::basic_string<char, std::char_traits<char>, std::allocator<char> >**, std::integral_constant<bool, true>)
PUBLIC 8ba70 0 google::protobuf::RepeatedPtrField<std::__cxx11::basic_string<char, std::char_traits<char>, std::allocator<char> > >::ExtractSubrangeInternal(int, int, std::__cxx11::basic_string<char, std::char_traits<char>, std::allocator<char> >**, std::integral_constant<bool, false>)
PUBLIC 8bac0 0 void google::protobuf::internal::RepeatedPtrFieldBase::Destroy<google::protobuf::RepeatedPtrField<std::__cxx11::basic_string<char, std::char_traits<char>, std::allocator<char> > >::TypeHandler>()
PUBLIC 8bb60 0 google::protobuf::RepeatedPtrField<std::__cxx11::basic_string<char, std::char_traits<char>, std::allocator<char> > >::~RepeatedPtrField()
PUBLIC 8bb70 0 void google::protobuf::internal::RepeatedPtrFieldBase::UnsafeArenaAddAllocated<google::protobuf::RepeatedPtrField<std::__cxx11::basic_string<char, std::char_traits<char>, std::allocator<char> > >::TypeHandler>(google::protobuf::RepeatedPtrField<std::__cxx11::basic_string<char, std::char_traits<char>, std::allocator<char> > >::TypeHandler::Type*)
PUBLIC 8bc50 0 google::protobuf::RepeatedPtrField<std::__cxx11::basic_string<char, std::char_traits<char>, std::allocator<char> > >::UnsafeArenaAddAllocated(std::__cxx11::basic_string<char, std::char_traits<char>, std::allocator<char> >*)
PUBLIC 8bc60 0 void google::protobuf::internal::RepeatedPtrFieldBase::SwapFallback<google::protobuf::RepeatedPtrField<std::__cxx11::basic_string<char, std::char_traits<char>, std::allocator<char> > >::TypeHandler>(google::protobuf::internal::RepeatedPtrFieldBase*)
PUBLIC 8bdc0 0 google::protobuf::RepeatedPtrField<std::__cxx11::basic_string<char, std::char_traits<char>, std::allocator<char> > >::Swap(google::protobuf::RepeatedPtrField<std::__cxx11::basic_string<char, std::char_traits<char>, std::allocator<char> > >*)
PUBLIC 8be00 0 void google::protobuf::Arena::Own<std::__cxx11::basic_string<char, std::char_traits<char>, std::allocator<char> > >(std::__cxx11::basic_string<char, std::char_traits<char>, std::allocator<char> >*)
PUBLIC 8be20 0 void google::protobuf::internal::RepeatedPtrFieldBase::AddAllocatedSlowWithCopy<google::protobuf::RepeatedPtrField<std::__cxx11::basic_string<char, std::char_traits<char>, std::allocator<char> > >::TypeHandler>(google::protobuf::RepeatedPtrField<std::__cxx11::basic_string<char, std::char_traits<char>, std::allocator<char> > >::TypeHandler::Type*, google::protobuf::Arena*, google::protobuf::Arena*)
PUBLIC 8bf20 0 google::protobuf::RepeatedPtrField<std::__cxx11::basic_string<char, std::char_traits<char>, std::allocator<char> > >::AddAllocated(std::__cxx11::basic_string<char, std::char_traits<char>, std::allocator<char> >*)
PUBLIC 8bf70 0 google::protobuf::internal::FieldSkipper::SkipUnknownEnum(int, int)
PUBLIC 8bf80 0 google::protobuf::internal::CodedOutputStreamFieldSkipper::SkipUnknownEnum(int, int)
PUBLIC 8c0f0 0 google::protobuf::internal::WireFormatLite::SkipMessage(google::protobuf::io::CodedInputStream*)
PUBLIC 8c170 0 google::protobuf::internal::WireFormatLite::SkipField(google::protobuf::io::CodedInputStream*, unsigned int)
PUBLIC 8c340 0 google::protobuf::internal::FieldSkipper::SkipField(google::protobuf::io::CodedInputStream*, unsigned int)
PUBLIC 8c350 0 google::protobuf::internal::FieldSkipper::SkipMessage(google::protobuf::io::CodedInputStream*)
PUBLIC 8c360 0 google::protobuf::internal::WireFormatLite::SkipMessage(google::protobuf::io::CodedInputStream*, google::protobuf::io::CodedOutputStream*)
PUBLIC 8c460 0 google::protobuf::internal::WireFormatLite::SkipField(google::protobuf::io::CodedInputStream*, unsigned int, google::protobuf::io::CodedOutputStream*)
PUBLIC 8cb40 0 google::protobuf::internal::CodedOutputStreamFieldSkipper::SkipField(google::protobuf::io::CodedInputStream*, unsigned int)
PUBLIC 8cb60 0 google::protobuf::internal::CodedOutputStreamFieldSkipper::SkipMessage(google::protobuf::io::CodedInputStream*)
PUBLIC 8cb70 0 google::protobuf::internal::WireFormatLite::ReadPackedEnumPreserveUnknowns(google::protobuf::io::CodedInputStream*, int, bool (*)(int), google::protobuf::io::CodedOutputStream*, google::protobuf::RepeatedField<int>*)
PUBLIC 8ce20 0 google::protobuf::internal::WireFormatLite::WriteFloatArray(float const*, int, google::protobuf::io::CodedOutputStream*)
PUBLIC 8ce90 0 google::protobuf::internal::WireFormatLite::WriteDoubleArray(double const*, int, google::protobuf::io::CodedOutputStream*)
PUBLIC 8cf00 0 google::protobuf::internal::WireFormatLite::WriteFixed32Array(unsigned int const*, int, google::protobuf::io::CodedOutputStream*)
PUBLIC 8cf70 0 google::protobuf::internal::WireFormatLite::WriteFixed64Array(unsigned long const*, int, google::protobuf::io::CodedOutputStream*)
PUBLIC 8cfe0 0 google::protobuf::internal::WireFormatLite::WriteSFixed32Array(int const*, int, google::protobuf::io::CodedOutputStream*)
PUBLIC 8d050 0 google::protobuf::internal::WireFormatLite::WriteSFixed64Array(long const*, int, google::protobuf::io::CodedOutputStream*)
PUBLIC 8d0c0 0 google::protobuf::internal::WireFormatLite::WriteBoolArray(bool const*, int, google::protobuf::io::CodedOutputStream*)
PUBLIC 8d120 0 google::protobuf::internal::WireFormatLite::WriteInt32(int, int, google::protobuf::io::CodedOutputStream*) [clone .localalias]
PUBLIC 8d270 0 google::protobuf::internal::WireFormatLite::WriteInt64(int, long, google::protobuf::io::CodedOutputStream*)
PUBLIC 8d3c0 0 google::protobuf::internal::WireFormatLite::WriteUInt32(int, unsigned int, google::protobuf::io::CodedOutputStream*)
PUBLIC 8d500 0 google::protobuf::internal::WireFormatLite::WriteUInt64(int, unsigned long, google::protobuf::io::CodedOutputStream*)
PUBLIC 8d650 0 google::protobuf::internal::WireFormatLite::WriteSInt32(int, int, google::protobuf::io::CodedOutputStream*)
PUBLIC 8d7a0 0 google::protobuf::internal::WireFormatLite::WriteSInt64(int, long, google::protobuf::io::CodedOutputStream*)
PUBLIC 8d8f0 0 google::protobuf::internal::WireFormatLite::WriteFixed32(int, unsigned int, google::protobuf::io::CodedOutputStream*)
PUBLIC 8d9d0 0 google::protobuf::internal::WireFormatLite::WriteFixed64(int, unsigned long, google::protobuf::io::CodedOutputStream*)
PUBLIC 8dab0 0 google::protobuf::internal::WireFormatLite::WriteSFixed32(int, int, google::protobuf::io::CodedOutputStream*)
PUBLIC 8db90 0 google::protobuf::internal::WireFormatLite::WriteSFixed64(int, long, google::protobuf::io::CodedOutputStream*)
PUBLIC 8dc70 0 google::protobuf::internal::WireFormatLite::WriteFloat(int, float, google::protobuf::io::CodedOutputStream*)
PUBLIC 8dd50 0 google::protobuf::internal::WireFormatLite::WriteDouble(int, double, google::protobuf::io::CodedOutputStream*)
PUBLIC 8de30 0 google::protobuf::internal::WireFormatLite::WriteBool(int, bool, google::protobuf::io::CodedOutputStream*)
PUBLIC 8df10 0 google::protobuf::internal::WireFormatLite::WriteEnum(int, int, google::protobuf::io::CodedOutputStream*)
PUBLIC 8df20 0 google::protobuf::internal::WireFormatLite::WriteString(int, std::__cxx11::basic_string<char, std::char_traits<char>, std::allocator<char> > const&, google::protobuf::io::CodedOutputStream*)
PUBLIC 8e140 0 google::protobuf::internal::WireFormatLite::WriteStringMaybeAliased(int, std::__cxx11::basic_string<char, std::char_traits<char>, std::allocator<char> > const&, google::protobuf::io::CodedOutputStream*)
PUBLIC 8e380 0 google::protobuf::internal::WireFormatLite::WriteBytes(int, std::__cxx11::basic_string<char, std::char_traits<char>, std::allocator<char> > const&, google::protobuf::io::CodedOutputStream*)
PUBLIC 8e5a0 0 google::protobuf::internal::WireFormatLite::WriteBytesMaybeAliased(int, std::__cxx11::basic_string<char, std::char_traits<char>, std::allocator<char> > const&, google::protobuf::io::CodedOutputStream*)
PUBLIC 8e7e0 0 google::protobuf::internal::WireFormatLite::WriteGroup(int, google::protobuf::MessageLite const&, google::protobuf::io::CodedOutputStream*)
PUBLIC 8e960 0 google::protobuf::internal::WireFormatLite::WriteMessage(int, google::protobuf::MessageLite const&, google::protobuf::io::CodedOutputStream*)
PUBLIC 8ead0 0 google::protobuf::internal::WireFormatLite::WriteSubMessageMaybeToArray(int, google::protobuf::MessageLite const&, google::protobuf::io::CodedOutputStream*)
PUBLIC 8eaf0 0 google::protobuf::internal::WireFormatLite::WriteGroupMaybeToArray(int, google::protobuf::MessageLite const&, google::protobuf::io::CodedOutputStream*)
PUBLIC 8ec80 0 google::protobuf::internal::WireFormatLite::WriteMessageMaybeToArray(int, google::protobuf::MessageLite const&, google::protobuf::io::CodedOutputStream*)
PUBLIC 8ede0 0 google::protobuf::internal::WireFormatLite::ReadBytes(google::protobuf::io::CodedInputStream*, std::__cxx11::basic_string<char, std::char_traits<char>, std::allocator<char> >*)
PUBLIC 8ee50 0 google::protobuf::internal::WireFormatLite::ReadBytes(google::protobuf::io::CodedInputStream*, std::__cxx11::basic_string<char, std::char_traits<char>, std::allocator<char> >**)
PUBLIC 8ef00 0 google::protobuf::internal::PrintUTF8ErrorLog(char const*, char const*, bool)
PUBLIC 8f140 0 google::protobuf::internal::WireFormatLite::VerifyUtf8String(char const*, int, google::protobuf::internal::WireFormatLite::Operation, char const*)
PUBLIC 8f190 0 google::protobuf::internal::WireFormatLite::Int32Size(google::protobuf::RepeatedField<int> const&) [clone .localalias]
PUBLIC 8f200 0 google::protobuf::internal::WireFormatLite::UInt32Size(google::protobuf::RepeatedField<unsigned int> const&)
PUBLIC 8f250 0 google::protobuf::internal::WireFormatLite::SInt32Size(google::protobuf::RepeatedField<int> const&)
PUBLIC 8f2b0 0 google::protobuf::internal::WireFormatLite::EnumSize(google::protobuf::RepeatedField<int> const&)
PUBLIC 8f2c0 0 google::protobuf::internal::WireFormatLite::Int64Size(google::protobuf::RepeatedField<long> const&)
PUBLIC 8f310 0 google::protobuf::internal::WireFormatLite::UInt64Size(google::protobuf::RepeatedField<unsigned long> const&)
PUBLIC 8f360 0 google::protobuf::internal::WireFormatLite::SInt64Size(google::protobuf::RepeatedField<long> const&)
PUBLIC 8f3c0 0 google::protobuf::internal::FieldSkipper::~FieldSkipper()
PUBLIC 8f3d0 0 google::protobuf::internal::CodedOutputStreamFieldSkipper::~CodedOutputStreamFieldSkipper()
PUBLIC 8f3e0 0 google::protobuf::internal::CodedOutputStreamFieldSkipper::~CodedOutputStreamFieldSkipper()
PUBLIC 8f3f0 0 google::protobuf::internal::FieldSkipper::~FieldSkipper()
PUBLIC 8f400 0 google::protobuf::io::CodedInputStream::BackUpInputToCurrentPosition()
PUBLIC 8f450 0 google::protobuf::io::CodedInputStream::~CodedInputStream()
PUBLIC 8f470 0 google::protobuf::io::CodedInputStream::PushLimit(int)
PUBLIC 8f4f0 0 google::protobuf::io::CodedInputStream::PopLimit(int)
PUBLIC 8f540 0 google::protobuf::io::CodedInputStream::IncrementRecursionDepthAndPushLimit(int)
PUBLIC 8f560 0 google::protobuf::io::CodedInputStream::DecrementRecursionDepthAndPopLimit(int)
PUBLIC 8f590 0 google::protobuf::io::CodedInputStream::CheckEntireMessageConsumedAndPopLimit(int)
PUBLIC 8f5b0 0 google::protobuf::io::CodedInputStream::BytesUntilLimit() const
PUBLIC 8f5e0 0 google::protobuf::io::CodedInputStream::SetTotalBytesLimit(int)
PUBLIC 8f640 0 google::protobuf::io::CodedInputStream::BytesUntilTotalBytesLimit() const
PUBLIC 8f670 0 google::protobuf::io::CodedInputStream::PrintTotalBytesLimitError()
PUBLIC 8f6f0 0 google::protobuf::io::CodedInputStream::SkipFallback(int, int)
PUBLIC 8f7a0 0 google::protobuf::io::CodedInputStream::Refresh()
PUBLIC 8f950 0 google::protobuf::io::CodedInputStream::GetDirectBufferPointer(void const**, int*)
PUBLIC 8f990 0 google::protobuf::io::CodedInputStream::ReadRaw(void*, int)
PUBLIC 8fa00 0 google::protobuf::io::CodedInputStream::ReadLittleEndian32Fallback(unsigned int*)
PUBLIC 8fa60 0 google::protobuf::io::CodedInputStream::ReadLittleEndian64Fallback(unsigned long*)
PUBLIC 8fac0 0 google::protobuf::io::CodedInputStream::ReadVarint64Slow(unsigned long*)
PUBLIC 8fb40 0 google::protobuf::io::CodedInputStream::ReadVarint64Fallback()
PUBLIC 8fde0 0 google::protobuf::io::CodedInputStream::ReadVarint32Slow(unsigned int*)
PUBLIC 8fe00 0 google::protobuf::io::CodedInputStream::ReadVarint32Fallback(unsigned int)
PUBLIC 8fee0 0 google::protobuf::io::CodedInputStream::ReadLengthAndPushLimit()
PUBLIC 8ff30 0 google::protobuf::io::CodedInputStream::ReadVarintSizeAsIntSlow()
PUBLIC 8ff60 0 google::protobuf::io::CodedInputStream::ReadVarintSizeAsIntFallback()
PUBLIC 901e0 0 google::protobuf::io::CodedInputStream::ReadTagSlow()
PUBLIC 90280 0 google::protobuf::io::CodedInputStream::ReadTagFallback(unsigned int)
PUBLIC 90380 0 google::protobuf::io::CodedInputStream::ReadStringFallback(std::__cxx11::basic_string<char, std::char_traits<char>, std::allocator<char> >*, int)
PUBLIC 904c0 0 google::protobuf::io::CodedInputStream::ReadString(std::__cxx11::basic_string<char, std::char_traits<char>, std::allocator<char> >*, int)
PUBLIC 90530 0 google::protobuf::io::EpsCopyOutputStream::EnableAliasing(bool)
PUBLIC 90570 0 google::protobuf::io::EpsCopyOutputStream::ByteCount(unsigned char*) const
PUBLIC 905a0 0 google::protobuf::io::EpsCopyOutputStream::Flush(unsigned char*)
PUBLIC 906f0 0 google::protobuf::io::EpsCopyOutputStream::Trim(unsigned char*)
PUBLIC 90730 0 google::protobuf::io::EpsCopyOutputStream::FlushAndResetBuffer(unsigned char*)
PUBLIC 90780 0 google::protobuf::io::EpsCopyOutputStream::Skip(int, unsigned char**)
PUBLIC 90890 0 google::protobuf::io::EpsCopyOutputStream::GetDirectBufferPointer(void**, int*, unsigned char**)
PUBLIC 90980 0 google::protobuf::io::EpsCopyOutputStream::GetDirectBufferForNBytesAndAdvance(int, unsigned char**)
PUBLIC 90a40 0 google::protobuf::io::EpsCopyOutputStream::EnsureSpaceFallback(unsigned char*)
PUBLIC 90b60 0 google::protobuf::io::EpsCopyOutputStream::WriteRawFallback(void const*, int, unsigned char*)
PUBLIC 90be0 0 google::protobuf::io::EpsCopyOutputStream::WriteAliasedRaw(void const*, int, unsigned char*)
PUBLIC 90c90 0 google::protobuf::io::EpsCopyOutputStream::WriteStringMaybeAliasedOutline(unsigned int, std::__cxx11::basic_string<char, std::char_traits<char>, std::allocator<char> > const&, unsigned char*)
PUBLIC 90dc0 0 google::protobuf::io::EpsCopyOutputStream::WriteStringOutline(unsigned int, std::__cxx11::basic_string<char, std::char_traits<char>, std::allocator<char> > const&, unsigned char*)
PUBLIC 90ed0 0 google::protobuf::io::CodedOutputStream::CodedOutputStream(google::protobuf::io::ZeroCopyOutputStream*, bool)
PUBLIC 90f90 0 google::protobuf::io::CodedOutputStream::~CodedOutputStream()
PUBLIC 90fb0 0 google::protobuf::io::CodedOutputStream::WriteStringWithSizeToArray(std::__cxx11::basic_string<char, std::char_traits<char>, std::allocator<char> > const&, unsigned char*)
PUBLIC 91040 0 google::protobuf::io::ZeroCopyOutputStream::AllowsAliasing() const
PUBLIC 91050 0 google::protobuf::io::IstreamInputStream::CopyingIstreamInputStream::~CopyingIstreamInputStream()
PUBLIC 91060 0 google::protobuf::io::OstreamOutputStream::CopyingOstreamOutputStream::~CopyingOstreamOutputStream()
PUBLIC 91070 0 google::protobuf::io::ConcatenatingInputStream::Next(void const**, int*)
PUBLIC 910f0 0 google::protobuf::io::ConcatenatingInputStream::Skip(int)
PUBLIC 91180 0 google::protobuf::io::IstreamInputStream::CopyingIstreamInputStream::~CopyingIstreamInputStream()
PUBLIC 911a0 0 google::protobuf::io::OstreamOutputStream::CopyingOstreamOutputStream::~CopyingOstreamOutputStream()
PUBLIC 911c0 0 google::protobuf::io::ConcatenatingInputStream::BackUp(int)
PUBLIC 91240 0 google::protobuf::io::(anonymous namespace)::close_no_eintr(int)
PUBLIC 91280 0 google::protobuf::io::FileInputStream::CopyingFileInputStream::Read(void*, int)
PUBLIC 91350 0 google::protobuf::io::FileInputStream::CopyingFileInputStream::Skip(int)
PUBLIC 91410 0 google::protobuf::io::FileOutputStream::CopyingFileOutputStream::Write(void const*, int)
PUBLIC 91520 0 google::protobuf::io::IstreamInputStream::CopyingIstreamInputStream::Read(void*, int)
PUBLIC 91560 0 google::protobuf::io::OstreamOutputStream::CopyingOstreamOutputStream::Write(void const*, int)
PUBLIC 91590 0 google::protobuf::io::ConcatenatingInputStream::ByteCount() const
PUBLIC 915c0 0 google::protobuf::io::FileInputStream::CopyingFileInputStream::CopyingFileInputStream(int)
PUBLIC 915f0 0 google::protobuf::io::FileInputStream::CopyingFileInputStream::Close()
PUBLIC 91690 0 google::protobuf::io::FileInputStream::Close()
PUBLIC 916a0 0 google::protobuf::io::FileInputStream::CopyingFileInputStream::~CopyingFileInputStream()
PUBLIC 91740 0 google::protobuf::io::FileInputStream::FileInputStream(int, int)
PUBLIC 91780 0 google::protobuf::io::FileInputStream::CopyingFileInputStream::~CopyingFileInputStream()
PUBLIC 917a0 0 google::protobuf::io::FileOutputStream::Flush()
PUBLIC 917b0 0 google::protobuf::io::FileOutputStream::CopyingFileOutputStream::CopyingFileOutputStream(int)
PUBLIC 917d0 0 google::protobuf::io::FileOutputStream::CopyingFileOutputStream::Close()
PUBLIC 91870 0 google::protobuf::io::FileOutputStream::Close()
PUBLIC 918a0 0 google::protobuf::io::FileOutputStream::CopyingFileOutputStream::~CopyingFileOutputStream()
PUBLIC 91940 0 google::protobuf::io::FileOutputStream::FileOutputStream(int, int)
PUBLIC 91980 0 google::protobuf::io::FileOutputStream::CopyingFileOutputStream::~CopyingFileOutputStream()
PUBLIC 919a0 0 google::protobuf::io::IstreamInputStream::CopyingIstreamInputStream::CopyingIstreamInputStream(std::istream*)
PUBLIC 919c0 0 google::protobuf::io::IstreamInputStream::IstreamInputStream(std::istream*, int)
PUBLIC 91a00 0 google::protobuf::io::OstreamOutputStream::CopyingOstreamOutputStream::CopyingOstreamOutputStream(std::ostream*)
PUBLIC 91a20 0 google::protobuf::io::OstreamOutputStream::OstreamOutputStream(std::ostream*, int)
PUBLIC 91a60 0 google::protobuf::io::ConcatenatingInputStream::ConcatenatingInputStream(google::protobuf::io::ZeroCopyInputStream* const*, int)
PUBLIC 91a80 0 google::protobuf::io::FileInputStream::Next(void const**, int*)
PUBLIC 91a90 0 google::protobuf::io::IstreamInputStream::Next(void const**, int*)
PUBLIC 91aa0 0 google::protobuf::io::FileInputStream::BackUp(int)
PUBLIC 91ab0 0 google::protobuf::io::IstreamInputStream::BackUp(int)
PUBLIC 91ac0 0 google::protobuf::io::FileInputStream::Skip(int)
PUBLIC 91ad0 0 google::protobuf::io::IstreamInputStream::Skip(int)
PUBLIC 91ae0 0 google::protobuf::io::FileInputStream::ByteCount() const
PUBLIC 91af0 0 google::protobuf::io::IstreamInputStream::ByteCount() const
PUBLIC 91b00 0 google::protobuf::io::FileOutputStream::~FileOutputStream()
PUBLIC 91b40 0 google::protobuf::io::FileOutputStream::~FileOutputStream()
PUBLIC 91b60 0 google::protobuf::io::OstreamOutputStream::~OstreamOutputStream()
PUBLIC 91ba0 0 google::protobuf::io::OstreamOutputStream::~OstreamOutputStream()
PUBLIC 91bc0 0 google::protobuf::io::FileOutputStream::Next(void**, int*)
PUBLIC 91bd0 0 google::protobuf::io::OstreamOutputStream::Next(void**, int*)
PUBLIC 91be0 0 google::protobuf::io::FileOutputStream::BackUp(int)
PUBLIC 91bf0 0 google::protobuf::io::OstreamOutputStream::BackUp(int)
PUBLIC 91c00 0 google::protobuf::io::FileOutputStream::ByteCount() const
PUBLIC 91c10 0 google::protobuf::io::OstreamOutputStream::ByteCount() const
PUBLIC 91c20 0 google::protobuf::io::ConcatenatingInputStream::~ConcatenatingInputStream()
PUBLIC 91c30 0 google::protobuf::io::ConcatenatingInputStream::~ConcatenatingInputStream()
PUBLIC 91c40 0 google::protobuf::io::IstreamInputStream::~IstreamInputStream()
PUBLIC 91c70 0 google::protobuf::io::IstreamInputStream::~IstreamInputStream()
PUBLIC 91cb0 0 google::protobuf::io::FileInputStream::~FileInputStream()
PUBLIC 91ce0 0 google::protobuf::io::FileInputStream::~FileInputStream()
PUBLIC 91d20 0 google::protobuf::io::ArrayInputStream::Next(void const**, int*)
PUBLIC 91d60 0 google::protobuf::io::ArrayInputStream::ByteCount() const
PUBLIC 91d70 0 google::protobuf::io::ArrayOutputStream::Next(void**, int*)
PUBLIC 91db0 0 google::protobuf::io::ArrayOutputStream::ByteCount() const
PUBLIC 91dc0 0 google::protobuf::io::CopyingInputStream::Skip(int)
PUBLIC 91e30 0 google::protobuf::io::CopyingInputStreamAdaptor::ByteCount() const
PUBLIC 91e40 0 google::protobuf::io::CopyingOutputStreamAdaptor::ByteCount() const
PUBLIC 91e50 0 google::protobuf::io::LimitingInputStream::~LimitingInputStream()
PUBLIC 91e90 0 google::protobuf::io::LimitingInputStream::Skip(int)
PUBLIC 91ef0 0 google::protobuf::io::ArrayInputStream::BackUp(int)
PUBLIC 92070 0 google::protobuf::io::ArrayInputStream::Skip(int)
PUBLIC 92120 0 google::protobuf::io::ArrayOutputStream::BackUp(int)
PUBLIC 922a0 0 google::protobuf::io::StringOutputStream::ByteCount() const
PUBLIC 92330 0 google::protobuf::io::CopyingOutputStreamAdaptor::BackUp(int)
PUBLIC 924c0 0 google::protobuf::io::CopyingInputStreamAdaptor::BackUp(int)
PUBLIC 92670 0 google::protobuf::io::StringOutputStream::BackUp(int)
PUBLIC 927f0 0 google::protobuf::io::StringOutputStream::Next(void**, int*)
PUBLIC 92960 0 google::protobuf::io::CopyingInputStreamAdaptor::~CopyingInputStreamAdaptor()
PUBLIC 929b0 0 google::protobuf::io::LimitingInputStream::~LimitingInputStream()
PUBLIC 929d0 0 google::protobuf::io::CopyingInputStreamAdaptor::~CopyingInputStreamAdaptor()
PUBLIC 929f0 0 google::protobuf::io::LimitingInputStream::Next(void const**, int*)
PUBLIC 92a50 0 google::protobuf::io::LimitingInputStream::BackUp(int)
PUBLIC 92a90 0 google::protobuf::io::LimitingInputStream::ByteCount() const
PUBLIC 92ac0 0 google::protobuf::io::CopyingInputStreamAdaptor::Skip(int)
PUBLIC 92b90 0 google::protobuf::io::ArrayInputStream::ArrayInputStream(void const*, int, int)
PUBLIC 92bc0 0 google::protobuf::io::ArrayOutputStream::ArrayOutputStream(void*, int, int)
PUBLIC 92bf0 0 google::protobuf::io::StringOutputStream::StringOutputStream(std::__cxx11::basic_string<char, std::char_traits<char>, std::allocator<char> >*)
PUBLIC 92c10 0 google::protobuf::io::CopyingInputStreamAdaptor::CopyingInputStreamAdaptor(google::protobuf::io::CopyingInputStream*, int)
PUBLIC 92c50 0 google::protobuf::io::CopyingInputStreamAdaptor::AllocateBufferIfNeeded()
PUBLIC 92c90 0 google::protobuf::io::CopyingInputStreamAdaptor::FreeBuffer()
PUBLIC 92d30 0 google::protobuf::io::CopyingInputStreamAdaptor::Next(void const**, int*)
PUBLIC 92e00 0 google::protobuf::io::CopyingOutputStreamAdaptor::CopyingOutputStreamAdaptor(google::protobuf::io::CopyingOutputStream*, int)
PUBLIC 92e40 0 google::protobuf::io::CopyingOutputStreamAdaptor::AllocateBufferIfNeeded()
PUBLIC 92e80 0 google::protobuf::io::CopyingOutputStreamAdaptor::FreeBuffer()
PUBLIC 92eb0 0 google::protobuf::io::CopyingOutputStreamAdaptor::WriteBuffer()
PUBLIC 92f20 0 google::protobuf::io::CopyingOutputStreamAdaptor::~CopyingOutputStreamAdaptor()
PUBLIC 92f70 0 google::protobuf::io::CopyingOutputStreamAdaptor::~CopyingOutputStreamAdaptor()
PUBLIC 92f90 0 google::protobuf::io::CopyingOutputStreamAdaptor::Flush()
PUBLIC 92fa0 0 google::protobuf::io::CopyingOutputStreamAdaptor::Next(void**, int*)
PUBLIC 93000 0 google::protobuf::io::LimitingInputStream::LimitingInputStream(google::protobuf::io::ZeroCopyInputStream*, long)
PUBLIC 93030 0 google::protobuf::io::StringOutputStream::~StringOutputStream()
PUBLIC 93040 0 google::protobuf::io::ArrayOutputStream::~ArrayOutputStream()
PUBLIC 93050 0 google::protobuf::io::ArrayInputStream::~ArrayInputStream()
PUBLIC 93060 0 google::protobuf::io::ArrayInputStream::~ArrayInputStream()
PUBLIC 93070 0 google::protobuf::io::StringOutputStream::~StringOutputStream()
PUBLIC 93080 0 google::protobuf::io::ArrayOutputStream::~ArrayOutputStream()
PUBLIC 93090 0 google::protobuf::TextFormat::Finder::~Finder()
PUBLIC 930a0 0 google::protobuf::TextFormat::Finder::FindExtensionFactory(google::protobuf::FieldDescriptor const*) const [clone .localalias]
PUBLIC 930b0 0 google::protobuf::TextFormat::FieldValuePrinter::PrintBytes(std::__cxx11::basic_string<char, std::char_traits<char>, std::allocator<char> > const&) const
PUBLIC 930d0 0 google::protobuf::TextFormat::FastFieldValuePrinter::~FastFieldValuePrinter()
PUBLIC 930e0 0 google::protobuf::TextFormat::FieldValuePrinter::~FieldValuePrinter()
PUBLIC 93100 0 google::protobuf::TextFormat::FastFieldValuePrinter::PrintEnum(int, std::__cxx11::basic_string<char, std::char_traits<char>, std::allocator<char> > const&, google::protobuf::TextFormat::BaseTextGenerator*) const
PUBLIC 93120 0 google::protobuf::TextFormat::FastFieldValuePrinter::PrintBytes(std::__cxx11::basic_string<char, std::char_traits<char>, std::allocator<char> > const&, google::protobuf::TextFormat::BaseTextGenerator*) const
PUBLIC 93130 0 google::protobuf::TextFormat::FastFieldValuePrinter::PrintFieldName(google::protobuf::Message const&, int, int, google::protobuf::Reflection const*, google::protobuf::FieldDescriptor const*, google::protobuf::TextFormat::BaseTextGenerator*) const
PUBLIC 93150 0 google::protobuf::TextFormat::FastFieldValuePrinter::PrintMessageContent(google::protobuf::Message const&, int, int, bool, google::protobuf::TextFormat::BaseTextGenerator*) const [clone .localalias]
PUBLIC 93160 0 google::protobuf::(anonymous namespace)::FieldValuePrinterWrapper::~FieldValuePrinterWrapper()
PUBLIC 93190 0 google::protobuf::(anonymous namespace)::FastFieldValuePrinterUtf8Escaping::~FastFieldValuePrinterUtf8Escaping()
PUBLIC 931a0 0 google::protobuf::(anonymous namespace)::FieldValuePrinterWrapper::PrintMessageEnd(google::protobuf::Message const&, int, int, bool, google::protobuf::TextFormat::BaseTextGenerator*) const
PUBLIC 93200 0 google::protobuf::(anonymous namespace)::FieldValuePrinterWrapper::PrintMessageStart(google::protobuf::Message const&, int, int, bool, google::protobuf::TextFormat::BaseTextGenerator*) const
PUBLIC 93260 0 google::protobuf::(anonymous namespace)::FieldValuePrinterWrapper::PrintFieldName(google::protobuf::Message const&, google::protobuf::Reflection const*, google::protobuf::FieldDescriptor const*, google::protobuf::TextFormat::BaseTextGenerator*) const
PUBLIC 932c0 0 google::protobuf::(anonymous namespace)::FieldValuePrinterWrapper::PrintFieldName(google::protobuf::Message const&, int, int, google::protobuf::Reflection const*, google::protobuf::FieldDescriptor const*, google::protobuf::TextFormat::BaseTextGenerator*) const
PUBLIC 93320 0 google::protobuf::(anonymous namespace)::FieldValuePrinterWrapper::PrintEnum(int, std::__cxx11::basic_string<char, std::char_traits<char>, std::allocator<char> > const&, google::protobuf::TextFormat::BaseTextGenerator*) const
PUBLIC 93380 0 google::protobuf::(anonymous namespace)::FieldValuePrinterWrapper::PrintBytes(std::__cxx11::basic_string<char, std::char_traits<char>, std::allocator<char> > const&, google::protobuf::TextFormat::BaseTextGenerator*) const
PUBLIC 933d0 0 google::protobuf::(anonymous namespace)::FieldValuePrinterWrapper::PrintString(std::__cxx11::basic_string<char, std::char_traits<char>, std::allocator<char> > const&, google::protobuf::TextFormat::BaseTextGenerator*) const
PUBLIC 93420 0 google::protobuf::(anonymous namespace)::FieldValuePrinterWrapper::PrintDouble(double, google::protobuf::TextFormat::BaseTextGenerator*) const
PUBLIC 93470 0 google::protobuf::(anonymous namespace)::FieldValuePrinterWrapper::PrintFloat(float, google::protobuf::TextFormat::BaseTextGenerator*) const
PUBLIC 934c0 0 google::protobuf::(anonymous namespace)::FieldValuePrinterWrapper::PrintUInt64(unsigned long, google::protobuf::TextFormat::BaseTextGenerator*) const
PUBLIC 93510 0 google::protobuf::(anonymous namespace)::FieldValuePrinterWrapper::PrintInt64(long, google::protobuf::TextFormat::BaseTextGenerator*) const
PUBLIC 93560 0 google::protobuf::(anonymous namespace)::FieldValuePrinterWrapper::PrintUInt32(unsigned int, google::protobuf::TextFormat::BaseTextGenerator*) const
PUBLIC 935b0 0 google::protobuf::(anonymous namespace)::FieldValuePrinterWrapper::PrintInt32(int, google::protobuf::TextFormat::BaseTextGenerator*) const
PUBLIC 93600 0 google::protobuf::(anonymous namespace)::FieldValuePrinterWrapper::PrintBool(bool, google::protobuf::TextFormat::BaseTextGenerator*) const
PUBLIC 93650 0 google::protobuf::TextFormat::Finder::~Finder()
PUBLIC 93670 0 google::protobuf::TextFormat::FieldValuePrinter::~FieldValuePrinter()
PUBLIC 93690 0 google::protobuf::TextFormat::FastFieldValuePrinter::~FastFieldValuePrinter()
PUBLIC 936b0 0 google::protobuf::(anonymous namespace)::FastFieldValuePrinterUtf8Escaping::~FastFieldValuePrinterUtf8Escaping()
PUBLIC 936e0 0 google::protobuf::(anonymous namespace)::DefaultFinderFindExtension(google::protobuf::Message*, std::__cxx11::basic_string<char, std::char_traits<char>, std::allocator<char> > const&)
PUBLIC 93710 0 google::protobuf::TextFormat::Finder::FindExtension(google::protobuf::Message*, std::__cxx11::basic_string<char, std::char_traits<char>, std::allocator<char> > const&) const [clone .localalias]
PUBLIC 93720 0 google::protobuf::TextFormat::Finder::FindExtensionByNumber(google::protobuf::Descriptor const*, int) const
PUBLIC 93730 0 google::protobuf::(anonymous namespace)::DefaultFinderFindAnyType(google::protobuf::Message const&, std::__cxx11::basic_string<char, std::char_traits<char>, std::allocator<char> > const&, std::__cxx11::basic_string<char, std::char_traits<char>, std::allocator<char> > const&)
PUBLIC 937a0 0 google::protobuf::TextFormat::Finder::FindAnyType(google::protobuf::Message const&, std::__cxx11::basic_string<char, std::char_traits<char>, std::allocator<char> > const&, std::__cxx11::basic_string<char, std::char_traits<char>, std::allocator<char> > const&) const [clone .localalias]
PUBLIC 937b0 0 google::protobuf::TextFormat::FastFieldValuePrinter::PrintString(std::__cxx11::basic_string<char, std::char_traits<char>, std::allocator<char> > const&, google::protobuf::TextFormat::BaseTextGenerator*) const
PUBLIC 93830 0 google::protobuf::(anonymous namespace)::FastFieldValuePrinterUtf8Escaping::PrintBytes(std::__cxx11::basic_string<char, std::char_traits<char>, std::allocator<char> > const&, google::protobuf::TextFormat::BaseTextGenerator*) const
PUBLIC 93840 0 google::protobuf::(anonymous namespace)::FastFieldValuePrinterUtf8Escaping::PrintString(std::__cxx11::basic_string<char, std::char_traits<char>, std::allocator<char> > const&, google::protobuf::TextFormat::BaseTextGenerator*) const
PUBLIC 938c0 0 google::protobuf::TextFormat::FastFieldValuePrinter::PrintBool(bool, google::protobuf::TextFormat::BaseTextGenerator*) const
PUBLIC 938f0 0 google::protobuf::TextFormat::FastFieldValuePrinter::PrintMessageStart(google::protobuf::Message const&, int, int, bool, google::protobuf::TextFormat::BaseTextGenerator*) const
PUBLIC 93920 0 google::protobuf::TextFormat::FastFieldValuePrinter::PrintMessageEnd(google::protobuf::Message const&, int, int, bool, google::protobuf::TextFormat::BaseTextGenerator*) const
PUBLIC 93950 0 google::protobuf::(anonymous namespace)::StringBaseTextGenerator::Print(char const*, unsigned long)
PUBLIC 93980 0 google::protobuf::(anonymous namespace)::FieldValuePrinterWrapper::~FieldValuePrinterWrapper()
PUBLIC 939c0 0 void std::__unguarded_linear_insert<__gnu_cxx::__normal_iterator<google::protobuf::FieldDescriptor const**, std::vector<google::protobuf::FieldDescriptor const*, std::allocator<google::protobuf::FieldDescriptor const*> > >, __gnu_cxx::__ops::_Val_comp_iter<google::protobuf::(anonymous namespace)::FieldIndexSorter> >(__gnu_cxx::__normal_iterator<google::protobuf::FieldDescriptor const**, std::vector<google::protobuf::FieldDescriptor const*, std::allocator<google::protobuf::FieldDescriptor const*> > >, __gnu_cxx::__ops::_Val_comp_iter<google::protobuf::(anonymous namespace)::FieldIndexSorter>) [clone .isra.0]
PUBLIC 93a40 0 void std::__insertion_sort<__gnu_cxx::__normal_iterator<google::protobuf::FieldDescriptor const**, std::vector<google::protobuf::FieldDescriptor const*, std::allocator<google::protobuf::FieldDescriptor const*> > >, __gnu_cxx::__ops::_Iter_comp_iter<google::protobuf::(anonymous namespace)::FieldIndexSorter> >(__gnu_cxx::__normal_iterator<google::protobuf::FieldDescriptor const**, std::vector<google::protobuf::FieldDescriptor const*, std::allocator<google::protobuf::FieldDescriptor const*> > >, __gnu_cxx::__normal_iterator<google::protobuf::FieldDescriptor const**, std::vector<google::protobuf::FieldDescriptor const*, std::allocator<google::protobuf::FieldDescriptor const*> > >, __gnu_cxx::__ops::_Iter_comp_iter<google::protobuf::(anonymous namespace)::FieldIndexSorter>) [clone .isra.0]
PUBLIC 93b20 0 void std::__adjust_heap<__gnu_cxx::__normal_iterator<google::protobuf::FieldDescriptor const**, std::vector<google::protobuf::FieldDescriptor const*, std::allocator<google::protobuf::FieldDescriptor const*> > >, long, google::protobuf::FieldDescriptor const*, __gnu_cxx::__ops::_Iter_comp_iter<google::protobuf::(anonymous namespace)::FieldIndexSorter> >(__gnu_cxx::__normal_iterator<google::protobuf::FieldDescriptor const**, std::vector<google::protobuf::FieldDescriptor const*, std::allocator<google::protobuf::FieldDescriptor const*> > >, long, long, google::protobuf::FieldDescriptor const*, __gnu_cxx::__ops::_Iter_comp_iter<google::protobuf::(anonymous namespace)::FieldIndexSorter>) [clone .isra.0]
PUBLIC 93d50 0 void std::__introsort_loop<__gnu_cxx::__normal_iterator<google::protobuf::FieldDescriptor const**, std::vector<google::protobuf::FieldDescriptor const*, std::allocator<google::protobuf::FieldDescriptor const*> > >, long, __gnu_cxx::__ops::_Iter_comp_iter<google::protobuf::(anonymous namespace)::FieldIndexSorter> >(__gnu_cxx::__normal_iterator<google::protobuf::FieldDescriptor const**, std::vector<google::protobuf::FieldDescriptor const*, std::allocator<google::protobuf::FieldDescriptor const*> > >, __gnu_cxx::__normal_iterator<google::protobuf::FieldDescriptor const**, std::vector<google::protobuf::FieldDescriptor const*, std::allocator<google::protobuf::FieldDescriptor const*> > >, long, __gnu_cxx::__ops::_Iter_comp_iter<google::protobuf::(anonymous namespace)::FieldIndexSorter>)
PUBLIC 94180 0 google::protobuf::CheckFieldIndex(google::protobuf::FieldDescriptor const*, int)
PUBLIC 94290 0 google::protobuf::TextFormat::ParseInfoTree::GetLocation(google::protobuf::FieldDescriptor const*, int) const
PUBLIC 94330 0 google::protobuf::TextFormat::ParseInfoTree::GetTreeForNested(google::protobuf::FieldDescriptor const*, int) const
PUBLIC 943c0 0 google::protobuf::(anonymous namespace)::CheckParseInputSize(google::protobuf::StringPiece, google::protobuf::io::ErrorCollector*) [clone .isra.0]
PUBLIC 94550 0 google::protobuf::TextFormat::Parser::Parser()
PUBLIC 94580 0 google::protobuf::TextFormat::Parser::~Parser()
PUBLIC 94590 0 google::protobuf::TextFormat::BaseTextGenerator::~BaseTextGenerator()
PUBLIC 945a0 0 google::protobuf::(anonymous namespace)::StringBaseTextGenerator::~StringBaseTextGenerator()
PUBLIC 945d0 0 google::protobuf::(anonymous namespace)::StringBaseTextGenerator::~StringBaseTextGenerator()
PUBLIC 94610 0 google::protobuf::TextFormat::BaseTextGenerator::~BaseTextGenerator()
PUBLIC 94630 0 google::protobuf::TextFormat::FastFieldValuePrinter::FastFieldValuePrinter()
PUBLIC 94640 0 google::protobuf::TextFormat::FieldValuePrinter::FieldValuePrinter()
PUBLIC 94660 0 google::protobuf::TextFormat::Printer::SetDefaultFieldValuePrinter(google::protobuf::TextFormat::FieldValuePrinter const*)
PUBLIC 946c0 0 google::protobuf::TextFormat::Printer::SetDefaultFieldValuePrinter(google::protobuf::TextFormat::FastFieldValuePrinter const*)
PUBLIC 946f0 0 google::protobuf::TextFormat::Printer::SetUseUtf8StringEscaping(bool)
PUBLIC 94770 0 google::protobuf::TextFormat::FastFieldValuePrinter::PrintFieldName(google::protobuf::Message const&, google::protobuf::Reflection const*, google::protobuf::FieldDescriptor const*, google::protobuf::TextFormat::BaseTextGenerator*) const
PUBLIC 94830 0 google::protobuf::TextFormat::Printer::Printer()
PUBLIC 948c0 0 google::protobuf::TextFormat::Printer::RegisterFieldValuePrinter(google::protobuf::FieldDescriptor const*, google::protobuf::TextFormat::FieldValuePrinter const*)
PUBLIC 949d0 0 google::protobuf::TextFormat::Printer::RegisterFieldValuePrinter(google::protobuf::FieldDescriptor const*, google::protobuf::TextFormat::FastFieldValuePrinter const*)
PUBLIC 94a40 0 google::protobuf::TextFormat::Printer::RegisterMessagePrinter(google::protobuf::Descriptor const*, google::protobuf::TextFormat::MessagePrinter const*)
PUBLIC 94ab0 0 google::protobuf::TextFormat::FastFieldValuePrinter::PrintInt32(int, google::protobuf::TextFormat::BaseTextGenerator*) const
PUBLIC 94b20 0 google::protobuf::TextFormat::FastFieldValuePrinter::PrintUInt32(unsigned int, google::protobuf::TextFormat::BaseTextGenerator*) const
PUBLIC 94b90 0 google::protobuf::TextFormat::FastFieldValuePrinter::PrintInt64(long, google::protobuf::TextFormat::BaseTextGenerator*) const
PUBLIC 94c00 0 google::protobuf::TextFormat::FastFieldValuePrinter::PrintUInt64(unsigned long, google::protobuf::TextFormat::BaseTextGenerator*) const
PUBLIC 94c70 0 google::protobuf::TextFormat::Printer::PrintFieldName(google::protobuf::Message const&, int, int, google::protobuf::Reflection const*, google::protobuf::FieldDescriptor const*, google::protobuf::TextFormat::Printer::TextGenerator*) const
PUBLIC 94d60 0 google::protobuf::TextFormat::Printer::PrintUnknownFields(google::protobuf::UnknownFieldSet const&, google::protobuf::TextFormat::Printer::TextGenerator*, int) const [clone .localalias]
PUBLIC 95490 0 google::protobuf::TextFormat::Printer::PrintUnknownFields(google::protobuf::UnknownFieldSet const&, google::protobuf::io::ZeroCopyOutputStream*) const
PUBLIC 95530 0 google::protobuf::TextFormat::PrintUnknownFields(google::protobuf::UnknownFieldSet const&, google::protobuf::io::ZeroCopyOutputStream*)
PUBLIC 955b0 0 google::protobuf::TextFormat::Printer::PrintUnknownFieldsToString(google::protobuf::UnknownFieldSet const&, std::__cxx11::basic_string<char, std::char_traits<char>, std::allocator<char> >*) const
PUBLIC 95600 0 google::protobuf::TextFormat::PrintUnknownFieldsToString(google::protobuf::UnknownFieldSet const&, std::__cxx11::basic_string<char, std::char_traits<char>, std::allocator<char> >*)
PUBLIC 95680 0 google::protobuf::TextFormat::FastFieldValuePrinter::PrintFloat(float, google::protobuf::TextFormat::BaseTextGenerator*) const
PUBLIC 956f0 0 google::protobuf::TextFormat::FastFieldValuePrinter::PrintDouble(double, google::protobuf::TextFormat::BaseTextGenerator*) const
PUBLIC 95760 0 google::protobuf::TextFormat::FieldValuePrinter::PrintBool[abi:cxx11](bool) const
PUBLIC 95800 0 google::protobuf::TextFormat::FieldValuePrinter::PrintInt32[abi:cxx11](int) const
PUBLIC 958a0 0 google::protobuf::TextFormat::FieldValuePrinter::PrintUInt32[abi:cxx11](unsigned int) const
PUBLIC 95940 0 google::protobuf::TextFormat::FieldValuePrinter::PrintInt64[abi:cxx11](long) const
PUBLIC 959e0 0 google::protobuf::TextFormat::FieldValuePrinter::PrintUInt64[abi:cxx11](unsigned long) const
PUBLIC 95a80 0 google::protobuf::TextFormat::FieldValuePrinter::PrintFloat[abi:cxx11](float) const
PUBLIC 95b10 0 google::protobuf::TextFormat::FieldValuePrinter::PrintDouble[abi:cxx11](double) const
PUBLIC 95ba0 0 google::protobuf::TextFormat::FieldValuePrinter::PrintString(std::__cxx11::basic_string<char, std::char_traits<char>, std::allocator<char> > const&) const
PUBLIC 95c40 0 google::protobuf::TextFormat::FieldValuePrinter::PrintEnum(int, std::__cxx11::basic_string<char, std::char_traits<char>, std::allocator<char> > const&) const
PUBLIC 95ce0 0 google::protobuf::TextFormat::FieldValuePrinter::PrintFieldName[abi:cxx11](google::protobuf::Message const&, google::protobuf::Reflection const*, google::protobuf::FieldDescriptor const*) const
PUBLIC 95d80 0 google::protobuf::TextFormat::FieldValuePrinter::PrintMessageStart[abi:cxx11](google::protobuf::Message const&, int, int, bool) const
PUBLIC 95e20 0 google::protobuf::TextFormat::FieldValuePrinter::PrintMessageEnd[abi:cxx11](google::protobuf::Message const&, int, int, bool) const
PUBLIC 95ec0 0 google::protobuf::internal::MapFieldPrinterHelper::CopyKey(google::protobuf::MapKey const&, google::protobuf::Message*, google::protobuf::FieldDescriptor const*)
PUBLIC 96880 0 google::protobuf::internal::MapFieldPrinterHelper::CopyValue(google::protobuf::MapValueRef const&, google::protobuf::Message*, google::protobuf::FieldDescriptor const*)
PUBLIC 978b0 0 google::protobuf::TextFormat::ParseInfoTree::RecordLocation(google::protobuf::FieldDescriptor const*, google::protobuf::TextFormat::ParseLocation)
PUBLIC 97a00 0 google::protobuf::TextFormat::ParseInfoTree::CreateNested(google::protobuf::FieldDescriptor const*)
PUBLIC 97bd0 0 google::protobuf::internal::MapFieldPrinterHelper::SortMap(google::protobuf::Message const&, google::protobuf::Reflection const*, google::protobuf::FieldDescriptor const*, google::protobuf::MessageFactory*, std::vector<google::protobuf::Message const*, std::allocator<google::protobuf::Message const*> >*)
PUBLIC 97e90 0 google::protobuf::TextFormat::Parser::MergeUsingImpl(google::protobuf::io::ZeroCopyInputStream*, google::protobuf::Message*, google::protobuf::TextFormat::Parser::ParserImpl*)
PUBLIC 98100 0 google::protobuf::TextFormat::Parser::Parse(google::protobuf::io::ZeroCopyInputStream*, google::protobuf::Message*)
PUBLIC 982a0 0 google::protobuf::TextFormat::Parser::ParseFromString(std::__cxx11::basic_string<char, std::char_traits<char>, std::allocator<char> > const&, google::protobuf::Message*)
PUBLIC 98300 0 google::protobuf::TextFormat::ParseFromString(std::__cxx11::basic_string<char, std::char_traits<char>, std::allocator<char> > const&, google::protobuf::Message*)
PUBLIC 98350 0 google::protobuf::TextFormat::Parse(google::protobuf::io::ZeroCopyInputStream*, google::protobuf::Message*)
PUBLIC 983a0 0 google::protobuf::TextFormat::Parser::Merge(google::protobuf::io::ZeroCopyInputStream*, google::protobuf::Message*)
PUBLIC 98520 0 google::protobuf::TextFormat::Parser::MergeFromString(std::__cxx11::basic_string<char, std::char_traits<char>, std::allocator<char> > const&, google::protobuf::Message*)
PUBLIC 98580 0 google::protobuf::TextFormat::MergeFromString(std::__cxx11::basic_string<char, std::char_traits<char>, std::allocator<char> > const&, google::protobuf::Message*)
PUBLIC 985d0 0 google::protobuf::TextFormat::Merge(google::protobuf::io::ZeroCopyInputStream*, google::protobuf::Message*)
PUBLIC 98620 0 google::protobuf::TextFormat::Parser::ParseFieldValueFromString(std::__cxx11::basic_string<char, std::char_traits<char>, std::allocator<char> > const&, google::protobuf::FieldDescriptor const*, google::protobuf::Message*)
PUBLIC 98830 0 google::protobuf::TextFormat::ParseFieldValueFromString(std::__cxx11::basic_string<char, std::char_traits<char>, std::allocator<char> > const&, google::protobuf::FieldDescriptor const*, google::protobuf::Message*)
PUBLIC 98890 0 google::protobuf::TextFormat::Printer::PrintField(google::protobuf::Message const&, google::protobuf::Reflection const*, google::protobuf::FieldDescriptor const*, google::protobuf::TextFormat::Printer::TextGenerator*) const
PUBLIC 999b0 0 google::protobuf::TextFormat::Printer::Print(google::protobuf::Message const&, google::protobuf::TextFormat::Printer::TextGenerator*) const
PUBLIC 99d20 0 google::protobuf::TextFormat::Printer::PrintAny(google::protobuf::Message const&, google::protobuf::TextFormat::Printer::TextGenerator*) const
PUBLIC 9a1d0 0 google::protobuf::TextFormat::Printer::Print(google::protobuf::Message const&, google::protobuf::io::ZeroCopyOutputStream*) const
PUBLIC 9a270 0 google::protobuf::TextFormat::Printer::PrintToString(google::protobuf::Message const&, std::__cxx11::basic_string<char, std::char_traits<char>, std::allocator<char> >*) const
PUBLIC 9a2c0 0 google::protobuf::Message::DebugString[abi:cxx11]() const
PUBLIC 9a360 0 google::protobuf::Message::PrintDebugString() const
PUBLIC 9a3b0 0 google::protobuf::Message::ShortDebugString[abi:cxx11]() const
PUBLIC 9a480 0 google::protobuf::Message::Utf8DebugString[abi:cxx11]() const
PUBLIC 9a520 0 google::protobuf::TextFormat::PrintToString(google::protobuf::Message const&, std::__cxx11::basic_string<char, std::char_traits<char>, std::allocator<char> >*)
PUBLIC 9a5a0 0 google::protobuf::TextFormat::Print(google::protobuf::Message const&, google::protobuf::io::ZeroCopyOutputStream*)
PUBLIC 9a620 0 google::protobuf::TextFormat::Printer::PrintFieldValue(google::protobuf::Message const&, google::protobuf::Reflection const*, google::protobuf::FieldDescriptor const*, int, google::protobuf::TextFormat::Printer::TextGenerator*) const
PUBLIC 9ac20 0 google::protobuf::TextFormat::Printer::PrintFieldValueToString(google::protobuf::Message const&, google::protobuf::FieldDescriptor const*, int, std::__cxx11::basic_string<char, std::char_traits<char>, std::allocator<char> >*) const
PUBLIC 9ad00 0 google::protobuf::TextFormat::PrintFieldValueToString(google::protobuf::Message const&, google::protobuf::FieldDescriptor const*, int, std::__cxx11::basic_string<char, std::char_traits<char>, std::allocator<char> >*)
PUBLIC 9ad80 0 google::protobuf::TextFormat::Printer::PrintShortRepeatedField(google::protobuf::Message const&, google::protobuf::Reflection const*, google::protobuf::FieldDescriptor const*, google::protobuf::TextFormat::Printer::TextGenerator*) const
PUBLIC 9b7d0 0 google::protobuf::TextFormat::BaseTextGenerator::Indent()
PUBLIC 9b7e0 0 google::protobuf::TextFormat::BaseTextGenerator::Outdent()
PUBLIC 9b7f0 0 google::protobuf::TextFormat::BaseTextGenerator::GetCurrentIndentationSize() const
PUBLIC 9b800 0 google::protobuf::TextFormat::Printer::TextGenerator::Indent()
PUBLIC 9b810 0 google::protobuf::TextFormat::Printer::TextGenerator::GetCurrentIndentationSize() const
PUBLIC 9b820 0 std::call_once<void (*)(google::protobuf::FieldDescriptor const*), google::protobuf::FieldDescriptor const*>(std::once_flag&, void (*&&)(google::protobuf::FieldDescriptor const*), google::protobuf::FieldDescriptor const*&&)::{lambda()#2}::_FUN()
PUBLIC 9b850 0 google::protobuf::TextFormat::Printer::TextGenerator::Outdent()
PUBLIC 9b8d0 0 google::protobuf::TextFormat::Parser::ParserImpl::ParserErrorCollector::~ParserErrorCollector()
PUBLIC 9b8f0 0 google::protobuf::TextFormat::Parser::ParserImpl::ParserErrorCollector::~ParserErrorCollector()
PUBLIC 9b920 0 google::protobuf::TextFormat::Printer::TextGenerator::Print(char const*, unsigned long)
PUBLIC 9bed0 0 google::protobuf::TextFormat::Parser::ParserImpl::ParserErrorCollector::AddWarning(int, int, std::__cxx11::basic_string<char, std::char_traits<char>, std::allocator<char> > const&)
PUBLIC 9c050 0 google::protobuf::UnknownFieldSet::~UnknownFieldSet()
PUBLIC 9c080 0 google::protobuf::MapKey::type() const
PUBLIC 9c120 0 google::protobuf::MapValueRef::type() const
PUBLIC 9c1c0 0 google::protobuf::MapIterator::~MapIterator()
PUBLIC 9c200 0 google::protobuf::TextFormat::Parser::ParserImpl::ReportError(int, int, std::__cxx11::basic_string<char, std::char_traits<char>, std::allocator<char> > const&)
PUBLIC 9c3a0 0 google::protobuf::TextFormat::Parser::ParserImpl::ParserErrorCollector::AddError(int, int, std::__cxx11::basic_string<char, std::char_traits<char>, std::allocator<char> > const&)
PUBLIC 9c3b0 0 google::protobuf::TextFormat::Parser::ParserImpl::ReportWarning(int, int, std::__cxx11::basic_string<char, std::char_traits<char>, std::allocator<char> > const&)
PUBLIC 9c530 0 google::protobuf::TextFormat::Printer::TextGenerator::~TextGenerator()
PUBLIC 9c570 0 google::protobuf::TextFormat::Printer::TextGenerator::~TextGenerator()
PUBLIC 9c5b0 0 __gnu_cxx::__enable_if<std::__is_char<char>::__value, bool>::__type std::operator==<char>(std::__cxx11::basic_string<char, std::char_traits<char>, std::allocator<char> > const&, std::__cxx11::basic_string<char, std::char_traits<char>, std::allocator<char> > const&)
PUBLIC 9c5f0 0 std::__cxx11::basic_string<char, std::char_traits<char>, std::allocator<char> > std::operator+<char, std::char_traits<char>, std::allocator<char> >(char const*, std::__cxx11::basic_string<char, std::char_traits<char>, std::allocator<char> > const&)
PUBLIC 9c6a0 0 google::protobuf::TextFormat::Parser::ParserImpl::ConsumeIdentifier(std::__cxx11::basic_string<char, std::char_traits<char>, std::allocator<char> >*)
PUBLIC 9c770 0 google::protobuf::TextFormat::Parser::ParserImpl::Consume(std::__cxx11::basic_string<char, std::char_traits<char>, std::allocator<char> > const&)
PUBLIC 9ca30 0 google::protobuf::TextFormat::Parser::ParserImpl::ConsumeUnsignedInteger(unsigned long*, unsigned long)
PUBLIC 9cc00 0 std::__cxx11::basic_string<char, std::char_traits<char>, std::allocator<char> > std::operator+<char, std::char_traits<char>, std::allocator<char> >(std::__cxx11::basic_string<char, std::char_traits<char>, std::allocator<char> >&&, std::__cxx11::basic_string<char, std::char_traits<char>, std::allocator<char> > const&)
PUBLIC 9cc70 0 std::__cxx11::basic_string<char, std::char_traits<char>, std::allocator<char> > std::operator+<char, std::char_traits<char>, std::allocator<char> >(std::__cxx11::basic_string<char, std::char_traits<char>, std::allocator<char> >&&, char const*)
PUBLIC 9cd10 0 void std::call_once<void (*)(google::protobuf::FieldDescriptor const*), google::protobuf::FieldDescriptor const*>(std::once_flag&, void (*&&)(google::protobuf::FieldDescriptor const*), google::protobuf::FieldDescriptor const*&&)
PUBLIC 9cd80 0 google::protobuf::MapEntryMessageComparator::operator()(google::protobuf::Message const*, google::protobuf::Message const*)
PUBLIC 9d070 0 std::_Rb_tree<google::protobuf::FieldDescriptor const*, std::pair<google::protobuf::FieldDescriptor const* const, std::unique_ptr<google::protobuf::TextFormat::FastFieldValuePrinter const, std::default_delete<google::protobuf::TextFormat::FastFieldValuePrinter const> > >, std::_Select1st<std::pair<google::protobuf::FieldDescriptor const* const, std::unique_ptr<google::protobuf::TextFormat::FastFieldValuePrinter const, std::default_delete<google::protobuf::TextFormat::FastFieldValuePrinter const> > > >, std::less<google::protobuf::FieldDescriptor const*>, std::allocator<std::pair<google::protobuf::FieldDescriptor const* const, std::unique_ptr<google::protobuf::TextFormat::FastFieldValuePrinter const, std::default_delete<google::protobuf::TextFormat::FastFieldValuePrinter const> > > > >::_M_erase(std::_Rb_tree_node<std::pair<google::protobuf::FieldDescriptor const* const, std::unique_ptr<google::protobuf::TextFormat::FastFieldValuePrinter const, std::default_delete<google::protobuf::TextFormat::FastFieldValuePrinter const> > > >*)
PUBLIC 9d0c0 0 std::_Rb_tree<google::protobuf::Descriptor const*, std::pair<google::protobuf::Descriptor const* const, std::unique_ptr<google::protobuf::TextFormat::MessagePrinter const, std::default_delete<google::protobuf::TextFormat::MessagePrinter const> > >, std::_Select1st<std::pair<google::protobuf::Descriptor const* const, std::unique_ptr<google::protobuf::TextFormat::MessagePrinter const, std::default_delete<google::protobuf::TextFormat::MessagePrinter const> > > >, std::less<google::protobuf::Descriptor const*>, std::allocator<std::pair<google::protobuf::Descriptor const* const, std::unique_ptr<google::protobuf::TextFormat::MessagePrinter const, std::default_delete<google::protobuf::TextFormat::MessagePrinter const> > > > >::_M_erase(std::_Rb_tree_node<std::pair<google::protobuf::Descriptor const* const, std::unique_ptr<google::protobuf::TextFormat::MessagePrinter const, std::default_delete<google::protobuf::TextFormat::MessagePrinter const> > > >*)
PUBLIC 9d110 0 google::protobuf::TextFormat::Printer::~Printer()
PUBLIC 9d150 0 void std::vector<google::protobuf::TextFormat::ParseLocation, std::allocator<google::protobuf::TextFormat::ParseLocation> >::_M_realloc_insert<google::protobuf::TextFormat::ParseLocation const&>(__gnu_cxx::__normal_iterator<google::protobuf::TextFormat::ParseLocation*, std::vector<google::protobuf::TextFormat::ParseLocation, std::allocator<google::protobuf::TextFormat::ParseLocation> > >, google::protobuf::TextFormat::ParseLocation const&)
PUBLIC 9d2c0 0 std::_Rb_tree<google::protobuf::FieldDescriptor const*, std::pair<google::protobuf::FieldDescriptor const* const, std::vector<google::protobuf::TextFormat::ParseLocation, std::allocator<google::protobuf::TextFormat::ParseLocation> > >, std::_Select1st<std::pair<google::protobuf::FieldDescriptor const* const, std::vector<google::protobuf::TextFormat::ParseLocation, std::allocator<google::protobuf::TextFormat::ParseLocation> > > >, std::less<google::protobuf::FieldDescriptor const*>, std::allocator<std::pair<google::protobuf::FieldDescriptor const* const, std::vector<google::protobuf::TextFormat::ParseLocation, std::allocator<google::protobuf::TextFormat::ParseLocation> > > > >::_M_erase(std::_Rb_tree_node<std::pair<google::protobuf::FieldDescriptor const* const, std::vector<google::protobuf::TextFormat::ParseLocation, std::allocator<google::protobuf::TextFormat::ParseLocation> > > >*)
PUBLIC 9d310 0 std::_Rb_tree<google::protobuf::FieldDescriptor const*, std::pair<google::protobuf::FieldDescriptor const* const, std::vector<std::unique_ptr<google::protobuf::TextFormat::ParseInfoTree, std::default_delete<google::protobuf::TextFormat::ParseInfoTree> >, std::allocator<std::unique_ptr<google::protobuf::TextFormat::ParseInfoTree, std::default_delete<google::protobuf::TextFormat::ParseInfoTree> > > > >, std::_Select1st<std::pair<google::protobuf::FieldDescriptor const* const, std::vector<std::unique_ptr<google::protobuf::TextFormat::ParseInfoTree, std::default_delete<google::protobuf::TextFormat::ParseInfoTree> >, std::allocator<std::unique_ptr<google::protobuf::TextFormat::ParseInfoTree, std::default_delete<google::protobuf::TextFormat::ParseInfoTree> > > > > >, std::less<google::protobuf::FieldDescriptor const*>, std::allocator<std::pair<google::protobuf::FieldDescriptor const* const, std::vector<std::unique_ptr<google::protobuf::TextFormat::ParseInfoTree, std::default_delete<google::protobuf::TextFormat::ParseInfoTree> >, std::allocator<std::unique_ptr<google::protobuf::TextFormat::ParseInfoTree, std::default_delete<google::protobuf::TextFormat::ParseInfoTree> > > > > > >::_M_erase(std::_Rb_tree_node<std::pair<google::protobuf::FieldDescriptor const* const, std::vector<std::unique_ptr<google::protobuf::TextFormat::ParseInfoTree, std::default_delete<google::protobuf::TextFormat::ParseInfoTree> >, std::allocator<std::unique_ptr<google::protobuf::TextFormat::ParseInfoTree, std::default_delete<google::protobuf::TextFormat::ParseInfoTree> > > > > >*)
PUBLIC 9d3d0 0 void std::vector<std::unique_ptr<google::protobuf::TextFormat::ParseInfoTree, std::default_delete<google::protobuf::TextFormat::ParseInfoTree> >, std::allocator<std::unique_ptr<google::protobuf::TextFormat::ParseInfoTree, std::default_delete<google::protobuf::TextFormat::ParseInfoTree> > > >::_M_realloc_insert<google::protobuf::TextFormat::ParseInfoTree*>(__gnu_cxx::__normal_iterator<std::unique_ptr<google::protobuf::TextFormat::ParseInfoTree, std::default_delete<google::protobuf::TextFormat::ParseInfoTree> >*, std::vector<std::unique_ptr<google::protobuf::TextFormat::ParseInfoTree, std::default_delete<google::protobuf::TextFormat::ParseInfoTree> >, std::allocator<std::unique_ptr<google::protobuf::TextFormat::ParseInfoTree, std::default_delete<google::protobuf::TextFormat::ParseInfoTree> > > > >, google::protobuf::TextFormat::ParseInfoTree*&&)
PUBLIC 9d590 0 std::pair<std::_Rb_tree_iterator<std::pair<google::protobuf::FieldDescriptor const* const, std::unique_ptr<google::protobuf::TextFormat::FastFieldValuePrinter const, std::default_delete<google::protobuf::TextFormat::FastFieldValuePrinter const> > > >, bool> std::_Rb_tree<google::protobuf::FieldDescriptor const*, std::pair<google::protobuf::FieldDescriptor const* const, std::unique_ptr<google::protobuf::TextFormat::FastFieldValuePrinter const, std::default_delete<google::protobuf::TextFormat::FastFieldValuePrinter const> > >, std::_Select1st<std::pair<google::protobuf::FieldDescriptor const* const, std::unique_ptr<google::protobuf::TextFormat::FastFieldValuePrinter const, std::default_delete<google::protobuf::TextFormat::FastFieldValuePrinter const> > > >, std::less<google::protobuf::FieldDescriptor const*>, std::allocator<std::pair<google::protobuf::FieldDescriptor const* const, std::unique_ptr<google::protobuf::TextFormat::FastFieldValuePrinter const, std::default_delete<google::protobuf::TextFormat::FastFieldValuePrinter const> > > > >::_M_emplace_unique<std::pair<google::protobuf::FieldDescriptor const*, decltype(nullptr)> >(std::pair<google::protobuf::FieldDescriptor const*, decltype(nullptr)>&&)
PUBLIC 9d680 0 std::pair<std::_Rb_tree_iterator<std::pair<google::protobuf::Descriptor const* const, std::unique_ptr<google::protobuf::TextFormat::MessagePrinter const, std::default_delete<google::protobuf::TextFormat::MessagePrinter const> > > >, bool> std::_Rb_tree<google::protobuf::Descriptor const*, std::pair<google::protobuf::Descriptor const* const, std::unique_ptr<google::protobuf::TextFormat::MessagePrinter const, std::default_delete<google::protobuf::TextFormat::MessagePrinter const> > >, std::_Select1st<std::pair<google::protobuf::Descriptor const* const, std::unique_ptr<google::protobuf::TextFormat::MessagePrinter const, std::default_delete<google::protobuf::TextFormat::MessagePrinter const> > > >, std::less<google::protobuf::Descriptor const*>, std::allocator<std::pair<google::protobuf::Descriptor const* const, std::unique_ptr<google::protobuf::TextFormat::MessagePrinter const, std::default_delete<google::protobuf::TextFormat::MessagePrinter const> > > > >::_M_emplace_unique<std::pair<google::protobuf::Descriptor const*, decltype(nullptr)> >(std::pair<google::protobuf::Descriptor const*, decltype(nullptr)>&&)
PUBLIC 9d770 0 void std::vector<google::protobuf::Message const*, std::allocator<google::protobuf::Message const*> >::_M_realloc_insert<google::protobuf::Message const*>(__gnu_cxx::__normal_iterator<google::protobuf::Message const**, std::vector<google::protobuf::Message const*, std::allocator<google::protobuf::Message const*> > >, google::protobuf::Message const*&&)
PUBLIC 9d8c0 0 google::protobuf::Message const*& std::vector<google::protobuf::Message const*, std::allocator<google::protobuf::Message const*> >::emplace_back<google::protobuf::Message const*>(google::protobuf::Message const*&&)
PUBLIC 9d900 0 void std::vector<google::protobuf::FieldDescriptor const*, std::allocator<google::protobuf::FieldDescriptor const*> >::_M_realloc_insert<google::protobuf::FieldDescriptor const*>(__gnu_cxx::__normal_iterator<google::protobuf::FieldDescriptor const**, std::vector<google::protobuf::FieldDescriptor const*, std::allocator<google::protobuf::FieldDescriptor const*> > >, google::protobuf::FieldDescriptor const*&&)
PUBLIC 9da50 0 google::protobuf::FieldDescriptor const*& std::vector<google::protobuf::FieldDescriptor const*, std::allocator<google::protobuf::FieldDescriptor const*> >::emplace_back<google::protobuf::FieldDescriptor const*>(google::protobuf::FieldDescriptor const*&&)
PUBLIC 9da90 0 std::__cxx11::basic_string<char, std::char_traits<char>, std::allocator<char> >::basic_string<std::allocator<char> >(char const*, std::allocator<char> const&) [clone .constprop.0]
PUBLIC 9dad0 0 google::protobuf::TextFormat::Parser::ParserImpl::ConsumeFullTypeName(std::__cxx11::basic_string<char, std::char_traits<char>, std::allocator<char> >*)
PUBLIC 9e1d0 0 google::protobuf::TextFormat::Parser::ParserImpl::ConsumeSignedInteger(long*, unsigned long)
PUBLIC 9e460 0 google::protobuf::TextFormat::Parser::ParserImpl::SkipFieldValue()
PUBLIC 9ec30 0 google::protobuf::TextFormat::Parser::ParserImpl::SkipField()
PUBLIC 9f5b0 0 google::protobuf::TextFormat::Parser::ParserImpl::SkipFieldMessage()
PUBLIC 9f870 0 google::protobuf::TextFormat::Parser::ParserImpl::ConsumeDouble(double*)
PUBLIC 9fc00 0 google::protobuf::TextFormat::Parser::ParserImpl::ConsumeFieldValue(google::protobuf::Message*, google::protobuf::Reflection const*, google::protobuf::FieldDescriptor const*)
PUBLIC a0970 0 std::_Rb_tree<google::protobuf::FieldDescriptor const*, std::pair<google::protobuf::FieldDescriptor const* const, std::vector<google::protobuf::TextFormat::ParseLocation, std::allocator<google::protobuf::TextFormat::ParseLocation> > >, std::_Select1st<std::pair<google::protobuf::FieldDescriptor const* const, std::vector<google::protobuf::TextFormat::ParseLocation, std::allocator<google::protobuf::TextFormat::ParseLocation> > > >, std::less<google::protobuf::FieldDescriptor const*>, std::allocator<std::pair<google::protobuf::FieldDescriptor const* const, std::vector<google::protobuf::TextFormat::ParseLocation, std::allocator<google::protobuf::TextFormat::ParseLocation> > > > >::_M_get_insert_unique_pos(google::protobuf::FieldDescriptor const* const&)
PUBLIC a0a10 0 std::_Rb_tree<google::protobuf::FieldDescriptor const*, std::pair<google::protobuf::FieldDescriptor const* const, std::vector<google::protobuf::TextFormat::ParseLocation, std::allocator<google::protobuf::TextFormat::ParseLocation> > >, std::_Select1st<std::pair<google::protobuf::FieldDescriptor const* const, std::vector<google::protobuf::TextFormat::ParseLocation, std::allocator<google::protobuf::TextFormat::ParseLocation> > > >, std::less<google::protobuf::FieldDescriptor const*>, std::allocator<std::pair<google::protobuf::FieldDescriptor const* const, std::vector<google::protobuf::TextFormat::ParseLocation, std::allocator<google::protobuf::TextFormat::ParseLocation> > > > >::_M_get_insert_hint_unique_pos(std::_Rb_tree_const_iterator<std::pair<google::protobuf::FieldDescriptor const* const, std::vector<google::protobuf::TextFormat::ParseLocation, std::allocator<google::protobuf::TextFormat::ParseLocation> > > >, google::protobuf::FieldDescriptor const* const&)
PUBLIC a0b20 0 std::_Rb_tree<google::protobuf::FieldDescriptor const*, std::pair<google::protobuf::FieldDescriptor const* const, std::vector<std::unique_ptr<google::protobuf::TextFormat::ParseInfoTree, std::default_delete<google::protobuf::TextFormat::ParseInfoTree> >, std::allocator<std::unique_ptr<google::protobuf::TextFormat::ParseInfoTree, std::default_delete<google::protobuf::TextFormat::ParseInfoTree> > > > >, std::_Select1st<std::pair<google::protobuf::FieldDescriptor const* const, std::vector<std::unique_ptr<google::protobuf::TextFormat::ParseInfoTree, std::default_delete<google::protobuf::TextFormat::ParseInfoTree> >, std::allocator<std::unique_ptr<google::protobuf::TextFormat::ParseInfoTree, std::default_delete<google::protobuf::TextFormat::ParseInfoTree> > > > > >, std::less<google::protobuf::FieldDescriptor const*>, std::allocator<std::pair<google::protobuf::FieldDescriptor const* const, std::vector<std::unique_ptr<google::protobuf::TextFormat::ParseInfoTree, std::default_delete<google::protobuf::TextFormat::ParseInfoTree> >, std::allocator<std::unique_ptr<google::protobuf::TextFormat::ParseInfoTree, std::default_delete<google::protobuf::TextFormat::ParseInfoTree> > > > > > >::_M_get_insert_unique_pos(google::protobuf::FieldDescriptor const* const&)
PUBLIC a0bc0 0 std::_Rb_tree<google::protobuf::FieldDescriptor const*, std::pair<google::protobuf::FieldDescriptor const* const, std::vector<std::unique_ptr<google::protobuf::TextFormat::ParseInfoTree, std::default_delete<google::protobuf::TextFormat::ParseInfoTree> >, std::allocator<std::unique_ptr<google::protobuf::TextFormat::ParseInfoTree, std::default_delete<google::protobuf::TextFormat::ParseInfoTree> > > > >, std::_Select1st<std::pair<google::protobuf::FieldDescriptor const* const, std::vector<std::unique_ptr<google::protobuf::TextFormat::ParseInfoTree, std::default_delete<google::protobuf::TextFormat::ParseInfoTree> >, std::allocator<std::unique_ptr<google::protobuf::TextFormat::ParseInfoTree, std::default_delete<google::protobuf::TextFormat::ParseInfoTree> > > > > >, std::less<google::protobuf::FieldDescriptor const*>, std::allocator<std::pair<google::protobuf::FieldDescriptor const* const, std::vector<std::unique_ptr<google::protobuf::TextFormat::ParseInfoTree, std::default_delete<google::protobuf::TextFormat::ParseInfoTree> >, std::allocator<std::unique_ptr<google::protobuf::TextFormat::ParseInfoTree, std::default_delete<google::protobuf::TextFormat::ParseInfoTree> > > > > > >::_M_get_insert_hint_unique_pos(std::_Rb_tree_const_iterator<std::pair<google::protobuf::FieldDescriptor const* const, std::vector<std::unique_ptr<google::protobuf::TextFormat::ParseInfoTree, std::default_delete<google::protobuf::TextFormat::ParseInfoTree> >, std::allocator<std::unique_ptr<google::protobuf::TextFormat::ParseInfoTree, std::default_delete<google::protobuf::TextFormat::ParseInfoTree> > > > > >, google::protobuf::FieldDescriptor const* const&)
PUBLIC a0cd0 0 void std::__insertion_sort<__gnu_cxx::__normal_iterator<google::protobuf::Message const**, std::vector<google::protobuf::Message const*, std::allocator<google::protobuf::Message const*> > >, __gnu_cxx::__ops::_Iter_comp_iter<google::protobuf::MapEntryMessageComparator> >(__gnu_cxx::__normal_iterator<google::protobuf::Message const**, std::vector<google::protobuf::Message const*, std::allocator<google::protobuf::Message const*> > >, __gnu_cxx::__normal_iterator<google::protobuf::Message const**, std::vector<google::protobuf::Message const*, std::allocator<google::protobuf::Message const*> > >, __gnu_cxx::__ops::_Iter_comp_iter<google::protobuf::MapEntryMessageComparator>)
PUBLIC a12f0 0 __gnu_cxx::__normal_iterator<google::protobuf::Message const**, std::vector<google::protobuf::Message const*, std::allocator<google::protobuf::Message const*> > > std::__lower_bound<__gnu_cxx::__normal_iterator<google::protobuf::Message const**, std::vector<google::protobuf::Message const*, std::allocator<google::protobuf::Message const*> > >, google::protobuf::Message const*, __gnu_cxx::__ops::_Iter_comp_val<google::protobuf::MapEntryMessageComparator> >(__gnu_cxx::__normal_iterator<google::protobuf::Message const**, std::vector<google::protobuf::Message const*, std::allocator<google::protobuf::Message const*> > >, __gnu_cxx::__normal_iterator<google::protobuf::Message const**, std::vector<google::protobuf::Message const*, std::allocator<google::protobuf::Message const*> > >, google::protobuf::Message const* const&, __gnu_cxx::__ops::_Iter_comp_val<google::protobuf::MapEntryMessageComparator>)
PUBLIC a1650 0 __gnu_cxx::__normal_iterator<google::protobuf::Message const**, std::vector<google::protobuf::Message const*, std::allocator<google::protobuf::Message const*> > > std::__upper_bound<__gnu_cxx::__normal_iterator<google::protobuf::Message const**, std::vector<google::protobuf::Message const*, std::allocator<google::protobuf::Message const*> > >, google::protobuf::Message const*, __gnu_cxx::__ops::_Val_comp_iter<google::protobuf::MapEntryMessageComparator> >(__gnu_cxx::__normal_iterator<google::protobuf::Message const**, std::vector<google::protobuf::Message const*, std::allocator<google::protobuf::Message const*> > >, __gnu_cxx::__normal_iterator<google::protobuf::Message const**, std::vector<google::protobuf::Message const*, std::allocator<google::protobuf::Message const*> > >, google::protobuf::Message const* const&, __gnu_cxx::__ops::_Val_comp_iter<google::protobuf::MapEntryMessageComparator>)
PUBLIC a19c0 0 __gnu_cxx::__normal_iterator<google::protobuf::Message const**, std::vector<google::protobuf::Message const*, std::allocator<google::protobuf::Message const*> > > std::_V2::__rotate<__gnu_cxx::__normal_iterator<google::protobuf::Message const**, std::vector<google::protobuf::Message const*, std::allocator<google::protobuf::Message const*> > > >(__gnu_cxx::__normal_iterator<google::protobuf::Message const**, std::vector<google::protobuf::Message const*, std::allocator<google::protobuf::Message const*> > >, __gnu_cxx::__normal_iterator<google::protobuf::Message const**, std::vector<google::protobuf::Message const*, std::allocator<google::protobuf::Message const*> > >, __gnu_cxx::__normal_iterator<google::protobuf::Message const**, std::vector<google::protobuf::Message const*, std::allocator<google::protobuf::Message const*> > >, std::random_access_iterator_tag)
PUBLIC a1b90 0 void std::__merge_without_buffer<__gnu_cxx::__normal_iterator<google::protobuf::Message const**, std::vector<google::protobuf::Message const*, std::allocator<google::protobuf::Message const*> > >, long, __gnu_cxx::__ops::_Iter_comp_iter<google::protobuf::MapEntryMessageComparator> >(__gnu_cxx::__normal_iterator<google::protobuf::Message const**, std::vector<google::protobuf::Message const*, std::allocator<google::protobuf::Message const*> > >, __gnu_cxx::__normal_iterator<google::protobuf::Message const**, std::vector<google::protobuf::Message const*, std::allocator<google::protobuf::Message const*> > >, __gnu_cxx::__normal_iterator<google::protobuf::Message const**, std::vector<google::protobuf::Message const*, std::allocator<google::protobuf::Message const*> > >, long, long, __gnu_cxx::__ops::_Iter_comp_iter<google::protobuf::MapEntryMessageComparator>)
PUBLIC a1cf0 0 void std::__inplace_stable_sort<__gnu_cxx::__normal_iterator<google::protobuf::Message const**, std::vector<google::protobuf::Message const*, std::allocator<google::protobuf::Message const*> > >, __gnu_cxx::__ops::_Iter_comp_iter<google::protobuf::MapEntryMessageComparator> >(__gnu_cxx::__normal_iterator<google::protobuf::Message const**, std::vector<google::protobuf::Message const*, std::allocator<google::protobuf::Message const*> > >, __gnu_cxx::__normal_iterator<google::protobuf::Message const**, std::vector<google::protobuf::Message const*, std::allocator<google::protobuf::Message const*> > >, __gnu_cxx::__ops::_Iter_comp_iter<google::protobuf::MapEntryMessageComparator>)
PUBLIC a1d70 0 void std::__merge_adaptive<__gnu_cxx::__normal_iterator<google::protobuf::Message const**, std::vector<google::protobuf::Message const*, std::allocator<google::protobuf::Message const*> > >, long, google::protobuf::Message const**, __gnu_cxx::__ops::_Iter_comp_iter<google::protobuf::MapEntryMessageComparator> >(__gnu_cxx::__normal_iterator<google::protobuf::Message const**, std::vector<google::protobuf::Message const*, std::allocator<google::protobuf::Message const*> > >, __gnu_cxx::__normal_iterator<google::protobuf::Message const**, std::vector<google::protobuf::Message const*, std::allocator<google::protobuf::Message const*> > >, __gnu_cxx::__normal_iterator<google::protobuf::Message const**, std::vector<google::protobuf::Message const*, std::allocator<google::protobuf::Message const*> > >, long, long, google::protobuf::Message const**, long, __gnu_cxx::__ops::_Iter_comp_iter<google::protobuf::MapEntryMessageComparator>)
PUBLIC a27f0 0 google::protobuf::Message const** std::__move_merge<__gnu_cxx::__normal_iterator<google::protobuf::Message const**, std::vector<google::protobuf::Message const*, std::allocator<google::protobuf::Message const*> > >, google::protobuf::Message const**, __gnu_cxx::__ops::_Iter_comp_iter<google::protobuf::MapEntryMessageComparator> >(__gnu_cxx::__normal_iterator<google::protobuf::Message const**, std::vector<google::protobuf::Message const*, std::allocator<google::protobuf::Message const*> > >, __gnu_cxx::__normal_iterator<google::protobuf::Message const**, std::vector<google::protobuf::Message const*, std::allocator<google::protobuf::Message const*> > >, __gnu_cxx::__normal_iterator<google::protobuf::Message const**, std::vector<google::protobuf::Message const*, std::allocator<google::protobuf::Message const*> > >, __gnu_cxx::__normal_iterator<google::protobuf::Message const**, std::vector<google::protobuf::Message const*, std::allocator<google::protobuf::Message const*> > >, google::protobuf::Message const**, __gnu_cxx::__ops::_Iter_comp_iter<google::protobuf::MapEntryMessageComparator>)
PUBLIC a2b90 0 __gnu_cxx::__normal_iterator<google::protobuf::Message const**, std::vector<google::protobuf::Message const*, std::allocator<google::protobuf::Message const*> > > std::__move_merge<google::protobuf::Message const**, __gnu_cxx::__normal_iterator<google::protobuf::Message const**, std::vector<google::protobuf::Message const*, std::allocator<google::protobuf::Message const*> > >, __gnu_cxx::__ops::_Iter_comp_iter<google::protobuf::MapEntryMessageComparator> >(google::protobuf::Message const**, google::protobuf::Message const**, google::protobuf::Message const**, google::protobuf::Message const**, __gnu_cxx::__normal_iterator<google::protobuf::Message const**, std::vector<google::protobuf::Message const*, std::allocator<google::protobuf::Message const*> > >, __gnu_cxx::__ops::_Iter_comp_iter<google::protobuf::MapEntryMessageComparator>)
PUBLIC a2f30 0 void std::__merge_sort_with_buffer<__gnu_cxx::__normal_iterator<google::protobuf::Message const**, std::vector<google::protobuf::Message const*, std::allocator<google::protobuf::Message const*> > >, google::protobuf::Message const**, __gnu_cxx::__ops::_Iter_comp_iter<google::protobuf::MapEntryMessageComparator> >(__gnu_cxx::__normal_iterator<google::protobuf::Message const**, std::vector<google::protobuf::Message const*, std::allocator<google::protobuf::Message const*> > >, __gnu_cxx::__normal_iterator<google::protobuf::Message const**, std::vector<google::protobuf::Message const*, std::allocator<google::protobuf::Message const*> > >, google::protobuf::Message const**, __gnu_cxx::__ops::_Iter_comp_iter<google::protobuf::MapEntryMessageComparator>)
PUBLIC a31b0 0 void std::__stable_sort_adaptive<__gnu_cxx::__normal_iterator<google::protobuf::Message const**, std::vector<google::protobuf::Message const*, std::allocator<google::protobuf::Message const*> > >, google::protobuf::Message const**, long, __gnu_cxx::__ops::_Iter_comp_iter<google::protobuf::MapEntryMessageComparator> >(__gnu_cxx::__normal_iterator<google::protobuf::Message const**, std::vector<google::protobuf::Message const*, std::allocator<google::protobuf::Message const*> > >, __gnu_cxx::__normal_iterator<google::protobuf::Message const**, std::vector<google::protobuf::Message const*, std::allocator<google::protobuf::Message const*> > >, google::protobuf::Message const**, long, __gnu_cxx::__ops::_Iter_comp_iter<google::protobuf::MapEntryMessageComparator>)
PUBLIC a3290 0 google::protobuf::TextFormat::Parser::ParserImpl::ConsumeAnyValue(google::protobuf::Descriptor const*, std::__cxx11::basic_string<char, std::char_traits<char>, std::allocator<char> >*)
PUBLIC a3640 0 google::protobuf::TextFormat::Parser::ParserImpl::ConsumeField(google::protobuf::Message*)
PUBLIC a5250 0 google::protobuf::TextFormat::Parser::ParserImpl::ConsumeMessage(google::protobuf::Message*, std::__cxx11::basic_string<char, std::char_traits<char>, std::allocator<char> >)
PUBLIC a53b0 0 google::protobuf::TextFormat::Parser::ParserImpl::ConsumeFieldMessage(google::protobuf::Message*, google::protobuf::Reflection const*, google::protobuf::FieldDescriptor const*)
PUBLIC a56b0 0 google::protobuf::UnknownFieldSet::default_instance()
PUBLIC a5750 0 google::protobuf::UnknownFieldSet::SpaceUsedLong() const
PUBLIC a5770 0 google::protobuf::UnknownFieldSet::SpaceUsedExcludingSelfLong() const
PUBLIC a5800 0 google::protobuf::UnknownField::Delete()
PUBLIC a5880 0 google::protobuf::UnknownFieldSet::ClearFallback()
PUBLIC a58e0 0 google::protobuf::UnknownFieldSet::DeleteSubrange(int, int)
PUBLIC a5990 0 google::protobuf::UnknownField::InternalSerializeLengthDelimitedNoTag(unsigned char*, google::protobuf::io::EpsCopyOutputStream*) const
PUBLIC a5a40 0 google::protobuf::UnknownFieldSet::AddGroup(int)
PUBLIC a5ac0 0 google::protobuf::UnknownFieldSet::MergeFrom(google::protobuf::UnknownFieldSet const&) [clone .localalias]
PUBLIC a5c30 0 google::protobuf::UnknownFieldSet::InternalMergeFrom(google::protobuf::UnknownFieldSet const&)
PUBLIC a5c40 0 google::protobuf::UnknownField::DeepCopy(google::protobuf::UnknownField const&)
PUBLIC a5d60 0 google::protobuf::UnknownFieldSet::AddVarint(int, unsigned long)
PUBLIC a5db0 0 google::protobuf::UnknownFieldSet::AddFixed32(int, unsigned int)
PUBLIC a5e00 0 google::protobuf::UnknownFieldSet::AddFixed64(int, unsigned long)
PUBLIC a5e50 0 google::protobuf::UnknownFieldSet::AddField(google::protobuf::UnknownField const&)
PUBLIC a5eb0 0 google::protobuf::UnknownFieldSet::AddLengthDelimited[abi:cxx11](int)
PUBLIC a5f30 0 google::protobuf::internal::UnknownGroupParse(google::protobuf::UnknownFieldSet*, char const*, google::protobuf::internal::ParseContext*)
PUBLIC a5f50 0 google::protobuf::internal::UnknownFieldParse(unsigned long, google::protobuf::UnknownFieldSet*, char const*, google::protobuf::internal::ParseContext*)
PUBLIC a5f70 0 google::protobuf::UnknownFieldSet::MergeToInternalMetadata(google::protobuf::UnknownFieldSet const&, google::protobuf::internal::InternalMetadata*)
PUBLIC a5fb0 0 google::protobuf::UnknownFieldSet::DeleteByNumber(int)
PUBLIC a6080 0 google::protobuf::UnknownFieldSet::MergeFromAndDestroy(google::protobuf::UnknownFieldSet*)
PUBLIC a60f0 0 google::protobuf::UnknownFieldSet::MergeFromCodedStream(google::protobuf::io::CodedInputStream*)
PUBLIC a6190 0 google::protobuf::UnknownFieldSet::ParseFromCodedStream(google::protobuf::io::CodedInputStream*)
PUBLIC a61c0 0 google::protobuf::UnknownFieldSet::ParseFromZeroCopyStream(google::protobuf::io::ZeroCopyInputStream*)
PUBLIC a6270 0 google::protobuf::UnknownFieldSet::ParseFromArray(void const*, int)
PUBLIC a62a0 0 void google::protobuf::internal::arena_destruct_object<google::protobuf::internal::InternalMetadata::Container<google::protobuf::UnknownFieldSet> >(void*)
PUBLIC a62e0 0 google::protobuf::internal::OnShutdownDelete<google::protobuf::UnknownFieldSet>(google::protobuf::UnknownFieldSet*)::{lambda(void const*)#1}::_FUN(void const*)
PUBLIC a6330 0 void std::vector<google::protobuf::UnknownField, std::allocator<google::protobuf::UnknownField> >::_M_realloc_insert<google::protobuf::UnknownField const&>(__gnu_cxx::__normal_iterator<google::protobuf::UnknownField*, std::vector<google::protobuf::UnknownField, std::allocator<google::protobuf::UnknownField> > >, google::protobuf::UnknownField const&)
PUBLIC a6480 0 char const* google::protobuf::internal::FieldParser<google::protobuf::internal::UnknownFieldParserHelper>(unsigned long, google::protobuf::internal::UnknownFieldParserHelper&, char const*, google::protobuf::internal::ParseContext*)
PUBLIC a66e0 0 char const* google::protobuf::internal::WireFormatParser<google::protobuf::internal::UnknownFieldParserHelper>(google::protobuf::internal::UnknownFieldParserHelper&, char const*, google::protobuf::internal::ParseContext*)
PUBLIC a67d0 0 google::protobuf::UnknownFieldSet* google::protobuf::internal::InternalMetadata::mutable_unknown_fields_slow<google::protobuf::UnknownFieldSet>()
PUBLIC a6880 0 std::vector<google::protobuf::UnknownField, std::allocator<google::protobuf::UnknownField> >::_M_default_append(unsigned long)
PUBLIC a69e0 0 void std::vector<google::protobuf::UnknownField, std::allocator<google::protobuf::UnknownField> >::_M_range_insert<std::move_iterator<__gnu_cxx::__normal_iterator<google::protobuf::UnknownField*, std::vector<google::protobuf::UnknownField, std::allocator<google::protobuf::UnknownField> > > > >(__gnu_cxx::__normal_iterator<google::protobuf::UnknownField*, std::vector<google::protobuf::UnknownField, std::allocator<google::protobuf::UnknownField> > >, std::move_iterator<__gnu_cxx::__normal_iterator<google::protobuf::UnknownField*, std::vector<google::protobuf::UnknownField, std::allocator<google::protobuf::UnknownField> > > >, std::move_iterator<__gnu_cxx::__normal_iterator<google::protobuf::UnknownField*, std::vector<google::protobuf::UnknownField, std::allocator<google::protobuf::UnknownField> > > >, std::forward_iterator_tag)
PUBLIC a6c90 0 google::protobuf::internal::UnknownFieldSetFieldSkipper::SkipUnknownEnum(int, int)
PUBLIC a6ca0 0 google::protobuf::io::CodedOutputStream::WriteVarint32ToArray(unsigned int, unsigned char*) [clone .part.0]
PUBLIC a6cf0 0 google::protobuf::io::CodedOutputStream::WriteVarint64ToArray(unsigned long, unsigned char*) [clone .part.0]
PUBLIC a6d50 0 google::protobuf::internal::WireFormat::SkipMessage(google::protobuf::io::CodedInputStream*, google::protobuf::UnknownFieldSet*)
PUBLIC a6dd0 0 google::protobuf::internal::UnknownFieldSetFieldSkipper::SkipMessage(google::protobuf::io::CodedInputStream*)
PUBLIC a6de0 0 google::protobuf::internal::WireFormat::SkipField(google::protobuf::io::CodedInputStream*, unsigned int, google::protobuf::UnknownFieldSet*)
PUBLIC a7030 0 google::protobuf::internal::UnknownFieldSetFieldSkipper::SkipField(google::protobuf::io::CodedInputStream*, unsigned int)
PUBLIC a7050 0 google::protobuf::internal::WireFormat::ReadPackedEnumPreserveUnknowns(google::protobuf::io::CodedInputStream*, unsigned int, bool (*)(int), google::protobuf::UnknownFieldSet*, google::protobuf::RepeatedField<int>*)
PUBLIC a71b0 0 google::protobuf::internal::WireFormat::InternalSerializeUnknownFieldsToArray(google::protobuf::UnknownFieldSet const&, unsigned char*, google::protobuf::io::EpsCopyOutputStream*) [clone .localalias]
PUBLIC a74f0 0 google::protobuf::internal::WireFormat::InternalSerializeUnknownMessageSetItemsToArray(google::protobuf::UnknownFieldSet const&, unsigned char*, google::protobuf::io::EpsCopyOutputStream*)
PUBLIC a7630 0 google::protobuf::internal::WireFormat::ComputeUnknownFieldsSize(google::protobuf::UnknownFieldSet const&) [clone .localalias]
PUBLIC a77a0 0 google::protobuf::internal::WireFormat::ComputeUnknownMessageSetItemsSize(google::protobuf::UnknownFieldSet const&)
PUBLIC a7830 0 google::protobuf::internal::WireFormat::SkipMessageSetField(google::protobuf::io::CodedInputStream*, unsigned int, google::protobuf::UnknownFieldSet*)
PUBLIC a78c0 0 google::protobuf::internal::WireFormat::InternalSerializeMessageSetItem(google::protobuf::FieldDescriptor const*, google::protobuf::Message const&, unsigned char*, google::protobuf::io::EpsCopyOutputStream*)
PUBLIC a7a40 0 google::protobuf::internal::WireFormat::MessageSetItemByteSize(google::protobuf::FieldDescriptor const*, google::protobuf::Message const&)
PUBLIC a7ac0 0 google::protobuf::internal::ComputeUnknownFieldsSize(google::protobuf::internal::InternalMetadata const&, unsigned long, google::protobuf::internal::CachedSize*)
PUBLIC a7b00 0 google::protobuf::internal::WireFormat::ParseAndMergeMessageSetField(unsigned int, google::protobuf::FieldDescriptor const*, google::protobuf::Message*, google::protobuf::io::CodedInputStream*)
PUBLIC a7c70 0 google::protobuf::internal::WireFormat::ParseAndMergeMessageSetItem(google::protobuf::io::CodedInputStream*, google::protobuf::Message*)
PUBLIC a7f70 0 google::protobuf::internal::MapKeyDataOnlyByteSize(google::protobuf::FieldDescriptor const*, google::protobuf::MapKey const&)
PUBLIC a81a0 0 google::protobuf::internal::MapValueRefDataOnlyByteSize(google::protobuf::FieldDescriptor const*, google::protobuf::MapValueRef const&)
PUBLIC a8420 0 google::protobuf::internal::InternalSerializeMapEntry(google::protobuf::FieldDescriptor const*, google::protobuf::MapKey const&, google::protobuf::MapValueRef const&, unsigned char*, google::protobuf::io::EpsCopyOutputStream*)
PUBLIC a8ed0 0 google::protobuf::internal::WireFormat::FieldDataOnlyByteSize(google::protobuf::FieldDescriptor const*, google::protobuf::Message const&)
PUBLIC a96b0 0 google::protobuf::internal::WireFormat::FieldByteSize(google::protobuf::FieldDescriptor const*, google::protobuf::Message const&)
PUBLIC a98d0 0 google::protobuf::internal::WireFormat::ByteSize(google::protobuf::Message const&)
PUBLIC a9a30 0 google::protobuf::internal::WireFormat::ParseAndMergeField(unsigned int, google::protobuf::FieldDescriptor const*, google::protobuf::Message*, google::protobuf::io::CodedInputStream*)
PUBLIC aa980 0 google::protobuf::internal::WireFormat::ParseAndMergePartial(google::protobuf::io::CodedInputStream*, google::protobuf::Message*)
PUBLIC aaad0 0 google::protobuf::internal::WireFormat::_InternalParseAndMergeField(google::protobuf::Message*, char const*, google::protobuf::internal::ParseContext*, unsigned long, google::protobuf::Reflection const*, google::protobuf::FieldDescriptor const*)
PUBLIC ab5b0 0 google::protobuf::internal::WireFormat::_InternalParse(google::protobuf::Message*, char const*, google::protobuf::internal::ParseContext*)
PUBLIC ab900 0 google::protobuf::internal::WireFormat::InternalSerializeField(google::protobuf::FieldDescriptor const*, google::protobuf::Message const&, unsigned char*, google::protobuf::io::EpsCopyOutputStream*)
PUBLIC adfe0 0 google::protobuf::internal::WireFormat::_InternalSerialize(google::protobuf::Message const&, unsigned char*, google::protobuf::io::EpsCopyOutputStream*)
PUBLIC ae150 0 google::protobuf::internal::UnknownFieldSetFieldSkipper::~UnknownFieldSetFieldSkipper()
PUBLIC ae160 0 google::protobuf::internal::UnknownFieldSetFieldSkipper::~UnknownFieldSetFieldSkipper()
PUBLIC ae170 0 google::protobuf::io::EpsCopyOutputStream::WriteRaw(void const*, int, unsigned char*)
PUBLIC ae1a0 0 google::protobuf::io::CodedInputStream::ReadVarint32(unsigned int*)
PUBLIC ae1f0 0 google::protobuf::io::CodedInputStream::ReadVarint64(unsigned long*)
PUBLIC ae230 0 google::protobuf::MapKey::GetInt64Value() const
PUBLIC ae340 0 google::protobuf::MapKey::GetUInt64Value() const
PUBLIC ae450 0 google::protobuf::MapKey::GetInt32Value() const
PUBLIC ae560 0 google::protobuf::MapKey::GetUInt32Value() const
PUBLIC ae670 0 google::protobuf::MapKey::GetBoolValue() const
PUBLIC ae780 0 google::protobuf::MapKey::GetStringValue[abi:cxx11]() const
PUBLIC ae890 0 google::protobuf::MapKey::CopyFrom(google::protobuf::MapKey const&)
PUBLIC ae9e0 0 google::protobuf::MapValueRef::GetUInt32Value() const
PUBLIC aeaf0 0 google::protobuf::MapValueRef::GetUInt64Value() const
PUBLIC aec00 0 google::protobuf::MapValueRef::GetInt32Value() const
PUBLIC aed10 0 google::protobuf::MapValueRef::GetInt64Value() const
PUBLIC aee20 0 google::protobuf::MapValueRef::GetStringValue[abi:cxx11]() const
PUBLIC aef30 0 google::protobuf::MapValueRef::GetEnumValue() const
PUBLIC af040 0 google::protobuf::MapValueRef::GetMessageValue() const
PUBLIC af150 0 google::protobuf::internal::MapKeySorter::MapKeyComparator::operator()(google::protobuf::MapKey const&, google::protobuf::MapKey const&) const
PUBLIC af320 0 char const* google::protobuf::internal::VarintParse<unsigned int>(char const*, unsigned int*)
PUBLIC af360 0 google::protobuf::internal::RepeatedFieldRefIterator<google::protobuf::Message>::~RepeatedFieldRefIterator()
PUBLIC af3a0 0 std::vector<google::protobuf::MapKey, std::allocator<google::protobuf::MapKey> >::~vector()
PUBLIC af410 0 google::protobuf::DynamicMapSorter::MapEntryMessageComparator::operator()(google::protobuf::Message const*, google::protobuf::Message const*)
PUBLIC af700 0 google::protobuf::MapIterator::MapIterator(google::protobuf::Message*, google::protobuf::FieldDescriptor const*)
PUBLIC af8f0 0 google::protobuf::internal::WireFormat::MessageSetParser::_InternalParse(char const*, google::protobuf::internal::ParseContext*)
PUBLIC afe20 0 void std::__insertion_sort<__gnu_cxx::__normal_iterator<google::protobuf::Message const**, std::vector<google::protobuf::Message const*, std::allocator<google::protobuf::Message const*> > >, __gnu_cxx::__ops::_Iter_comp_iter<google::protobuf::DynamicMapSorter::MapEntryMessageComparator> >(__gnu_cxx::__normal_iterator<google::protobuf::Message const**, std::vector<google::protobuf::Message const*, std::allocator<google::protobuf::Message const*> > >, __gnu_cxx::__normal_iterator<google::protobuf::Message const**, std::vector<google::protobuf::Message const*, std::allocator<google::protobuf::Message const*> > >, __gnu_cxx::__ops::_Iter_comp_iter<google::protobuf::DynamicMapSorter::MapEntryMessageComparator>)
PUBLIC b01d0 0 void std::_Destroy_aux<false>::__destroy<google::protobuf::MapKey*>(google::protobuf::MapKey*, google::protobuf::MapKey*)
PUBLIC b0230 0 void std::vector<google::protobuf::MapKey, std::allocator<google::protobuf::MapKey> >::_M_realloc_insert<google::protobuf::MapKey const&>(__gnu_cxx::__normal_iterator<google::protobuf::MapKey*, std::vector<google::protobuf::MapKey, std::allocator<google::protobuf::MapKey> > >, google::protobuf::MapKey const&)
PUBLIC b0800 0 __gnu_cxx::__normal_iterator<google::protobuf::Message const**, std::vector<google::protobuf::Message const*, std::allocator<google::protobuf::Message const*> > > std::__lower_bound<__gnu_cxx::__normal_iterator<google::protobuf::Message const**, std::vector<google::protobuf::Message const*, std::allocator<google::protobuf::Message const*> > >, google::protobuf::Message const*, __gnu_cxx::__ops::_Iter_comp_val<google::protobuf::DynamicMapSorter::MapEntryMessageComparator> >(__gnu_cxx::__normal_iterator<google::protobuf::Message const**, std::vector<google::protobuf::Message const*, std::allocator<google::protobuf::Message const*> > >, __gnu_cxx::__normal_iterator<google::protobuf::Message const**, std::vector<google::protobuf::Message const*, std::allocator<google::protobuf::Message const*> > >, google::protobuf::Message const* const&, __gnu_cxx::__ops::_Iter_comp_val<google::protobuf::DynamicMapSorter::MapEntryMessageComparator>)
PUBLIC b0880 0 __gnu_cxx::__normal_iterator<google::protobuf::Message const**, std::vector<google::protobuf::Message const*, std::allocator<google::protobuf::Message const*> > > std::__upper_bound<__gnu_cxx::__normal_iterator<google::protobuf::Message const**, std::vector<google::protobuf::Message const*, std::allocator<google::protobuf::Message const*> > >, google::protobuf::Message const*, __gnu_cxx::__ops::_Val_comp_iter<google::protobuf::DynamicMapSorter::MapEntryMessageComparator> >(__gnu_cxx::__normal_iterator<google::protobuf::Message const**, std::vector<google::protobuf::Message const*, std::allocator<google::protobuf::Message const*> > >, __gnu_cxx::__normal_iterator<google::protobuf::Message const**, std::vector<google::protobuf::Message const*, std::allocator<google::protobuf::Message const*> > >, google::protobuf::Message const* const&, __gnu_cxx::__ops::_Val_comp_iter<google::protobuf::DynamicMapSorter::MapEntryMessageComparator>)
PUBLIC b0900 0 void std::__unguarded_linear_insert<__gnu_cxx::__normal_iterator<google::protobuf::MapKey*, std::vector<google::protobuf::MapKey, std::allocator<google::protobuf::MapKey> > >, __gnu_cxx::__ops::_Val_comp_iter<google::protobuf::internal::MapKeySorter::MapKeyComparator> >(__gnu_cxx::__normal_iterator<google::protobuf::MapKey*, std::vector<google::protobuf::MapKey, std::allocator<google::protobuf::MapKey> > >, __gnu_cxx::__ops::_Val_comp_iter<google::protobuf::internal::MapKeySorter::MapKeyComparator>)
PUBLIC b0e90 0 void std::__insertion_sort<__gnu_cxx::__normal_iterator<google::protobuf::MapKey*, std::vector<google::protobuf::MapKey, std::allocator<google::protobuf::MapKey> > >, __gnu_cxx::__ops::_Iter_comp_iter<google::protobuf::internal::MapKeySorter::MapKeyComparator> >(__gnu_cxx::__normal_iterator<google::protobuf::MapKey*, std::vector<google::protobuf::MapKey, std::allocator<google::protobuf::MapKey> > >, __gnu_cxx::__normal_iterator<google::protobuf::MapKey*, std::vector<google::protobuf::MapKey, std::allocator<google::protobuf::MapKey> > >, __gnu_cxx::__ops::_Iter_comp_iter<google::protobuf::internal::MapKeySorter::MapKeyComparator>)
PUBLIC b1570 0 void std::__merge_without_buffer<__gnu_cxx::__normal_iterator<google::protobuf::Message const**, std::vector<google::protobuf::Message const*, std::allocator<google::protobuf::Message const*> > >, long, __gnu_cxx::__ops::_Iter_comp_iter<google::protobuf::DynamicMapSorter::MapEntryMessageComparator> >(__gnu_cxx::__normal_iterator<google::protobuf::Message const**, std::vector<google::protobuf::Message const*, std::allocator<google::protobuf::Message const*> > >, __gnu_cxx::__normal_iterator<google::protobuf::Message const**, std::vector<google::protobuf::Message const*, std::allocator<google::protobuf::Message const*> > >, __gnu_cxx::__normal_iterator<google::protobuf::Message const**, std::vector<google::protobuf::Message const*, std::allocator<google::protobuf::Message const*> > >, long, long, __gnu_cxx::__ops::_Iter_comp_iter<google::protobuf::DynamicMapSorter::MapEntryMessageComparator>)
PUBLIC b16d0 0 void std::__inplace_stable_sort<__gnu_cxx::__normal_iterator<google::protobuf::Message const**, std::vector<google::protobuf::Message const*, std::allocator<google::protobuf::Message const*> > >, __gnu_cxx::__ops::_Iter_comp_iter<google::protobuf::DynamicMapSorter::MapEntryMessageComparator> >(__gnu_cxx::__normal_iterator<google::protobuf::Message const**, std::vector<google::protobuf::Message const*, std::allocator<google::protobuf::Message const*> > >, __gnu_cxx::__normal_iterator<google::protobuf::Message const**, std::vector<google::protobuf::Message const*, std::allocator<google::protobuf::Message const*> > >, __gnu_cxx::__ops::_Iter_comp_iter<google::protobuf::DynamicMapSorter::MapEntryMessageComparator>)
PUBLIC b1750 0 void std::__merge_adaptive<__gnu_cxx::__normal_iterator<google::protobuf::Message const**, std::vector<google::protobuf::Message const*, std::allocator<google::protobuf::Message const*> > >, long, google::protobuf::Message const**, __gnu_cxx::__ops::_Iter_comp_iter<google::protobuf::DynamicMapSorter::MapEntryMessageComparator> >(__gnu_cxx::__normal_iterator<google::protobuf::Message const**, std::vector<google::protobuf::Message const*, std::allocator<google::protobuf::Message const*> > >, __gnu_cxx::__normal_iterator<google::protobuf::Message const**, std::vector<google::protobuf::Message const*, std::allocator<google::protobuf::Message const*> > >, __gnu_cxx::__normal_iterator<google::protobuf::Message const**, std::vector<google::protobuf::Message const*, std::allocator<google::protobuf::Message const*> > >, long, long, google::protobuf::Message const**, long, __gnu_cxx::__ops::_Iter_comp_iter<google::protobuf::DynamicMapSorter::MapEntryMessageComparator>)
PUBLIC b1c40 0 google::protobuf::Message const** std::__move_merge<__gnu_cxx::__normal_iterator<google::protobuf::Message const**, std::vector<google::protobuf::Message const*, std::allocator<google::protobuf::Message const*> > >, google::protobuf::Message const**, __gnu_cxx::__ops::_Iter_comp_iter<google::protobuf::DynamicMapSorter::MapEntryMessageComparator> >(__gnu_cxx::__normal_iterator<google::protobuf::Message const**, std::vector<google::protobuf::Message const*, std::allocator<google::protobuf::Message const*> > >, __gnu_cxx::__normal_iterator<google::protobuf::Message const**, std::vector<google::protobuf::Message const*, std::allocator<google::protobuf::Message const*> > >, __gnu_cxx::__normal_iterator<google::protobuf::Message const**, std::vector<google::protobuf::Message const*, std::allocator<google::protobuf::Message const*> > >, __gnu_cxx::__normal_iterator<google::protobuf::Message const**, std::vector<google::protobuf::Message const*, std::allocator<google::protobuf::Message const*> > >, google::protobuf::Message const**, __gnu_cxx::__ops::_Iter_comp_iter<google::protobuf::DynamicMapSorter::MapEntryMessageComparator>)
PUBLIC b1d10 0 __gnu_cxx::__normal_iterator<google::protobuf::Message const**, std::vector<google::protobuf::Message const*, std::allocator<google::protobuf::Message const*> > > std::__move_merge<google::protobuf::Message const**, __gnu_cxx::__normal_iterator<google::protobuf::Message const**, std::vector<google::protobuf::Message const*, std::allocator<google::protobuf::Message const*> > >, __gnu_cxx::__ops::_Iter_comp_iter<google::protobuf::DynamicMapSorter::MapEntryMessageComparator> >(google::protobuf::Message const**, google::protobuf::Message const**, google::protobuf::Message const**, google::protobuf::Message const**, __gnu_cxx::__normal_iterator<google::protobuf::Message const**, std::vector<google::protobuf::Message const*, std::allocator<google::protobuf::Message const*> > >, __gnu_cxx::__ops::_Iter_comp_iter<google::protobuf::DynamicMapSorter::MapEntryMessageComparator>)
PUBLIC b1de0 0 void std::__merge_sort_with_buffer<__gnu_cxx::__normal_iterator<google::protobuf::Message const**, std::vector<google::protobuf::Message const*, std::allocator<google::protobuf::Message const*> > >, google::protobuf::Message const**, __gnu_cxx::__ops::_Iter_comp_iter<google::protobuf::DynamicMapSorter::MapEntryMessageComparator> >(__gnu_cxx::__normal_iterator<google::protobuf::Message const**, std::vector<google::protobuf::Message const*, std::allocator<google::protobuf::Message const*> > >, __gnu_cxx::__normal_iterator<google::protobuf::Message const**, std::vector<google::protobuf::Message const*, std::allocator<google::protobuf::Message const*> > >, google::protobuf::Message const**, __gnu_cxx::__ops::_Iter_comp_iter<google::protobuf::DynamicMapSorter::MapEntryMessageComparator>)
PUBLIC b2060 0 void std::__stable_sort_adaptive<__gnu_cxx::__normal_iterator<google::protobuf::Message const**, std::vector<google::protobuf::Message const*, std::allocator<google::protobuf::Message const*> > >, google::protobuf::Message const**, long, __gnu_cxx::__ops::_Iter_comp_iter<google::protobuf::DynamicMapSorter::MapEntryMessageComparator> >(__gnu_cxx::__normal_iterator<google::protobuf::Message const**, std::vector<google::protobuf::Message const*, std::allocator<google::protobuf::Message const*> > >, __gnu_cxx::__normal_iterator<google::protobuf::Message const**, std::vector<google::protobuf::Message const*, std::allocator<google::protobuf::Message const*> > >, google::protobuf::Message const**, long, __gnu_cxx::__ops::_Iter_comp_iter<google::protobuf::DynamicMapSorter::MapEntryMessageComparator>)
PUBLIC b2140 0 google::protobuf::DynamicMapSorter::Sort(google::protobuf::Message const&, int, google::protobuf::Reflection const*, google::protobuf::FieldDescriptor const*)
PUBLIC b2450 0 void std::__adjust_heap<__gnu_cxx::__normal_iterator<google::protobuf::MapKey*, std::vector<google::protobuf::MapKey, std::allocator<google::protobuf::MapKey> > >, long, google::protobuf::MapKey, __gnu_cxx::__ops::_Iter_comp_iter<google::protobuf::internal::MapKeySorter::MapKeyComparator> >(__gnu_cxx::__normal_iterator<google::protobuf::MapKey*, std::vector<google::protobuf::MapKey, std::allocator<google::protobuf::MapKey> > >, long, long, google::protobuf::MapKey, __gnu_cxx::__ops::_Iter_comp_iter<google::protobuf::internal::MapKeySorter::MapKeyComparator>)
PUBLIC b3150 0 void std::__make_heap<__gnu_cxx::__normal_iterator<google::protobuf::MapKey*, std::vector<google::protobuf::MapKey, std::allocator<google::protobuf::MapKey> > >, __gnu_cxx::__ops::_Iter_comp_iter<google::protobuf::internal::MapKeySorter::MapKeyComparator> >(__gnu_cxx::__normal_iterator<google::protobuf::MapKey*, std::vector<google::protobuf::MapKey, std::allocator<google::protobuf::MapKey> > >, __gnu_cxx::__normal_iterator<google::protobuf::MapKey*, std::vector<google::protobuf::MapKey, std::allocator<google::protobuf::MapKey> > >, __gnu_cxx::__ops::_Iter_comp_iter<google::protobuf::internal::MapKeySorter::MapKeyComparator>&)
PUBLIC b3410 0 std::enable_if<std::__and_<std::__not_<std::__is_tuple_like<google::protobuf::MapKey> >, std::is_move_constructible<google::protobuf::MapKey>, std::is_move_assignable<google::protobuf::MapKey> >::value, void>::type std::swap<google::protobuf::MapKey>(google::protobuf::MapKey&, google::protobuf::MapKey&)
PUBLIC b34b0 0 void std::__introsort_loop<__gnu_cxx::__normal_iterator<google::protobuf::MapKey*, std::vector<google::protobuf::MapKey, std::allocator<google::protobuf::MapKey> > >, long, __gnu_cxx::__ops::_Iter_comp_iter<google::protobuf::internal::MapKeySorter::MapKeyComparator> >(__gnu_cxx::__normal_iterator<google::protobuf::MapKey*, std::vector<google::protobuf::MapKey, std::allocator<google::protobuf::MapKey> > >, __gnu_cxx::__normal_iterator<google::protobuf::MapKey*, std::vector<google::protobuf::MapKey, std::allocator<google::protobuf::MapKey> > >, long, __gnu_cxx::__ops::_Iter_comp_iter<google::protobuf::internal::MapKeySorter::MapKeyComparator>)
PUBLIC b5b00 0 google::protobuf::io::ReadHexDigits(char const*, int, unsigned int*) [clone .part.0]
PUBLIC b5b80 0 google::protobuf::io::ErrorCollector::~ErrorCollector()
PUBLIC b5b90 0 google::protobuf::io::ErrorCollector::~ErrorCollector()
PUBLIC b5bb0 0 google::protobuf::io::Tokenizer::~Tokenizer()
PUBLIC b5c00 0 google::protobuf::io::Tokenizer::Refresh()
PUBLIC b5d20 0 google::protobuf::io::Tokenizer::Tokenizer(google::protobuf::io::ZeroCopyInputStream*, google::protobuf::io::ErrorCollector*)
PUBLIC b5df0 0 google::protobuf::io::Tokenizer::NextChar()
PUBLIC b5e80 0 bool google::protobuf::io::Tokenizer::TryConsumeOne<google::protobuf::io::(anonymous namespace)::HexDigit>()
PUBLIC b5ec0 0 google::protobuf::io::Tokenizer::ConsumeLineComment(std::__cxx11::basic_string<char, std::char_traits<char>, std::allocator<char> >*)
PUBLIC b5fa0 0 google::protobuf::io::Tokenizer::TryConsumeCommentStart()
PUBLIC b6050 0 google::protobuf::io::Tokenizer::ParseInteger(std::__cxx11::basic_string<char, std::char_traits<char>, std::allocator<char> > const&, unsigned long, unsigned long*)
PUBLIC b6120 0 google::protobuf::io::Tokenizer::ParseFloat(std::__cxx11::basic_string<char, std::char_traits<char>, std::allocator<char> > const&)
PUBLIC b6270 0 google::protobuf::io::Tokenizer::ParseStringAppend(std::__cxx11::basic_string<char, std::char_traits<char>, std::allocator<char> > const&, std::__cxx11::basic_string<char, std::char_traits<char>, std::allocator<char> >*)
PUBLIC b69f0 0 google::protobuf::io::Tokenizer::IsIdentifier(std::__cxx11::basic_string<char, std::char_traits<char>, std::allocator<char> > const&)
PUBLIC b6ac0 0 google::protobuf::io::Tokenizer::ConsumeBlockComment(std::__cxx11::basic_string<char, std::char_traits<char>, std::allocator<char> >*)
PUBLIC b6ec0 0 google::protobuf::io::Tokenizer::ConsumeNumber(bool, bool)
PUBLIC b7360 0 google::protobuf::io::Tokenizer::ConsumeString(char)
PUBLIC b7760 0 google::protobuf::io::Tokenizer::Next()
PUBLIC b7be0 0 google::protobuf::io::Tokenizer::NextWithComments(std::__cxx11::basic_string<char, std::char_traits<char>, std::allocator<char> >*, std::vector<std::__cxx11::basic_string<char, std::char_traits<char>, std::allocator<char> >, std::allocator<std::__cxx11::basic_string<char, std::char_traits<char>, std::allocator<char> > > >*, std::__cxx11::basic_string<char, std::char_traits<char>, std::allocator<char> >*)
PUBLIC b8510 0 google::protobuf::io::ErrorCollector::AddWarning(int, int, std::__cxx11::basic_string<char, std::char_traits<char>, std::allocator<char> > const&)
PUBLIC b8520 0 google::protobuf::util::ParseDelimitedFromCodedStream(google::protobuf::MessageLite*, google::protobuf::io::CodedInputStream*, bool*)
PUBLIC b8620 0 google::protobuf::util::ParseDelimitedFromZeroCopyStream(google::protobuf::MessageLite*, google::protobuf::io::ZeroCopyInputStream*, bool*)
PUBLIC b86d0 0 google::protobuf::util::SerializeDelimitedToCodedStream(google::protobuf::MessageLite const&, google::protobuf::io::CodedOutputStream*)
PUBLIC b87f0 0 google::protobuf::util::SerializeDelimitedToZeroCopyStream(google::protobuf::MessageLite const&, google::protobuf::io::ZeroCopyOutputStream*)
PUBLIC b8840 0 google::protobuf::util::SerializeDelimitedToFileDescriptor(google::protobuf::MessageLite const&, int)
PUBLIC b8890 0 google::protobuf::util::SerializeDelimitedToOstream(google::protobuf::MessageLite const&, std::ostream*)
PUBLIC b8910 0 google::protobuf::StringAppendV(std::__cxx11::basic_string<char, std::char_traits<char>, std::allocator<char> >*, char const*, __va_list_tag*)
PUBLIC b8a30 0 google::protobuf::StringPrintf[abi:cxx11](char const*, ...)
PUBLIC b8af0 0 google::protobuf::SStringPrintf(std::__cxx11::basic_string<char, std::char_traits<char>, std::allocator<char> >*, char const*, ...)
PUBLIC b8ba0 0 google::protobuf::StringAppendF(std::__cxx11::basic_string<char, std::char_traits<char>, std::allocator<char> >*, char const*, ...)
PUBLIC b8c30 0 google::protobuf::StringPrintfVector(char const*, std::vector<std::__cxx11::basic_string<char, std::char_traits<char>, std::allocator<char> >, std::allocator<std::__cxx11::basic_string<char, std::char_traits<char>, std::allocator<char> > > > const&)
PUBLIC b8ea0 0 google::protobuf::internal::UTF8GenericScan(google::protobuf::internal::UTF8StateMachineObj const*, char const*, int, int*)
PUBLIC b9090 0 google::protobuf::internal::UTF8GenericScanFastAscii(google::protobuf::internal::UTF8StateMachineObj const*, char const*, int, int*)
PUBLIC b9190 0 google::protobuf::internal::IsStructurallyValidUTF8(char const*, int)
PUBLIC b91e0 0 google::protobuf::internal::UTF8SpnStructurallyValid(google::protobuf::StringPiece const&)
PUBLIC b9220 0 google::protobuf::internal::UTF8CoerceToStructurallyValid(google::protobuf::StringPiece const&, char*, char)
PUBLIC b92d0 0 google::protobuf::Append2(char*, google::protobuf::strings::AlphaNum const&, google::protobuf::strings::AlphaNum const&)
PUBLIC b9340 0 google::protobuf::Append4(char*, google::protobuf::strings::AlphaNum const&, google::protobuf::strings::AlphaNum const&, google::protobuf::strings::AlphaNum const&, google::protobuf::strings::AlphaNum const&)
PUBLIC b9410 0 google::protobuf::ReplaceCharacters(std::__cxx11::basic_string<char, std::char_traits<char>, std::allocator<char> >*, char const*, char)
PUBLIC b9470 0 google::protobuf::StripWhitespace(std::__cxx11::basic_string<char, std::char_traits<char>, std::allocator<char> >*)
PUBLIC b95c0 0 google::protobuf::StringReplace(std::__cxx11::basic_string<char, std::char_traits<char>, std::allocator<char> > const&, std::__cxx11::basic_string<char, std::char_traits<char>, std::allocator<char> > const&, std::__cxx11::basic_string<char, std::char_traits<char>, std::allocator<char> > const&, bool, std::__cxx11::basic_string<char, std::char_traits<char>, std::allocator<char> >*)
PUBLIC b96b0 0 google::protobuf::StringReplace(std::__cxx11::basic_string<char, std::char_traits<char>, std::allocator<char> > const&, std::__cxx11::basic_string<char, std::char_traits<char>, std::allocator<char> > const&, std::__cxx11::basic_string<char, std::char_traits<char>, std::allocator<char> > const&, bool)
PUBLIC b9700 0 google::protobuf::JoinStrings(std::vector<std::__cxx11::basic_string<char, std::char_traits<char>, std::allocator<char> >, std::allocator<std::__cxx11::basic_string<char, std::char_traits<char>, std::allocator<char> > > > const&, char const*, std::__cxx11::basic_string<char, std::char_traits<char>, std::allocator<char> >*)
PUBLIC b9870 0 google::protobuf::UnescapeCEscapeSequences(char const*, char*, std::vector<std::__cxx11::basic_string<char, std::char_traits<char>, std::allocator<char> >, std::allocator<std::__cxx11::basic_string<char, std::char_traits<char>, std::allocator<char> > > >*)
PUBLIC b9ae0 0 google::protobuf::UnescapeCEscapeSequences(char const*, char*)
PUBLIC b9af0 0 google::protobuf::UnescapeCEscapeString(std::__cxx11::basic_string<char, std::char_traits<char>, std::allocator<char> > const&, std::__cxx11::basic_string<char, std::char_traits<char>, std::allocator<char> >*, std::vector<std::__cxx11::basic_string<char, std::char_traits<char>, std::allocator<char> >, std::allocator<std::__cxx11::basic_string<char, std::char_traits<char>, std::allocator<char> > > >*)
PUBLIC b9bd0 0 google::protobuf::UnescapeCEscapeString(std::__cxx11::basic_string<char, std::char_traits<char>, std::allocator<char> > const&, std::__cxx11::basic_string<char, std::char_traits<char>, std::allocator<char> >*)
PUBLIC b9be0 0 google::protobuf::CEscapeInternal(char const*, int, char*, int, bool, bool)
PUBLIC b9e30 0 google::protobuf::CEscapeAndAppend(google::protobuf::StringPiece, std::__cxx11::basic_string<char, std::char_traits<char>, std::allocator<char> >*)
PUBLIC b9ff0 0 google::protobuf::CEscape(std::__cxx11::basic_string<char, std::char_traits<char>, std::allocator<char> > const&)
PUBLIC ba030 0 google::protobuf::strto32_adaptor(char const*, char**, int)
PUBLIC ba0e0 0 google::protobuf::strtou32_adaptor(char const*, char**, int)
PUBLIC ba160 0 google::protobuf::FastInt64ToBuffer(long, char*)
PUBLIC ba260 0 google::protobuf::FastInt32ToBuffer(int, char*)
PUBLIC ba340 0 google::protobuf::FastHexToBuffer(int, char*)
PUBLIC ba420 0 google::protobuf::InternalFastHexToBuffer(unsigned long, char*, int)
PUBLIC ba470 0 google::protobuf::FastHex64ToBuffer(unsigned long, char*)
PUBLIC ba480 0 google::protobuf::FastHex32ToBuffer(unsigned int, char*)
PUBLIC ba490 0 google::protobuf::FastUInt32ToBufferLeft(unsigned int, char*)
PUBLIC ba690 0 google::protobuf::FastInt32ToBufferLeft(int, char*)
PUBLIC ba6b0 0 google::protobuf::FastUInt64ToBufferLeft(unsigned long, char*) [clone .localalias]
PUBLIC ba7d0 0 google::protobuf::FastInt64ToBufferLeft(long, char*)
PUBLIC ba7f0 0 google::protobuf::DelocalizeRadix(char*)
PUBLIC ba8d0 0 google::protobuf::safe_strtob(google::protobuf::StringPiece, bool*)
PUBLIC bab70 0 google::protobuf::safe_strtof(char const*, float*)
PUBLIC babd0 0 google::protobuf::FloatToBuffer(float, char*)
PUBLIC bace0 0 google::protobuf::strings::AlphaNum::AlphaNum(google::protobuf::strings::Hex)
PUBLIC bad30 0 google::protobuf::StrCat[abi:cxx11](google::protobuf::strings::AlphaNum const&, google::protobuf::strings::AlphaNum const&)
PUBLIC bad90 0 google::protobuf::StrCat[abi:cxx11](google::protobuf::strings::AlphaNum const&, google::protobuf::strings::AlphaNum const&, google::protobuf::strings::AlphaNum const&)
PUBLIC bae10 0 google::protobuf::StrCat[abi:cxx11](google::protobuf::strings::AlphaNum const&, google::protobuf::strings::AlphaNum const&, google::protobuf::strings::AlphaNum const&, google::protobuf::strings::AlphaNum const&)
PUBLIC bae90 0 google::protobuf::StrCat[abi:cxx11](google::protobuf::strings::AlphaNum const&, google::protobuf::strings::AlphaNum const&, google::protobuf::strings::AlphaNum const&, google::protobuf::strings::AlphaNum const&, google::protobuf::strings::AlphaNum const&)
PUBLIC baf30 0 google::protobuf::StrCat[abi:cxx11](google::protobuf::strings::AlphaNum const&, google::protobuf::strings::AlphaNum const&, google::protobuf::strings::AlphaNum const&, google::protobuf::strings::AlphaNum const&, google::protobuf::strings::AlphaNum const&, google::protobuf::strings::AlphaNum const&)
PUBLIC bafd0 0 google::protobuf::StrCat[abi:cxx11](google::protobuf::strings::AlphaNum const&, google::protobuf::strings::AlphaNum const&, google::protobuf::strings::AlphaNum const&, google::protobuf::strings::AlphaNum const&, google::protobuf::strings::AlphaNum const&, google::protobuf::strings::AlphaNum const&, google::protobuf::strings::AlphaNum const&)
PUBLIC bb0a0 0 google::protobuf::StrCat[abi:cxx11](google::protobuf::strings::AlphaNum const&, google::protobuf::strings::AlphaNum const&, google::protobuf::strings::AlphaNum const&, google::protobuf::strings::AlphaNum const&, google::protobuf::strings::AlphaNum const&, google::protobuf::strings::AlphaNum const&, google::protobuf::strings::AlphaNum const&, google::protobuf::strings::AlphaNum const&)
PUBLIC bb160 0 google::protobuf::StrCat[abi:cxx11](google::protobuf::strings::AlphaNum const&, google::protobuf::strings::AlphaNum const&, google::protobuf::strings::AlphaNum const&, google::protobuf::strings::AlphaNum const&, google::protobuf::strings::AlphaNum const&, google::protobuf::strings::AlphaNum const&, google::protobuf::strings::AlphaNum const&, google::protobuf::strings::AlphaNum const&, google::protobuf::strings::AlphaNum const&)
PUBLIC bb250 0 google::protobuf::StrAppend(std::__cxx11::basic_string<char, std::char_traits<char>, std::allocator<char> >*, google::protobuf::strings::AlphaNum const&)
PUBLIC bb280 0 google::protobuf::StrAppend(std::__cxx11::basic_string<char, std::char_traits<char>, std::allocator<char> >*, google::protobuf::strings::AlphaNum const&, google::protobuf::strings::AlphaNum const&)
PUBLIC bb2d0 0 google::protobuf::StrAppend(std::__cxx11::basic_string<char, std::char_traits<char>, std::allocator<char> >*, google::protobuf::strings::AlphaNum const&, google::protobuf::strings::AlphaNum const&, google::protobuf::strings::AlphaNum const&)
PUBLIC bb340 0 google::protobuf::StrAppend(std::__cxx11::basic_string<char, std::char_traits<char>, std::allocator<char> >*, google::protobuf::strings::AlphaNum const&, google::protobuf::strings::AlphaNum const&, google::protobuf::strings::AlphaNum const&, google::protobuf::strings::AlphaNum const&)
PUBLIC bb3b0 0 google::protobuf::GlobalReplaceSubstring(std::__cxx11::basic_string<char, std::char_traits<char>, std::allocator<char> > const&, std::__cxx11::basic_string<char, std::char_traits<char>, std::allocator<char> > const&, std::__cxx11::basic_string<char, std::char_traits<char>, std::allocator<char> >*)
PUBLIC bb5d0 0 google::protobuf::CalculateBase64EscapedLen(int, bool)
PUBLIC bb630 0 google::protobuf::CalculateBase64EscapedLen(int)
PUBLIC bb640 0 google::protobuf::Base64UnescapeInternal(char const*, int, char*, int, signed char const*)
PUBLIC bbb90 0 google::protobuf::Base64UnescapeInternal(char const*, int, std::__cxx11::basic_string<char, std::char_traits<char>, std::allocator<char> >*, signed char const*)
PUBLIC bbc60 0 google::protobuf::WebSafeBase64Unescape(char const*, int, char*, int)
PUBLIC bbc70 0 google::protobuf::Base64Unescape(google::protobuf::StringPiece, std::__cxx11::basic_string<char, std::char_traits<char>, std::allocator<char> >*)
PUBLIC bbc80 0 google::protobuf::WebSafeBase64Unescape(google::protobuf::StringPiece, std::__cxx11::basic_string<char, std::char_traits<char>, std::allocator<char> >*)
PUBLIC bbc90 0 google::protobuf::Base64EscapeInternal(unsigned char const*, int, char*, int, char const*, bool)
PUBLIC bbf00 0 google::protobuf::Base64Escape(unsigned char const*, int, char*, int)
PUBLIC bbf20 0 google::protobuf::WebSafeBase64Escape(unsigned char const*, int, char*, int, bool)
PUBLIC bbf30 0 google::protobuf::Base64EscapeInternal(unsigned char const*, int, std::__cxx11::basic_string<char, std::char_traits<char>, std::allocator<char> >*, bool, char const*)
PUBLIC bbfc0 0 google::protobuf::Base64Escape(unsigned char const*, int, std::__cxx11::basic_string<char, std::char_traits<char>, std::allocator<char> >*, bool)
PUBLIC bbfd0 0 google::protobuf::WebSafeBase64Escape(unsigned char const*, int, std::__cxx11::basic_string<char, std::char_traits<char>, std::allocator<char> >*, bool)
PUBLIC bbfe0 0 google::protobuf::Base64Escape(google::protobuf::StringPiece, std::__cxx11::basic_string<char, std::char_traits<char>, std::allocator<char> >*)
PUBLIC bbff0 0 google::protobuf::WebSafeBase64Escape(google::protobuf::StringPiece, std::__cxx11::basic_string<char, std::char_traits<char>, std::allocator<char> >*)
PUBLIC bc000 0 google::protobuf::WebSafeBase64EscapeWithPadding(google::protobuf::StringPiece, std::__cxx11::basic_string<char, std::char_traits<char>, std::allocator<char> >*)
PUBLIC bc010 0 google::protobuf::EncodeAsUTF8Char(unsigned int, char*)
PUBLIC bc130 0 google::protobuf::UTF8FirstLetterNumBytes(char const*, int)
PUBLIC bc150 0 google::protobuf::CleanStringLineEndings(std::__cxx11::basic_string<char, std::char_traits<char>, std::allocator<char> >*, bool)
PUBLIC bc310 0 google::protobuf::internal::NoLocaleStrtod(char const*, char**)
PUBLIC bc630 0 google::protobuf::DoubleToBuffer(double, char*)
PUBLIC bc730 0 google::protobuf::safe_strtod(char const*, double*)
PUBLIC bc7a0 0 google::protobuf::UnescapeCEscapeString(std::__cxx11::basic_string<char, std::char_traits<char>, std::allocator<char> > const&)
PUBLIC bc800 0 google::protobuf::strings::Utf8SafeCEscape(std::__cxx11::basic_string<char, std::char_traits<char>, std::allocator<char> > const&)
PUBLIC bc880 0 google::protobuf::strings::CHexEscape(std::__cxx11::basic_string<char, std::char_traits<char>, std::allocator<char> > const&)
PUBLIC bc900 0 google::protobuf::SimpleFtoa[abi:cxx11](float)
PUBLIC bc950 0 google::protobuf::SimpleItoa[abi:cxx11](int)
PUBLIC bc9a0 0 google::protobuf::SimpleItoa[abi:cxx11](long)
PUBLIC bc9f0 0 google::protobuf::SimpleItoa[abi:cxx11](long long)
PUBLIC bca40 0 google::protobuf::SimpleDtoa[abi:cxx11](double)
PUBLIC bca90 0 google::protobuf::SimpleItoa[abi:cxx11](unsigned int)
PUBLIC bcad0 0 google::protobuf::SimpleItoa[abi:cxx11](unsigned long)
PUBLIC bcb10 0 google::protobuf::SimpleItoa[abi:cxx11](unsigned long long)
PUBLIC bcb50 0 google::protobuf::safe_strto32(std::__cxx11::basic_string<char, std::char_traits<char>, std::allocator<char> > const&, int*)
PUBLIC bce90 0 google::protobuf::safe_strtou32(std::__cxx11::basic_string<char, std::char_traits<char>, std::allocator<char> > const&, unsigned int*)
PUBLIC bd140 0 google::protobuf::safe_strto64(std::__cxx11::basic_string<char, std::char_traits<char>, std::allocator<char> > const&, long*)
PUBLIC bd4d0 0 google::protobuf::safe_strtou64(std::__cxx11::basic_string<char, std::char_traits<char>, std::allocator<char> > const&, unsigned long*)
PUBLIC bd7a0 0 google::protobuf::CleanStringLineEndings(std::__cxx11::basic_string<char, std::char_traits<char>, std::allocator<char> > const&, std::__cxx11::basic_string<char, std::char_traits<char>, std::allocator<char> >*, bool)
PUBLIC bd840 0 google::protobuf::SplitStringUsing(std::__cxx11::basic_string<char, std::char_traits<char>, std::allocator<char> > const&, char const*, std::vector<std::__cxx11::basic_string<char, std::char_traits<char>, std::allocator<char> >, std::allocator<std::__cxx11::basic_string<char, std::char_traits<char>, std::allocator<char> > > >*)
PUBLIC bda50 0 google::protobuf::SplitStringAllowEmpty(std::__cxx11::basic_string<char, std::char_traits<char>, std::allocator<char> > const&, char const*, std::vector<std::__cxx11::basic_string<char, std::char_traits<char>, std::allocator<char> >, std::allocator<std::__cxx11::basic_string<char, std::char_traits<char>, std::allocator<char> > > >*)
PUBLIC bdb90 0 void std::vector<std::__cxx11::basic_string<char, std::char_traits<char>, std::allocator<char> >, std::allocator<std::__cxx11::basic_string<char, std::char_traits<char>, std::allocator<char> > > >::_M_realloc_insert<std::__cxx11::basic_string<char, std::char_traits<char>, std::allocator<char> > >(__gnu_cxx::__normal_iterator<std::__cxx11::basic_string<char, std::char_traits<char>, std::allocator<char> >*, std::vector<std::__cxx11::basic_string<char, std::char_traits<char>, std::allocator<char> >, std::allocator<std::__cxx11::basic_string<char, std::char_traits<char>, std::allocator<char> > > > >, std::__cxx11::basic_string<char, std::char_traits<char>, std::allocator<char> >&&)
PUBLIC bdda0 0 std::__cxx11::basic_string<char, std::char_traits<char>, std::allocator<char> >& std::vector<std::__cxx11::basic_string<char, std::char_traits<char>, std::allocator<char> >, std::allocator<std::__cxx11::basic_string<char, std::char_traits<char>, std::allocator<char> > > >::emplace_back<std::__cxx11::basic_string<char, std::char_traits<char>, std::allocator<char> > >(std::__cxx11::basic_string<char, std::char_traits<char>, std::allocator<char> >&&)
PUBLIC bde20 0 google::protobuf::internal::ArenaStringPtr::CreateInstanceNoArena(std::__cxx11::basic_string<char, std::char_traits<char>, std::allocator<char> > const*) [clone .isra.0] [clone .constprop.0]
PUBLIC bdef0 0 google::protobuf::internal::GetTypeUrl[abi:cxx11](google::protobuf::StringPiece, google::protobuf::StringPiece)
PUBLIC bdf90 0 google::protobuf::internal::AnyMetadata::AnyMetadata(google::protobuf::internal::ArenaStringPtr*, google::protobuf::internal::ArenaStringPtr*)
PUBLIC bdfa0 0 google::protobuf::internal::AnyMetadata::InternalPackFrom(google::protobuf::MessageLite const&, google::protobuf::StringPiece, google::protobuf::StringPiece)
PUBLIC be160 0 google::protobuf::internal::AnyMetadata::InternalIs(google::protobuf::StringPiece) const
PUBLIC be2b0 0 google::protobuf::internal::AnyMetadata::InternalUnpackTo(google::protobuf::StringPiece, google::protobuf::MessageLite*) const
PUBLIC be2f0 0 google::protobuf::internal::ParseAnyTypeUrl(std::__cxx11::basic_string<char, std::char_traits<char>, std::allocator<char> > const&, std::__cxx11::basic_string<char, std::char_traits<char>, std::allocator<char> >*, std::__cxx11::basic_string<char, std::char_traits<char>, std::allocator<char> >*)
PUBLIC be570 0 google::protobuf::internal::ParseAnyTypeUrl(std::__cxx11::basic_string<char, std::char_traits<char>, std::allocator<char> > const&, std::__cxx11::basic_string<char, std::char_traits<char>, std::allocator<char> >*)
PUBLIC be580 0 google::protobuf::internal::CallNoArgValidityFunc(void const*, int)
PUBLIC be590 0 google::protobuf::internal::ExtensionSet::LazyMessageExtension::UnusedKeyMethod()
PUBLIC be5a0 0 std::_Hashtable<std::pair<google::protobuf::MessageLite const*, int>, std::pair<std::pair<google::protobuf::MessageLite const*, int> const, google::protobuf::internal::ExtensionInfo>, std::allocator<std::pair<std::pair<google::protobuf::MessageLite const*, int> const, google::protobuf::internal::ExtensionInfo> >, std::__detail::_Select1st, std::equal_to<std::pair<google::protobuf::MessageLite const*, int> >, google::protobuf::internal::(anonymous namespace)::ExtensionHasher, std::__detail::_Mod_range_hashing, std::__detail::_Default_ranged_hash, std::__detail::_Prime_rehash_policy, std::__detail::_Hashtable_traits<true, false, true> >::_M_find_before_node(unsigned long, std::pair<google::protobuf::MessageLite const*, int> const&, unsigned long) const
PUBLIC be610 0 google::protobuf::internal::GeneratedExtensionFinder::Find(int, google::protobuf::internal::ExtensionInfo*)
PUBLIC be6a0 0 google::protobuf::internal::OnShutdownDelete<std::unordered_map<std::pair<google::protobuf::MessageLite const*, int>, google::protobuf::internal::ExtensionInfo, google::protobuf::internal::(anonymous namespace)::ExtensionHasher, std::equal_to<std::pair<google::protobuf::MessageLite const*, int> >, std::allocator<std::pair<std::pair<google::protobuf::MessageLite const*, int> const, google::protobuf::internal::ExtensionInfo> > > >(std::unordered_map<std::pair<google::protobuf::MessageLite const*, int>, google::protobuf::internal::ExtensionInfo, google::protobuf::internal::(anonymous namespace)::ExtensionHasher, std::equal_to<std::pair<google::protobuf::MessageLite const*, int> >, std::allocator<std::pair<std::pair<google::protobuf::MessageLite const*, int> const, google::protobuf::internal::ExtensionInfo> > >*)::{lambda(void const*)#1}::_FUN(void const*)
PUBLIC be730 0 google::protobuf::internal::ExtensionFinder::~ExtensionFinder()
PUBLIC be740 0 google::protobuf::internal::ExtensionFinder::~ExtensionFinder()
PUBLIC be760 0 google::protobuf::internal::ExtensionSet::ExtensionSet(google::protobuf::Arena*)
PUBLIC be780 0 google::protobuf::internal::ExtensionSet::ExtensionSet()
PUBLIC be7a0 0 google::protobuf::internal::ExtensionSet::DeleteFlatMap(google::protobuf::internal::ExtensionSet::KeyValue const*, unsigned short)
PUBLIC be7b0 0 google::protobuf::internal::ExtensionSet::NumExtensions() const
PUBLIC be840 0 google::protobuf::internal::ExtensionSet::FindExtensionInfoFromFieldNumber(int, int, google::protobuf::internal::ExtensionFinder*, google::protobuf::internal::ExtensionInfo*, bool*)
PUBLIC be910 0 google::protobuf::internal::ExtensionSet::FindExtensionInfoFromTag(unsigned int, google::protobuf::internal::ExtensionFinder*, int*, google::protobuf::internal::ExtensionInfo*, bool*)
PUBLIC be930 0 google::protobuf::internal::ExtensionSet::Extension::Clear()
PUBLIC beab0 0 google::protobuf::internal::ExtensionSet::Clear()
PUBLIC beb30 0 google::protobuf::internal::ExtensionSet::Extension::ByteSize(int) const
PUBLIC bf400 0 google::protobuf::internal::ExtensionSet::ByteSize() const
PUBLIC bf4a0 0 google::protobuf::internal::ExtensionSet::Extension::GetSize() const
PUBLIC bf550 0 google::protobuf::internal::ExtensionSet::Extension::IsInitialized() const
PUBLIC bf610 0 google::protobuf::internal::ExtensionSet::IsInitialized() const
PUBLIC bf6b0 0 google::protobuf::internal::ExtensionSet::FindOrNullInLargeMap(int) const [clone .localalias]
PUBLIC bf700 0 google::protobuf::internal::ExtensionSet::FindOrNull(int) const
PUBLIC bf780 0 google::protobuf::internal::ExtensionSet::Has(int) const
PUBLIC bf7b0 0 google::protobuf::internal::ExtensionSet::ExtensionSize(int) const
PUBLIC bf7e0 0 google::protobuf::internal::ExtensionSet::ExtensionType(int) const
PUBLIC bf8c0 0 google::protobuf::internal::ExtensionSet::GetInt32(int, int) const [clone .localalias]
PUBLIC bf8f0 0 google::protobuf::internal::ExtensionSet::GetEnum(int, int) const
PUBLIC bf900 0 google::protobuf::internal::ExtensionSet::GetRepeatedInt32(int, int) const
PUBLIC bf9b0 0 google::protobuf::internal::ExtensionSet::GetInt64(int, long) const
PUBLIC bf9e0 0 google::protobuf::internal::ExtensionSet::GetRepeatedInt64(int, int) const
PUBLIC bfa90 0 google::protobuf::internal::ExtensionSet::GetUInt32(int, unsigned int) const
PUBLIC bfac0 0 google::protobuf::internal::ExtensionSet::GetRepeatedUInt32(int, int) const
PUBLIC bfb70 0 google::protobuf::internal::ExtensionSet::GetUInt64(int, unsigned long) const
PUBLIC bfba0 0 google::protobuf::internal::ExtensionSet::GetRepeatedUInt64(int, int) const
PUBLIC bfc50 0 google::protobuf::internal::ExtensionSet::GetFloat(int, float) const
PUBLIC bfc90 0 google::protobuf::internal::ExtensionSet::GetRepeatedFloat(int, int) const
PUBLIC bfd40 0 google::protobuf::internal::ExtensionSet::GetDouble(int, double) const
PUBLIC bfd80 0 google::protobuf::internal::ExtensionSet::GetRepeatedDouble(int, int) const
PUBLIC bfe30 0 google::protobuf::internal::ExtensionSet::GetBool(int, bool) const
PUBLIC bfe60 0 google::protobuf::internal::ExtensionSet::GetRepeatedBool(int, int) const
PUBLIC bff10 0 google::protobuf::internal::ExtensionSet::GetRawRepeatedField(int, void const*) const
PUBLIC bff30 0 google::protobuf::internal::ExtensionSet::GetRepeatedEnum(int, int) const
PUBLIC bffe0 0 google::protobuf::internal::ExtensionSet::GetString(int, std::__cxx11::basic_string<char, std::char_traits<char>, std::allocator<char> > const&) const
PUBLIC c0010 0 google::protobuf::internal::ExtensionSet::GetRepeatedString[abi:cxx11](int, int) const
PUBLIC c00c0 0 google::protobuf::internal::ExtensionSet::GetMessage(int, google::protobuf::MessageLite const&) const
PUBLIC c00f0 0 google::protobuf::internal::ExtensionSet::GetRepeatedMessage(int, int) const
PUBLIC c01a0 0 google::protobuf::internal::ExtensionSet::FindOrNullInLargeMap(int)
PUBLIC c01b0 0 google::protobuf::internal::ExtensionSet::FindOrNull(int)
PUBLIC c0230 0 google::protobuf::internal::ExtensionSet::ClearExtension(int)
PUBLIC c0260 0 google::protobuf::internal::ExtensionSet::SetRepeatedInt32(int, int, int)
PUBLIC c0310 0 google::protobuf::internal::ExtensionSet::SetRepeatedInt64(int, int, long)
PUBLIC c03c0 0 google::protobuf::internal::ExtensionSet::SetRepeatedUInt32(int, int, unsigned int)
PUBLIC c0470 0 google::protobuf::internal::ExtensionSet::SetRepeatedUInt64(int, int, unsigned long)
PUBLIC c0520 0 google::protobuf::internal::ExtensionSet::SetRepeatedFloat(int, int, float)
PUBLIC c05e0 0 google::protobuf::internal::ExtensionSet::SetRepeatedDouble(int, int, double)
PUBLIC c06a0 0 google::protobuf::internal::ExtensionSet::SetRepeatedBool(int, int, bool)
PUBLIC c0750 0 google::protobuf::internal::ExtensionSet::MutableRawRepeatedField(int)
PUBLIC c0800 0 google::protobuf::internal::ExtensionSet::SetRepeatedEnum(int, int, int)
PUBLIC c08b0 0 google::protobuf::internal::ExtensionSet::MutableRepeatedString[abi:cxx11](int, int)
PUBLIC c0960 0 google::protobuf::internal::ExtensionSet::MutableRepeatedMessage(int, int)
PUBLIC c0a10 0 google::protobuf::internal::ExtensionSet::RemoveLast(int)
PUBLIC c0b40 0 google::protobuf::internal::ExtensionSet::ReleaseLast(int)
PUBLIC c0c10 0 google::protobuf::internal::ExtensionSet::SwapElements(int, int, int)
PUBLIC c0dc0 0 google::protobuf::internal::RepeatedPrimitiveDefaults::default_instance()
PUBLIC c0ec0 0 google::protobuf::internal::RepeatedStringTypeTraits::GetDefaultRepeatedField[abi:cxx11]()
PUBLIC c0f60 0 google::protobuf::internal::ExtensionSet::Extension::InternalSerializeFieldWithCachedSizesToArray(int, unsigned char*, google::protobuf::io::EpsCopyOutputStream*) const
PUBLIC c43a0 0 google::protobuf::internal::ExtensionSet::_InternalSerialize(int, int, unsigned char*, google::protobuf::io::EpsCopyOutputStream*) const
PUBLIC c44d0 0 google::protobuf::internal::ExtensionSet::Extension::InternalSerializeMessageSetItemWithCachedSizesToArray(int, unsigned char*, google::protobuf::io::EpsCopyOutputStream*) const
PUBLIC c4760 0 google::protobuf::internal::ExtensionSet::InternalSerializeMessageSetWithCachedSizesToArray(unsigned char*, google::protobuf::io::EpsCopyOutputStream*) const
PUBLIC c4810 0 google::protobuf::internal::ExtensionSet::Extension::MessageSetItemByteSize(int) const
PUBLIC c48a0 0 google::protobuf::internal::ExtensionSet::MessageSetByteSize() const
PUBLIC c4940 0 google::protobuf::internal::ExtensionSet::Extension::Free()
PUBLIC c4af0 0 google::protobuf::internal::ExtensionSet::~ExtensionSet()
PUBLIC c4bd0 0 google::protobuf::internal::ExtensionSet::Erase(int)
PUBLIC c4c90 0 google::protobuf::internal::ExtensionSet::ReleaseMessage(int, google::protobuf::MessageLite const&)
PUBLIC c4db0 0 google::protobuf::internal::ExtensionSet::UnsafeArenaReleaseMessage(int, google::protobuf::MessageLite const&)
PUBLIC c4e30 0 google::protobuf::internal::(anonymous namespace)::Register(google::protobuf::MessageLite const*, int, google::protobuf::internal::ExtensionInfo) [clone .constprop.0]
PUBLIC c5220 0 google::protobuf::internal::ExtensionSet::RegisterMessageExtension(google::protobuf::MessageLite const*, int, unsigned char, bool, bool, google::protobuf::MessageLite const*)
PUBLIC c5300 0 google::protobuf::internal::ExtensionSet::RegisterEnumExtension(google::protobuf::MessageLite const*, int, unsigned char, bool, bool, bool (*)(int))
PUBLIC c53e0 0 google::protobuf::internal::ExtensionSet::RegisterExtension(google::protobuf::MessageLite const*, int, unsigned char, bool, bool)
PUBLIC c5570 0 google::protobuf::internal::ExtensionSet::GrowCapacity(unsigned long)
PUBLIC c57c0 0 google::protobuf::internal::ExtensionSet::Insert(int) [clone .localalias]
PUBLIC c5930 0 google::protobuf::internal::ExtensionSet::MaybeNewExtension(int, google::protobuf::FieldDescriptor const*, google::protobuf::internal::ExtensionSet::Extension**)
PUBLIC c5960 0 google::protobuf::internal::ExtensionSet::SetInt32(int, unsigned char, int, google::protobuf::FieldDescriptor const*) [clone .localalias]
PUBLIC c59a0 0 google::protobuf::internal::ExtensionSet::SetEnum(int, unsigned char, int, google::protobuf::FieldDescriptor const*)
PUBLIC c59b0 0 google::protobuf::internal::ExtensionSet::AddInt32(int, unsigned char, bool, int, google::protobuf::FieldDescriptor const*) [clone .localalias]
PUBLIC c5aa0 0 google::protobuf::internal::ExtensionSet::AddEnum(int, unsigned char, bool, int, google::protobuf::FieldDescriptor const*)
PUBLIC c5ab0 0 google::protobuf::internal::ExtensionSet::SetInt64(int, unsigned char, long, google::protobuf::FieldDescriptor const*)
PUBLIC c5af0 0 google::protobuf::internal::ExtensionSet::AddInt64(int, unsigned char, bool, long, google::protobuf::FieldDescriptor const*)
PUBLIC c5be0 0 google::protobuf::internal::ExtensionSet::SetUInt32(int, unsigned char, unsigned int, google::protobuf::FieldDescriptor const*)
PUBLIC c5c20 0 google::protobuf::internal::ExtensionSet::AddUInt32(int, unsigned char, bool, unsigned int, google::protobuf::FieldDescriptor const*)
PUBLIC c5d10 0 google::protobuf::internal::ExtensionSet::SetUInt64(int, unsigned char, unsigned long, google::protobuf::FieldDescriptor const*)
PUBLIC c5d50 0 google::protobuf::internal::ExtensionSet::AddUInt64(int, unsigned char, bool, unsigned long, google::protobuf::FieldDescriptor const*)
PUBLIC c5e40 0 google::protobuf::internal::ExtensionSet::SetFloat(int, unsigned char, float, google::protobuf::FieldDescriptor const*)
PUBLIC c5e80 0 google::protobuf::internal::ExtensionSet::AddFloat(int, unsigned char, bool, float, google::protobuf::FieldDescriptor const*)
PUBLIC c5f70 0 google::protobuf::internal::ExtensionSet::SetDouble(int, unsigned char, double, google::protobuf::FieldDescriptor const*)
PUBLIC c5fb0 0 google::protobuf::internal::ExtensionSet::AddDouble(int, unsigned char, bool, double, google::protobuf::FieldDescriptor const*)
PUBLIC c60a0 0 google::protobuf::internal::ExtensionSet::SetBool(int, unsigned char, bool, google::protobuf::FieldDescriptor const*)
PUBLIC c60e0 0 google::protobuf::internal::ExtensionSet::AddBool(int, unsigned char, bool, bool, google::protobuf::FieldDescriptor const*)
PUBLIC c61d0 0 google::protobuf::internal::ExtensionSet::MutableRawRepeatedField(int, unsigned char, bool, google::protobuf::FieldDescriptor const*)
PUBLIC c6530 0 google::protobuf::internal::ExtensionSet::MutableString[abi:cxx11](int, unsigned char, google::protobuf::FieldDescriptor const*)
PUBLIC c65f0 0 google::protobuf::internal::ExtensionSet::AddString[abi:cxx11](int, unsigned char, google::protobuf::FieldDescriptor const*)
PUBLIC c66b0 0 google::protobuf::internal::ExtensionSet::MutableMessage(int, unsigned char, google::protobuf::MessageLite const&, google::protobuf::FieldDescriptor const*)
PUBLIC c6740 0 google::protobuf::internal::ExtensionSet::SetAllocatedMessage(int, unsigned char, google::protobuf::FieldDescriptor const*, google::protobuf::MessageLite*)
PUBLIC c68b0 0 google::protobuf::internal::ExtensionSet::UnsafeArenaSetAllocatedMessage(int, unsigned char, google::protobuf::FieldDescriptor const*, google::protobuf::MessageLite*)
PUBLIC c6950 0 google::protobuf::internal::ExtensionSet::AddMessage(int, unsigned char, google::protobuf::MessageLite const&, google::protobuf::FieldDescriptor const*)
PUBLIC c6a80 0 google::protobuf::internal::ExtensionSet::ParseField(unsigned long, char const*, google::protobuf::MessageLite const*, google::protobuf::internal::InternalMetadata*, google::protobuf::internal::ParseContext*)
PUBLIC c6b80 0 google::protobuf::internal::ExtensionSet::ParseMessageSetItem(char const*, google::protobuf::MessageLite const*, google::protobuf::internal::InternalMetadata*, google::protobuf::internal::ParseContext*)
PUBLIC c6b90 0 google::protobuf::internal::ExtensionSet::ParseFieldWithExtensionInfo(int, bool, google::protobuf::internal::ExtensionInfo const&, google::protobuf::io::CodedInputStream*, google::protobuf::internal::FieldSkipper*)
PUBLIC c7ce0 0 google::protobuf::internal::ExtensionSet::ParseField(unsigned int, google::protobuf::io::CodedInputStream*, google::protobuf::internal::ExtensionFinder*, google::protobuf::internal::FieldSkipper*)
PUBLIC c7d60 0 google::protobuf::internal::ExtensionSet::ParseField(unsigned int, google::protobuf::io::CodedInputStream*, google::protobuf::MessageLite const*)
PUBLIC c7dd0 0 google::protobuf::internal::ExtensionSet::ParseField(unsigned int, google::protobuf::io::CodedInputStream*, google::protobuf::MessageLite const*, google::protobuf::io::CodedOutputStream*)
PUBLIC c7e40 0 google::protobuf::internal::ExtensionSet::ParseMessageSetItemLite(google::protobuf::io::CodedInputStream*, google::protobuf::internal::ExtensionFinder*, google::protobuf::internal::FieldSkipper*)
PUBLIC c8180 0 google::protobuf::internal::ExtensionSet::ParseMessageSetLite(google::protobuf::io::CodedInputStream*, google::protobuf::internal::ExtensionFinder*, google::protobuf::internal::FieldSkipper*)
PUBLIC c8230 0 google::protobuf::internal::ExtensionSet::ParseMessageSet(google::protobuf::io::CodedInputStream*, google::protobuf::MessageLite const*, std::__cxx11::basic_string<char, std::char_traits<char>, std::allocator<char> >*)
PUBLIC c82f0 0 google::protobuf::internal::ExtensionSet::InternalExtensionMergeFrom(int, google::protobuf::internal::ExtensionSet::Extension const&)
PUBLIC c8ed0 0 google::protobuf::internal::ExtensionSet::SwapExtension(google::protobuf::internal::ExtensionSet*, int)
PUBLIC c90a0 0 google::protobuf::internal::ExtensionSet::MergeFrom(google::protobuf::internal::ExtensionSet const&)
PUBLIC c9290 0 google::protobuf::internal::ExtensionSet::Swap(google::protobuf::internal::ExtensionSet*)
PUBLIC c9340 0 google::protobuf::internal::ExtensionSet::LazyMessageExtension::ByteSize() const
PUBLIC c9350 0 void google::protobuf::internal::arena_destruct_object<google::protobuf::internal::InternalMetadata::Container<std::__cxx11::basic_string<char, std::char_traits<char>, std::allocator<char> > > >(void*)
PUBLIC c9370 0 void google::protobuf::internal::arena_destruct_object<google::protobuf::RepeatedField<int> >(void*)
PUBLIC c9380 0 void google::protobuf::internal::arena_destruct_object<google::protobuf::RepeatedField<long> >(void*)
PUBLIC c9390 0 void google::protobuf::internal::arena_destruct_object<google::protobuf::RepeatedField<unsigned int> >(void*)
PUBLIC c93a0 0 void google::protobuf::internal::arena_destruct_object<google::protobuf::RepeatedField<unsigned long> >(void*)
PUBLIC c93b0 0 void google::protobuf::internal::arena_destruct_object<google::protobuf::RepeatedField<float> >(void*)
PUBLIC c93c0 0 void google::protobuf::internal::arena_destruct_object<google::protobuf::RepeatedField<double> >(void*)
PUBLIC c93d0 0 void google::protobuf::internal::arena_destruct_object<google::protobuf::RepeatedField<bool> >(void*)
PUBLIC c93e0 0 void google::protobuf::internal::arena_destruct_object<google::protobuf::RepeatedPtrField<std::__cxx11::basic_string<char, std::char_traits<char>, std::allocator<char> > > >(void*)
PUBLIC c93f0 0 google::protobuf::internal::OnShutdownDelete<google::protobuf::internal::RepeatedPrimitiveDefaults>(google::protobuf::internal::RepeatedPrimitiveDefaults*)::{lambda(void const*)#1}::_FUN(void const*)
PUBLIC c9450 0 google::protobuf::internal::OnShutdownDelete<google::protobuf::RepeatedPtrField<std::__cxx11::basic_string<char, std::char_traits<char>, std::allocator<char> > > >(google::protobuf::RepeatedPtrField<std::__cxx11::basic_string<char, std::char_traits<char>, std::allocator<char> > >*)::{lambda(void const*)#1}::_FUN(void const*)
PUBLIC c9480 0 google::protobuf::internal::GeneratedExtensionFinder::~GeneratedExtensionFinder()
PUBLIC c94a0 0 google::protobuf::internal::GeneratedExtensionFinder::~GeneratedExtensionFinder()
PUBLIC c94d0 0 std::__cxx11::basic_string<char, std::char_traits<char>, std::allocator<char> >* google::protobuf::internal::InternalMetadata::mutable_unknown_fields_slow<std::__cxx11::basic_string<char, std::char_traits<char>, std::allocator<char> > >()
PUBLIC c9580 0 std::_Rb_tree<int, std::pair<int const, google::protobuf::internal::ExtensionSet::Extension>, std::_Select1st<std::pair<int const, google::protobuf::internal::ExtensionSet::Extension> >, std::less<int>, std::allocator<std::pair<int const, google::protobuf::internal::ExtensionSet::Extension> > >::_M_erase(std::_Rb_tree_node<std::pair<int const, google::protobuf::internal::ExtensionSet::Extension> >*)
PUBLIC c95c0 0 void google::protobuf::internal::arena_destruct_object<std::map<int, google::protobuf::internal::ExtensionSet::Extension, std::less<int>, std::allocator<std::pair<int const, google::protobuf::internal::ExtensionSet::Extension> > > >(void*)
PUBLIC c95d0 0 void google::protobuf::internal::RepeatedPtrFieldBase::Destroy<google::protobuf::RepeatedPtrField<google::protobuf::MessageLite>::TypeHandler>()
PUBLIC c9650 0 void google::protobuf::internal::arena_destruct_object<google::protobuf::RepeatedPtrField<google::protobuf::MessageLite> >(void*)
PUBLIC c9660 0 std::_Rb_tree<int, std::pair<int const, google::protobuf::internal::ExtensionSet::Extension>, std::_Select1st<std::pair<int const, google::protobuf::internal::ExtensionSet::Extension> >, std::less<int>, std::allocator<std::pair<int const, google::protobuf::internal::ExtensionSet::Extension> > >::erase(int const&)
PUBLIC c97d0 0 void google::protobuf::internal::RepeatedPtrFieldBase::AddAllocatedInternal<google::protobuf::RepeatedPtrField<google::protobuf::MessageLite>::TypeHandler>(google::protobuf::RepeatedPtrField<google::protobuf::MessageLite>::TypeHandler::Type*, std::integral_constant<bool, false>)
PUBLIC c98b0 0 char const* google::protobuf::internal::EpsCopyInputStream::ReadPackedVarint<google::protobuf::internal::PackedEnumParserArg<std::__cxx11::basic_string<char, std::char_traits<char>, std::allocator<char> > >(void*, char const*, google::protobuf::internal::ParseContext*, bool (*)(void const*, int), void const*, google::protobuf::internal::InternalMetadata*, int)::{lambda(unsigned long)#1}>(char const*, google::protobuf::internal::PackedEnumParserArg<std::__cxx11::basic_string<char, std::char_traits<char>, std::allocator<char> > >(void*, char const*, google::protobuf::internal::ParseContext*, bool (*)(void const*, int), void const*, google::protobuf::internal::InternalMetadata*, int)::{lambda(unsigned long)#1})
PUBLIC c9a50 0 std::_Rb_tree<int, std::pair<int const, google::protobuf::internal::ExtensionSet::Extension>, std::_Select1st<std::pair<int const, google::protobuf::internal::ExtensionSet::Extension> >, std::less<int>, std::allocator<std::pair<int const, google::protobuf::internal::ExtensionSet::Extension> > >::_M_get_insert_unique_pos(int const&)
PUBLIC c9ae0 0 std::_Rb_tree_iterator<std::pair<int const, google::protobuf::internal::ExtensionSet::Extension> > std::_Rb_tree<int, std::pair<int const, google::protobuf::internal::ExtensionSet::Extension>, std::_Select1st<std::pair<int const, google::protobuf::internal::ExtensionSet::Extension> >, std::less<int>, std::allocator<std::pair<int const, google::protobuf::internal::ExtensionSet::Extension> > >::_M_insert_<std::pair<int const, google::protobuf::internal::ExtensionSet::Extension>, std::_Rb_tree<int, std::pair<int const, google::protobuf::internal::ExtensionSet::Extension>, std::_Select1st<std::pair<int const, google::protobuf::internal::ExtensionSet::Extension> >, std::less<int>, std::allocator<std::pair<int const, google::protobuf::internal::ExtensionSet::Extension> > >::_Alloc_node>(std::_Rb_tree_node_base*, std::_Rb_tree_node_base*, std::pair<int const, google::protobuf::internal::ExtensionSet::Extension>&&, std::_Rb_tree<int, std::pair<int const, google::protobuf::internal::ExtensionSet::Extension>, std::_Select1st<std::pair<int const, google::protobuf::internal::ExtensionSet::Extension> >, std::less<int>, std::allocator<std::pair<int const, google::protobuf::internal::ExtensionSet::Extension> > >::_Alloc_node&)
PUBLIC c9b70 0 std::_Rb_tree<int, std::pair<int const, google::protobuf::internal::ExtensionSet::Extension>, std::_Select1st<std::pair<int const, google::protobuf::internal::ExtensionSet::Extension> >, std::less<int>, std::allocator<std::pair<int const, google::protobuf::internal::ExtensionSet::Extension> > >::_M_get_insert_hint_unique_pos(std::_Rb_tree_const_iterator<std::pair<int const, google::protobuf::internal::ExtensionSet::Extension> >, int const&)
PUBLIC c9c80 0 char const* google::protobuf::internal::ExtensionSet::ParseFieldWithExtensionInfo<std::__cxx11::basic_string<char, std::char_traits<char>, std::allocator<char> > >(int, bool, google::protobuf::internal::ExtensionInfo const&, google::protobuf::internal::InternalMetadata*, char const*, google::protobuf::internal::ParseContext*)
PUBLIC ca6d0 0 char const* google::protobuf::internal::ExtensionSet::ParseMessageSetItemTmpl<google::protobuf::MessageLite, std::__cxx11::basic_string<char, std::char_traits<char>, std::allocator<char> > >(char const*, google::protobuf::MessageLite const*, google::protobuf::internal::InternalMetadata*, google::protobuf::internal::ParseContext*)
PUBLIC cac40 0 google::protobuf::io::SafeDoubleToFloat(double)
PUBLIC cacc0 0 google::protobuf::io::NoLocaleStrtod(char const*, char**)
PUBLIC cacd0 0 google::protobuf::io::ZeroCopyOutputStream::WriteAliasedRaw(void const*, int)
PUBLIC cad30 0 google::protobuf::internal::ArenaStringPtr::CreateInstanceNoArena(std::__cxx11::basic_string<char, std::char_traits<char>, std::allocator<char> > const*) [clone .isra.0] [clone .constprop.0]
PUBLIC cae00 0 google::protobuf::internal::AnyMetadata::PackFrom(google::protobuf::Message const&, std::__cxx11::basic_string<char, std::char_traits<char>, std::allocator<char> > const&)
PUBLIC cafd0 0 google::protobuf::internal::AnyMetadata::PackFrom(google::protobuf::Message const&)
PUBLIC cb0c0 0 google::protobuf::internal::AnyMetadata::UnpackTo(google::protobuf::Message*) const
PUBLIC cb120 0 google::protobuf::internal::GetAnyFieldDescriptors(google::protobuf::Message const&, google::protobuf::FieldDescriptor const**, google::protobuf::FieldDescriptor const**)
PUBLIC cb1f0 0 google::protobuf::(anonymous namespace)::AggregateErrorCollector::AddWarning(int, int, std::__cxx11::basic_string<char, std::char_traits<char>, std::allocator<char> > const&)
PUBLIC cb200 0 std::_Hashtable<std::pair<google::protobuf::Descriptor const*, int>, std::pair<std::pair<google::protobuf::Descriptor const*, int> const, google::protobuf::FieldDescriptor const*>, std::allocator<std::pair<std::pair<google::protobuf::Descriptor const*, int> const, google::protobuf::FieldDescriptor const*> >, std::__detail::_Select1st, std::equal_to<std::pair<google::protobuf::Descriptor const*, int> >, google::protobuf::(anonymous namespace)::PointerIntegerPairHash<std::pair<google::protobuf::Descriptor const*, int> >, std::__detail::_Mod_range_hashing, std::__detail::_Default_ranged_hash, std::__detail::_Prime_rehash_policy, std::__detail::_Hashtable_traits<true, false, true> >::_M_find_before_node(unsigned long, std::pair<google::protobuf::Descriptor const*, int> const&, unsigned long) const
PUBLIC cb270 0 std::_Hashtable<std::pair<google::protobuf::Descriptor const*, int>, std::pair<std::pair<google::protobuf::Descriptor const*, int> const, google::protobuf::FieldDescriptor const*>, std::allocator<std::pair<std::pair<google::protobuf::Descriptor const*, int> const, google::protobuf::FieldDescriptor const*> >, std::__detail::_Select1st, std::equal_to<std::pair<google::protobuf::Descriptor const*, int> >, google::protobuf::(anonymous namespace)::PointerIntegerPairHash<std::pair<google::protobuf::Descriptor const*, int> >, std::__detail::_Mod_range_hashing, std::__detail::_Default_ranged_hash, std::__detail::_Prime_rehash_policy, std::__detail::_Hashtable_traits<true, false, true> >::find(std::pair<google::protobuf::Descriptor const*, int> const&) const
PUBLIC cb2c0 0 std::_Hashtable<std::pair<google::protobuf::EnumDescriptor const*, int>, std::pair<std::pair<google::protobuf::EnumDescriptor const*, int> const, google::protobuf::EnumValueDescriptor const*>, std::allocator<std::pair<std::pair<google::protobuf::EnumDescriptor const*, int> const, google::protobuf::EnumValueDescriptor const*> >, std::__detail::_Select1st, std::equal_to<std::pair<google::protobuf::EnumDescriptor const*, int> >, google::protobuf::(anonymous namespace)::PointerIntegerPairHash<std::pair<google::protobuf::EnumDescriptor const*, int> >, std::__detail::_Mod_range_hashing, std::__detail::_Default_ranged_hash, std::__detail::_Prime_rehash_policy, std::__detail::_Hashtable_traits<true, false, true> >::_M_find_before_node(unsigned long, std::pair<google::protobuf::EnumDescriptor const*, int> const&, unsigned long) const
PUBLIC cb330 0 std::_Hashtable<std::pair<google::protobuf::EnumDescriptor const*, int>, std::pair<std::pair<google::protobuf::EnumDescriptor const*, int> const, google::protobuf::EnumValueDescriptor const*>, std::allocator<std::pair<std::pair<google::protobuf::EnumDescriptor const*, int> const, google::protobuf::EnumValueDescriptor const*> >, std::__detail::_Select1st, std::equal_to<std::pair<google::protobuf::EnumDescriptor const*, int> >, google::protobuf::(anonymous namespace)::PointerIntegerPairHash<std::pair<google::protobuf::EnumDescriptor const*, int> >, std::__detail::_Mod_range_hashing, std::__detail::_Default_ranged_hash, std::__detail::_Prime_rehash_policy, std::__detail::_Hashtable_traits<true, false, true> >::find(std::pair<google::protobuf::EnumDescriptor const*, int> const&) const
PUBLIC cb380 0 std::_Hashtable<std::pair<google::protobuf::EnumDescriptor const*, int>, std::pair<std::pair<google::protobuf::EnumDescriptor const*, int> const, google::protobuf::EnumValueDescriptor const*>, std::allocator<std::pair<std::pair<google::protobuf::EnumDescriptor const*, int> const, google::protobuf::EnumValueDescriptor const*> >, std::__detail::_Select1st, std::equal_to<std::pair<google::protobuf::EnumDescriptor const*, int> >, google::protobuf::(anonymous namespace)::PointerIntegerPairHash<std::pair<google::protobuf::EnumDescriptor const*, int> >, std::__detail::_Mod_range_hashing, std::__detail::_Default_ranged_hash, std::__detail::_Prime_rehash_policy, std::__detail::_Hashtable_traits<true, false, true> >::find(std::pair<google::protobuf::EnumDescriptor const*, int> const&)
PUBLIC cb3d0 0 std::_Hashtable<std::pair<void const*, char const*>, std::pair<std::pair<void const*, char const*> const, google::protobuf::FieldDescriptor const*>, std::allocator<std::pair<std::pair<void const*, char const*> const, google::protobuf::FieldDescriptor const*> >, std::__detail::_Select1st, google::protobuf::(anonymous namespace)::PointerStringPairEqual, google::protobuf::(anonymous namespace)::PointerStringPairHash, std::__detail::_Mod_range_hashing, std::__detail::_Default_ranged_hash, std::__detail::_Prime_rehash_policy, std::__detail::_Hashtable_traits<true, false, true> >::~_Hashtable()
PUBLIC cb450 0 std::_Hashtable<std::pair<void const*, char const*>, std::pair<std::pair<void const*, char const*> const, google::protobuf::Symbol>, std::allocator<std::pair<std::pair<void const*, char const*> const, google::protobuf::Symbol> >, std::__detail::_Select1st, google::protobuf::(anonymous namespace)::PointerStringPairEqual, google::protobuf::(anonymous namespace)::PointerStringPairHash, std::__detail::_Mod_range_hashing, std::__detail::_Default_ranged_hash, std::__detail::_Prime_rehash_policy, std::__detail::_Hashtable_traits<true, false, true> >::~_Hashtable()
PUBLIC cb4d0 0 std::_Hashtable<std::pair<google::protobuf::Descriptor const*, int>, std::pair<std::pair<google::protobuf::Descriptor const*, int> const, google::protobuf::FieldDescriptor const*>, std::allocator<std::pair<std::pair<google::protobuf::Descriptor const*, int> const, google::protobuf::FieldDescriptor const*> >, std::__detail::_Select1st, std::equal_to<std::pair<google::protobuf::Descriptor const*, int> >, google::protobuf::(anonymous namespace)::PointerIntegerPairHash<std::pair<google::protobuf::Descriptor const*, int> >, std::__detail::_Mod_range_hashing, std::__detail::_Default_ranged_hash, std::__detail::_Prime_rehash_policy, std::__detail::_Hashtable_traits<true, false, true> >::~_Hashtable()
