MODULE Linux x86_64 F249A6343E79B69855A87DB2F59177F80 libdsngen.so
INFO CODE_ID 34A649F2793E98B655A87DB2F59177F897064DC3
PUBLIC c000 0 _init
PUBLIC d120 0 deregister_tm_clones
PUBLIC d150 0 register_tm_clones
PUBLIC d190 0 __do_global_dtors_aux
PUBLIC d1d0 0 frame_dummy
PUBLIC d1d5 0 dsngen_process_xst_items
PUBLIC d94f 0 dsngen_traverse_design_all
PUBLIC ea98 0 dsngen_generate
PUBLIC ecb4 0 dsnStringBuffer2
PUBLIC ed95 0 dsnStringBufferByNum
PUBLIC ee80 0 dsnGetContainingScope
PUBLIC f24c 0 dsnRecordFileId
PUBLIC f2b0 0 addToFileObjList
PUBLIC f37a 0 dsnGetFileInfo
PUBLIC f48e 0 dsnVpiIterate
PUBLIC f49c 0 dsnAddCpfSourceChunks
PUBLIC f629 0 dsnConcatNameBufferAppend
PUBLIC f706 0 dsnFullHierName.localalias
PUBLIC f972 0 dsnConcatName.localalias
PUBLIC fb2e 0 dsnVhpiGetPortDir
PUBLIC fbc0 0 dsnFormalPortPosition
PUBLIC ffcd 0 dsnCheckPortFormals
PUBLIC 1002f 0 dsnPortPosInCompInst
PUBLIC 10485 0 dsnPortSpec
PUBLIC 10c35 0 dsnIterateForPortSpec
PUBLIC 10cde 0 dsnIterateForName
PUBLIC 10ed9 0 dsnIterateForBoundaryPortProps
PUBLIC 10f4d 0 dsnNominalCondBasicProps
PUBLIC 10fd6 0 dsnGetNominalConditions
PUBLIC 11049 0 dsnPwrModeBasicProps
PUBLIC 11179 0 dsnGetPwrModes
PUBLIC 111ec 0 dsnIterateForMappedDomainProps
PUBLIC 11329 0 dsnRecordTextRef
PUBLIC 116f5 0 dsnProcessTextRefs
PUBLIC 11818 0 dsnRecordLPFileAttribute
PUBLIC 118e7 0 dsnIterateForDomainTextRefs
PUBLIC 11974 0 create_list
PUBLIC 119c5 0 addToList
PUBLIC 11a2e 0 dsnPwrSwitchBasicProps
PUBLIC 11cbd 0 dsnPwrSupplyNetBasicProps
PUBLIC 12027 0 dsnIterateForSupplySetHandlesProps
PUBLIC 120f9 0 dsnGetIsolationRules
PUBLIC 1279d 0 dsnPwrSupplyPortBasicProps
PUBLIC 128b0 0 dsnPwrSupplySetBasicProps
PUBLIC 12a14 0 dsnGetPwrSupplyPorts
PUBLIC 12ac9 0 dsnGetPwrLPFiles
PUBLIC 12b8f 0 dsnGetPwrSupplyNets
PUBLIC 12c69 0 dsnGetPwrSupplySets
PUBLIC 12d36 0 dsnGetPwrSwitches
PUBLIC 12deb 0 dsnGetPwrDomains
PUBLIC 137a1 0 dsnOpString
PUBLIC 13c39 0 dsnGetLang
PUBLIC 13c9b 0 dsnInstance.localalias
PUBLIC 13e9d 0 dsnIsWithinPackage
PUBLIC 13ecd 0 dsnIsArrayMember
PUBLIC 1402e 0 dsnIsStructUnionMember
PUBLIC 14128 0 dsnIsArrayOfStructMember
PUBLIC 14177 0 dsnPwrPortConnection.localalias
PUBLIC 155f9 0 cmpfunc
PUBLIC 1563b 0 cleanup
PUBLIC 15671 0 dsngen_prof_write
PUBLIC 15817 0 stack_array_new
PUBLIC 15870 0 dsngen_prof_push
PUBLIC 159fa 0 dsngen_prof_pop
PUBLIC 15b40 0 (anonymous namespace)::dsngen_calc_expr_value_recur(vst_s*, long*, int*)
PUBLIC 15d26 0 (anonymous namespace)::dsngen_get_module(ssl_item_s*, ssl_item_s*, ssl_item_s*)
PUBLIC 15df6 0 std::_Hashtable<std::pair<xst_s*, long*>, std::pair<std::pair<xst_s*, long*> const, std::unordered_map<std::__cxx11::basic_string<char, std::char_traits<char>, std::allocator<char> >, vst_s*, std::hash<std::__cxx11::basic_string<char, std::char_traits<char>, std::allocator<char> > >, std::equal_to<std::__cxx11::basic_string<char, std::char_traits<char>, std::allocator<char> > >, std::allocator<std::pair<std::__cxx11::basic_string<char, std::char_traits<char>, std::allocator<char> > const, vst_s*> > > >, std::allocator<std::pair<std::pair<xst_s*, long*> const, std::unordered_map<std::__cxx11::basic_string<char, std::char_traits<char>, std::allocator<char> >, vst_s*, std::hash<std::__cxx11::basic_string<char, std::char_traits<char>, std::allocator<char> > >, std::equal_to<std::__cxx11::basic_string<char, std::char_traits<char>, std::allocator<char> > >, std::allocator<std::pair<std::__cxx11::basic_string<char, std::char_traits<char>, std::allocator<char> > const, vst_s*> > > > >, std::__detail::_Select1st, std::equal_to<std::pair<xst_s*, long*> >, (anonymous namespace)::PointerPairHash, std::__detail::_Mod_range_hashing, std::__detail::_Default_ranged_hash, std::__detail::_Prime_rehash_policy, std::__detail::_Hashtable_traits<true, false, true> >::_M_find_before_node(unsigned long, std::pair<xst_s*, long*> const&, unsigned long) const
PUBLIC 15e57 0 (anonymous namespace)::dsngen_idaDesignRecordClassAName(char const*, char const*)
PUBLIC 15e9b 0 (anonymous namespace)::dsngen_idaDesignRecordClassExtends(char const*, char const*)
PUBLIC 15edf 0 (anonymous namespace)::dsnGetEnvInt(char*)
PUBLIC 15f10 0 (anonymous namespace)::dsngenEnablePortHash()
PUBLIC 15f52 0 (anonymous namespace)::dsnRecordSourceFile(char*, char*)
PUBLIC 162ac 0 (anonymous namespace)::dsngen_append_dstr((anonymous namespace)::dstr*, char const*)
PUBLIC 163b1 0 (anonymous namespace)::dsngen_remove_directory(char const*)
PUBLIC 163d0 0 (anonymous namespace)::dsngen_remove_file(char const*, stat const*, int, FTW*)
PUBLIC 163e3 0 (anonymous namespace)::dsngen_remove_files_and_directories(char const*, stat const*, int, FTW*)
PUBLIC 16490 0 std::_Hashtable<std::pair<xst_s*, long*>, std::pair<std::pair<xst_s*, long*> const, std::unordered_map<std::__cxx11::basic_string<char, std::char_traits<char>, std::allocator<char> >, vst_s*, std::hash<std::__cxx11::basic_string<char, std::char_traits<char>, std::allocator<char> > >, std::equal_to<std::__cxx11::basic_string<char, std::char_traits<char>, std::allocator<char> > >, std::allocator<std::pair<std::__cxx11::basic_string<char, std::char_traits<char>, std::allocator<char> > const, vst_s*> > > >, std::allocator<std::pair<std::pair<xst_s*, long*> const, std::unordered_map<std::__cxx11::basic_string<char, std::char_traits<char>, std::allocator<char> >, vst_s*, std::hash<std::__cxx11::basic_string<char, std::char_traits<char>, std::allocator<char> > >, std::equal_to<std::__cxx11::basic_string<char, std::char_traits<char>, std::allocator<char> > >, std::allocator<std::pair<std::__cxx11::basic_string<char, std::char_traits<char>, std::allocator<char> > const, vst_s*> > > > >, std::__detail::_Select1st, std::equal_to<std::pair<xst_s*, long*> >, (anonymous namespace)::PointerPairHash, std::__detail::_Mod_range_hashing, std::__detail::_Default_ranged_hash, std::__detail::_Prime_rehash_policy, std::__detail::_Hashtable_traits<true, false, true> >::_M_rehash(unsigned long, unsigned long const&)
PUBLIC 165a6 0 dsngen_idaDesignRecordOOPREntry
PUBLIC 16613 0 (anonymous namespace)::dsngen_ida_record_ooxr(char const*, char const*, char const*, char const*, char const*, ssl_item_s*, ssl_item_s*, std::function<._859 (ssl_item_s*, xst_s*, ssl_item_s*, char const*, char const*, char const*, char const*, char const*)>*, xst_s*)
PUBLIC 16714 0 dsngen_idaDesignRecordSupplyNetHDLLoad
PUBLIC 16758 0 dsngen_idaDesignRecordSupplyNetHDLDriver
PUBLIC 1679f 0 dsngen_idaDesignRecordLibertyExtendedData
PUBLIC 167e6 0 dsngen_idaDesignRecordLPPowerSwitchHDLLoad
PUBLIC 1682a 0 dsngen_idaDesignRecordLPFileScopeId
PUBLIC 16883 0 dsngen_idaDesignRecordHdlScopeToLPDomain
PUBLIC 168ca 0 dsngen_idaDesignRecordLPConnectLogicNet
PUBLIC 16925 0 dsngen_idaDesignRecordLPTextRef
PUBLIC 16998 0 dsngen_open_ida_db
PUBLIC 169ba 0 dsngen_close_ida_db
PUBLIC 169e7 0 dsngen_record_upf_command_info
PUBLIC 16a70 0 dsngen_record_liberty_cell_info
PUBLIC 16afc 0 dsngen_record_liberty_lib_info
PUBLIC 16b9a 0 dsngen_close_search
PUBLIC 16bfb 0 dsngen_idaDesignRecordLPScope
PUBLIC 16c51 0 dsngen_idaDesignRecordHierarchyEntry
PUBLIC 16ce3 0 dsngen_idaGetCoercedPartitionBoundaryPorts
PUBLIC 16d50 0 dsngen_make_string
PUBLIC 16dbb 0 dsngen_get_pth_sv_name
PUBLIC 16e8d 0 dsngen_record_oomr_bitmem_sel
PUBLIC 173a8 0 dsngen_print_item_to_asrt_file
PUBLIC 17433 0 dsngen_create_fsm
PUBLIC 177d3 0 dsngen_add_interface_oomr
PUBLIC 1783c 0 dsngen_get_pth_full_flag
PUBLIC 17850 0 (anonymous namespace)::dsngen_get_pth_name(ssl_item_s*, void*)
PUBLIC 1792b 0 dsngen_vhdl_scope_assertions
PUBLIC 179dc 0 dsngen_get_pth_simple_flag
PUBLIC 179ed 0 dsngen_add_module_search
PUBLIC 17cf8 0 dsngen_print_scope_path_to_buf
PUBLIC 17edd 0 dsngen_record_sva_data
PUBLIC 17fb1 0 (anonymous namespace)::dsnCreateAnamesTable(bool)
PUBLIC 183a6 0 dsngen_backup_partial_db
PUBLIC 18569 0 (anonymous namespace)::dsngen_copy_file(char const*, stat const*, int, FTW*)
PUBLIC 18b4d 0 dsngen_lcvname
PUBLIC 1955f 0 dsngen_process_source_table
PUBLIC 19627 0 (anonymous namespace)::initCoercionHash()
PUBLIC 19697 0 (anonymous namespace)::dsngen_search_init(char*, int)
PUBLIC 19b1a 0 dsngen_close
PUBLIC 19e5c 0 (anonymous namespace)::dsngenPortHashLookup(ssl_item_s*, ssl_item_s*)
PUBLIC 1a4d7 0 dsngenAddSrcToHash
PUBLIC 1a570 0 dsngen_record_upf_file
PUBLIC 1a5b9 0 dsngen_record_pdf
PUBLIC 1a68e 0 dsngen_record_pgpin
PUBLIC 1a752 0 dsnCreateSourceTable
PUBLIC 1a832 0 dsngen_record_include_to_db
PUBLIC 1a96e 0 dsngen_create_xprop
PUBLIC 1ad1b 0 dsngen_record_class_inheritance
PUBLIC 1ae2d 0 (anonymous namespace)::dsngen_mark_inputs_in_expr(vst_s*, long*, char*)
PUBLIC 1b0bd 0 dsngen_propagate_coercion
PUBLIC 1b503 0 dsngen_process_scope_oomrs_internal
PUBLIC 1e7f0 0 dsngen_process_scope_oomrs
PUBLIC 1e809 0 dsngen_process_coercion
PUBLIC 1e9aa 0 dsngen_record_aname_to_db
PUBLIC 1ebaa 0 (anonymous namespace)::dsngen_create_version_new(char*, char*, char*, char*)
PUBLIC 1fa54 0 dsngen_record_lwd_shards
PUBLIC 205db 0 dsngen_init
PUBLIC 20f3c 0 boost::property_tree::ptree_error::~ptree_error()
PUBLIC 20f58 0 boost::property_tree::ptree_error::~ptree_error()
PUBLIC 20f7e 0 boost::property_tree::ptree_bad_path::~ptree_bad_path()
PUBLIC 20fb8 0 boost::property_tree::ptree_bad_data::~ptree_bad_data()
PUBLIC 20ff2 0 boost::property_tree::file_parser_error::~file_parser_error()
PUBLIC 21040 0 boost::property_tree::ptree_bad_data::~ptree_bad_data()
PUBLIC 21086 0 boost::property_tree::ptree_bad_path::~ptree_bad_path()
PUBLIC 210cc 0 boost::property_tree::json_parser::json_parser_error::~json_parser_error()
PUBLIC 2111a 0 boost::property_tree::file_parser_error::~file_parser_error()
PUBLIC 21176 0 boost::property_tree::json_parser::json_parser_error::~json_parser_error()
PUBLIC 211d2 0 virtual thunk to boost::exception_detail::clone_impl<boost::exception_detail::error_info_injector<boost::property_tree::json_parser::json_parser_error> >::~clone_impl()
PUBLIC 21275 0 non-virtual thunk to boost::exception_detail::clone_impl<boost::exception_detail::error_info_injector<boost::property_tree::json_parser::json_parser_error> >::~clone_impl()
PUBLIC 2131e 0 boost::exception_detail::clone_impl<boost::exception_detail::error_info_injector<boost::property_tree::json_parser::json_parser_error> >::~clone_impl()
PUBLIC 213ba 0 virtual thunk to boost::exception_detail::clone_impl<boost::exception_detail::error_info_injector<boost::property_tree::json_parser::json_parser_error> >::~clone_impl()
PUBLIC 21450 0 non-virtual thunk to boost::exception_detail::clone_impl<boost::exception_detail::error_info_injector<boost::property_tree::json_parser::json_parser_error> >::~clone_impl()
PUBLIC 214ec 0 boost::exception_detail::clone_impl<boost::exception_detail::error_info_injector<boost::property_tree::json_parser::json_parser_error> >::~clone_impl()
PUBLIC 2157c 0 non-virtual thunk to boost::exception_detail::error_info_injector<boost::property_tree::json_parser::json_parser_error>::~error_info_injector()
PUBLIC 21614 0 boost::exception_detail::error_info_injector<boost::property_tree::json_parser::json_parser_error>::~error_info_injector()
PUBLIC 2169c 0 non-virtual thunk to boost::exception_detail::error_info_injector<boost::property_tree::json_parser::json_parser_error>::~error_info_injector()
PUBLIC 21726 0 boost::exception_detail::error_info_injector<boost::property_tree::json_parser::json_parser_error>::~error_info_injector()
PUBLIC 217a0 0 boost::property_tree::file_parser_error::format_what(std::__cxx11::basic_string<char, std::char_traits<char>, std::allocator<char> > const&, std::__cxx11::basic_string<char, std::char_traits<char>, std::allocator<char> > const&, unsigned long)
PUBLIC 21cb0 0 void std::__cxx11::basic_string<char, std::char_traits<char>, std::allocator<char> >::_M_construct<char const*>(char const*, char const*, std::forward_iterator_tag)
PUBLIC 21d46 0 void std::__cxx11::basic_string<char, std::char_traits<char>, std::allocator<char> >::_M_construct<char*>(char*, char*, std::forward_iterator_tag)
PUBLIC 21ddc 0 std::__cxx11::basic_string<char, std::char_traits<char>, std::allocator<char> > __gnu_cxx::__to_xstring<std::__cxx11::basic_string<char, std::char_traits<char>, std::allocator<char> >, char>(int (*)(char*, unsigned long, char const*, __va_list_tag*), unsigned long, char const*, ...)
PUBLIC 21e9e 0 boost::property_tree::file_parser_error::file_parser_error(std::__cxx11::basic_string<char, std::char_traits<char>, std::allocator<char> > const&, std::__cxx11::basic_string<char, std::char_traits<char>, std::allocator<char> > const&, unsigned long)
PUBLIC 21f98 0 boost::property_tree::string_path<std::__cxx11::basic_string<char, std::char_traits<char>, std::allocator<char> >, boost::property_tree::id_translator<std::__cxx11::basic_string<char, std::char_traits<char>, std::allocator<char> > > >::reduce()
PUBLIC 221e8 0 void boost::property_tree::basic_ptree<std::__cxx11::basic_string<char, std::char_traits<char>, std::allocator<char> >, std::__cxx11::basic_string<char, std::char_traits<char>, std::allocator<char> >, std::less<std::__cxx11::basic_string<char, std::char_traits<char>, std::allocator<char> > > >::put_value<std::__cxx11::basic_string<char, std::char_traits<char>, std::allocator<char> >, boost::property_tree::id_translator<std::__cxx11::basic_string<char, std::char_traits<char>, std::allocator<char> > > >(std::__cxx11::basic_string<char, std::char_traits<char>, std::allocator<char> > const&, boost::property_tree::id_translator<std::__cxx11::basic_string<char, std::char_traits<char>, std::allocator<char> > >)
PUBLIC 2226e 0 void std::vector<std::__cxx11::basic_string<char, std::char_traits<char>, std::allocator<char> >, std::allocator<std::__cxx11::basic_string<char, std::char_traits<char>, std::allocator<char> > > >::_M_realloc_insert<std::__cxx11::basic_string<char, std::char_traits<char>, std::allocator<char> > const&>(__gnu_cxx::__normal_iterator<std::__cxx11::basic_string<char, std::char_traits<char>, std::allocator<char> >*, std::vector<std::__cxx11::basic_string<char, std::char_traits<char>, std::allocator<char> >, std::allocator<std::__cxx11::basic_string<char, std::char_traits<char>, std::allocator<char> > > > >, std::__cxx11::basic_string<char, std::char_traits<char>, std::allocator<char> > const&)
PUBLIC 2247e 0 boost::exception_detail::error_info_injector<boost::property_tree::json_parser::json_parser_error>::error_info_injector(boost::exception_detail::error_info_injector<boost::property_tree::json_parser::json_parser_error> const&)
PUBLIC 22594 0 boost::exception_detail::clone_impl<boost::exception_detail::error_info_injector<boost::property_tree::json_parser::json_parser_error> >::rethrow() const
PUBLIC 22614 0 virtual thunk to boost::exception_detail::clone_impl<boost::exception_detail::error_info_injector<boost::property_tree::json_parser::json_parser_error> >::rethrow() const
PUBLIC 2269c 0 virtual thunk to boost::exception_detail::clone_impl<boost::exception_detail::error_info_injector<boost::property_tree::json_parser::json_parser_error> >::clone() const
PUBLIC 228f6 0 boost::exception_detail::clone_impl<boost::exception_detail::error_info_injector<boost::property_tree::json_parser::json_parser_error> >::clone() const
PUBLIC 22b48 0 boost::property_tree::basic_ptree<std::__cxx11::basic_string<char, std::char_traits<char>, std::allocator<char> >, std::__cxx11::basic_string<char, std::char_traits<char>, std::allocator<char> >, std::less<std::__cxx11::basic_string<char, std::char_traits<char>, std::allocator<char> > > >::walk_path(boost::property_tree::string_path<std::__cxx11::basic_string<char, std::char_traits<char>, std::allocator<char> >, boost::property_tree::id_translator<std::__cxx11::basic_string<char, std::char_traits<char>, std::allocator<char> > > >&) const
PUBLIC 22cb4 0 boost::property_tree::basic_ptree<std::__cxx11::basic_string<char, std::char_traits<char>, std::allocator<char> >, std::__cxx11::basic_string<char, std::char_traits<char>, std::allocator<char> >, std::less<std::__cxx11::basic_string<char, std::char_traits<char>, std::allocator<char> > > >::get_child_optional(boost::property_tree::string_path<std::__cxx11::basic_string<char, std::char_traits<char>, std::allocator<char> >, boost::property_tree::id_translator<std::__cxx11::basic_string<char, std::char_traits<char>, std::allocator<char> > > > const&)
PUBLIC 22d5a 0 std::__cxx11::basic_string<char, std::char_traits<char>, std::allocator<char> > boost::property_tree::json_parser::create_escapes<char>(std::__cxx11::basic_string<char, std::char_traits<char>, std::allocator<char> > const&)
PUBLIC 2364c 0 std::__detail::_Hashtable_alloc<std::allocator<std::__detail::_Hash_node<std::__cxx11::basic_string<char, std::char_traits<char>, std::allocator<char> >, true> > >::_M_deallocate_node(std::__detail::_Hash_node<std::__cxx11::basic_string<char, std::char_traits<char>, std::allocator<char> >, true>*)
PUBLIC 2366c 0 std::_Hashtable<std::__cxx11::basic_string<char, std::char_traits<char>, std::allocator<char> >, std::__cxx11::basic_string<char, std::char_traits<char>, std::allocator<char> >, std::allocator<std::__cxx11::basic_string<char, std::char_traits<char>, std::allocator<char> > >, std::__detail::_Identity, std::equal_to<std::__cxx11::basic_string<char, std::char_traits<char>, std::allocator<char> > >, std::hash<std::__cxx11::basic_string<char, std::char_traits<char>, std::allocator<char> > >, std::__detail::_Mod_range_hashing, std::__detail::_Default_ranged_hash, std::__detail::_Prime_rehash_policy, std::__detail::_Hashtable_traits<true, true, true> >::~_Hashtable()
PUBLIC 236d4 0 std::_Hashtable<std::__cxx11::basic_string<char, std::char_traits<char>, std::allocator<char> >, std::__cxx11::basic_string<char, std::char_traits<char>, std::allocator<char> >, std::allocator<std::__cxx11::basic_string<char, std::char_traits<char>, std::allocator<char> > >, std::__detail::_Identity, std::equal_to<std::__cxx11::basic_string<char, std::char_traits<char>, std::allocator<char> > >, std::hash<std::__cxx11::basic_string<char, std::char_traits<char>, std::allocator<char> > >, std::__detail::_Mod_range_hashing, std::__detail::_Default_ranged_hash, std::__detail::_Prime_rehash_policy, std::__detail::_Hashtable_traits<true, true, true> >::_M_rehash(unsigned long, unsigned long const&)
PUBLIC 237ea 0 std::_Hashtable<std::__cxx11::basic_string<char, std::char_traits<char>, std::allocator<char> >, std::__cxx11::basic_string<char, std::char_traits<char>, std::allocator<char> >, std::allocator<std::__cxx11::basic_string<char, std::char_traits<char>, std::allocator<char> > >, std::__detail::_Identity, std::equal_to<std::__cxx11::basic_string<char, std::char_traits<char>, std::allocator<char> > >, std::hash<std::__cxx11::basic_string<char, std::char_traits<char>, std::allocator<char> > >, std::__detail::_Mod_range_hashing, std::__detail::_Default_ranged_hash, std::__detail::_Prime_rehash_policy, std::__detail::_Hashtable_traits<true, true, true> >::rehash(unsigned long)
PUBLIC 238d2 0 std::_Hashtable<std::__cxx11::basic_string<char, std::char_traits<char>, std::allocator<char> >, std::__cxx11::basic_string<char, std::char_traits<char>, std::allocator<char> >, std::allocator<std::__cxx11::basic_string<char, std::char_traits<char>, std::allocator<char> > >, std::__detail::_Identity, std::equal_to<std::__cxx11::basic_string<char, std::char_traits<char>, std::allocator<char> > >, std::hash<std::__cxx11::basic_string<char, std::char_traits<char>, std::allocator<char> > >, std::__detail::_Mod_range_hashing, std::__detail::_Default_ranged_hash, std::__detail::_Prime_rehash_policy, std::__detail::_Hashtable_traits<true, true, true> >::_M_insert_unique_node(unsigned long, unsigned long, std::__detail::_Hash_node<std::__cxx11::basic_string<char, std::char_traits<char>, std::allocator<char> >, true>*, unsigned long)
PUBLIC 239c2 0 std::_Hashtable<std::__cxx11::basic_string<char, std::char_traits<char>, std::allocator<char> >, std::pair<std::__cxx11::basic_string<char, std::char_traits<char>, std::allocator<char> > const, vst_s*>, std::allocator<std::pair<std::__cxx11::basic_string<char, std::char_traits<char>, std::allocator<char> > const, vst_s*> >, std::__detail::_Select1st, std::equal_to<std::__cxx11::basic_string<char, std::char_traits<char>, std::allocator<char> > >, std::hash<std::__cxx11::basic_string<char, std::char_traits<char>, std::allocator<char> > >, std::__detail::_Mod_range_hashing, std::__detail::_Default_ranged_hash, std::__detail::_Prime_rehash_policy, std::__detail::_Hashtable_traits<true, false, true> >::_M_find_before_node(unsigned long, std::__cxx11::basic_string<char, std::char_traits<char>, std::allocator<char> > const&, unsigned long) const
PUBLIC 23a52 0 std::_Hashtable<std::__cxx11::basic_string<char, std::char_traits<char>, std::allocator<char> >, std::pair<std::__cxx11::basic_string<char, std::char_traits<char>, std::allocator<char> > const, vst_s*>, std::allocator<std::pair<std::__cxx11::basic_string<char, std::char_traits<char>, std::allocator<char> > const, vst_s*> >, std::__detail::_Select1st, std::equal_to<std::__cxx11::basic_string<char, std::char_traits<char>, std::allocator<char> > >, std::hash<std::__cxx11::basic_string<char, std::char_traits<char>, std::allocator<char> > >, std::__detail::_Mod_range_hashing, std::__detail::_Default_ranged_hash, std::__detail::_Prime_rehash_policy, std::__detail::_Hashtable_traits<true, false, true> >::_M_rehash(unsigned long, unsigned long const&)
PUBLIC 23b68 0 std::_Hashtable<std::__cxx11::basic_string<char, std::char_traits<char>, std::allocator<char> >, std::pair<std::__cxx11::basic_string<char, std::char_traits<char>, std::allocator<char> > const, vst_s*>, std::allocator<std::pair<std::__cxx11::basic_string<char, std::char_traits<char>, std::allocator<char> > const, vst_s*> >, std::__detail::_Select1st, std::equal_to<std::__cxx11::basic_string<char, std::char_traits<char>, std::allocator<char> > >, std::hash<std::__cxx11::basic_string<char, std::char_traits<char>, std::allocator<char> > >, std::__detail::_Mod_range_hashing, std::__detail::_Default_ranged_hash, std::__detail::_Prime_rehash_policy, std::__detail::_Hashtable_traits<true, false, true> >::_M_insert_unique_node(unsigned long, unsigned long, std::__detail::_Hash_node<std::pair<std::__cxx11::basic_string<char, std::char_traits<char>, std::allocator<char> > const, vst_s*>, true>*, unsigned long)
PUBLIC 23c68 0 std::__detail::_Map_base<std::__cxx11::basic_string<char, std::char_traits<char>, std::allocator<char> >, std::pair<std::__cxx11::basic_string<char, std::char_traits<char>, std::allocator<char> > const, vst_s*>, std::allocator<std::pair<std::__cxx11::basic_string<char, std::char_traits<char>, std::allocator<char> > const, vst_s*> >, std::__detail::_Select1st, std::equal_to<std::__cxx11::basic_string<char, std::char_traits<char>, std::allocator<char> > >, std::hash<std::__cxx11::basic_string<char, std::char_traits<char>, std::allocator<char> > >, std::__detail::_Mod_range_hashing, std::__detail::_Default_ranged_hash, std::__detail::_Prime_rehash_policy, std::__detail::_Hashtable_traits<true, false, true>, true>::operator[](std::__cxx11::basic_string<char, std::char_traits<char>, std::allocator<char> >&&)
PUBLIC 23d3e 0 std::_Hashtable<xst_s*, xst_s*, std::allocator<xst_s*>, std::__detail::_Identity, std::equal_to<xst_s*>, std::hash<xst_s*>, std::__detail::_Mod_range_hashing, std::__detail::_Default_ranged_hash, std::__detail::_Prime_rehash_policy, std::__detail::_Hashtable_traits<false, true, true> >::_M_rehash(unsigned long, unsigned long const&)
PUBLIC 23e54 0 std::__detail::_Hashtable_alloc<std::allocator<std::__detail::_Hash_node<std::pair<std::pair<xst_s*, long*> const, std::unordered_map<std::__cxx11::basic_string<char, std::char_traits<char>, std::allocator<char> >, vst_s*, std::hash<std::__cxx11::basic_string<char, std::char_traits<char>, std::allocator<char> > >, std::equal_to<std::__cxx11::basic_string<char, std::char_traits<char>, std::allocator<char> > >, std::allocator<std::pair<std::__cxx11::basic_string<char, std::char_traits<char>, std::allocator<char> > const, vst_s*> > > >, true> > >::_M_deallocate_node(std::__detail::_Hash_node<std::pair<std::pair<xst_s*, long*> const, std::unordered_map<std::__cxx11::basic_string<char, std::char_traits<char>, std::allocator<char> >, vst_s*, std::hash<std::__cxx11::basic_string<char, std::char_traits<char>, std::allocator<char> > >, std::equal_to<std::__cxx11::basic_string<char, std::char_traits<char>, std::allocator<char> > >, std::allocator<std::pair<std::__cxx11::basic_string<char, std::char_traits<char>, std::allocator<char> > const, vst_s*> > > >, true>*)
PUBLIC 23ed8 0 std::_Hashtable<xst_s*, xst_s*, std::allocator<xst_s*>, std::__detail::_Identity, std::equal_to<xst_s*>, std::hash<xst_s*>, std::__detail::_Mod_range_hashing, std::__detail::_Default_ranged_hash, std::__detail::_Prime_rehash_policy, std::__detail::_Hashtable_traits<false, true, true> >::_M_find_before_node(unsigned long, xst_s* const&, unsigned long) const
PUBLIC 23f22 0 std::_Hashtable<xst_s*, xst_s*, std::allocator<xst_s*>, std::__detail::_Identity, std::equal_to<xst_s*>, std::hash<xst_s*>, std::__detail::_Mod_range_hashing, std::__detail::_Default_ranged_hash, std::__detail::_Prime_rehash_policy, std::__detail::_Hashtable_traits<false, true, true> >::_M_insert_unique_node(unsigned long, unsigned long, std::__detail::_Hash_node<xst_s*, false>*, unsigned long)
PUBLIC 2400c 0 boost::exception_detail::clone_impl<boost::exception_detail::error_info_injector<boost::property_tree::json_parser::json_parser_error> >::clone_impl(boost::exception_detail::error_info_injector<boost::property_tree::json_parser::json_parser_error> const&)
PUBLIC 2423d 0 void boost::throw_exception<boost::exception_detail::error_info_injector<boost::property_tree::json_parser::json_parser_error> >(boost::exception_detail::error_info_injector<boost::property_tree::json_parser::json_parser_error> const&)
PUBLIC 242aa 0 void boost::exception_detail::throw_exception_<boost::property_tree::json_parser::json_parser_error>(boost::property_tree::json_parser::json_parser_error const&, char const*, char const*, int)
PUBLIC 243a8 0 boost::enable_if<boost::property_tree::detail::is_translator<boost::property_tree::id_translator<std::__cxx11::basic_string<char, std::char_traits<char>, std::allocator<char> > > >, std::__cxx11::basic_string<char, std::char_traits<char>, std::allocator<char> > >::type boost::property_tree::basic_ptree<std::__cxx11::basic_string<char, std::char_traits<char>, std::allocator<char> >, std::__cxx11::basic_string<char, std::char_traits<char>, std::allocator<char> >, std::less<std::__cxx11::basic_string<char, std::char_traits<char>, std::allocator<char> > > >::get_value<std::__cxx11::basic_string<char, std::char_traits<char>, std::allocator<char> >, boost::property_tree::id_translator<std::__cxx11::basic_string<char, std::char_traits<char>, std::allocator<char> > > >(boost::property_tree::id_translator<std::__cxx11::basic_string<char, std::char_traits<char>, std::allocator<char> > >) const
PUBLIC 2443d 0 bool boost::property_tree::json_parser::verify_json<boost::property_tree::basic_ptree<std::__cxx11::basic_string<char, std::char_traits<char>, std::allocator<char> >, std::__cxx11::basic_string<char, std::char_traits<char>, std::allocator<char> >, std::less<std::__cxx11::basic_string<char, std::char_traits<char>, std::allocator<char> > > > >(boost::property_tree::basic_ptree<std::__cxx11::basic_string<char, std::char_traits<char>, std::allocator<char> >, std::__cxx11::basic_string<char, std::char_traits<char>, std::allocator<char> >, std::less<std::__cxx11::basic_string<char, std::char_traits<char>, std::allocator<char> > > > const&, int)
PUBLIC 2455b 0 void boost::property_tree::json_parser::write_json_helper<boost::property_tree::basic_ptree<std::__cxx11::basic_string<char, std::char_traits<char>, std::allocator<char> >, std::__cxx11::basic_string<char, std::char_traits<char>, std::allocator<char> >, std::less<std::__cxx11::basic_string<char, std::char_traits<char>, std::allocator<char> > > > >(std::basic_ostream<boost::property_tree::basic_ptree<std::__cxx11::basic_string<char, std::char_traits<char>, std::allocator<char> >, std::__cxx11::basic_string<char, std::char_traits<char>, std::allocator<char> >, std::less<std::__cxx11::basic_string<char, std::char_traits<char>, std::allocator<char> > > >::key_type::value_type, std::char_traits<boost::property_tree::basic_ptree<std::__cxx11::basic_string<char, std::char_traits<char>, std::allocator<char> >, std::__cxx11::basic_string<char, std::char_traits<char>, std::allocator<char> >, std::less<std::__cxx11::basic_string<char, std::char_traits<char>, std::allocator<char> > > >::key_type::value_type> >&, boost::property_tree::basic_ptree<std::__cxx11::basic_string<char, std::char_traits<char>, std::allocator<char> >, std::__cxx11::basic_string<char, std::char_traits<char>, std::allocator<char> >, std::less<std::__cxx11::basic_string<char, std::char_traits<char>, std::allocator<char> > > > const&, int, bool)
PUBLIC 24ce6 0 void boost::property_tree::json_parser::write_json_internal<boost::property_tree::basic_ptree<std::__cxx11::basic_string<char, std::char_traits<char>, std::allocator<char> >, std::__cxx11::basic_string<char, std::char_traits<char>, std::allocator<char> >, std::less<std::__cxx11::basic_string<char, std::char_traits<char>, std::allocator<char> > > > >(std::basic_ostream<boost::property_tree::basic_ptree<std::__cxx11::basic_string<char, std::char_traits<char>, std::allocator<char> >, std::__cxx11::basic_string<char, std::char_traits<char>, std::allocator<char> >, std::less<std::__cxx11::basic_string<char, std::char_traits<char>, std::allocator<char> > > >::key_type::value_type, std::char_traits<boost::property_tree::basic_ptree<std::__cxx11::basic_string<char, std::char_traits<char>, std::allocator<char> >, std::__cxx11::basic_string<char, std::char_traits<char>, std::allocator<char> >, std::less<std::__cxx11::basic_string<char, std::char_traits<char>, std::allocator<char> > > >::key_type::value_type> >&, boost::property_tree::basic_ptree<std::__cxx11::basic_string<char, std::char_traits<char>, std::allocator<char> >, std::__cxx11::basic_string<char, std::char_traits<char>, std::allocator<char> >, std::less<std::__cxx11::basic_string<char, std::char_traits<char>, std::allocator<char> > > > const&, std::__cxx11::basic_string<char, std::char_traits<char>, std::allocator<char> > const&, bool)
PUBLIC 24ecf 0 void boost::property_tree::json_parser::write_json<boost::property_tree::basic_ptree<std::__cxx11::basic_string<char, std::char_traits<char>, std::allocator<char> >, std::__cxx11::basic_string<char, std::char_traits<char>, std::allocator<char> >, std::less<std::__cxx11::basic_string<char, std::char_traits<char>, std::allocator<char> > > > >(std::__cxx11::basic_string<char, std::char_traits<char>, std::allocator<char> > const&, boost::property_tree::basic_ptree<std::__cxx11::basic_string<char, std::char_traits<char>, std::allocator<char> >, std::__cxx11::basic_string<char, std::char_traits<char>, std::allocator<char> >, std::less<std::__cxx11::basic_string<char, std::char_traits<char>, std::allocator<char> > > > const&, std::locale const&, bool)
PUBLIC 25252 0 std::_Hashtable<std::__cxx11::basic_string<char, std::char_traits<char>, std::allocator<char> >, std::__cxx11::basic_string<char, std::char_traits<char>, std::allocator<char> >, std::allocator<std::__cxx11::basic_string<char, std::char_traits<char>, std::allocator<char> > >, std::__detail::_Identity, std::equal_to<std::__cxx11::basic_string<char, std::char_traits<char>, std::allocator<char> > >, std::hash<std::__cxx11::basic_string<char, std::char_traits<char>, std::allocator<char> > >, std::__detail::_Mod_range_hashing, std::__detail::_Default_ranged_hash, std::__detail::_Prime_rehash_policy, std::__detail::_Hashtable_traits<true, true, true> >::_M_find_before_node(unsigned long, std::__cxx11::basic_string<char, std::char_traits<char>, std::allocator<char> > const&, unsigned long) const
PUBLIC 252e2 0 std::pair<std::__detail::_Node_iterator<std::__cxx11::basic_string<char, std::char_traits<char>, std::allocator<char> >, true, true>, bool> std::_Hashtable<std::__cxx11::basic_string<char, std::char_traits<char>, std::allocator<char> >, std::__cxx11::basic_string<char, std::char_traits<char>, std::allocator<char> >, std::allocator<std::__cxx11::basic_string<char, std::char_traits<char>, std::allocator<char> > >, std::__detail::_Identity, std::equal_to<std::__cxx11::basic_string<char, std::char_traits<char>, std::allocator<char> > >, std::hash<std::__cxx11::basic_string<char, std::char_traits<char>, std::allocator<char> > >, std::__detail::_Mod_range_hashing, std::__detail::_Default_ranged_hash, std::__detail::_Prime_rehash_policy, std::__detail::_Hashtable_traits<true, true, true> >::_M_emplace<char*&>(std::integral_constant<bool, true>, char*&)
PUBLIC 253e0 0 std::pair<std::__detail::_Node_iterator<std::__cxx11::basic_string<char, std::char_traits<char>, std::allocator<char> >, true, true>, bool> std::_Hashtable<std::__cxx11::basic_string<char, std::char_traits<char>, std::allocator<char> >, std::__cxx11::basic_string<char, std::char_traits<char>, std::allocator<char> >, std::allocator<std::__cxx11::basic_string<char, std::char_traits<char>, std::allocator<char> > >, std::__detail::_Identity, std::equal_to<std::__cxx11::basic_string<char, std::char_traits<char>, std::allocator<char> > >, std::hash<std::__cxx11::basic_string<char, std::char_traits<char>, std::allocator<char> > >, std::__detail::_Mod_range_hashing, std::__detail::_Default_ranged_hash, std::__detail::_Prime_rehash_policy, std::__detail::_Hashtable_traits<true, true, true> >::_M_emplace<char const*>(std::integral_constant<bool, true>, char const*&&)
PUBLIC 254dd 0 void boost::detail::allocator::destroy<std::pair<std::__cxx11::basic_string<char, std::char_traits<char>, std::allocator<char> > const, boost::property_tree::basic_ptree<std::__cxx11::basic_string<char, std::char_traits<char>, std::allocator<char> >, std::__cxx11::basic_string<char, std::char_traits<char>, std::allocator<char> >, std::less<std::__cxx11::basic_string<char, std::char_traits<char>, std::allocator<char> > > > > >(std::pair<std::__cxx11::basic_string<char, std::char_traits<char>, std::allocator<char> > const, boost::property_tree::basic_ptree<std::__cxx11::basic_string<char, std::char_traits<char>, std::allocator<char> >, std::__cxx11::basic_string<char, std::char_traits<char>, std::allocator<char> >, std::less<std::__cxx11::basic_string<char, std::char_traits<char>, std::allocator<char> > > > > const*)
PUBLIC 254fe 0 boost::property_tree::basic_ptree<std::__cxx11::basic_string<char, std::char_traits<char>, std::allocator<char> >, std::__cxx11::basic_string<char, std::char_traits<char>, std::allocator<char> >, std::less<std::__cxx11::basic_string<char, std::char_traits<char>, std::allocator<char> > > >::~basic_ptree()
PUBLIC 2558a 0 std::pair<std::__cxx11::basic_string<char, std::char_traits<char>, std::allocator<char> > const, boost::property_tree::basic_ptree<std::__cxx11::basic_string<char, std::char_traits<char>, std::allocator<char> >, std::__cxx11::basic_string<char, std::char_traits<char>, std::allocator<char> >, std::less<std::__cxx11::basic_string<char, std::char_traits<char>, std::allocator<char> > > > >::~pair()
PUBLIC 255aa 0 boost::multi_index::detail::copy_map_entry<boost::multi_index::detail::sequenced_index_node<boost::multi_index::detail::ordered_index_node<boost::multi_index::detail::null_augment_policy, boost::multi_index::detail::index_node_base<std::pair<std::__cxx11::basic_string<char, std::char_traits<char>, std::allocator<char> > const, boost::property_tree::basic_ptree<std::__cxx11::basic_string<char, std::char_traits<char>, std::allocator<char> >, std::__cxx11::basic_string<char, std::char_traits<char>, std::allocator<char> >, std::less<std::__cxx11::basic_string<char, std::char_traits<char>, std::allocator<char> > > > >, std::allocator<std::pair<std::__cxx11::basic_string<char, std::char_traits<char>, std::allocator<char> > const, boost::property_tree::basic_ptree<std::__cxx11::basic_string<char, std::char_traits<char>, std::allocator<char> >, std::__cxx11::basic_string<char, std::char_traits<char>, std::allocator<char> >, std::less<std::__cxx11::basic_string<char, std::char_traits<char>, std::allocator<char> > > > > > > > > > const* std::__lower_bound<boost::multi_index::detail::copy_map_entry<boost::multi_index::detail::sequenced_index_node<boost::multi_index::detail::ordered_index_node<boost::multi_index::detail::null_augment_policy, boost::multi_index::detail::index_node_base<std::pair<std::__cxx11::basic_string<char, std::char_traits<char>, std::allocator<char> > const, boost::property_tree::basic_ptree<std::__cxx11::basic_string<char, std::char_traits<char>, std::allocator<char> >, std::__cxx11::basic_string<char, std::char_traits<char>, std::allocator<char> >, std::less<std::__cxx11::basic_string<char, std::char_traits<char>, std::allocator<char> > > > >, std::allocator<std::pair<std::__cxx11::basic_string<char, std::char_traits<char>, std::allocator<char> > const, boost::property_tree::basic_ptree<std::__cxx11::basic_string<char, std::char_traits<char>, std::allocator<char> >, std::__cxx11::basic_string<char, std::char_traits<char>, std::allocator<char> >, std::less<std::__cxx11::basic_string<char, std::char_traits<char>, std::allocator<char> > > > > > > > > > const*, boost::multi_index::detail::copy_map_entry<boost::multi_index::detail::sequenced_index_node<boost::multi_index::detail::ordered_index_node<boost::multi_index::detail::null_augment_policy, boost::multi_index::detail::index_node_base<std::pair<std::__cxx11::basic_string<char, std::char_traits<char>, std::allocator<char> > const, boost::property_tree::basic_ptree<std::__cxx11::basic_string<char, std::char_traits<char>, std::allocator<char> >, std::__cxx11::basic_string<char, std::char_traits<char>, std::allocator<char> >, std::less<std::__cxx11::basic_string<char, std::char_traits<char>, std::allocator<char> > > > >, std::allocator<std::pair<std::__cxx11::basic_string<char, std::char_traits<char>, std::allocator<char> > const, boost::property_tree::basic_ptree<std::__cxx11::basic_string<char, std::char_traits<char>, std::allocator<char> >, std::__cxx11::basic_string<char, std::char_traits<char>, std::allocator<char> >, std::less<std::__cxx11::basic_string<char, std::char_traits<char>, std::allocator<char> > > > > > > > > >, __gnu_cxx::__ops::_Iter_less_val>(boost::multi_index::detail::copy_map_entry<boost::multi_index::detail::sequenced_index_node<boost::multi_index::detail::ordered_index_node<boost::multi_index::detail::null_augment_policy, boost::multi_index::detail::index_node_base<std::pair<std::__cxx11::basic_string<char, std::char_traits<char>, std::allocator<char> > const, boost::property_tree::basic_ptree<std::__cxx11::basic_string<char, std::char_traits<char>, std::allocator<char> >, std::__cxx11::basic_string<char, std::char_traits<char>, std::allocator<char> >, std::less<std::__cxx11::basic_string<char, std::char_traits<char>, std::allocator<char> > > > >, std::allocator<std::pair<std::__cxx11::basic_string<char, std::char_traits<char>, std::allocator<char> > const, boost::property_tree::basic_ptree<std::__cxx11::basic_string<char, std::char_traits<char>, std::allocator<char> >, std::__cxx11::basic_string<char, std::char_traits<char>, std::allocator<char> >, std::less<std::__cxx11::basic_string<char, std::char_traits<char>, std::allocator<char> > > > > > > > > > const*, boost::multi_index::detail::copy_map_entry<boost::multi_index::detail::sequenced_index_node<boost::multi_index::detail::ordered_index_node<boost::multi_index::detail::null_augment_policy, boost::multi_index::detail::index_node_base<std::pair<std::__cxx11::basic_string<char, std::char_traits<char>, std::allocator<char> > const, boost::property_tree::basic_ptree<std::__cxx11::basic_string<char, std::char_traits<char>, std::allocator<char> >, std::__cxx11::basic_string<char, std::char_traits<char>, std::allocator<char> >, std::less<std::__cxx11::basic_string<char, std::char_traits<char>, std::allocator<char> > > > >, std::allocator<std::pair<std::__cxx11::basic_string<char, std::char_traits<char>, std::allocator<char> > const, boost::property_tree::basic_ptree<std::__cxx11::basic_string<char, std::char_traits<char>, std::allocator<char> >, std::__cxx11::basic_string<char, std::char_traits<char>, std::allocator<char> >, std::less<std::__cxx11::basic_string<char, std::char_traits<char>, std::allocator<char> > > > > > > > > > const*, boost::multi_index::detail::copy_map_entry<boost::multi_index::detail::sequenced_index_node<boost::multi_index::detail::ordered_index_node<boost::multi_index::detail::null_augment_policy, boost::multi_index::detail::index_node_base<std::pair<std::__cxx11::basic_string<char, std::char_traits<char>, std::allocator<char> > const, boost::property_tree::basic_ptree<std::__cxx11::basic_string<char, std::char_traits<char>, std::allocator<char> >, std::__cxx11::basic_string<char, std::char_traits<char>, std::allocator<char> >, std::less<std::__cxx11::basic_string<char, std::char_traits<char>, std::allocator<char> > > > >, std::allocator<std::pair<std::__cxx11::basic_string<char, std::char_traits<char>, std::allocator<char> > const, boost::property_tree::basic_ptree<std::__cxx11::basic_string<char, std::char_traits<char>, std::allocator<char> >, std::__cxx11::basic_string<char, std::char_traits<char>, std::allocator<char> >, std::less<std::__cxx11::basic_string<char, std::char_traits<char>, std::allocator<char> > > > > > > > > > const&, __gnu_cxx::__ops::_Iter_less_val)
PUBLIC 255e4 0 void std::__unguarded_linear_insert<boost::multi_index::detail::copy_map_entry<boost::multi_index::detail::sequenced_index_node<boost::multi_index::detail::ordered_index_node<boost::multi_index::detail::null_augment_policy, boost::multi_index::detail::index_node_base<std::pair<std::__cxx11::basic_string<char, std::char_traits<char>, std::allocator<char> > const, boost::property_tree::basic_ptree<std::__cxx11::basic_string<char, std::char_traits<char>, std::allocator<char> >, std::__cxx11::basic_string<char, std::char_traits<char>, std::allocator<char> >, std::less<std::__cxx11::basic_string<char, std::char_traits<char>, std::allocator<char> > > > >, std::allocator<std::pair<std::__cxx11::basic_string<char, std::char_traits<char>, std::allocator<char> > const, boost::property_tree::basic_ptree<std::__cxx11::basic_string<char, std::char_traits<char>, std::allocator<char> >, std::__cxx11::basic_string<char, std::char_traits<char>, std::allocator<char> >, std::less<std::__cxx11::basic_string<char, std::char_traits<char>, std::allocator<char> > > > > > > > > >*, __gnu_cxx::__ops::_Val_less_iter>(boost::multi_index::detail::copy_map_entry<boost::multi_index::detail::sequenced_index_node<boost::multi_index::detail::ordered_index_node<boost::multi_index::detail::null_augment_policy, boost::multi_index::detail::index_node_base<std::pair<std::__cxx11::basic_string<char, std::char_traits<char>, std::allocator<char> > const, boost::property_tree::basic_ptree<std::__cxx11::basic_string<char, std::char_traits<char>, std::allocator<char> >, std::__cxx11::basic_string<char, std::char_traits<char>, std::allocator<char> >, std::less<std::__cxx11::basic_string<char, std::char_traits<char>, std::allocator<char> > > > >, std::allocator<std::pair<std::__cxx11::basic_string<char, std::char_traits<char>, std::allocator<char> > const, boost::property_tree::basic_ptree<std::__cxx11::basic_string<char, std::char_traits<char>, std::allocator<char> >, std::__cxx11::basic_string<char, std::char_traits<char>, std::allocator<char> >, std::less<std::__cxx11::basic_string<char, std::char_traits<char>, std::allocator<char> > > > > > > > > >*, __gnu_cxx::__ops::_Val_less_iter)
PUBLIC 25614 0 void std::__insertion_sort<boost::multi_index::detail::copy_map_entry<boost::multi_index::detail::sequenced_index_node<boost::multi_index::detail::ordered_index_node<boost::multi_index::detail::null_augment_policy, boost::multi_index::detail::index_node_base<std::pair<std::__cxx11::basic_string<char, std::char_traits<char>, std::allocator<char> > const, boost::property_tree::basic_ptree<std::__cxx11::basic_string<char, std::char_traits<char>, std::allocator<char> >, std::__cxx11::basic_string<char, std::char_traits<char>, std::allocator<char> >, std::less<std::__cxx11::basic_string<char, std::char_traits<char>, std::allocator<char> > > > >, std::allocator<std::pair<std::__cxx11::basic_string<char, std::char_traits<char>, std::allocator<char> > const, boost::property_tree::basic_ptree<std::__cxx11::basic_string<char, std::char_traits<char>, std::allocator<char> >, std::__cxx11::basic_string<char, std::char_traits<char>, std::allocator<char> >, std::less<std::__cxx11::basic_string<char, std::char_traits<char>, std::allocator<char> > > > > > > > > >*, __gnu_cxx::__ops::_Iter_less_iter>(boost::multi_index::detail::copy_map_entry<boost::multi_index::detail::sequenced_index_node<boost::multi_index::detail::ordered_index_node<boost::multi_index::detail::null_augment_policy, boost::multi_index::detail::index_node_base<std::pair<std::__cxx11::basic_string<char, std::char_traits<char>, std::allocator<char> > const, boost::property_tree::basic_ptree<std::__cxx11::basic_string<char, std::char_traits<char>, std::allocator<char> >, std::__cxx11::basic_string<char, std::char_traits<char>, std::allocator<char> >, std::less<std::__cxx11::basic_string<char, std::char_traits<char>, std::allocator<char> > > > >, std::allocator<std::pair<std::__cxx11::basic_string<char, std::char_traits<char>, std::allocator<char> > const, boost::property_tree::basic_ptree<std::__cxx11::basic_string<char, std::char_traits<char>, std::allocator<char> >, std::__cxx11::basic_string<char, std::char_traits<char>, std::allocator<char> >, std::less<std::__cxx11::basic_string<char, std::char_traits<char>, std::allocator<char> > > > > > > > > >*, boost::multi_index::detail::copy_map_entry<boost::multi_index::detail::sequenced_index_node<boost::multi_index::detail::ordered_index_node<boost::multi_index::detail::null_augment_policy, boost::multi_index::detail::index_node_base<std::pair<std::__cxx11::basic_string<char, std::char_traits<char>, std::allocator<char> > const, boost::property_tree::basic_ptree<std::__cxx11::basic_string<char, std::char_traits<char>, std::allocator<char> >, std::__cxx11::basic_string<char, std::char_traits<char>, std::allocator<char> >, std::less<std::__cxx11::basic_string<char, std::char_traits<char>, std::allocator<char> > > > >, std::allocator<std::pair<std::__cxx11::basic_string<char, std::char_traits<char>, std::allocator<char> > const, boost::property_tree::basic_ptree<std::__cxx11::basic_string<char, std::char_traits<char>, std::allocator<char> >, std::__cxx11::basic_string<char, std::char_traits<char>, std::allocator<char> >, std::less<std::__cxx11::basic_string<char, std::char_traits<char>, std::allocator<char> > > > > > > > > >*, __gnu_cxx::__ops::_Iter_less_iter)
PUBLIC 2567b 0 boost::multi_index::detail::ordered_index_node_impl<boost::multi_index::detail::null_augment_policy, std::allocator<char> >::rebalance(boost::multi_index::detail::ordered_index_node_impl<boost::multi_index::detail::null_augment_policy, std::allocator<char> >*, boost::multi_index::detail::ordered_index_node_compressed_base<boost::multi_index::detail::null_augment_policy, std::allocator<char> >::parent_ref)
PUBLIC 259a1 0 void std::__adjust_heap<boost::multi_index::detail::copy_map_entry<boost::multi_index::detail::sequenced_index_node<boost::multi_index::detail::ordered_index_node<boost::multi_index::detail::null_augment_policy, boost::multi_index::detail::index_node_base<std::pair<std::__cxx11::basic_string<char, std::char_traits<char>, std::allocator<char> > const, boost::property_tree::basic_ptree<std::__cxx11::basic_string<char, std::char_traits<char>, std::allocator<char> >, std::__cxx11::basic_string<char, std::char_traits<char>, std::allocator<char> >, std::less<std::__cxx11::basic_string<char, std::char_traits<char>, std::allocator<char> > > > >, std::allocator<std::pair<std::__cxx11::basic_string<char, std::char_traits<char>, std::allocator<char> > const, boost::property_tree::basic_ptree<std::__cxx11::basic_string<char, std::char_traits<char>, std::allocator<char> >, std::__cxx11::basic_string<char, std::char_traits<char>, std::allocator<char> >, std::less<std::__cxx11::basic_string<char, std::char_traits<char>, std::allocator<char> > > > > > > > > >*, long, boost::multi_index::detail::copy_map_entry<boost::multi_index::detail::sequenced_index_node<boost::multi_index::detail::ordered_index_node<boost::multi_index::detail::null_augment_policy, boost::multi_index::detail::index_node_base<std::pair<std::__cxx11::basic_string<char, std::char_traits<char>, std::allocator<char> > const, boost::property_tree::basic_ptree<std::__cxx11::basic_string<char, std::char_traits<char>, std::allocator<char> >, std::__cxx11::basic_string<char, std::char_traits<char>, std::allocator<char> >, std::less<std::__cxx11::basic_string<char, std::char_traits<char>, std::allocator<char> > > > >, std::allocator<std::pair<std::__cxx11::basic_string<char, std::char_traits<char>, std::allocator<char> > const, boost::property_tree::basic_ptree<std::__cxx11::basic_string<char, std::char_traits<char>, std::allocator<char> >, std::__cxx11::basic_string<char, std::char_traits<char>, std::allocator<char> >, std::less<std::__cxx11::basic_string<char, std::char_traits<char>, std::allocator<char> > > > > > > > > >, __gnu_cxx::__ops::_Iter_less_iter>(boost::multi_index::detail::copy_map_entry<boost::multi_index::detail::sequenced_index_node<boost::multi_index::detail::ordered_index_node<boost::multi_index::detail::null_augment_policy, boost::multi_index::detail::index_node_base<std::pair<std::__cxx11::basic_string<char, std::char_traits<char>, std::allocator<char> > const, boost::property_tree::basic_ptree<std::__cxx11::basic_string<char, std::char_traits<char>, std::allocator<char> >, std::__cxx11::basic_string<char, std::char_traits<char>, std::allocator<char> >, std::less<std::__cxx11::basic_string<char, std::char_traits<char>, std::allocator<char> > > > >, std::allocator<std::pair<std::__cxx11::basic_string<char, std::char_traits<char>, std::allocator<char> > const, boost::property_tree::basic_ptree<std::__cxx11::basic_string<char, std::char_traits<char>, std::allocator<char> >, std::__cxx11::basic_string<char, std::char_traits<char>, std::allocator<char> >, std::less<std::__cxx11::basic_string<char, std::char_traits<char>, std::allocator<char> > > > > > > > > >*, long, long, boost::multi_index::detail::copy_map_entry<boost::multi_index::detail::sequenced_index_node<boost::multi_index::detail::ordered_index_node<boost::multi_index::detail::null_augment_policy, boost::multi_index::detail::index_node_base<std::pair<std::__cxx11::basic_string<char, std::char_traits<char>, std::allocator<char> > const, boost::property_tree::basic_ptree<std::__cxx11::basic_string<char, std::char_traits<char>, std::allocator<char> >, std::__cxx11::basic_string<char, std::char_traits<char>, std::allocator<char> >, std::less<std::__cxx11::basic_string<char, std::char_traits<char>, std::allocator<char> > > > >, std::allocator<std::pair<std::__cxx11::basic_string<char, std::char_traits<char>, std::allocator<char> > const, boost::property_tree::basic_ptree<std::__cxx11::basic_string<char, std::char_traits<char>, std::allocator<char> >, std::__cxx11::basic_string<char, std::char_traits<char>, std::allocator<char> >, std::less<std::__cxx11::basic_string<char, std::char_traits<char>, std::allocator<char> > > > > > > > > >, __gnu_cxx::__ops::_Iter_less_iter)
PUBLIC 25aa8 0 void std::__introsort_loop<boost::multi_index::detail::copy_map_entry<boost::multi_index::detail::sequenced_index_node<boost::multi_index::detail::ordered_index_node<boost::multi_index::detail::null_augment_policy, boost::multi_index::detail::index_node_base<std::pair<std::__cxx11::basic_string<char, std::char_traits<char>, std::allocator<char> > const, boost::property_tree::basic_ptree<std::__cxx11::basic_string<char, std::char_traits<char>, std::allocator<char> >, std::__cxx11::basic_string<char, std::char_traits<char>, std::allocator<char> >, std::less<std::__cxx11::basic_string<char, std::char_traits<char>, std::allocator<char> > > > >, std::allocator<std::pair<std::__cxx11::basic_string<char, std::char_traits<char>, std::allocator<char> > const, boost::property_tree::basic_ptree<std::__cxx11::basic_string<char, std::char_traits<char>, std::allocator<char> >, std::__cxx11::basic_string<char, std::char_traits<char>, std::allocator<char> >, std::less<std::__cxx11::basic_string<char, std::char_traits<char>, std::allocator<char> > > > > > > > > >*, long, __gnu_cxx::__ops::_Iter_less_iter>(boost::multi_index::detail::copy_map_entry<boost::multi_index::detail::sequenced_index_node<boost::multi_index::detail::ordered_index_node<boost::multi_index::detail::null_augment_policy, boost::multi_index::detail::index_node_base<std::pair<std::__cxx11::basic_string<char, std::char_traits<char>, std::allocator<char> > const, boost::property_tree::basic_ptree<std::__cxx11::basic_string<char, std::char_traits<char>, std::allocator<char> >, std::__cxx11::basic_string<char, std::char_traits<char>, std::allocator<char> >, std::less<std::__cxx11::basic_string<char, std::char_traits<char>, std::allocator<char> > > > >, std::allocator<std::pair<std::__cxx11::basic_string<char, std::char_traits<char>, std::allocator<char> > const, boost::property_tree::basic_ptree<std::__cxx11::basic_string<char, std::char_traits<char>, std::allocator<char> >, std::__cxx11::basic_string<char, std::char_traits<char>, std::allocator<char> >, std::less<std::__cxx11::basic_string<char, std::char_traits<char>, std::allocator<char> > > > > > > > > >*, boost::multi_index::detail::copy_map_entry<boost::multi_index::detail::sequenced_index_node<boost::multi_index::detail::ordered_index_node<boost::multi_index::detail::null_augment_policy, boost::multi_index::detail::index_node_base<std::pair<std::__cxx11::basic_string<char, std::char_traits<char>, std::allocator<char> > const, boost::property_tree::basic_ptree<std::__cxx11::basic_string<char, std::char_traits<char>, std::allocator<char> >, std::__cxx11::basic_string<char, std::char_traits<char>, std::allocator<char> >, std::less<std::__cxx11::basic_string<char, std::char_traits<char>, std::allocator<char> > > > >, std::allocator<std::pair<std::__cxx11::basic_string<char, std::char_traits<char>, std::allocator<char> > const, boost::property_tree::basic_ptree<std::__cxx11::basic_string<char, std::char_traits<char>, std::allocator<char> >, std::__cxx11::basic_string<char, std::char_traits<char>, std::allocator<char> >, std::less<std::__cxx11::basic_string<char, std::char_traits<char>, std::allocator<char> > > > > > > > > >*, long, __gnu_cxx::__ops::_Iter_less_iter)
PUBLIC 25cca 0 boost::property_tree::basic_ptree<std::__cxx11::basic_string<char, std::char_traits<char>, std::allocator<char> >, std::__cxx11::basic_string<char, std::char_traits<char>, std::allocator<char> >, std::less<std::__cxx11::basic_string<char, std::char_traits<char>, std::allocator<char> > > >::basic_ptree(boost::property_tree::basic_ptree<std::__cxx11::basic_string<char, std::char_traits<char>, std::allocator<char> >, std::__cxx11::basic_string<char, std::char_traits<char>, std::allocator<char> >, std::less<std::__cxx11::basic_string<char, std::char_traits<char>, std::allocator<char> > > > const&)
PUBLIC 26240 0 void boost::detail::allocator::construct<std::pair<std::__cxx11::basic_string<char, std::char_traits<char>, std::allocator<char> > const, boost::property_tree::basic_ptree<std::__cxx11::basic_string<char, std::char_traits<char>, std::allocator<char> >, std::__cxx11::basic_string<char, std::char_traits<char>, std::allocator<char> >, std::less<std::__cxx11::basic_string<char, std::char_traits<char>, std::allocator<char> > > > > >(void*, std::pair<std::__cxx11::basic_string<char, std::char_traits<char>, std::allocator<char> > const, boost::property_tree::basic_ptree<std::__cxx11::basic_string<char, std::char_traits<char>, std::allocator<char> >, std::__cxx11::basic_string<char, std::char_traits<char>, std::allocator<char> >, std::less<std::__cxx11::basic_string<char, std::char_traits<char>, std::allocator<char> > > > > const&)
PUBLIC 2628e 0 boost::property_tree::basic_ptree<std::__cxx11::basic_string<char, std::char_traits<char>, std::allocator<char> >, std::__cxx11::basic_string<char, std::char_traits<char>, std::allocator<char> >, std::less<std::__cxx11::basic_string<char, std::char_traits<char>, std::allocator<char> > > >::force_path(boost::property_tree::string_path<std::__cxx11::basic_string<char, std::char_traits<char>, std::allocator<char> >, boost::property_tree::id_translator<std::__cxx11::basic_string<char, std::char_traits<char>, std::allocator<char> > > >&)
PUBLIC 267e6 0 boost::property_tree::basic_ptree<std::__cxx11::basic_string<char, std::char_traits<char>, std::allocator<char> >, std::__cxx11::basic_string<char, std::char_traits<char>, std::allocator<char> >, std::less<std::__cxx11::basic_string<char, std::char_traits<char>, std::allocator<char> > > >::put_child(boost::property_tree::string_path<std::__cxx11::basic_string<char, std::char_traits<char>, std::allocator<char> >, boost::property_tree::id_translator<std::__cxx11::basic_string<char, std::char_traits<char>, std::allocator<char> > > > const&, boost::property_tree::basic_ptree<std::__cxx11::basic_string<char, std::char_traits<char>, std::allocator<char> >, std::__cxx11::basic_string<char, std::char_traits<char>, std::allocator<char> >, std::less<std::__cxx11::basic_string<char, std::char_traits<char>, std::allocator<char> > > > const&)
PUBLIC 26c4e 0 boost::property_tree::basic_ptree<std::__cxx11::basic_string<char, std::char_traits<char>, std::allocator<char> >, std::__cxx11::basic_string<char, std::char_traits<char>, std::allocator<char> >, std::less<std::__cxx11::basic_string<char, std::char_traits<char>, std::allocator<char> > > >& boost::property_tree::basic_ptree<std::__cxx11::basic_string<char, std::char_traits<char>, std::allocator<char> >, std::__cxx11::basic_string<char, std::char_traits<char>, std::allocator<char> >, std::less<std::__cxx11::basic_string<char, std::char_traits<char>, std::allocator<char> > > >::put<std::__cxx11::basic_string<char, std::char_traits<char>, std::allocator<char> >, boost::property_tree::id_translator<std::__cxx11::basic_string<char, std::char_traits<char>, std::allocator<char> > > >(boost::property_tree::string_path<std::__cxx11::basic_string<char, std::char_traits<char>, std::allocator<char> >, boost::property_tree::id_translator<std::__cxx11::basic_string<char, std::char_traits<char>, std::allocator<char> > > > const&, std::__cxx11::basic_string<char, std::char_traits<char>, std::allocator<char> > const&, boost::property_tree::id_translator<std::__cxx11::basic_string<char, std::char_traits<char>, std::allocator<char> > >)
PUBLIC 26d8e 0 boost::property_tree::basic_ptree<std::__cxx11::basic_string<char, std::char_traits<char>, std::allocator<char> >, std::__cxx11::basic_string<char, std::char_traits<char>, std::allocator<char> >, std::less<std::__cxx11::basic_string<char, std::char_traits<char>, std::allocator<char> > > >::add_child(boost::property_tree::string_path<std::__cxx11::basic_string<char, std::char_traits<char>, std::allocator<char> >, boost::property_tree::id_translator<std::__cxx11::basic_string<char, std::char_traits<char>, std::allocator<char> > > > const&, boost::property_tree::basic_ptree<std::__cxx11::basic_string<char, std::char_traits<char>, std::allocator<char> >, std::__cxx11::basic_string<char, std::char_traits<char>, std::allocator<char> >, std::less<std::__cxx11::basic_string<char, std::char_traits<char>, std::allocator<char> > > > const&)
PUBLIC 270a8 0 _fini
STACK CFI INIT c020 10f0 .cfa: $rsp 16 + .ra: .cfa -8 + ^
STACK CFI c026 .cfa: $rsp 24 +
STACK CFI INIT d110 10 .cfa: $rsp 8 + .ra: .cfa -8 + ^
STACK CFI INIT d1d5 77a .cfa: $rsp 8 + .ra: .cfa -8 + ^
STACK CFI d1d7 $r15: .cfa -16 + ^ .cfa: $rsp 16 +
STACK CFI d1d9 $r14: .cfa -24 + ^ .cfa: $rsp 24 +
STACK CFI d1db $r13: .cfa -32 + ^ .cfa: $rsp 32 +
STACK CFI d1dd $r12: .cfa -40 + ^ .cfa: $rsp 40 +
STACK CFI d1de $rbp: .cfa -48 + ^ .cfa: $rsp 48 +
STACK CFI d1df $rbx: .cfa -56 + ^ .cfa: $rsp 56 +
STACK CFI d1e3 .cfa: $rsp 128 +
STACK CFI d304 .cfa: $rsp 136 +
STACK CFI d306 .cfa: $rsp 144 +
STACK CFI d308 .cfa: $rsp 152 +
STACK CFI d30a .cfa: $rsp 160 +
STACK CFI d30c .cfa: $rsp 168 +
STACK CFI d30e .cfa: $rsp 176 +
STACK CFI d32f .cfa: $rsp 128 +
STACK CFI d49d .cfa: $rsp 136 +
STACK CFI d49f .cfa: $rsp 144 +
STACK CFI d4a1 .cfa: $rsp 152 +
STACK CFI d4a3 .cfa: $rsp 160 +
STACK CFI d4a5 .cfa: $rsp 168 +
STACK CFI d4a9 .cfa: $rsp 176 +
STACK CFI d4c8 .cfa: $rsp 128 +
STACK CFI d6ed .cfa: $rsp 136 +
STACK CFI d6ef .cfa: $rsp 144 +
STACK CFI d6f1 .cfa: $rsp 152 +
STACK CFI d6f3 .cfa: $rsp 160 +
STACK CFI d6f5 .cfa: $rsp 168 +
STACK CFI d6f7 .cfa: $rsp 176 +
STACK CFI d719 .cfa: $rsp 128 +
STACK CFI d885 .cfa: $rsp 136 +
STACK CFI d887 .cfa: $rsp 144 +
STACK CFI d889 .cfa: $rsp 152 +
STACK CFI d88b .cfa: $rsp 160 +
STACK CFI d88d .cfa: $rsp 168 +
STACK CFI d891 .cfa: $rsp 176 +
STACK CFI d8b0 .cfa: $rsp 128 +
STACK CFI d8e3 .cfa: $rsp 56 +
STACK CFI d8e4 .cfa: $rsp 48 +
STACK CFI d8e5 .cfa: $rsp 40 +
STACK CFI d8e7 .cfa: $rsp 32 +
STACK CFI d8e9 .cfa: $rsp 24 +
STACK CFI d8eb .cfa: $rsp 16 +
STACK CFI d8ed .cfa: $rsp 8 +
STACK CFI d8ee .cfa: $rsp 128 +
STACK CFI INIT d94f 1149 .cfa: $rsp 8 + .ra: .cfa -8 + ^
STACK CFI d951 $r15: .cfa -16 + ^ .cfa: $rsp 16 +
STACK CFI d953 $r14: .cfa -24 + ^ .cfa: $rsp 24 +
STACK CFI d955 $r13: .cfa -32 + ^ .cfa: $rsp 32 +
STACK CFI d957 $r12: .cfa -40 + ^ .cfa: $rsp 40 +
STACK CFI d958 $rbp: .cfa -48 + ^ .cfa: $rsp 48 +
STACK CFI d959 $rbx: .cfa -56 + ^ .cfa: $rsp 56 +
STACK CFI d95d .cfa: $rsp 176 +
STACK CFI da67 .cfa: $rsp 56 +
STACK CFI da68 .cfa: $rsp 48 +
STACK CFI da69 .cfa: $rsp 40 +
STACK CFI da6b .cfa: $rsp 32 +
STACK CFI da6d .cfa: $rsp 24 +
STACK CFI da6f .cfa: $rsp 16 +
STACK CFI da71 .cfa: $rsp 8 +
STACK CFI da72 .cfa: $rsp 176 +
STACK CFI de5e .cfa: $rsp 184 +
STACK CFI de60 .cfa: $rsp 192 +
STACK CFI de62 .cfa: $rsp 200 +
STACK CFI de64 .cfa: $rsp 208 +
STACK CFI de66 .cfa: $rsp 216 +
STACK CFI de68 .cfa: $rsp 224 +
STACK CFI de8c .cfa: $rsp 176 +
STACK CFI e48f .cfa: $rsp 184 +
STACK CFI e491 .cfa: $rsp 192 +
STACK CFI e493 .cfa: $rsp 200 +
STACK CFI e495 .cfa: $rsp 208 +
STACK CFI e496 .cfa: $rsp 216 +
STACK CFI e498 .cfa: $rsp 224 +
STACK CFI e4c1 .cfa: $rsp 176 +
STACK CFI e6d5 .cfa: $rsp 184 +
STACK CFI e6d7 .cfa: $rsp 192 +
STACK CFI e6d9 .cfa: $rsp 200 +
STACK CFI e6db .cfa: $rsp 208 +
STACK CFI e6dd .cfa: $rsp 216 +
STACK CFI e6df .cfa: $rsp 224 +
STACK CFI e6fd .cfa: $rsp 176 +
STACK CFI e7c6 .cfa: $rsp 184 +
STACK CFI e7c8 .cfa: $rsp 192 +
STACK CFI e7ca .cfa: $rsp 200 +
STACK CFI e7cc .cfa: $rsp 208 +
STACK CFI e7ce .cfa: $rsp 216 +
STACK CFI e7d0 .cfa: $rsp 224 +
STACK CFI e7f4 .cfa: $rsp 176 +
STACK CFI e88e .cfa: $rsp 184 +
STACK CFI e890 .cfa: $rsp 192 +
STACK CFI e892 .cfa: $rsp 200 +
STACK CFI e894 .cfa: $rsp 208 +
STACK CFI e896 .cfa: $rsp 216 +
STACK CFI e898 .cfa: $rsp 224 +
STACK CFI e8bc .cfa: $rsp 176 +
STACK CFI e9ce .cfa: $rsp 184 +
STACK CFI e9d0 .cfa: $rsp 192 +
STACK CFI e9d2 .cfa: $rsp 200 +
STACK CFI e9d4 .cfa: $rsp 208 +
STACK CFI e9d6 .cfa: $rsp 216 +
STACK CFI e9d8 .cfa: $rsp 224 +
STACK CFI e9fc .cfa: $rsp 176 +
STACK CFI INIT ea98 21c .cfa: $rsp 8 + .ra: .cfa -8 + ^
STACK CFI ea9a $r15: .cfa -16 + ^ .cfa: $rsp 16 +
STACK CFI ea9c $r14: .cfa -24 + ^ .cfa: $rsp 24 +
STACK CFI ea9e $r13: .cfa -32 + ^ .cfa: $rsp 32 +
STACK CFI eaa0 $r12: .cfa -40 + ^ .cfa: $rsp 40 +
STACK CFI eaa1 $rbp: .cfa -48 + ^ .cfa: $rsp 48 +
STACK CFI eaa2 $rbx: .cfa -56 + ^ .cfa: $rsp 56 +
STACK CFI eaa6 .cfa: $rsp 112 +
STACK CFI eb04 .cfa: $rsp 120 +
STACK CFI eb06 .cfa: $rsp 128 +
STACK CFI eb08 .cfa: $rsp 136 +
STACK CFI eb10 .cfa: $rsp 144 +
STACK CFI eb16 .cfa: $rsp 152 +
STACK CFI eb1c .cfa: $rsp 160 +
STACK CFI eb23 .cfa: $rsp 168 +
STACK CFI eb24 .cfa: $rsp 176 +
STACK CFI eb44 .cfa: $rsp 112 +
STACK CFI ec60 .cfa: $rsp 56 +
STACK CFI ec61 .cfa: $rsp 48 +
STACK CFI ec62 .cfa: $rsp 40 +
STACK CFI ec64 .cfa: $rsp 32 +
STACK CFI ec66 .cfa: $rsp 24 +
STACK CFI ec68 .cfa: $rsp 16 +
STACK CFI ec6a .cfa: $rsp 8 +
STACK CFI ec6b .cfa: $rsp 112 +
STACK CFI INIT ecb4 e1 .cfa: $rsp 8 + .ra: .cfa -8 + ^
STACK CFI ecb6 $r15: .cfa -16 + ^ .cfa: $rsp 16 +
STACK CFI ecb8 $r14: .cfa -24 + ^ .cfa: $rsp 24 +
STACK CFI ecba $r13: .cfa -32 + ^ .cfa: $rsp 32 +
STACK CFI ecbc $r12: .cfa -40 + ^ .cfa: $rsp 40 +
STACK CFI ecbd $rbp: .cfa -48 + ^ .cfa: $rsp 48 +
STACK CFI ecbe $rbx: .cfa -56 + ^ .cfa: $rsp 56 +
STACK CFI ecc2 .cfa: $rsp 64 +
STACK CFI ed5e .cfa: $rsp 56 +
STACK CFI ed5f .cfa: $rsp 48 +
STACK CFI ed60 .cfa: $rsp 40 +
STACK CFI ed62 .cfa: $rsp 32 +
STACK CFI ed64 .cfa: $rsp 24 +
STACK CFI ed66 .cfa: $rsp 16 +
STACK CFI ed68 .cfa: $rsp 8 +
STACK CFI ed69 .cfa: $rsp 64 +
STACK CFI INIT ed95 eb .cfa: $rsp 8 + .ra: .cfa -8 + ^
STACK CFI ed97 $r13: .cfa -16 + ^ .cfa: $rsp 16 +
STACK CFI ed99 $r12: .cfa -24 + ^ .cfa: $rsp 24 +
STACK CFI ed9a $rbp: .cfa -32 + ^ .cfa: $rsp 32 +
STACK CFI ed9b $rbx: .cfa -40 + ^ .cfa: $rsp 40 +
STACK CFI ed9f .cfa: $rsp 48 +
STACK CFI ee37 .cfa: $rsp 40 +
STACK CFI ee38 .cfa: $rsp 32 +
STACK CFI ee39 .cfa: $rsp 24 +
STACK CFI ee3b .cfa: $rsp 16 +
STACK CFI ee3d .cfa: $rsp 8 +
STACK CFI ee3e .cfa: $rsp 48 +
STACK CFI INIT ee80 3cc .cfa: $rsp 8 + .ra: .cfa -8 + ^
STACK CFI ee81 $rbx: .cfa -16 + ^ .cfa: $rsp 16 +
STACK CFI f008 .cfa: $rsp 8 +
STACK CFI f009 .cfa: $rsp 16 +
STACK CFI INIT f24c 64 .cfa: $rsp 8 + .ra: .cfa -8 + ^
STACK CFI f24e $r12: .cfa -16 + ^ .cfa: $rsp 16 +
STACK CFI f24f $rbp: .cfa -24 + ^ .cfa: $rsp 24 +
STACK CFI f250 $rbx: .cfa -32 + ^ .cfa: $rsp 32 +
STACK CFI f2ac .cfa: $rsp 24 +
STACK CFI f2ad .cfa: $rsp 16 +
STACK CFI f2af .cfa: $rsp 8 +
STACK CFI INIT f2b0 ca .cfa: $rsp 8 + .ra: .cfa -8 + ^
STACK CFI f2b1 $rbp: .cfa -16 + ^ .cfa: $rsp 16 +
STACK CFI f2b2 $rbx: .cfa -24 + ^ .cfa: $rsp 24 +
STACK CFI f2b6 .cfa: $rsp 32 +
STACK CFI f325 .cfa: $rsp 24 +
STACK CFI f326 .cfa: $rsp 16 +
STACK CFI f327 .cfa: $rsp 8 +
STACK CFI f328 .cfa: $rsp 32 +
STACK CFI INIT f37a 114 .cfa: $rsp 8 + .ra: .cfa -8 + ^
STACK CFI f37c $r13: .cfa -16 + ^ .cfa: $rsp 16 +
STACK CFI f37e $r12: .cfa -24 + ^ .cfa: $rsp 24 +
STACK CFI f37f $rbp: .cfa -32 + ^ .cfa: $rsp 32 +
STACK CFI f380 $rbx: .cfa -40 + ^ .cfa: $rsp 40 +
STACK CFI f387 .cfa: $rsp 1216 +
STACK CFI f39d .cfa: $rsp 40 +
STACK CFI f39e .cfa: $rsp 32 +
STACK CFI f39f .cfa: $rsp 24 +
STACK CFI f3a1 .cfa: $rsp 16 +
STACK CFI f3a3 .cfa: $rsp 8 +
STACK CFI f3a4 .cfa: $rsp 1216 +
STACK CFI INIT f48e e .cfa: $rsp 8 + .ra: .cfa -8 + ^
STACK CFI f492 .cfa: $rsp 16 +
STACK CFI f49b .cfa: $rsp 8 +
STACK CFI INIT f49c 18d .cfa: $rsp 8 + .ra: .cfa -8 + ^
STACK CFI f49e $r13: .cfa -16 + ^ .cfa: $rsp 16 +
STACK CFI f4a0 $r12: .cfa -24 + ^ .cfa: $rsp 24 +
STACK CFI f4a1 $rbp: .cfa -32 + ^ .cfa: $rsp 32 +
STACK CFI f4a2 $rbx: .cfa -40 + ^ .cfa: $rsp 40 +
STACK CFI f4a6 .cfa: $rsp 48 +
STACK CFI f622 .cfa: $rsp 40 +
STACK CFI f623 .cfa: $rsp 32 +
STACK CFI f624 .cfa: $rsp 24 +
STACK CFI f626 .cfa: $rsp 16 +
STACK CFI f628 .cfa: $rsp 8 +
STACK CFI INIT f629 dd .cfa: $rsp 8 + .ra: .cfa -8 + ^
STACK CFI f62b $r13: .cfa -16 + ^ .cfa: $rsp 16 +
STACK CFI f62d $r12: .cfa -24 + ^ .cfa: $rsp 24 +
STACK CFI f62e $rbp: .cfa -32 + ^ .cfa: $rsp 32 +
STACK CFI f62f $rbx: .cfa -40 + ^ .cfa: $rsp 40 +
STACK CFI f633 .cfa: $rsp 48 +
STACK CFI f6d8 .cfa: $rsp 40 +
STACK CFI f6d9 .cfa: $rsp 32 +
STACK CFI f6da .cfa: $rsp 24 +
STACK CFI f6dc .cfa: $rsp 16 +
STACK CFI f6de .cfa: $rsp 8 +
STACK CFI f6df .cfa: $rsp 48 +
STACK CFI INIT f706 26c .cfa: $rsp 8 + .ra: .cfa -8 + ^
STACK CFI f708 $r12: .cfa -16 + ^ .cfa: $rsp 16 +
STACK CFI f709 $rbp: .cfa -24 + ^ .cfa: $rsp 24 +
STACK CFI f70a $rbx: .cfa -32 + ^ .cfa: $rsp 32 +
STACK CFI f72e .cfa: $rsp 24 +
STACK CFI f72f .cfa: $rsp 16 +
STACK CFI f731 .cfa: $rsp 8 +
STACK CFI f732 .cfa: $rsp 32 +
STACK CFI INIT f972 1bc .cfa: $rsp 8 + .ra: .cfa -8 + ^
STACK CFI f974 $r14: .cfa -16 + ^ .cfa: $rsp 16 +
STACK CFI f976 $r13: .cfa -24 + ^ .cfa: $rsp 24 +
STACK CFI f978 $r12: .cfa -32 + ^ .cfa: $rsp 32 +
STACK CFI f979 $rbp: .cfa -40 + ^ .cfa: $rsp 40 +
STACK CFI f97a $rbx: .cfa -48 + ^ .cfa: $rsp 48 +
STACK CFI fad0 .cfa: $rsp 40 +
STACK CFI fad1 .cfa: $rsp 32 +
STACK CFI fad3 .cfa: $rsp 24 +
STACK CFI fad5 .cfa: $rsp 16 +
STACK CFI fad7 .cfa: $rsp 8 +
STACK CFI fad8 .cfa: $rsp 48 +
STACK CFI INIT fb2e 92 .cfa: $rsp 8 + .ra: .cfa -8 + ^
STACK CFI fb3d $rbx: .cfa -16 + ^ .cfa: $rsp 16 +
STACK CFI fb6a .cfa: $rsp 8 +
STACK CFI fb6b .cfa: $rsp 16 +
STACK CFI fbbf $rbx: $rbx .cfa: $rsp 8 +
STACK CFI INIT fbc0 40d .cfa: $rsp 8 + .ra: .cfa -8 + ^
STACK CFI fbc2 $r14: .cfa -16 + ^ .cfa: $rsp 16 +
STACK CFI fbc4 $r13: .cfa -24 + ^ .cfa: $rsp 24 +
STACK CFI fbc6 $r12: .cfa -32 + ^ .cfa: $rsp 32 +
STACK CFI fbc7 $rbp: .cfa -40 + ^ .cfa: $rsp 40 +
STACK CFI fbc8 $rbx: .cfa -48 + ^ .cfa: $rsp 48 +
STACK CFI ffc5 .cfa: $rsp 40 +
STACK CFI ffc6 .cfa: $rsp 32 +
STACK CFI ffc8 .cfa: $rsp 24 +
STACK CFI ffca .cfa: $rsp 16 +
STACK CFI ffcc .cfa: $rsp 8 +
STACK CFI INIT ffcd 62 .cfa: $rsp 8 + .ra: .cfa -8 + ^
STACK CFI ffce $rbp: .cfa -16 + ^ .cfa: $rsp 16 +
STACK CFI ffcf $rbx: .cfa -24 + ^ .cfa: $rsp 24 +
STACK CFI ffd3 .cfa: $rsp 32 +
STACK CFI 1002c .cfa: $rsp 24 +
STACK CFI 1002d .cfa: $rsp 16 +
STACK CFI 1002e .cfa: $rsp 8 +
STACK CFI INIT 1002f 456 .cfa: $rsp 8 + .ra: .cfa -8 + ^
STACK CFI 10031 $r15: .cfa -16 + ^ .cfa: $rsp 16 +
STACK CFI 10033 $r14: .cfa -24 + ^ .cfa: $rsp 24 +
STACK CFI 10035 $r13: .cfa -32 + ^ .cfa: $rsp 32 +
STACK CFI 10037 $r12: .cfa -40 + ^ .cfa: $rsp 40 +
STACK CFI 10038 $rbp: .cfa -48 + ^ .cfa: $rsp 48 +
STACK CFI 10039 $rbx: .cfa -56 + ^ .cfa: $rsp 56 +
STACK CFI 1003d .cfa: $rsp 144 +
STACK CFI 10097 .cfa: $rsp 56 +
STACK CFI 10098 .cfa: $rsp 48 +
STACK CFI 10099 .cfa: $rsp 40 +
STACK CFI 1009b .cfa: $rsp 32 +
STACK CFI 1009d .cfa: $rsp 24 +
STACK CFI 1009f .cfa: $rsp 16 +
STACK CFI 100a1 .cfa: $rsp 8 +
STACK CFI 100a2 .cfa: $rsp 144 +
STACK CFI INIT 10485 7b0 .cfa: $rsp 8 + .ra: .cfa -8 + ^
STACK CFI 10487 $r15: .cfa -16 + ^ .cfa: $rsp 16 +
STACK CFI 10489 $r14: .cfa -24 + ^ .cfa: $rsp 24 +
STACK CFI 1048b $r13: .cfa -32 + ^ .cfa: $rsp 32 +
STACK CFI 1048d $r12: .cfa -40 + ^ .cfa: $rsp 40 +
STACK CFI 1048e $rbp: .cfa -48 + ^ .cfa: $rsp 48 +
STACK CFI 1048f $rbx: .cfa -56 + ^ .cfa: $rsp 56 +
STACK CFI 10493 .cfa: $rsp 112 +
STACK CFI 104c8 .cfa: $rsp 56 +
STACK CFI 104c9 .cfa: $rsp 48 +
STACK CFI 104ca .cfa: $rsp 40 +
STACK CFI 104cc .cfa: $rsp 32 +
STACK CFI 104ce .cfa: $rsp 24 +
STACK CFI 104d0 .cfa: $rsp 16 +
STACK CFI 104d2 .cfa: $rsp 8 +
STACK CFI 104d3 .cfa: $rsp 112 +
STACK CFI INIT 10c35 a9 .cfa: $rsp 8 + .ra: .cfa -8 + ^
STACK CFI 10c37 $r14: .cfa -16 + ^ .cfa: $rsp 16 +
STACK CFI 10c39 $r13: .cfa -24 + ^ .cfa: $rsp 24 +
STACK CFI 10c3b $r12: .cfa -32 + ^ .cfa: $rsp 32 +
STACK CFI 10c3c $rbp: .cfa -40 + ^ .cfa: $rsp 40 +
STACK CFI 10c3d $rbx: .cfa -48 + ^ .cfa: $rsp 48 +
STACK CFI 10cd6 .cfa: $rsp 40 +
STACK CFI 10cd7 .cfa: $rsp 32 +
STACK CFI 10cd9 .cfa: $rsp 24 +
STACK CFI 10cdb .cfa: $rsp 16 +
STACK CFI 10cdd .cfa: $rsp 8 +
STACK CFI INIT 10cde 1fb .cfa: $rsp 8 + .ra: .cfa -8 + ^
STACK CFI 10ce0 $r15: .cfa -16 + ^ .cfa: $rsp 16 +
STACK CFI 10ce2 $r14: .cfa -24 + ^ .cfa: $rsp 24 +
STACK CFI 10ce4 $r13: .cfa -32 + ^ .cfa: $rsp 32 +
STACK CFI 10ce6 $r12: .cfa -40 + ^ .cfa: $rsp 40 +
STACK CFI 10ce7 $rbp: .cfa -48 + ^ .cfa: $rsp 48 +
STACK CFI 10ce8 $rbx: .cfa -56 + ^ .cfa: $rsp 56 +
STACK CFI 10cec .cfa: $rsp 96 +
STACK CFI 10e28 .cfa: $rsp 56 +
STACK CFI 10e29 .cfa: $rsp 48 +
STACK CFI 10e2a .cfa: $rsp 40 +
STACK CFI 10e2c .cfa: $rsp 32 +
STACK CFI 10e2e .cfa: $rsp 24 +
STACK CFI 10e30 .cfa: $rsp 16 +
STACK CFI 10e32 .cfa: $rsp 8 +
STACK CFI 10e33 .cfa: $rsp 96 +
STACK CFI INIT 10ed9 74 .cfa: $rsp 8 + .ra: .cfa -8 + ^
STACK CFI 10edb $r12: .cfa -16 + ^ .cfa: $rsp 16 +
STACK CFI 10edc $rbp: .cfa -24 + ^ .cfa: $rsp 24 +
STACK CFI 10edd $rbx: .cfa -32 + ^ .cfa: $rsp 32 +
STACK CFI 10f33 .cfa: $rsp 24 +
STACK CFI 10f34 .cfa: $rsp 16 +
STACK CFI 10f36 .cfa: $rsp 8 +
STACK CFI 10f37 .cfa: $rsp 32 +
STACK CFI INIT 10f4d 89 .cfa: $rsp 8 + .ra: .cfa -8 + ^
STACK CFI 10f58 $rbp: .cfa -16 + ^ .cfa: $rsp 16 +
STACK CFI 10f59 $rbx: .cfa -24 + ^ .cfa: $rsp 24 +
STACK CFI 10f5d .cfa: $rsp 32 +
STACK CFI 10f80 .cfa: $rsp 24 +
STACK CFI 10f81 .cfa: $rsp 16 +
STACK CFI 10f82 .cfa: $rsp 8 +
STACK CFI 10f83 .cfa: $rsp 32 +
STACK CFI 10fd5 $rbp: $rbp $rbx: $rbx .cfa: $rsp 8 +
STACK CFI INIT 10fd6 73 .cfa: $rsp 8 + .ra: .cfa -8 + ^
STACK CFI 10fd8 $r12: .cfa -16 + ^ .cfa: $rsp 16 +
STACK CFI 10fd9 $rbp: .cfa -24 + ^ .cfa: $rsp 24 +
STACK CFI 10fda $rbx: .cfa -32 + ^ .cfa: $rsp 32 +
STACK CFI 11045 .cfa: $rsp 24 +
STACK CFI 11046 .cfa: $rsp 16 +
STACK CFI 11048 .cfa: $rsp 8 +
STACK CFI INIT 11049 130 .cfa: $rsp 8 + .ra: .cfa -8 + ^
STACK CFI 11059 $r13: .cfa -16 + ^ .cfa: $rsp 16 +
STACK CFI 1105b $r12: .cfa -24 + ^ .cfa: $rsp 24 +
STACK CFI 1105c $rbp: .cfa -32 + ^ .cfa: $rsp 32 +
STACK CFI 1105d $rbx: .cfa -40 + ^ .cfa: $rsp 40 +
STACK CFI 11061 .cfa: $rsp 48 +
STACK CFI 11084 .cfa: $rsp 40 +
STACK CFI 11085 .cfa: $rsp 32 +
STACK CFI 11086 .cfa: $rsp 24 +
STACK CFI 11088 .cfa: $rsp 16 +
STACK CFI 1108a .cfa: $rsp 8 +
STACK CFI 1108b .cfa: $rsp 48 +
STACK CFI 11178 $r12: $r12 $r13: $r13 $rbp: $rbp $rbx: $rbx .cfa: $rsp 8 +
STACK CFI INIT 11179 73 .cfa: $rsp 8 + .ra: .cfa -8 + ^
STACK CFI 1117b $r12: .cfa -16 + ^ .cfa: $rsp 16 +
STACK CFI 1117c $rbp: .cfa -24 + ^ .cfa: $rsp 24 +
STACK CFI 1117d $rbx: .cfa -32 + ^ .cfa: $rsp 32 +
STACK CFI 111e8 .cfa: $rsp 24 +
STACK CFI 111e9 .cfa: $rsp 16 +
STACK CFI 111eb .cfa: $rsp 8 +
STACK CFI INIT 111ec 13d .cfa: $rsp 8 + .ra: .cfa -8 + ^
STACK CFI 111ee $r12: .cfa -16 + ^ .cfa: $rsp 16 +
STACK CFI 111ef $rbp: .cfa -24 + ^ .cfa: $rsp 24 +
STACK CFI 111f0 $rbx: .cfa -32 + ^ .cfa: $rsp 32 +
STACK CFI 1123e .cfa: $rsp 24 +
STACK CFI 1123f .cfa: $rsp 16 +
STACK CFI 11241 .cfa: $rsp 8 +
STACK CFI 11242 .cfa: $rsp 32 +
STACK CFI INIT 11329 3cc .cfa: $rsp 8 + .ra: .cfa -8 + ^
STACK CFI 1132b $r15: .cfa -16 + ^ .cfa: $rsp 16 +
STACK CFI 1132d $r14: .cfa -24 + ^ .cfa: $rsp 24 +
STACK CFI 1132f $r13: .cfa -32 + ^ .cfa: $rsp 32 +
STACK CFI 11331 $r12: .cfa -40 + ^ .cfa: $rsp 40 +
STACK CFI 11332 $rbp: .cfa -48 + ^ .cfa: $rsp 48 +
STACK CFI 11333 $rbx: .cfa -56 + ^ .cfa: $rsp 56 +
STACK CFI 11337 .cfa: $rsp 80 +
STACK CFI 1137e .cfa: $rsp 56 +
STACK CFI 1137f .cfa: $rsp 48 +
STACK CFI 11380 .cfa: $rsp 40 +
STACK CFI 11382 .cfa: $rsp 32 +
STACK CFI 11384 .cfa: $rsp 24 +
STACK CFI 11386 .cfa: $rsp 16 +
STACK CFI 11388 .cfa: $rsp 8 +
STACK CFI 11389 .cfa: $rsp 80 +
STACK CFI INIT 116f5 123 .cfa: $rsp 8 + .ra: .cfa -8 + ^
STACK CFI 116f7 $r15: .cfa -16 + ^ .cfa: $rsp 16 +
STACK CFI 116f9 $r14: .cfa -24 + ^ .cfa: $rsp 24 +
STACK CFI 116fb $r13: .cfa -32 + ^ .cfa: $rsp 32 +
STACK CFI 116fd $r12: .cfa -40 + ^ .cfa: $rsp 40 +
STACK CFI 116fe $rbp: .cfa -48 + ^ .cfa: $rsp 48 +
STACK CFI 116ff $rbx: .cfa -56 + ^ .cfa: $rsp 56 +
STACK CFI 11703 .cfa: $rsp 64 +
STACK CFI 1180d .cfa: $rsp 56 +
STACK CFI 1180e .cfa: $rsp 48 +
STACK CFI 1180f .cfa: $rsp 40 +
STACK CFI 11811 .cfa: $rsp 32 +
STACK CFI 11813 .cfa: $rsp 24 +
STACK CFI 11815 .cfa: $rsp 16 +
STACK CFI 11817 .cfa: $rsp 8 +
STACK CFI INIT 11818 cf .cfa: $rsp 8 + .ra: .cfa -8 + ^
STACK CFI 1181a $r14: .cfa -16 + ^ .cfa: $rsp 16 +
STACK CFI 1181c $r13: .cfa -24 + ^ .cfa: $rsp 24 +
STACK CFI 1181e $r12: .cfa -32 + ^ .cfa: $rsp 32 +
STACK CFI 1181f $rbp: .cfa -40 + ^ .cfa: $rsp 40 +
STACK CFI 11820 $rbx: .cfa -48 + ^ .cfa: $rsp 48 +
STACK CFI 1183b .cfa: $rsp 40 +
STACK CFI 1183c .cfa: $rsp 32 +
STACK CFI 1183e .cfa: $rsp 24 +
STACK CFI 11840 .cfa: $rsp 16 +
STACK CFI 11842 .cfa: $rsp 8 +
STACK CFI 11843 .cfa: $rsp 48 +
STACK CFI INIT 118e7 8d .cfa: $rsp 8 + .ra: .cfa -8 + ^
STACK CFI 118e9 $r12: .cfa -16 + ^ .cfa: $rsp 16 +
STACK CFI 118ea $rbp: .cfa -24 + ^ .cfa: $rsp 24 +
STACK CFI 118eb $rbx: .cfa -32 + ^ .cfa: $rsp 32 +
STACK CFI 11970 .cfa: $rsp 24 +
STACK CFI 11971 .cfa: $rsp 16 +
STACK CFI 11973 .cfa: $rsp 8 +
STACK CFI INIT 11974 51 .cfa: $rsp 8 + .ra: .cfa -8 + ^
STACK CFI 11975 $rbp: .cfa -16 + ^ .cfa: $rsp 16 +
STACK CFI 11976 $rbx: .cfa -24 + ^ .cfa: $rsp 24 +
STACK CFI 1197a .cfa: $rsp 32 +
STACK CFI 119b4 .cfa: $rsp 24 +
STACK CFI 119b5 .cfa: $rsp 16 +
STACK CFI 119b6 .cfa: $rsp 8 +
STACK CFI 119b7 .cfa: $rsp 32 +
STACK CFI INIT 119c5 69 .cfa: $rsp 8 + .ra: .cfa -8 + ^
STACK CFI 119c6 $rbp: .cfa -16 + ^ .cfa: $rsp 16 +
STACK CFI 119c7 $rbx: .cfa -24 + ^ .cfa: $rsp 24 +
STACK CFI 119cb .cfa: $rsp 32 +
STACK CFI 11a13 .cfa: $rsp 24 +
STACK CFI 11a14 .cfa: $rsp 16 +
STACK CFI 11a15 .cfa: $rsp 8 +
STACK CFI 11a16 .cfa: $rsp 32 +
STACK CFI INIT 11a2e 28f .cfa: $rsp 8 + .ra: .cfa -8 + ^
STACK CFI 11a30 $r15: .cfa -16 + ^ .cfa: $rsp 16 +
STACK CFI 11a32 $r14: .cfa -24 + ^ .cfa: $rsp 24 +
STACK CFI 11a34 $r13: .cfa -32 + ^ .cfa: $rsp 32 +
STACK CFI 11a36 $r12: .cfa -40 + ^ .cfa: $rsp 40 +
STACK CFI 11a37 $rbp: .cfa -48 + ^ .cfa: $rsp 48 +
STACK CFI 11a38 $rbx: .cfa -56 + ^ .cfa: $rsp 56 +
STACK CFI 11a3c .cfa: $rsp 80 +
STACK CFI 11a88 .cfa: $rsp 56 +
STACK CFI 11a89 .cfa: $rsp 48 +
STACK CFI 11a8a .cfa: $rsp 40 +
STACK CFI 11a8c .cfa: $rsp 32 +
STACK CFI 11a8e .cfa: $rsp 24 +
STACK CFI 11a90 .cfa: $rsp 16 +
STACK CFI 11a92 .cfa: $rsp 8 +
STACK CFI 11a93 .cfa: $rsp 80 +
STACK CFI INIT 11cbd 36a .cfa: $rsp 8 + .ra: .cfa -8 + ^
STACK CFI 11ccd $r15: .cfa -16 + ^ .cfa: $rsp 16 +
STACK CFI 11ccf $r14: .cfa -24 + ^ .cfa: $rsp 24 +
STACK CFI 11cd1 $r13: .cfa -32 + ^ .cfa: $rsp 32 +
STACK CFI 11cd3 $r12: .cfa -40 + ^ .cfa: $rsp 40 +
STACK CFI 11cd4 $rbp: .cfa -48 + ^ .cfa: $rsp 48 +
STACK CFI 11cd5 $rbx: .cfa -56 + ^ .cfa: $rsp 56 +
STACK CFI 11cd9 .cfa: $rsp 80 +
STACK CFI 11cfc .cfa: $rsp 56 +
STACK CFI 11cfd .cfa: $rsp 48 +
STACK CFI 11cfe .cfa: $rsp 40 +
STACK CFI 11d00 .cfa: $rsp 32 +
STACK CFI 11d02 .cfa: $rsp 24 +
STACK CFI 11d04 .cfa: $rsp 16 +
STACK CFI 11d06 .cfa: $rsp 8 +
STACK CFI 11d07 .cfa: $rsp 80 +
STACK CFI 12026 $r12: $r12 $r13: $r13 $r14: $r14 $r15: $r15 $rbp: $rbp $rbx: $rbx .cfa: $rsp 8 +
STACK CFI INIT 12027 d2 .cfa: $rsp 8 + .ra: .cfa -8 + ^
STACK CFI 12029 $r12: .cfa -16 + ^ .cfa: $rsp 16 +
STACK CFI 1202a $rbp: .cfa -24 + ^ .cfa: $rsp 24 +
STACK CFI 1202b $rbx: .cfa -32 + ^ .cfa: $rsp 32 +
STACK CFI 120f5 .cfa: $rsp 24 +
STACK CFI 120f6 .cfa: $rsp 16 +
STACK CFI 120f8 .cfa: $rsp 8 +
STACK CFI INIT 120f9 6a4 .cfa: $rsp 8 + .ra: .cfa -8 + ^
STACK CFI 120fb $r13: .cfa -16 + ^ .cfa: $rsp 16 +
STACK CFI 120fd $r12: .cfa -24 + ^ .cfa: $rsp 24 +
STACK CFI 120fe $rbp: .cfa -32 + ^ .cfa: $rsp 32 +
STACK CFI 120ff $rbx: .cfa -40 + ^ .cfa: $rsp 40 +
STACK CFI 12103 .cfa: $rsp 64 +
STACK CFI 12151 .cfa: $rsp 40 +
STACK CFI 12152 .cfa: $rsp 32 +
STACK CFI 12153 .cfa: $rsp 24 +
STACK CFI 12155 .cfa: $rsp 16 +
STACK CFI 12157 .cfa: $rsp 8 +
STACK CFI 12158 .cfa: $rsp 64 +
STACK CFI INIT 1279d 113 .cfa: $rsp 8 + .ra: .cfa -8 + ^
STACK CFI 127ad $r12: .cfa -16 + ^ .cfa: $rsp 16 +
STACK CFI 127ae $rbp: .cfa -24 + ^ .cfa: $rsp 24 +
STACK CFI 127af $rbx: .cfa -32 + ^ .cfa: $rsp 32 +
STACK CFI 127cf .cfa: $rsp 24 +
STACK CFI 127d0 .cfa: $rsp 16 +
STACK CFI 127d2 .cfa: $rsp 8 +
STACK CFI 127d3 .cfa: $rsp 32 +
STACK CFI 128af $r12: $r12 $rbp: $rbp $rbx: $rbx .cfa: $rsp 8 +
STACK CFI INIT 128b0 164 .cfa: $rsp 8 + .ra: .cfa -8 + ^
STACK CFI 128c0 $r13: .cfa -16 + ^ .cfa: $rsp 16 +
STACK CFI 128c2 $r12: .cfa -24 + ^ .cfa: $rsp 24 +
STACK CFI 128c3 $rbp: .cfa -32 + ^ .cfa: $rsp 32 +
STACK CFI 128c4 $rbx: .cfa -40 + ^ .cfa: $rsp 40 +
STACK CFI 128c8 .cfa: $rsp 48 +
STACK CFI 128eb .cfa: $rsp 40 +
STACK CFI 128ec .cfa: $rsp 32 +
STACK CFI 128ed .cfa: $rsp 24 +
STACK CFI 128ef .cfa: $rsp 16 +
STACK CFI 128f1 .cfa: $rsp 8 +
STACK CFI 128f2 .cfa: $rsp 48 +
STACK CFI 12a13 $r12: $r12 $r13: $r13 $rbp: $rbp $rbx: $rbx .cfa: $rsp 8 +
STACK CFI INIT 12a14 b5 .cfa: $rsp 8 + .ra: .cfa -8 + ^
STACK CFI 12a16 $r13: .cfa -16 + ^ .cfa: $rsp 16 +
STACK CFI 12a18 $r12: .cfa -24 + ^ .cfa: $rsp 24 +
STACK CFI 12a19 $rbp: .cfa -32 + ^ .cfa: $rsp 32 +
STACK CFI 12a1a $rbx: .cfa -40 + ^ .cfa: $rsp 40 +
STACK CFI 12a1e .cfa: $rsp 48 +
STACK CFI 12ac2 .cfa: $rsp 40 +
STACK CFI 12ac3 .cfa: $rsp 32 +
STACK CFI 12ac4 .cfa: $rsp 24 +
STACK CFI 12ac6 .cfa: $rsp 16 +
STACK CFI 12ac8 .cfa: $rsp 8 +
STACK CFI INIT 12ac9 c6 .cfa: $rsp 8 + .ra: .cfa -8 + ^
STACK CFI 12acb $r13: .cfa -16 + ^ .cfa: $rsp 16 +
STACK CFI 12acd $r12: .cfa -24 + ^ .cfa: $rsp 24 +
STACK CFI 12ace $rbp: .cfa -32 + ^ .cfa: $rsp 32 +
STACK CFI 12acf $rbx: .cfa -40 + ^ .cfa: $rsp 40 +
STACK CFI 12ad3 .cfa: $rsp 48 +
STACK CFI 12b88 .cfa: $rsp 40 +
STACK CFI 12b89 .cfa: $rsp 32 +
STACK CFI 12b8a .cfa: $rsp 24 +
STACK CFI 12b8c .cfa: $rsp 16 +
STACK CFI 12b8e .cfa: $rsp 8 +
STACK CFI INIT 12b8f da .cfa: $rsp 8 + .ra: .cfa -8 + ^
STACK CFI 12b91 $r14: .cfa -16 + ^ .cfa: $rsp 16 +
STACK CFI 12b93 $r13: .cfa -24 + ^ .cfa: $rsp 24 +
STACK CFI 12b95 $r12: .cfa -32 + ^ .cfa: $rsp 32 +
STACK CFI 12b96 $rbp: .cfa -40 + ^ .cfa: $rsp 40 +
STACK CFI 12b97 $rbx: .cfa -48 + ^ .cfa: $rsp 48 +
STACK CFI 12c4b .cfa: $rsp 40 +
STACK CFI 12c4c .cfa: $rsp 32 +
STACK CFI 12c4e .cfa: $rsp 24 +
STACK CFI 12c50 .cfa: $rsp 16 +
STACK CFI 12c52 .cfa: $rsp 8 +
STACK CFI 12c53 .cfa: $rsp 48 +
STACK CFI INIT 12c69 cd .cfa: $rsp 8 + .ra: .cfa -8 + ^
STACK CFI 12c6b $r14: .cfa -16 + ^ .cfa: $rsp 16 +
STACK CFI 12c6d $r13: .cfa -24 + ^ .cfa: $rsp 24 +
STACK CFI 12c6f $r12: .cfa -32 + ^ .cfa: $rsp 32 +
STACK CFI 12c70 $rbp: .cfa -40 + ^ .cfa: $rsp 40 +
STACK CFI 12c71 $rbx: .cfa -48 + ^ .cfa: $rsp 48 +
STACK CFI 12d2e .cfa: $rsp 40 +
STACK CFI 12d2f .cfa: $rsp 32 +
STACK CFI 12d31 .cfa: $rsp 24 +
STACK CFI 12d33 .cfa: $rsp 16 +
STACK CFI 12d35 .cfa: $rsp 8 +
STACK CFI INIT 12d36 b5 .cfa: $rsp 8 + .ra: .cfa -8 + ^
STACK CFI 12d38 $r13: .cfa -16 + ^ .cfa: $rsp 16 +
STACK CFI 12d3a $r12: .cfa -24 + ^ .cfa: $rsp 24 +
STACK CFI 12d3b $rbp: .cfa -32 + ^ .cfa: $rsp 32 +
STACK CFI 12d3c $rbx: .cfa -40 + ^ .cfa: $rsp 40 +
STACK CFI 12d40 .cfa: $rsp 48 +
STACK CFI 12de4 .cfa: $rsp 40 +
STACK CFI 12de5 .cfa: $rsp 32 +
STACK CFI 12de6 .cfa: $rsp 24 +
STACK CFI 12de8 .cfa: $rsp 16 +
STACK CFI 12dea .cfa: $rsp 8 +
STACK CFI INIT 12deb 9b6 .cfa: $rsp 8 + .ra: .cfa -8 + ^
STACK CFI 12ded $r15: .cfa -16 + ^ .cfa: $rsp 16 +
STACK CFI 12def $r14: .cfa -24 + ^ .cfa: $rsp 24 +
STACK CFI 12df1 $r13: .cfa -32 + ^ .cfa: $rsp 32 +
STACK CFI 12df3 $r12: .cfa -40 + ^ .cfa: $rsp 40 +
STACK CFI 12df4 $rbp: .cfa -48 + ^ .cfa: $rsp 48 +
STACK CFI 12df5 $rbx: .cfa -56 + ^ .cfa: $rsp 56 +
STACK CFI 12df9 .cfa: $rsp 112 +
STACK CFI 13796 .cfa: $rsp 56 +
STACK CFI 13797 .cfa: $rsp 48 +
STACK CFI 13798 .cfa: $rsp 40 +
STACK CFI 1379a .cfa: $rsp 32 +
STACK CFI 1379c .cfa: $rsp 24 +
STACK CFI 1379e .cfa: $rsp 16 +
STACK CFI 137a0 .cfa: $rsp 8 +
STACK CFI INIT 137a1 498 .cfa: $rsp 8 + .ra: .cfa -8 + ^
STACK CFI 137ae $rbx: .cfa -16 + ^ .cfa: $rsp 16 +
STACK CFI 13c32 .cfa: $rsp 8 +
STACK CFI 13c33 $rbx: $rbx
STACK CFI INIT 13c39 62 .cfa: $rsp 8 + .ra: .cfa -8 + ^
STACK CFI 13c3f $rbx: .cfa -16 + ^ .cfa: $rsp 16 +
STACK CFI 13c8d .cfa: $rsp 8 +
STACK CFI 13c8e $rbx: $rbx
STACK CFI 13c94 $rbx: .cfa -16 + ^ .cfa: $rsp 16 +
STACK CFI INIT 13c9b 202 .cfa: $rsp 8 + .ra: .cfa -8 + ^
STACK CFI 13c9c $rbp: .cfa -16 + ^ .cfa: $rsp 16 +
STACK CFI 13c9d $rbx: .cfa -24 + ^ .cfa: $rsp 24 +
STACK CFI 13ca1 .cfa: $rsp 32 +
STACK CFI 13e9a .cfa: $rsp 24 +
STACK CFI 13e9b .cfa: $rsp 16 +
STACK CFI 13e9c .cfa: $rsp 8 +
STACK CFI INIT 13e9d 30 .cfa: $rsp 8 + .ra: .cfa -8 + ^
STACK CFI 13ea1 .cfa: $rsp 16 +
STACK CFI 13ecc .cfa: $rsp 8 +
STACK CFI INIT 13ecd 161 .cfa: $rsp 8 + .ra: .cfa -8 + ^
STACK CFI 13edc $rbx: .cfa -16 + ^ .cfa: $rsp 16 +
STACK CFI 13f6d .cfa: $rsp 8 +
STACK CFI 13f6e .cfa: $rsp 16 +
STACK CFI 14024 $rbx: $rbx .cfa: $rsp 8 +
STACK CFI INIT 1402e fa .cfa: $rsp 8 + .ra: .cfa -8 + ^
STACK CFI 1403d $rbx: .cfa -16 + ^ .cfa: $rsp 16 +
STACK CFI 14105 .cfa: $rsp 8 +
STACK CFI 14106 .cfa: $rsp 16 +
STACK CFI 1411e $rbx: $rbx .cfa: $rsp 8 +
STACK CFI INIT 14128 4f .cfa: $rsp 8 + .ra: .cfa -8 + ^
STACK CFI 14129 $rbx: .cfa -16 + ^ .cfa: $rsp 16 +
STACK CFI 14136 .cfa: $rsp 8 +
STACK CFI 14137 .cfa: $rsp 16 +
STACK CFI INIT 14177 1482 .cfa: $rsp 8 + .ra: .cfa -8 + ^
STACK CFI 14179 $r15: .cfa -16 + ^ .cfa: $rsp 16 +
STACK CFI 1417b $r14: .cfa -24 + ^ .cfa: $rsp 24 +
STACK CFI 1417d $r13: .cfa -32 + ^ .cfa: $rsp 32 +
STACK CFI 1417f $r12: .cfa -40 + ^ .cfa: $rsp 40 +
STACK CFI 14180 $rbp: .cfa -48 + ^ .cfa: $rsp 48 +
STACK CFI 14181 $rbx: .cfa -56 + ^ .cfa: $rsp 56 +
STACK CFI 14188 .cfa: $rsp 1104 +
STACK CFI 15552 .cfa: $rsp 56 +
STACK CFI 15553 .cfa: $rsp 48 +
STACK CFI 15554 .cfa: $rsp 40 +
STACK CFI 15556 .cfa: $rsp 32 +
STACK CFI 15558 .cfa: $rsp 24 +
STACK CFI 1555a .cfa: $rsp 16 +
STACK CFI 1555c .cfa: $rsp 8 +
STACK CFI 1555d .cfa: $rsp 1104 +
STACK CFI INIT 155f9 42 .cfa: $rsp 8 + .ra: .cfa -8 + ^
STACK CFI INIT 1563b 36 .cfa: $rsp 8 + .ra: .cfa -8 + ^
STACK CFI INIT 15671 1a6 .cfa: $rsp 8 + .ra: .cfa -8 + ^
STACK CFI 15673 $r12: .cfa -16 + ^ .cfa: $rsp 16 +
STACK CFI 15674 $rbp: .cfa -24 + ^ .cfa: $rsp 24 +
STACK CFI 15675 $rbx: .cfa -32 + ^ .cfa: $rsp 32 +
STACK CFI 1567c .cfa: $rsp 1792 +
STACK CFI 15695 .cfa: $rsp 32 +
STACK CFI 15696 .cfa: $rsp 24 +
STACK CFI 15697 .cfa: $rsp 16 +
STACK CFI 15699 .cfa: $rsp 8 +
STACK CFI 1569a .cfa: $rsp 1792 +
STACK CFI 15797 .cfa: $rsp 1800 +
STACK CFI 157a6 .cfa: $rsp 1808 +
STACK CFI 157c9 .cfa: $rsp 1792 +
STACK CFI INIT 15817 59 .cfa: $rsp 8 + .ra: .cfa -8 + ^
STACK CFI 15818 $rbp: .cfa -16 + ^ .cfa: $rsp 16 +
STACK CFI 15819 $rbx: .cfa -24 + ^ .cfa: $rsp 24 +
STACK CFI 1581d .cfa: $rsp 32 +
STACK CFI 15860 .cfa: $rsp 24 +
STACK CFI 15861 .cfa: $rsp 16 +
STACK CFI 15862 .cfa: $rsp 8 +
STACK CFI 15863 .cfa: $rsp 32 +
STACK CFI INIT 15870 18a .cfa: $rsp 8 + .ra: .cfa -8 + ^
STACK CFI 15872 $r12: .cfa -16 + ^ .cfa: $rsp 16 +
STACK CFI 15873 $rbp: .cfa -24 + ^ .cfa: $rsp 24 +
STACK CFI 15874 $rbx: .cfa -32 + ^ .cfa: $rsp 32 +
STACK CFI 1588d .cfa: $rsp 24 +
STACK CFI 1588e .cfa: $rsp 16 +
STACK CFI 15890 .cfa: $rsp 8 +
STACK CFI 15891 .cfa: $rsp 32 +
STACK CFI INIT 159fa 145 .cfa: $rsp 8 + .ra: .cfa -8 + ^
STACK CFI 159fb $rbp: .cfa -16 + ^ .cfa: $rsp 16 +
STACK CFI 159fc $rbx: .cfa -24 + ^ .cfa: $rsp 24 +
STACK CFI 15a00 .cfa: $rsp 48 +
STACK CFI 15a16 .cfa: $rsp 24 +
STACK CFI 15a17 .cfa: $rsp 16 +
STACK CFI 15a18 .cfa: $rsp 8 +
STACK CFI 15a19 .cfa: $rsp 48 +
STACK CFI INIT 15b40 1e6 .cfa: $rsp 8 + .ra: .cfa -8 + ^
STACK CFI 15b42 $r13: .cfa -16 + ^ .cfa: $rsp 16 +
STACK CFI 15b44 $r12: .cfa -24 + ^ .cfa: $rsp 24 +
STACK CFI 15b45 $rbp: .cfa -32 + ^ .cfa: $rsp 32 +
STACK CFI 15b46 $rbx: .cfa -40 + ^ .cfa: $rsp 40 +
STACK CFI 15b4a .cfa: $rsp 64 +
STACK CFI 15be1 .cfa: $rsp 40 +
STACK CFI 15be2 .cfa: $rsp 32 +
STACK CFI 15be3 .cfa: $rsp 24 +
STACK CFI 15be5 .cfa: $rsp 16 +
STACK CFI 15be7 .cfa: $rsp 8 +
STACK CFI 15be8 .cfa: $rsp 64 +
STACK CFI INIT 15d26 cf .cfa: $rsp 8 + .ra: .cfa -8 + ^
STACK CFI 15d28 $r12: .cfa -16 + ^ .cfa: $rsp 16 +
STACK CFI 15d29 $rbp: .cfa -24 + ^ .cfa: $rsp 24 +
STACK CFI 15d2a $rbx: .cfa -32 + ^ .cfa: $rsp 32 +
STACK CFI 15d2e .cfa: $rsp 64 +
STACK CFI 15dd7 .cfa: $rsp 32 +
STACK CFI 15dd8 .cfa: $rsp 24 +
STACK CFI 15dd9 .cfa: $rsp 16 +
STACK CFI 15ddb .cfa: $rsp 8 +
STACK CFI 15ddc .cfa: $rsp 64 +
STACK CFI INIT 15df6 61 .cfa: $rsp 8 + .ra: .cfa -8 + ^
STACK CFI INIT 15e57 44 .cfa: $rsp 8 + .ra: .cfa -8 + ^
STACK CFI 15e59 $r12: .cfa -16 + ^ .cfa: $rsp 16 +
STACK CFI 15e5a $rbp: .cfa -24 + ^ .cfa: $rsp 24 +
STACK CFI 15e5b $rbx: .cfa -32 + ^ .cfa: $rsp 32 +
STACK CFI 15e97 .cfa: $rsp 24 +
STACK CFI 15e98 .cfa: $rsp 16 +
STACK CFI 15e9a .cfa: $rsp 8 +
STACK CFI INIT 15e9b 44 .cfa: $rsp 8 + .ra: .cfa -8 + ^
STACK CFI 15e9d $r12: .cfa -16 + ^ .cfa: $rsp 16 +
STACK CFI 15e9e $rbp: .cfa -24 + ^ .cfa: $rsp 24 +
STACK CFI 15e9f $rbx: .cfa -32 + ^ .cfa: $rsp 32 +
STACK CFI 15edb .cfa: $rsp 24 +
STACK CFI 15edc .cfa: $rsp 16 +
STACK CFI 15ede .cfa: $rsp 8 +
STACK CFI INIT 15edf 31 .cfa: $rsp 8 + .ra: .cfa -8 + ^
STACK CFI 15ee3 .cfa: $rsp 16 +
STACK CFI 15efe .cfa: $rsp 8 +
STACK CFI 15eff .cfa: $rsp 16 +
STACK CFI INIT 15f10 42 .cfa: $rsp 8 + .ra: .cfa -8 + ^
STACK CFI 15f25 .cfa: $rsp 16 +
STACK CFI 15f48 .cfa: $rsp 8 +
STACK CFI 15f49 .cfa: $rsp 16 +
STACK CFI INIT 15f52 35a .cfa: $rsp 8 + .ra: .cfa -8 + ^
STACK CFI 15f5d $r15: .cfa -16 + ^ .cfa: $rsp 16 +
STACK CFI 15f5f $r14: .cfa -24 + ^ .cfa: $rsp 24 +
STACK CFI 15f61 $r13: .cfa -32 + ^ .cfa: $rsp 32 +
STACK CFI 15f63 $r12: .cfa -40 + ^ .cfa: $rsp 40 +
STACK CFI 15f64 $rbp: .cfa -48 + ^ .cfa: $rsp 48 +
STACK CFI 15f65 $rbx: .cfa -56 + ^ .cfa: $rsp 56 +
STACK CFI 15f6c .cfa: $rsp 8400 +
STACK CFI 160d6 .cfa: $rsp 56 +
STACK CFI 160d7 .cfa: $rsp 48 +
STACK CFI 160d8 .cfa: $rsp 40 +
STACK CFI 160da .cfa: $rsp 32 +
STACK CFI 160dc .cfa: $rsp 24 +
STACK CFI 160de .cfa: $rsp 16 +
STACK CFI 160e0 .cfa: $rsp 8 +
STACK CFI 160e1 .cfa: $rsp 8400 +
STACK CFI 162ab $r12: $r12 $r13: $r13 $r14: $r14 $r15: $r15 $rbp: $rbp $rbx: $rbx .cfa: $rsp 8 +
STACK CFI INIT 162ac 105 .cfa: $rsp 8 + .ra: .cfa -8 + ^
STACK CFI 162ae $r15: .cfa -16 + ^ .cfa: $rsp 16 +
STACK CFI 162b0 $r14: .cfa -24 + ^ .cfa: $rsp 24 +
STACK CFI 162b2 $r13: .cfa -32 + ^ .cfa: $rsp 32 +
STACK CFI 162b4 $r12: .cfa -40 + ^ .cfa: $rsp 40 +
STACK CFI 162b5 $rbp: .cfa -48 + ^ .cfa: $rsp 48 +
STACK CFI 162b6 $rbx: .cfa -56 + ^ .cfa: $rsp 56 +
STACK CFI 162ba .cfa: $rsp 80 +
STACK CFI 16363 .cfa: $rsp 56 +
STACK CFI 16364 .cfa: $rsp 48 +
STACK CFI 16365 .cfa: $rsp 40 +
STACK CFI 16367 .cfa: $rsp 32 +
STACK CFI 16369 .cfa: $rsp 24 +
STACK CFI 1636b .cfa: $rsp 16 +
STACK CFI 1636d .cfa: $rsp 8 +
STACK CFI 1636e .cfa: $rsp 80 +
STACK CFI INIT 163b1 1f .cfa: $rsp 8 + .ra: .cfa -8 + ^
STACK CFI 163b5 .cfa: $rsp 16 +
STACK CFI 163cf .cfa: $rsp 8 +
STACK CFI INIT 163d0 13 .cfa: $rsp 8 + .ra: .cfa -8 + ^
STACK CFI 163d4 .cfa: $rsp 16 +
STACK CFI 163e2 .cfa: $rsp 8 +
STACK CFI INIT 20f3c 1c .cfa: $rsp 8 + .ra: .cfa -8 + ^
STACK CFI 20f40 .cfa: $rsp 16 +
STACK CFI 20f57 .cfa: $rsp 8 +
STACK CFI INIT 20f58 26 .cfa: $rsp 8 + .ra: .cfa -8 + ^
STACK CFI 20f59 $rbx: .cfa -16 + ^ .cfa: $rsp 16 +
STACK CFI 20f7d .cfa: $rsp 8 +
STACK CFI INIT 20f7e 39 .cfa: $rsp 8 + .ra: .cfa -8 + ^
STACK CFI 20f7f $rbx: .cfa -16 + ^ .cfa: $rsp 16 +
STACK CFI 20fb6 .cfa: $rsp 8 +
STACK CFI INIT 20fb8 39 .cfa: $rsp 8 + .ra: .cfa -8 + ^
STACK CFI 20fb9 $rbx: .cfa -16 + ^ .cfa: $rsp 16 +
STACK CFI 20ff0 .cfa: $rsp 8 +
STACK CFI INIT 20ff2 4e .cfa: $rsp 8 + .ra: .cfa -8 + ^
STACK CFI 20ff3 $rbx: .cfa -16 + ^ .cfa: $rsp 16 +
STACK CFI 2103f .cfa: $rsp 8 +
STACK CFI INIT 163e3 ac .cfa: $rsp 8 + .ra: .cfa -8 + ^
STACK CFI 163e4 $rbp: .cfa -16 + ^ .cfa: $rsp 16 +
STACK CFI 163e5 $rbx: .cfa -24 + ^ .cfa: $rsp 24 +
STACK CFI 163e9 .cfa: $rsp 32 +
STACK CFI 1640c .cfa: $rsp 24 +
STACK CFI 1640d .cfa: $rsp 16 +
STACK CFI 1640e .cfa: $rsp 8 +
STACK CFI 1640f .cfa: $rsp 32 +
STACK CFI INIT 21040 46 .cfa: $rsp 8 + .ra: .cfa -8 + ^
STACK CFI 21041 $rbx: .cfa -16 + ^ .cfa: $rsp 16 +
STACK CFI 21085 .cfa: $rsp 8 +
STACK CFI INIT 21086 46 .cfa: $rsp 8 + .ra: .cfa -8 + ^
STACK CFI 21087 $rbx: .cfa -16 + ^ .cfa: $rsp 16 +
STACK CFI 210cb .cfa: $rsp 8 +
STACK CFI INIT 210cc 4e .cfa: $rsp 8 + .ra: .cfa -8 + ^
STACK CFI 210cd $rbx: .cfa -16 + ^ .cfa: $rsp 16 +
STACK CFI 21119 .cfa: $rsp 8 +
STACK CFI INIT 2111a 5b .cfa: $rsp 8 + .ra: .cfa -8 + ^
STACK CFI 2111b $rbx: .cfa -16 + ^ .cfa: $rsp 16 +
STACK CFI 21174 .cfa: $rsp 8 +
STACK CFI INIT 21176 5b .cfa: $rsp 8 + .ra: .cfa -8 + ^
STACK CFI 21177 $rbx: .cfa -16 + ^ .cfa: $rsp 16 +
STACK CFI 211d0 .cfa: $rsp 8 +
STACK CFI INIT 211d2 a3 .cfa: $rsp 8 + .ra: .cfa -8 + ^
STACK CFI 211d3 $rbx: .cfa -16 + ^ .cfa: $rsp 16 +
STACK CFI 21274 .cfa: $rsp 8 +
STACK CFI INIT 213ba 96 .cfa: $rsp 8 + .ra: .cfa -8 + ^
STACK CFI 213bb $rbx: .cfa -16 + ^ .cfa: $rsp 16 +
STACK CFI 2144f .cfa: $rsp 8 +
STACK CFI INIT 2157c 97 .cfa: $rsp 8 + .ra: .cfa -8 + ^
STACK CFI 2157e $r12: .cfa -16 + ^ .cfa: $rsp 16 +
STACK CFI 2157f $rbp: .cfa -24 + ^ .cfa: $rsp 24 +
STACK CFI 21580 $rbx: .cfa -32 + ^ .cfa: $rsp 32 +
STACK CFI 2160f .cfa: $rsp 24 +
STACK CFI 21610 .cfa: $rsp 16 +
STACK CFI 21612 .cfa: $rsp 8 +
STACK CFI INIT 21450 9c .cfa: $rsp 8 + .ra: .cfa -8 + ^
STACK CFI 21451 $rbp: .cfa -16 + ^ .cfa: $rsp 16 +
STACK CFI 21452 $rbx: .cfa -24 + ^ .cfa: $rsp 24 +
STACK CFI 21456 .cfa: $rsp 32 +
STACK CFI 214e9 .cfa: $rsp 24 +
STACK CFI 214ea .cfa: $rsp 16 +
STACK CFI 214eb .cfa: $rsp 8 +
STACK CFI INIT 21275 a9 .cfa: $rsp 8 + .ra: .cfa -8 + ^
STACK CFI 21276 $rbp: .cfa -16 + ^ .cfa: $rsp 16 +
STACK CFI 21277 $rbx: .cfa -24 + ^ .cfa: $rsp 24 +
STACK CFI 2127b .cfa: $rsp 32 +
STACK CFI 2131b .cfa: $rsp 24 +
STACK CFI 2131c .cfa: $rsp 16 +
STACK CFI 2131d .cfa: $rsp 8 +
STACK CFI INIT 214ec 8f .cfa: $rsp 8 + .ra: .cfa -8 + ^
STACK CFI 214ed $rbx: .cfa -16 + ^ .cfa: $rsp 16 +
STACK CFI 2157a .cfa: $rsp 8 +
STACK CFI INIT 21614 87 .cfa: $rsp 8 + .ra: .cfa -8 + ^
STACK CFI 21615 $rbx: .cfa -16 + ^ .cfa: $rsp 16 +
STACK CFI 2169a .cfa: $rsp 8 +
STACK CFI INIT 2169c 8a .cfa: $rsp 8 + .ra: .cfa -8 + ^
STACK CFI 2169d $rbp: .cfa -16 + ^ .cfa: $rsp 16 +
STACK CFI 2169e $rbx: .cfa -24 + ^ .cfa: $rsp 24 +
STACK CFI 216a2 .cfa: $rsp 32 +
STACK CFI 21723 .cfa: $rsp 24 +
STACK CFI 21724 .cfa: $rsp 16 +
STACK CFI 21725 .cfa: $rsp 8 +
STACK CFI INIT 21726 7a .cfa: $rsp 8 + .ra: .cfa -8 + ^
STACK CFI 21727 $rbx: .cfa -16 + ^ .cfa: $rsp 16 +
STACK CFI 2179f .cfa: $rsp 8 +
STACK CFI INIT 2131e 9c .cfa: $rsp 8 + .ra: .cfa -8 + ^
STACK CFI 2131f $rbx: .cfa -16 + ^ .cfa: $rsp 16 +
STACK CFI 213b9 .cfa: $rsp 8 +
STACK CFI INIT 16490 116 .cfa: $rsp 8 + .ra: .cfa -8 + ^
STACK CFI 16492 $r13: .cfa -16 + ^ .cfa: $rsp 16 +
STACK CFI 16494 $r12: .cfa -24 + ^ .cfa: $rsp 24 +
STACK CFI 16495 $rbp: .cfa -32 + ^ .cfa: $rsp 32 +
STACK CFI 16496 $rbx: .cfa -40 + ^ .cfa: $rsp 40 +
STACK CFI 1649a .cfa: $rsp 48 +
STACK CFI 1659f .cfa: $rsp 40 +
STACK CFI 165a0 .cfa: $rsp 32 +
STACK CFI 165a1 .cfa: $rsp 24 +
STACK CFI 165a3 .cfa: $rsp 16 +
STACK CFI 165a5 .cfa: $rsp 8 +
STACK CFI INIT 165a6 6d .cfa: $rsp 8 + .ra: .cfa -8 + ^
STACK CFI 165a8 $r15: .cfa -16 + ^ .cfa: $rsp 16 +
STACK CFI 165aa $r14: .cfa -24 + ^ .cfa: $rsp 24 +
STACK CFI 165ac $r13: .cfa -32 + ^ .cfa: $rsp 32 +
STACK CFI 165ae $r12: .cfa -40 + ^ .cfa: $rsp 40 +
STACK CFI 165af $rbp: .cfa -48 + ^ .cfa: $rsp 48 +
STACK CFI 165b0 $rbx: .cfa -56 + ^ .cfa: $rsp 56 +
STACK CFI 165b4 .cfa: $rsp 64 +
STACK CFI 16608 .cfa: $rsp 56 +
STACK CFI 16609 .cfa: $rsp 48 +
STACK CFI 1660a .cfa: $rsp 40 +
STACK CFI 1660c .cfa: $rsp 32 +
STACK CFI 1660e .cfa: $rsp 24 +
STACK CFI 16610 .cfa: $rsp 16 +
STACK CFI 16612 .cfa: $rsp 8 +
STACK CFI INIT 16613 101 .cfa: $rsp 8 + .ra: .cfa -8 + ^
STACK CFI 16615 $r14: .cfa -16 + ^ .cfa: $rsp 16 +
STACK CFI 16617 $r13: .cfa -24 + ^ .cfa: $rsp 24 +
STACK CFI 16619 $r12: .cfa -32 + ^ .cfa: $rsp 32 +
STACK CFI 1661a $rbp: .cfa -40 + ^ .cfa: $rsp 40 +
STACK CFI 1661b $rbx: .cfa -48 + ^ .cfa: $rsp 48 +
STACK CFI 1661f .cfa: $rsp 112 +
STACK CFI 1668c .cfa: $rsp 120 +
STACK CFI 16692 .cfa: $rsp 128 +
STACK CFI 16698 .cfa: $rsp 136 +
STACK CFI 1669e .cfa: $rsp 144 +
STACK CFI 166b2 .cfa: $rsp 112 +
STACK CFI 1670b .cfa: $rsp 48 +
STACK CFI 1670c .cfa: $rsp 40 +
STACK CFI 1670d .cfa: $rsp 32 +
STACK CFI 1670f .cfa: $rsp 24 +
STACK CFI 16711 .cfa: $rsp 16 +
STACK CFI 16713 .cfa: $rsp 8 +
STACK CFI INIT 16714 44 .cfa: $rsp 8 + .ra: .cfa -8 + ^
STACK CFI 16716 $r12: .cfa -16 + ^ .cfa: $rsp 16 +
STACK CFI 16717 $rbp: .cfa -24 + ^ .cfa: $rsp 24 +
STACK CFI 16718 $rbx: .cfa -32 + ^ .cfa: $rsp 32 +
STACK CFI 16754 .cfa: $rsp 24 +
STACK CFI 16755 .cfa: $rsp 16 +
STACK CFI 16757 .cfa: $rsp 8 +
STACK CFI INIT 16758 47 .cfa: $rsp 8 + .ra: .cfa -8 + ^
STACK CFI 1675a $r12: .cfa -16 + ^ .cfa: $rsp 16 +
STACK CFI 1675b $rbp: .cfa -24 + ^ .cfa: $rsp 24 +
STACK CFI 1675c $rbx: .cfa -32 + ^ .cfa: $rsp 32 +
STACK CFI 1679b .cfa: $rsp 24 +
STACK CFI 1679c .cfa: $rsp 16 +
STACK CFI 1679e .cfa: $rsp 8 +
STACK CFI INIT 1679f 47 .cfa: $rsp 8 + .ra: .cfa -8 + ^
STACK CFI 167a1 $r12: .cfa -16 + ^ .cfa: $rsp 16 +
STACK CFI 167a2 $rbp: .cfa -24 + ^ .cfa: $rsp 24 +
STACK CFI 167a3 $rbx: .cfa -32 + ^ .cfa: $rsp 32 +
STACK CFI 167e2 .cfa: $rsp 24 +
STACK CFI 167e3 .cfa: $rsp 16 +
STACK CFI 167e5 .cfa: $rsp 8 +
STACK CFI INIT 167e6 44 .cfa: $rsp 8 + .ra: .cfa -8 + ^
STACK CFI 167e8 $r12: .cfa -16 + ^ .cfa: $rsp 16 +
STACK CFI 167e9 $rbp: .cfa -24 + ^ .cfa: $rsp 24 +
STACK CFI 167ea $rbx: .cfa -32 + ^ .cfa: $rsp 32 +
STACK CFI 16826 .cfa: $rsp 24 +
STACK CFI 16827 .cfa: $rsp 16 +
STACK CFI 16829 .cfa: $rsp 8 +
STACK CFI INIT 1682a 59 .cfa: $rsp 8 + .ra: .cfa -8 + ^
STACK CFI 1682c $r13: .cfa -16 + ^ .cfa: $rsp 16 +
STACK CFI 1682e $r12: .cfa -24 + ^ .cfa: $rsp 24 +
STACK CFI 1682f $rbp: .cfa -32 + ^ .cfa: $rsp 32 +
STACK CFI 16830 $rbx: .cfa -40 + ^ .cfa: $rsp 40 +
STACK CFI 16834 .cfa: $rsp 48 +
STACK CFI 1687c .cfa: $rsp 40 +
STACK CFI 1687d .cfa: $rsp 32 +
STACK CFI 1687e .cfa: $rsp 24 +
STACK CFI 16880 .cfa: $rsp 16 +
STACK CFI 16882 .cfa: $rsp 8 +
STACK CFI INIT 16883 47 .cfa: $rsp 8 + .ra: .cfa -8 + ^
STACK CFI 16885 $r12: .cfa -16 + ^ .cfa: $rsp 16 +
STACK CFI 16886 $rbp: .cfa -24 + ^ .cfa: $rsp 24 +
STACK CFI 16887 $rbx: .cfa -32 + ^ .cfa: $rsp 32 +
STACK CFI 168c6 .cfa: $rsp 24 +
STACK CFI 168c7 .cfa: $rsp 16 +
STACK CFI 168c9 .cfa: $rsp 8 +
STACK CFI INIT 168ca 5b .cfa: $rsp 8 + .ra: .cfa -8 + ^
STACK CFI 168cc $r14: .cfa -16 + ^ .cfa: $rsp 16 +
STACK CFI 168ce $r13: .cfa -24 + ^ .cfa: $rsp 24 +
STACK CFI 168d0 $r12: .cfa -32 + ^ .cfa: $rsp 32 +
STACK CFI 168d1 $rbp: .cfa -40 + ^ .cfa: $rsp 40 +
STACK CFI 168d2 $rbx: .cfa -48 + ^ .cfa: $rsp 48 +
STACK CFI 1691d .cfa: $rsp 40 +
STACK CFI 1691e .cfa: $rsp 32 +
STACK CFI 16920 .cfa: $rsp 24 +
STACK CFI 16922 .cfa: $rsp 16 +
STACK CFI 16924 .cfa: $rsp 8 +
STACK CFI INIT 16925 73 .cfa: $rsp 8 + .ra: .cfa -8 + ^
STACK CFI 16927 $r15: .cfa -16 + ^ .cfa: $rsp 16 +
STACK CFI 16929 $r14: .cfa -24 + ^ .cfa: $rsp 24 +
STACK CFI 1692b $r13: .cfa -32 + ^ .cfa: $rsp 32 +
STACK CFI 1692d $r12: .cfa -40 + ^ .cfa: $rsp 40 +
STACK CFI 1692e $rbp: .cfa -48 + ^ .cfa: $rsp 48 +
STACK CFI 1692f $rbx: .cfa -56 + ^ .cfa: $rsp 56 +
STACK CFI 16933 .cfa: $rsp 80 +
STACK CFI 1698d .cfa: $rsp 56 +
STACK CFI 1698e .cfa: $rsp 48 +
STACK CFI 1698f .cfa: $rsp 40 +
STACK CFI 16991 .cfa: $rsp 32 +
STACK CFI 16993 .cfa: $rsp 24 +
STACK CFI 16995 .cfa: $rsp 16 +
STACK CFI 16997 .cfa: $rsp 8 +
STACK CFI INIT 16998 22 .cfa: $rsp 8 + .ra: .cfa -8 + ^
STACK CFI 169a8 .cfa: $rsp 16 +
STACK CFI 169b3 .cfa: $rsp 8 +
STACK CFI INIT 169ba 2d .cfa: $rsp 8 + .ra: .cfa -8 + ^
STACK CFI 169c8 .cfa: $rsp 16 +
STACK CFI 169e5 .cfa: $rsp 8 +
STACK CFI INIT 169e7 89 .cfa: $rsp 8 + .ra: .cfa -8 + ^
STACK CFI 169f3 $r15: .cfa -16 + ^ .cfa: $rsp 16 +
STACK CFI 169f5 $r14: .cfa -24 + ^ .cfa: $rsp 24 +
STACK CFI 169f7 $r13: .cfa -32 + ^ .cfa: $rsp 32 +
STACK CFI 169f9 $r12: .cfa -40 + ^ .cfa: $rsp 40 +
STACK CFI 169fa $rbp: .cfa -48 + ^ .cfa: $rsp 48 +
STACK CFI 169fb $rbx: .cfa -56 + ^ .cfa: $rsp 56 +
STACK CFI 169ff .cfa: $rsp 64 +
STACK CFI 16a36 .cfa: $rsp 72 +
STACK CFI 16a3a .cfa: $rsp 80 +
STACK CFI 16a51 .cfa: $rsp 64 +
STACK CFI 16a5f .cfa: $rsp 56 +
STACK CFI 16a60 .cfa: $rsp 48 +
STACK CFI 16a61 .cfa: $rsp 40 +
STACK CFI 16a63 .cfa: $rsp 32 +
STACK CFI 16a65 .cfa: $rsp 24 +
STACK CFI 16a67 .cfa: $rsp 16 +
STACK CFI 16a69 .cfa: $rsp 8 +
STACK CFI 16a6a $r12: $r12 $r13: $r13 $r14: $r14 $r15: $r15 $rbp: $rbp $rbx: $rbx
STACK CFI INIT 16a70 8c .cfa: $rsp 8 + .ra: .cfa -8 + ^
STACK CFI 16a7c $r15: .cfa -16 + ^ .cfa: $rsp 16 +
STACK CFI 16a7e $r14: .cfa -24 + ^ .cfa: $rsp 24 +
STACK CFI 16a80 $r13: .cfa -32 + ^ .cfa: $rsp 32 +
STACK CFI 16a82 $r12: .cfa -40 + ^ .cfa: $rsp 40 +
STACK CFI 16a83 $rbp: .cfa -48 + ^ .cfa: $rsp 48 +
STACK CFI 16a84 $rbx: .cfa -56 + ^ .cfa: $rsp 56 +
STACK CFI 16a88 .cfa: $rsp 64 +
STACK CFI 16ac0 .cfa: $rsp 72 +
STACK CFI 16ac5 .cfa: $rsp 80 +
STACK CFI 16add .cfa: $rsp 64 +
STACK CFI 16aeb .cfa: $rsp 56 +
STACK CFI 16aec .cfa: $rsp 48 +
STACK CFI 16aed .cfa: $rsp 40 +
STACK CFI 16aef .cfa: $rsp 32 +
STACK CFI 16af1 .cfa: $rsp 24 +
STACK CFI 16af3 .cfa: $rsp 16 +
STACK CFI 16af5 .cfa: $rsp 8 +
STACK CFI 16af6 $r12: $r12 $r13: $r13 $r14: $r14 $r15: $r15 $rbp: $rbp $rbx: $rbx
STACK CFI INIT 16afc 9e .cfa: $rsp 8 + .ra: .cfa -8 + ^
STACK CFI 16b0c $r12: .cfa -16 + ^ .cfa: $rsp 16 +
STACK CFI 16b0d $rbp: .cfa -24 + ^ .cfa: $rsp 24 +
STACK CFI 16b0e $rbx: .cfa -32 + ^ .cfa: $rsp 32 +
STACK CFI 16b60 .cfa: $rsp 24 +
STACK CFI 16b61 .cfa: $rsp 16 +
STACK CFI 16b63 .cfa: $rsp 8 +
STACK CFI 16b64 .cfa: $rsp 32 +
STACK CFI 16b94 $r12: $r12 $rbp: $rbp $rbx: $rbx .cfa: $rsp 8 +
STACK CFI INIT 16b9a 61 .cfa: $rsp 8 + .ra: .cfa -8 + ^
STACK CFI 16b9b $rbx: .cfa -16 + ^ .cfa: $rsp 16 +
STACK CFI 16beb .cfa: $rsp 8 +
STACK CFI 16bec .cfa: $rsp 16 +
STACK CFI INIT 16bfb 56 .cfa: $rsp 8 + .ra: .cfa -8 + ^
STACK CFI 16bfd $r13: .cfa -16 + ^ .cfa: $rsp 16 +
STACK CFI 16bff $r12: .cfa -24 + ^ .cfa: $rsp 24 +
STACK CFI 16c00 $rbp: .cfa -32 + ^ .cfa: $rsp 32 +
STACK CFI 16c01 $rbx: .cfa -40 + ^ .cfa: $rsp 40 +
STACK CFI 16c05 .cfa: $rsp 48 +
STACK CFI 16c4a .cfa: $rsp 40 +
STACK CFI 16c4b .cfa: $rsp 32 +
STACK CFI 16c4c .cfa: $rsp 24 +
STACK CFI 16c4e .cfa: $rsp 16 +
STACK CFI 16c50 .cfa: $rsp 8 +
STACK CFI INIT 16c51 92 .cfa: $rsp 8 + .ra: .cfa -8 + ^
STACK CFI 16c53 $r15: .cfa -16 + ^ .cfa: $rsp 16 +
STACK CFI 16c55 $r14: .cfa -24 + ^ .cfa: $rsp 24 +
STACK CFI 16c57 $r13: .cfa -32 + ^ .cfa: $rsp 32 +
STACK CFI 16c59 $r12: .cfa -40 + ^ .cfa: $rsp 40 +
STACK CFI 16c5a $rbp: .cfa -48 + ^ .cfa: $rsp 48 +
STACK CFI 16c5b $rbx: .cfa -56 + ^ .cfa: $rsp 56 +
STACK CFI 16c5f .cfa: $rsp 80 +
STACK CFI 16c9b .cfa: $rsp 88 +
STACK CFI 16ca0 .cfa: $rsp 96 +
STACK CFI 16ca5 .cfa: $rsp 104 +
STACK CFI 16ca9 .cfa: $rsp 112 +
STACK CFI 16cad .cfa: $rsp 120 +
STACK CFI 16cb1 .cfa: $rsp 128 +
STACK CFI 16ccd .cfa: $rsp 80 +
STACK CFI 16cd8 .cfa: $rsp 56 +
STACK CFI 16cd9 .cfa: $rsp 48 +
STACK CFI 16cda .cfa: $rsp 40 +
STACK CFI 16cdc .cfa: $rsp 32 +
STACK CFI 16cde .cfa: $rsp 24 +
STACK CFI 16ce0 .cfa: $rsp 16 +
STACK CFI 16ce2 .cfa: $rsp 8 +
STACK CFI INIT 16ce3 6d .cfa: $rsp 8 + .ra: .cfa -8 + ^
STACK CFI 16ce5 $r15: .cfa -16 + ^ .cfa: $rsp 16 +
STACK CFI 16ce7 $r14: .cfa -24 + ^ .cfa: $rsp 24 +
STACK CFI 16ce9 $r13: .cfa -32 + ^ .cfa: $rsp 32 +
STACK CFI 16ceb $r12: .cfa -40 + ^ .cfa: $rsp 40 +
STACK CFI 16cec $rbp: .cfa -48 + ^ .cfa: $rsp 48 +
STACK CFI 16ced $rbx: .cfa -56 + ^ .cfa: $rsp 56 +
STACK CFI 16cf1 .cfa: $rsp 64 +
STACK CFI 16d45 .cfa: $rsp 56 +
STACK CFI 16d46 .cfa: $rsp 48 +
STACK CFI 16d47 .cfa: $rsp 40 +
STACK CFI 16d49 .cfa: $rsp 32 +
STACK CFI 16d4b .cfa: $rsp 24 +
STACK CFI 16d4d .cfa: $rsp 16 +
STACK CFI 16d4f .cfa: $rsp 8 +
STACK CFI INIT 16d50 6b .cfa: $rsp 8 + .ra: .cfa -8 + ^
STACK CFI 16d52 $r12: .cfa -16 + ^ .cfa: $rsp 16 +
STACK CFI 16d53 $rbp: .cfa -24 + ^ .cfa: $rsp 24 +
STACK CFI 16d54 $rbx: .cfa -32 + ^ .cfa: $rsp 32 +
STACK CFI 16d9b .cfa: $rsp 24 +
STACK CFI 16d9c .cfa: $rsp 16 +
STACK CFI 16d9e .cfa: $rsp 8 +
STACK CFI 16d9f .cfa: $rsp 32 +
STACK CFI INIT 16dbb d2 .cfa: $rsp 8 + .ra: .cfa -8 + ^
STACK CFI 16dbd $r12: .cfa -16 + ^ .cfa: $rsp 16 +
STACK CFI 16dbe $rbp: .cfa -24 + ^ .cfa: $rsp 24 +
STACK CFI 16dbf $rbx: .cfa -32 + ^ .cfa: $rsp 32 +
STACK CFI 16e2f .cfa: $rsp 24 +
STACK CFI 16e30 .cfa: $rsp 16 +
STACK CFI 16e32 .cfa: $rsp 8 +
STACK CFI 16e33 .cfa: $rsp 32 +
STACK CFI INIT 16e8d 51b .cfa: $rsp 8 + .ra: .cfa -8 + ^
STACK CFI 16e8f $r15: .cfa -16 + ^ .cfa: $rsp 16 +
STACK CFI 16e91 $r14: .cfa -24 + ^ .cfa: $rsp 24 +
STACK CFI 16e93 $r13: .cfa -32 + ^ .cfa: $rsp 32 +
STACK CFI 16e95 $r12: .cfa -40 + ^ .cfa: $rsp 40 +
STACK CFI 16e96 $rbp: .cfa -48 + ^ .cfa: $rsp 48 +
STACK CFI 16e97 $rbx: .cfa -56 + ^ .cfa: $rsp 56 +
STACK CFI 16e9b .cfa: $rsp 64 +
STACK CFI 17357 .cfa: $rsp 72 +
STACK CFI 1735b .cfa: $rsp 80 +
STACK CFI 1735f .cfa: $rsp 88 +
STACK CFI 17363 .cfa: $rsp 96 +
STACK CFI 17391 .cfa: $rsp 56 +
STACK CFI 17392 .cfa: $rsp 48 +
STACK CFI 17393 .cfa: $rsp 40 +
STACK CFI 17395 .cfa: $rsp 32 +
STACK CFI 17397 .cfa: $rsp 24 +
STACK CFI 17399 .cfa: $rsp 16 +
STACK CFI 1739b .cfa: $rsp 8 +
STACK CFI 1739c .cfa: $rsp 64 +
STACK CFI INIT 173a8 8b .cfa: $rsp 8 + .ra: .cfa -8 + ^
STACK CFI 173a9 $rbp: .cfa -16 + ^ .cfa: $rsp 16 +
STACK CFI 173aa $rbx: .cfa -24 + ^ .cfa: $rsp 24 +
STACK CFI 173ae .cfa: $rsp 32 +
STACK CFI 17411 .cfa: $rsp 24 +
STACK CFI 17412 .cfa: $rsp 16 +
STACK CFI 17413 .cfa: $rsp 8 +
STACK CFI 17414 .cfa: $rsp 32 +
STACK CFI INIT 17433 3a0 .cfa: $rsp 8 + .ra: .cfa -8 + ^
STACK CFI 17435 $r15: .cfa -16 + ^ .cfa: $rsp 16 +
STACK CFI 17437 $r14: .cfa -24 + ^ .cfa: $rsp 24 +
STACK CFI 17439 $r13: .cfa -32 + ^ .cfa: $rsp 32 +
STACK CFI 1743b $r12: .cfa -40 + ^ .cfa: $rsp 40 +
STACK CFI 1743c $rbp: .cfa -48 + ^ .cfa: $rsp 48 +
STACK CFI 1743d $rbx: .cfa -56 + ^ .cfa: $rsp 56 +
STACK CFI 17441 .cfa: $rsp 112 +
STACK CFI 177c8 .cfa: $rsp 56 +
STACK CFI 177c9 .cfa: $rsp 48 +
STACK CFI 177ca .cfa: $rsp 40 +
STACK CFI 177cc .cfa: $rsp 32 +
STACK CFI 177ce .cfa: $rsp 24 +
STACK CFI 177d0 .cfa: $rsp 16 +
STACK CFI 177d2 .cfa: $rsp 8 +
STACK CFI INIT 177d3 69 .cfa: $rsp 8 + .ra: .cfa -8 + ^
STACK CFI 177e7 $rbp: .cfa -16 + ^ .cfa: $rsp 16 +
STACK CFI 177e8 $rbx: .cfa -24 + ^ .cfa: $rsp 24 +
STACK CFI 177ec .cfa: $rsp 32 +
STACK CFI 17813 .cfa: $rsp 40 +
STACK CFI 17815 .cfa: $rsp 48 +
STACK CFI 17817 .cfa: $rsp 56 +
STACK CFI 17819 .cfa: $rsp 64 +
STACK CFI 17834 .cfa: $rsp 32 +
STACK CFI 17838 .cfa: $rsp 24 +
STACK CFI 17839 .cfa: $rsp 16 +
STACK CFI 1783a .cfa: $rsp 8 +
STACK CFI 1783b $rbp: $rbp $rbx: $rbx
STACK CFI INIT 1783c 14 .cfa: $rsp 8 + .ra: .cfa -8 + ^
STACK CFI INIT 17850 db .cfa: $rsp 8 + .ra: .cfa -8 + ^
STACK CFI 17852 $r12: .cfa -16 + ^ .cfa: $rsp 16 +
STACK CFI 17853 $rbp: .cfa -24 + ^ .cfa: $rsp 24 +
STACK CFI 17854 $rbx: .cfa -32 + ^ .cfa: $rsp 32 +
STACK CFI 178cd .cfa: $rsp 24 +
STACK CFI 178ce .cfa: $rsp 16 +
STACK CFI 178d0 .cfa: $rsp 8 +
STACK CFI 178d1 .cfa: $rsp 32 +
STACK CFI INIT 1792b b1 .cfa: $rsp 8 + .ra: .cfa -8 + ^
STACK CFI 1792c $rbp: .cfa -16 + ^ .cfa: $rsp 16 +
STACK CFI 1792d $rbx: .cfa -24 + ^ .cfa: $rsp 24 +
STACK CFI 17931 .cfa: $rsp 48 +
STACK CFI 1798e .cfa: $rsp 24 +
STACK CFI 1798f .cfa: $rsp 16 +
STACK CFI 17990 .cfa: $rsp 8 +
STACK CFI 17991 .cfa: $rsp 48 +
STACK CFI INIT 179dc 11 .cfa: $rsp 8 + .ra: .cfa -8 + ^
STACK CFI INIT 179ed 30b .cfa: $rsp 8 + .ra: .cfa -8 + ^
STACK CFI 179ef $r15: .cfa -16 + ^ .cfa: $rsp 16 +
STACK CFI 179f1 $r14: .cfa -24 + ^ .cfa: $rsp 24 +
STACK CFI 179f3 $r13: .cfa -32 + ^ .cfa: $rsp 32 +
STACK CFI 179f5 $r12: .cfa -40 + ^ .cfa: $rsp 40 +
STACK CFI 179f6 $rbp: .cfa -48 + ^ .cfa: $rsp 48 +
STACK CFI 179f7 $rbx: .cfa -56 + ^ .cfa: $rsp 56 +
STACK CFI 179fb .cfa: $rsp 112 +
STACK CFI 17b15 .cfa: $rsp 120 +
STACK CFI 17b17 .cfa: $rsp 128 +
STACK CFI 17b19 .cfa: $rsp 136 +
STACK CFI 17b1b .cfa: $rsp 144 +
STACK CFI 17b1c .cfa: $rsp 152 +
STACK CFI 17b1e .cfa: $rsp 160 +
STACK CFI 17b48 .cfa: $rsp 112 +
STACK CFI 17c0b .cfa: $rsp 120 +
STACK CFI 17c0d .cfa: $rsp 128 +
STACK CFI 17c0f .cfa: $rsp 136 +
STACK CFI 17c11 .cfa: $rsp 144 +
STACK CFI 17c12 .cfa: $rsp 152 +
STACK CFI 17c14 .cfa: $rsp 160 +
STACK CFI 17c3e .cfa: $rsp 112 +
STACK CFI 17c5e .cfa: $rsp 56 +
STACK CFI 17c5f .cfa: $rsp 48 +
STACK CFI 17c60 .cfa: $rsp 40 +
STACK CFI 17c62 .cfa: $rsp 32 +
STACK CFI 17c64 .cfa: $rsp 24 +
STACK CFI 17c66 .cfa: $rsp 16 +
STACK CFI 17c68 .cfa: $rsp 8 +
STACK CFI 17c69 .cfa: $rsp 112 +
STACK CFI INIT 17cf8 1e5 .cfa: $rsp 8 + .ra: .cfa -8 + ^
STACK CFI 17cfa $r14: .cfa -16 + ^ .cfa: $rsp 16 +
STACK CFI 17cfc $r13: .cfa -24 + ^ .cfa: $rsp 24 +
STACK CFI 17cfe $r12: .cfa -32 + ^ .cfa: $rsp 32 +
STACK CFI 17cff $rbp: .cfa -40 + ^ .cfa: $rsp 40 +
STACK CFI 17d00 $rbx: .cfa -48 + ^ .cfa: $rsp 48 +
STACK CFI 17e07 .cfa: $rsp 40 +
STACK CFI 17e08 .cfa: $rsp 32 +
STACK CFI 17e0a .cfa: $rsp 24 +
STACK CFI 17e0c .cfa: $rsp 16 +
STACK CFI 17e0e .cfa: $rsp 8 +
STACK CFI 17e0f .cfa: $rsp 48 +
STACK CFI INIT 17edd d4 .cfa: $rsp 8 + .ra: .cfa -8 + ^
STACK CFI 17edf $r15: .cfa -16 + ^ .cfa: $rsp 16 +
STACK CFI 17ee1 $r14: .cfa -24 + ^ .cfa: $rsp 24 +
STACK CFI 17ee3 $r13: .cfa -32 + ^ .cfa: $rsp 32 +
STACK CFI 17ee5 $r12: .cfa -40 + ^ .cfa: $rsp 40 +
STACK CFI 17ee6 $rbp: .cfa -48 + ^ .cfa: $rsp 48 +
STACK CFI 17ee7 $rbx: .cfa -56 + ^ .cfa: $rsp 56 +
STACK CFI 17eeb .cfa: $rsp 80 +
STACK CFI 17f2d .cfa: $rsp 56 +
STACK CFI 17f2e .cfa: $rsp 48 +
STACK CFI 17f2f .cfa: $rsp 40 +
STACK CFI 17f31 .cfa: $rsp 32 +
STACK CFI 17f33 .cfa: $rsp 24 +
STACK CFI 17f35 .cfa: $rsp 16 +
STACK CFI 17f37 .cfa: $rsp 8 +
STACK CFI 17f38 .cfa: $rsp 80 +
STACK CFI 17f83 .cfa: $rsp 88 +
STACK CFI 17f85 .cfa: $rsp 96 +
STACK CFI 17f87 .cfa: $rsp 104 +
STACK CFI 17f89 .cfa: $rsp 112 +
STACK CFI 17f8b .cfa: $rsp 120 +
STACK CFI 17f8d .cfa: $rsp 128 +
STACK CFI 17fac .cfa: $rsp 80 +
STACK CFI INIT 217a0 50f .cfa: $rsp 8 + .ra: .cfa -8 + ^
STACK CFI 217a2 $r15: .cfa -16 + ^ .cfa: $rsp 16 +
STACK CFI 217a4 $r14: .cfa -24 + ^ .cfa: $rsp 24 +
STACK CFI 217a6 $r13: .cfa -32 + ^ .cfa: $rsp 32 +
STACK CFI 217a8 $r12: .cfa -40 + ^ .cfa: $rsp 40 +
STACK CFI 217a9 $rbp: .cfa -48 + ^ .cfa: $rsp 48 +
STACK CFI 217aa $rbx: .cfa -56 + ^ .cfa: $rsp 56 +
STACK CFI 217b1 .cfa: $rsp 512 +
STACK CFI 21c7d .cfa: $rsp 56 +
STACK CFI 21c7e .cfa: $rsp 48 +
STACK CFI 21c7f .cfa: $rsp 40 +
STACK CFI 21c81 .cfa: $rsp 32 +
STACK CFI 21c83 .cfa: $rsp 24 +
STACK CFI 21c85 .cfa: $rsp 16 +
STACK CFI 21c87 .cfa: $rsp 8 +
STACK CFI 21c88 .cfa: $rsp 512 +
STACK CFI INIT 21cb0 96 .cfa: $rsp 8 + .ra: .cfa -8 + ^
STACK CFI 21cb2 $r12: .cfa -16 + ^ .cfa: $rsp 16 +
STACK CFI 21cb3 $rbp: .cfa -24 + ^ .cfa: $rsp 24 +
STACK CFI 21cb4 $rbx: .cfa -32 + ^ .cfa: $rsp 32 +
STACK CFI 21cb8 .cfa: $rsp 48 +
STACK CFI 21cff .cfa: $rsp 32 +
STACK CFI 21d00 .cfa: $rsp 24 +
STACK CFI 21d01 .cfa: $rsp 16 +
STACK CFI 21d03 .cfa: $rsp 8 +
STACK CFI 21d04 .cfa: $rsp 48 +
STACK CFI INIT 17fb1 3f5 .cfa: $rsp 8 + .ra: .cfa -8 + ^
STACK CFI 17fb3 $r15: .cfa -16 + ^ .cfa: $rsp 16 +
STACK CFI 17fb5 $r14: .cfa -24 + ^ .cfa: $rsp 24 +
STACK CFI 17fb7 $r13: .cfa -32 + ^ .cfa: $rsp 32 +
STACK CFI 17fb9 $r12: .cfa -40 + ^ .cfa: $rsp 40 +
STACK CFI 17fba $rbp: .cfa -48 + ^ .cfa: $rsp 48 +
STACK CFI 17fbb $rbx: .cfa -56 + ^ .cfa: $rsp 56 +
STACK CFI 17fc2 .cfa: $rsp 4320 +
STACK CFI 1837c .cfa: $rsp 56 +
STACK CFI 1837d .cfa: $rsp 48 +
STACK CFI 1837e .cfa: $rsp 40 +
STACK CFI 18380 .cfa: $rsp 32 +
STACK CFI 18382 .cfa: $rsp 24 +
STACK CFI 18384 .cfa: $rsp 16 +
STACK CFI 18386 .cfa: $rsp 8 +
STACK CFI 18387 .cfa: $rsp 4320 +
STACK CFI INIT 183a6 1c3 .cfa: $rsp 8 + .ra: .cfa -8 + ^
STACK CFI 183b0 $rbx: .cfa -16 + ^ .cfa: $rsp 16 +
STACK CFI 183b4 .cfa: $rsp 80 +
STACK CFI 1852b .cfa: $rsp 16 +
STACK CFI 1852c .cfa: $rsp 8 +
STACK CFI 1852d .cfa: $rsp 80 +
STACK CFI 18568 $rbx: $rbx .cfa: $rsp 8 +
STACK CFI INIT 18569 5e4 .cfa: $rsp 8 + .ra: .cfa -8 + ^
STACK CFI 1856b $r14: .cfa -16 + ^ .cfa: $rsp 16 +
STACK CFI 1856d $r13: .cfa -24 + ^ .cfa: $rsp 24 +
STACK CFI 1856f $r12: .cfa -32 + ^ .cfa: $rsp 32 +
STACK CFI 18570 $rbp: .cfa -40 + ^ .cfa: $rsp 40 +
STACK CFI 18571 $rbx: .cfa -48 + ^ .cfa: $rsp 48 +
STACK CFI 18575 .cfa: $rsp 176 +
STACK CFI 18596 .cfa: $rsp 48 +
STACK CFI 18597 .cfa: $rsp 40 +
STACK CFI 18598 .cfa: $rsp 32 +
STACK CFI 1859a .cfa: $rsp 24 +
STACK CFI 1859c .cfa: $rsp 16 +
STACK CFI 1859e .cfa: $rsp 8 +
STACK CFI 1859f .cfa: $rsp 176 +
STACK CFI INIT 21d46 96 .cfa: $rsp 8 + .ra: .cfa -8 + ^
STACK CFI 21d48 $r12: .cfa -16 + ^ .cfa: $rsp 16 +
STACK CFI 21d49 $rbp: .cfa -24 + ^ .cfa: $rsp 24 +
STACK CFI 21d4a $rbx: .cfa -32 + ^ .cfa: $rsp 32 +
STACK CFI 21d4e .cfa: $rsp 48 +
STACK CFI 21d95 .cfa: $rsp 32 +
STACK CFI 21d96 .cfa: $rsp 24 +
STACK CFI 21d97 .cfa: $rsp 16 +
STACK CFI 21d99 .cfa: $rsp 8 +
STACK CFI 21d9a .cfa: $rsp 48 +
STACK CFI INIT 21ddc c1 .cfa: $rsp 8 + .ra: .cfa -8 + ^
STACK CFI 21ddd $rbp: .cfa -16 + ^ .cfa: $rsp 16 +
STACK CFI 21de0 .cfa: $rbp 16 +
STACK CFI 21dea $r12: .cfa -24 + ^ $rbx: .cfa -32 + ^
STACK CFI 21e9c .cfa: $rsp 8 +
STACK CFI INIT 18b4d a12 .cfa: $rsp 8 + .ra: .cfa -8 + ^
STACK CFI 18b4f $r14: .cfa -16 + ^ .cfa: $rsp 16 +
STACK CFI 18b51 $r13: .cfa -24 + ^ .cfa: $rsp 24 +
STACK CFI 18b53 $r12: .cfa -32 + ^ .cfa: $rsp 32 +
STACK CFI 18b54 $rbp: .cfa -40 + ^ .cfa: $rsp 40 +
STACK CFI 18b55 $rbx: .cfa -48 + ^ .cfa: $rsp 48 +
STACK CFI 18b59 .cfa: $rsp 128 +
STACK CFI 18d80 .cfa: $rsp 48 +
STACK CFI 18d81 .cfa: $rsp 40 +
STACK CFI 18d82 .cfa: $rsp 32 +
STACK CFI 18d84 .cfa: $rsp 24 +
STACK CFI 18d86 .cfa: $rsp 16 +
STACK CFI 18d88 .cfa: $rsp 8 +
STACK CFI 18d89 .cfa: $rsp 128 +
STACK CFI INIT 21e9e f9 .cfa: $rsp 8 + .ra: .cfa -8 + ^
STACK CFI 21ea0 $r14: .cfa -16 + ^ .cfa: $rsp 16 +
STACK CFI 21ea2 $r13: .cfa -24 + ^ .cfa: $rsp 24 +
STACK CFI 21ea4 $r12: .cfa -32 + ^ .cfa: $rsp 32 +
STACK CFI 21ea5 $rbp: .cfa -40 + ^ .cfa: $rsp 40 +
STACK CFI 21ea6 $rbx: .cfa -48 + ^ .cfa: $rsp 48 +
STACK CFI 21eaa .cfa: $rsp 80 +
STACK CFI 21f3c .cfa: $rsp 48 +
STACK CFI 21f3d .cfa: $rsp 40 +
STACK CFI 21f3e .cfa: $rsp 32 +
STACK CFI 21f40 .cfa: $rsp 24 +
STACK CFI 21f42 .cfa: $rsp 16 +
STACK CFI 21f44 .cfa: $rsp 8 +
STACK CFI 21f45 .cfa: $rsp 80 +
STACK CFI INIT 21f98 250 .cfa: $rsp 8 + .ra: .cfa -8 + ^
STACK CFI 21f9a $r14: .cfa -16 + ^ .cfa: $rsp 16 +
STACK CFI 21f9c $r13: .cfa -24 + ^ .cfa: $rsp 24 +
STACK CFI 21f9e $r12: .cfa -32 + ^ .cfa: $rsp 32 +
STACK CFI 21f9f $rbp: .cfa -40 + ^ .cfa: $rsp 40 +
STACK CFI 21fa0 $rbx: .cfa -48 + ^ .cfa: $rsp 48 +
STACK CFI 21fa4 .cfa: $rsp 128 +
STACK CFI 221a1 .cfa: $rsp 48 +
STACK CFI 221a2 .cfa: $rsp 40 +
STACK CFI 221a3 .cfa: $rsp 32 +
STACK CFI 221a5 .cfa: $rsp 24 +
STACK CFI 221a7 .cfa: $rsp 16 +
STACK CFI 221a9 .cfa: $rsp 8 +
STACK CFI 221aa .cfa: $rsp 128 +
STACK CFI INIT 221e8 86 .cfa: $rsp 8 + .ra: .cfa -8 + ^
STACK CFI 221e9 $rbp: .cfa -16 + ^ .cfa: $rsp 16 +
STACK CFI 221ea $rbx: .cfa -24 + ^ .cfa: $rsp 24 +
STACK CFI 221ee .cfa: $rsp 80 +
STACK CFI 22246 .cfa: $rsp 24 +
STACK CFI 22247 .cfa: $rsp 16 +
STACK CFI 22248 .cfa: $rsp 8 +
STACK CFI 22249 .cfa: $rsp 80 +
STACK CFI INIT 2226e 210 .cfa: $rsp 8 + .ra: .cfa -8 + ^
STACK CFI 22270 $r15: .cfa -16 + ^ .cfa: $rsp 16 +
STACK CFI 22272 $r14: .cfa -24 + ^ .cfa: $rsp 24 +
STACK CFI 22274 $r13: .cfa -32 + ^ .cfa: $rsp 32 +
STACK CFI 22276 $r12: .cfa -40 + ^ .cfa: $rsp 40 +
STACK CFI 22277 $rbp: .cfa -48 + ^ .cfa: $rsp 48 +
STACK CFI 22278 $rbx: .cfa -56 + ^ .cfa: $rsp 56 +
STACK CFI 2227c .cfa: $rsp 96 +
STACK CFI 22415 .cfa: $rsp 56 +
STACK CFI 22416 .cfa: $rsp 48 +
STACK CFI 22417 .cfa: $rsp 40 +
STACK CFI 22419 .cfa: $rsp 32 +
STACK CFI 2241b .cfa: $rsp 24 +
STACK CFI 2241d .cfa: $rsp 16 +
STACK CFI 2241f .cfa: $rsp 8 +
STACK CFI 22420 .cfa: $rsp 96 +
STACK CFI INIT 2247e 115 .cfa: $rsp 8 + .ra: .cfa -8 + ^
STACK CFI 22480 $r12: .cfa -16 + ^ .cfa: $rsp 16 +
STACK CFI 22481 $rbp: .cfa -24 + ^ .cfa: $rsp 24 +
STACK CFI 22482 $rbx: .cfa -32 + ^ .cfa: $rsp 32 +
STACK CFI 2256e .cfa: $rsp 24 +
STACK CFI 2256f .cfa: $rsp 16 +
STACK CFI 22571 .cfa: $rsp 8 +
STACK CFI 22572 .cfa: $rsp 32 +
STACK CFI INIT 22594 80 .cfa: $rsp 8 + .ra: .cfa -8 + ^
STACK CFI 22595 $rbp: .cfa -16 + ^ .cfa: $rsp 16 +
STACK CFI 22596 $rbx: .cfa -24 + ^ .cfa: $rsp 24 +
STACK CFI 2259a .cfa: $rsp 32 +
STACK CFI INIT 22614 87 .cfa: $rsp 8 + .ra: .cfa -8 + ^
STACK CFI 22615 $rbp: .cfa -16 + ^ .cfa: $rsp 16 +
STACK CFI 22616 $rbx: .cfa -24 + ^ .cfa: $rsp 24 +
STACK CFI 2261a .cfa: $rsp 32 +
STACK CFI INIT 2269c 259 .cfa: $rsp 8 + .ra: .cfa -8 + ^
STACK CFI 2269e $r12: .cfa -16 + ^ .cfa: $rsp 16 +
STACK CFI 2269f $rbp: .cfa -24 + ^ .cfa: $rsp 24 +
STACK CFI 226a0 $rbx: .cfa -32 + ^ .cfa: $rsp 32 +
STACK CFI 226a4 .cfa: $rsp 48 +
STACK CFI 22899 .cfa: $rsp 32 +
STACK CFI 2289a .cfa: $rsp 24 +
STACK CFI 2289b .cfa: $rsp 16 +
STACK CFI 2289d .cfa: $rsp 8 +
STACK CFI 2289e .cfa: $rsp 48 +
STACK CFI INIT 228f6 252 .cfa: $rsp 8 + .ra: .cfa -8 + ^
STACK CFI 228f8 $r12: .cfa -16 + ^ .cfa: $rsp 16 +
STACK CFI 228f9 $rbp: .cfa -24 + ^ .cfa: $rsp 24 +
STACK CFI 228fa $rbx: .cfa -32 + ^ .cfa: $rsp 32 +
STACK CFI 228fe .cfa: $rsp 48 +
STACK CFI 22aec .cfa: $rsp 32 +
STACK CFI 22aed .cfa: $rsp 24 +
STACK CFI 22aee .cfa: $rsp 16 +
STACK CFI 22af0 .cfa: $rsp 8 +
STACK CFI 22af1 .cfa: $rsp 48 +
STACK CFI INIT 22b48 16b .cfa: $rsp 8 + .ra: .cfa -8 + ^
STACK CFI 22b4a $r15: .cfa -16 + ^ .cfa: $rsp 16 +
STACK CFI 22b4c $r14: .cfa -24 + ^ .cfa: $rsp 24 +
STACK CFI 22b4e $r13: .cfa -32 + ^ .cfa: $rsp 32 +
STACK CFI 22b50 $r12: .cfa -40 + ^ .cfa: $rsp 40 +
STACK CFI 22b51 $rbp: .cfa -48 + ^ .cfa: $rsp 48 +
STACK CFI 22b52 $rbx: .cfa -56 + ^ .cfa: $rsp 56 +
STACK CFI 22b56 .cfa: $rsp 112 +
STACK CFI 22c4d .cfa: $rsp 56 +
STACK CFI 22c4e .cfa: $rsp 48 +
STACK CFI 22c4f .cfa: $rsp 40 +
STACK CFI 22c51 .cfa: $rsp 32 +
STACK CFI 22c53 .cfa: $rsp 24 +
STACK CFI 22c55 .cfa: $rsp 16 +
STACK CFI 22c57 .cfa: $rsp 8 +
STACK CFI 22c58 .cfa: $rsp 112 +
STACK CFI INIT 22cb4 a6 .cfa: $rsp 8 + .ra: .cfa -8 + ^
STACK CFI 22cb6 $r13: .cfa -16 + ^ .cfa: $rsp 16 +
STACK CFI 22cb8 $r12: .cfa -24 + ^ .cfa: $rsp 24 +
STACK CFI 22cb9 $rbp: .cfa -32 + ^ .cfa: $rsp 32 +
STACK CFI 22cba $rbx: .cfa -40 + ^ .cfa: $rsp 40 +
STACK CFI 22cbe .cfa: $rsp 96 +
STACK CFI 22d2b .cfa: $rsp 40 +
STACK CFI 22d2c .cfa: $rsp 32 +
STACK CFI 22d2d .cfa: $rsp 24 +
STACK CFI 22d2f .cfa: $rsp 16 +
STACK CFI 22d31 .cfa: $rsp 8 +
STACK CFI 22d32 .cfa: $rsp 96 +
STACK CFI INIT 22d5a 8f2 .cfa: $rsp 8 + .ra: .cfa -8 + ^
STACK CFI 22d5c $r15: .cfa -16 + ^ .cfa: $rsp 16 +
STACK CFI 22d5e $r14: .cfa -24 + ^ .cfa: $rsp 24 +
STACK CFI 22d60 $r13: .cfa -32 + ^ .cfa: $rsp 32 +
STACK CFI 22d62 $r12: .cfa -40 + ^ .cfa: $rsp 40 +
STACK CFI 22d63 $rbp: .cfa -48 + ^ .cfa: $rsp 48 +
STACK CFI 22d64 $rbx: .cfa -56 + ^ .cfa: $rsp 56 +
STACK CFI 22d68 .cfa: $rsp 80 +
STACK CFI 22d9c .cfa: $rsp 56 +
STACK CFI 22d9d .cfa: $rsp 48 +
STACK CFI 22d9e .cfa: $rsp 40 +
STACK CFI 22da0 .cfa: $rsp 32 +
STACK CFI 22da2 .cfa: $rsp 24 +
STACK CFI 22da4 .cfa: $rsp 16 +
STACK CFI 22da6 .cfa: $rsp 8 +
STACK CFI 22da7 .cfa: $rsp 80 +
STACK CFI INIT 2364c 20 .cfa: $rsp 8 + .ra: .cfa -8 + ^
STACK CFI 2364d $rbx: .cfa -16 + ^ .cfa: $rsp 16 +
STACK CFI 2366b .cfa: $rsp 8 +
STACK CFI INIT 2366c 67 .cfa: $rsp 8 + .ra: .cfa -8 + ^
STACK CFI 2366d $rbp: .cfa -16 + ^ .cfa: $rsp 16 +
STACK CFI 2366e $rbx: .cfa -24 + ^ .cfa: $rsp 24 +
STACK CFI 23672 .cfa: $rsp 32 +
STACK CFI 236d0 .cfa: $rsp 24 +
STACK CFI 236d1 .cfa: $rsp 16 +
STACK CFI 236d2 .cfa: $rsp 8 +
STACK CFI INIT 1955f c8 .cfa: $rsp 8 + .ra: .cfa -8 + ^
STACK CFI 19560 $rbp: .cfa -16 + ^ .cfa: $rsp 16 +
STACK CFI 19561 $rbx: .cfa -24 + ^ .cfa: $rsp 24 +
STACK CFI 19565 .cfa: $rsp 32 +
STACK CFI 19624 .cfa: $rsp 24 +
STACK CFI 19625 .cfa: $rsp 16 +
STACK CFI 19626 .cfa: $rsp 8 +
STACK CFI INIT 236d4 116 .cfa: $rsp 8 + .ra: .cfa -8 + ^
STACK CFI 236d6 $r13: .cfa -16 + ^ .cfa: $rsp 16 +
STACK CFI 236d8 $r12: .cfa -24 + ^ .cfa: $rsp 24 +
STACK CFI 236d9 $rbp: .cfa -32 + ^ .cfa: $rsp 32 +
STACK CFI 236da $rbx: .cfa -40 + ^ .cfa: $rsp 40 +
STACK CFI 236de .cfa: $rsp 48 +
STACK CFI 237e3 .cfa: $rsp 40 +
STACK CFI 237e4 .cfa: $rsp 32 +
STACK CFI 237e5 .cfa: $rsp 24 +
STACK CFI 237e7 .cfa: $rsp 16 +
STACK CFI 237e9 .cfa: $rsp 8 +
STACK CFI INIT 237ea e7 .cfa: $rsp 8 + .ra: .cfa -8 + ^
STACK CFI 237eb $rbx: .cfa -16 + ^ .cfa: $rsp 16 +
STACK CFI 237ef .cfa: $rsp 48 +
STACK CFI 2389e .cfa: $rsp 16 +
STACK CFI 2389f .cfa: $rsp 8 +
STACK CFI 238a0 .cfa: $rsp 48 +
STACK CFI INIT 19627 70 .cfa: $rsp 8 + .ra: .cfa -8 + ^
STACK CFI 19636 .cfa: $rsp 16 +
STACK CFI 19696 .cfa: $rsp 8 +
STACK CFI INIT 19697 483 .cfa: $rsp 8 + .ra: .cfa -8 + ^
STACK CFI 19699 $r12: .cfa -16 + ^ .cfa: $rsp 16 +
STACK CFI 1969a $rbp: .cfa -24 + ^ .cfa: $rsp 24 +
STACK CFI 1969b $rbx: .cfa -32 + ^ .cfa: $rsp 32 +
STACK CFI 196a2 .cfa: $rsp 4192 +
STACK CFI 197bd .cfa: $rsp 32 +
STACK CFI 197be .cfa: $rsp 24 +
STACK CFI 197bf .cfa: $rsp 16 +
STACK CFI 197c1 .cfa: $rsp 8 +
STACK CFI 197c2 .cfa: $rsp 4192 +
STACK CFI INIT 238d2 f0 .cfa: $rsp 8 + .ra: .cfa -8 + ^
STACK CFI 238d4 $r13: .cfa -16 + ^ .cfa: $rsp 16 +
STACK CFI 238d6 $r12: .cfa -24 + ^ .cfa: $rsp 24 +
STACK CFI 238d7 $rbp: .cfa -32 + ^ .cfa: $rsp 32 +
STACK CFI 238d8 $rbx: .cfa -40 + ^ .cfa: $rsp 40 +
STACK CFI 238dc .cfa: $rsp 64 +
STACK CFI 2395d .cfa: $rsp 40 +
STACK CFI 2395e .cfa: $rsp 32 +
STACK CFI 2395f .cfa: $rsp 24 +
STACK CFI 23961 .cfa: $rsp 16 +
STACK CFI 23963 .cfa: $rsp 8 +
STACK CFI 23964 .cfa: $rsp 64 +
STACK CFI INIT 239c2 90 .cfa: $rsp 8 + .ra: .cfa -8 + ^
STACK CFI 239c4 $r15: .cfa -16 + ^ .cfa: $rsp 16 +
STACK CFI 239c6 $r14: .cfa -24 + ^ .cfa: $rsp 24 +
STACK CFI 239c8 $r13: .cfa -32 + ^ .cfa: $rsp 32 +
STACK CFI 239ca $r12: .cfa -40 + ^ .cfa: $rsp 40 +
STACK CFI 239cb $rbp: .cfa -48 + ^ .cfa: $rsp 48 +
STACK CFI 239cc $rbx: .cfa -56 + ^ .cfa: $rsp 56 +
STACK CFI 239d0 .cfa: $rsp 64 +
STACK CFI 23a3a .cfa: $rsp 56 +
STACK CFI 23a3b .cfa: $rsp 48 +
STACK CFI 23a3c .cfa: $rsp 40 +
STACK CFI 23a3e .cfa: $rsp 32 +
STACK CFI 23a40 .cfa: $rsp 24 +
STACK CFI 23a42 .cfa: $rsp 16 +
STACK CFI 23a44 .cfa: $rsp 8 +
STACK CFI 23a45 .cfa: $rsp 64 +
STACK CFI INIT 23a52 116 .cfa: $rsp 8 + .ra: .cfa -8 + ^
STACK CFI 23a54 $r13: .cfa -16 + ^ .cfa: $rsp 16 +
STACK CFI 23a56 $r12: .cfa -24 + ^ .cfa: $rsp 24 +
STACK CFI 23a57 $rbp: .cfa -32 + ^ .cfa: $rsp 32 +
STACK CFI 23a58 $rbx: .cfa -40 + ^ .cfa: $rsp 40 +
STACK CFI 23a5c .cfa: $rsp 48 +
STACK CFI 23b61 .cfa: $rsp 40 +
STACK CFI 23b62 .cfa: $rsp 32 +
STACK CFI 23b63 .cfa: $rsp 24 +
STACK CFI 23b65 .cfa: $rsp 16 +
STACK CFI 23b67 .cfa: $rsp 8 +
STACK CFI INIT 23b68 ff .cfa: $rsp 8 + .ra: .cfa -8 + ^
STACK CFI 23b6a $r13: .cfa -16 + ^ .cfa: $rsp 16 +
STACK CFI 23b6c $r12: .cfa -24 + ^ .cfa: $rsp 24 +
STACK CFI 23b6d $rbp: .cfa -32 + ^ .cfa: $rsp 32 +
STACK CFI 23b6e $rbx: .cfa -40 + ^ .cfa: $rsp 40 +
STACK CFI 23b72 .cfa: $rsp 64 +
STACK CFI 23bf3 .cfa: $rsp 40 +
STACK CFI 23bf4 .cfa: $rsp 32 +
STACK CFI 23bf5 .cfa: $rsp 24 +
STACK CFI 23bf7 .cfa: $rsp 16 +
STACK CFI 23bf9 .cfa: $rsp 8 +
STACK CFI 23bfa .cfa: $rsp 64 +
STACK CFI INIT 23c68 d5 .cfa: $rsp 8 + .ra: .cfa -8 + ^
STACK CFI 23c6a $r13: .cfa -16 + ^ .cfa: $rsp 16 +
STACK CFI 23c6c $r12: .cfa -24 + ^ .cfa: $rsp 24 +
STACK CFI 23c6d $rbp: .cfa -32 + ^ .cfa: $rsp 32 +
STACK CFI 23c6e $rbx: .cfa -40 + ^ .cfa: $rsp 40 +
STACK CFI 23c72 .cfa: $rsp 48 +
STACK CFI 23cbe .cfa: $rsp 40 +
STACK CFI 23cbf .cfa: $rsp 32 +
STACK CFI 23cc0 .cfa: $rsp 24 +
STACK CFI 23cc2 .cfa: $rsp 16 +
STACK CFI 23cc4 .cfa: $rsp 8 +
STACK CFI 23cc5 .cfa: $rsp 48 +
STACK CFI INIT 23d3e 116 .cfa: $rsp 8 + .ra: .cfa -8 + ^
STACK CFI 23d40 $r13: .cfa -16 + ^ .cfa: $rsp 16 +
STACK CFI 23d42 $r12: .cfa -24 + ^ .cfa: $rsp 24 +
STACK CFI 23d43 $rbp: .cfa -32 + ^ .cfa: $rsp 32 +
STACK CFI 23d44 $rbx: .cfa -40 + ^ .cfa: $rsp 40 +
STACK CFI 23d48 .cfa: $rsp 48 +
STACK CFI 23e4d .cfa: $rsp 40 +
STACK CFI 23e4e .cfa: $rsp 32 +
STACK CFI 23e4f .cfa: $rsp 24 +
STACK CFI 23e51 .cfa: $rsp 16 +
STACK CFI 23e53 .cfa: $rsp 8 +
STACK CFI INIT 23e54 83 .cfa: $rsp 8 + .ra: .cfa -8 + ^
STACK CFI 23e56 $r12: .cfa -16 + ^ .cfa: $rsp 16 +
STACK CFI 23e57 $rbp: .cfa -24 + ^ .cfa: $rsp 24 +
STACK CFI 23e58 $rbx: .cfa -32 + ^ .cfa: $rsp 32 +
STACK CFI 23ea9 .cfa: $rsp 24 +
STACK CFI 23eaa .cfa: $rsp 16 +
STACK CFI 23eac .cfa: $rsp 8 +
STACK CFI 23ead .cfa: $rsp 32 +
STACK CFI INIT 19b1a 342 .cfa: $rsp 8 + .ra: .cfa -8 + ^
STACK CFI 19b1c $r14: .cfa -16 + ^ .cfa: $rsp 16 +
STACK CFI 19b1e $r13: .cfa -24 + ^ .cfa: $rsp 24 +
STACK CFI 19b20 $r12: .cfa -32 + ^ .cfa: $rsp 32 +
STACK CFI 19b21 $rbp: .cfa -40 + ^ .cfa: $rsp 40 +
STACK CFI 19b22 $rbx: .cfa -48 + ^ .cfa: $rsp 48 +
STACK CFI 19df9 .cfa: $rsp 40 +
STACK CFI 19dfa .cfa: $rsp 32 +
STACK CFI 19dfc .cfa: $rsp 24 +
STACK CFI 19dfe .cfa: $rsp 16 +
STACK CFI 19e00 .cfa: $rsp 8 +
STACK CFI 19e01 .cfa: $rsp 48 +
STACK CFI INIT 23ed8 49 .cfa: $rsp 8 + .ra: .cfa -8 + ^
STACK CFI INIT 23f22 e9 .cfa: $rsp 8 + .ra: .cfa -8 + ^
STACK CFI 23f24 $r13: .cfa -16 + ^ .cfa: $rsp 16 +
STACK CFI 23f26 $r12: .cfa -24 + ^ .cfa: $rsp 24 +
STACK CFI 23f27 $rbp: .cfa -32 + ^ .cfa: $rsp 32 +
STACK CFI 23f28 $rbx: .cfa -40 + ^ .cfa: $rsp 40 +
STACK CFI 23f2c .cfa: $rsp 64 +
STACK CFI 23fa9 .cfa: $rsp 40 +
STACK CFI 23faa .cfa: $rsp 32 +
STACK CFI 23fab .cfa: $rsp 24 +
STACK CFI 23fad .cfa: $rsp 16 +
STACK CFI 23faf .cfa: $rsp 8 +
STACK CFI 23fb0 .cfa: $rsp 64 +
STACK CFI INIT 19e5c 67b .cfa: $rsp 8 + .ra: .cfa -8 + ^
STACK CFI 19e5e $r15: .cfa -16 + ^ .cfa: $rsp 16 +
STACK CFI 19e60 $r14: .cfa -24 + ^ .cfa: $rsp 24 +
STACK CFI 19e62 $r13: .cfa -32 + ^ .cfa: $rsp 32 +
STACK CFI 19e64 $r12: .cfa -40 + ^ .cfa: $rsp 40 +
STACK CFI 19e65 $rbp: .cfa -48 + ^ .cfa: $rsp 48 +
STACK CFI 19e66 $rbx: .cfa -56 + ^ .cfa: $rsp 56 +
STACK CFI 19e6a .cfa: $rsp 176 +
STACK CFI 19fed .cfa: $rsp 56 +
STACK CFI 19fee .cfa: $rsp 48 +
STACK CFI 19fef .cfa: $rsp 40 +
STACK CFI 19ff1 .cfa: $rsp 32 +
STACK CFI 19ff3 .cfa: $rsp 24 +
STACK CFI 19ff5 .cfa: $rsp 16 +
STACK CFI 19ff7 .cfa: $rsp 8 +
STACK CFI 19ff8 .cfa: $rsp 176 +
STACK CFI INIT 2400c 231 .cfa: $rsp 8 + .ra: .cfa -8 + ^
STACK CFI 2400e $r12: .cfa -16 + ^ .cfa: $rsp 16 +
STACK CFI 2400f $rbp: .cfa -24 + ^ .cfa: $rsp 24 +
STACK CFI 24010 $rbx: .cfa -32 + ^ .cfa: $rsp 32 +
STACK CFI 24014 .cfa: $rsp 48 +
STACK CFI 241de .cfa: $rsp 32 +
STACK CFI 241df .cfa: $rsp 24 +
STACK CFI 241e0 .cfa: $rsp 16 +
STACK CFI 241e2 .cfa: $rsp 8 +
STACK CFI 241e3 .cfa: $rsp 48 +
STACK CFI INIT 2423d 6d .cfa: $rsp 8 + .ra: .cfa -8 + ^
STACK CFI 2423e $rbp: .cfa -16 + ^ .cfa: $rsp 16 +
STACK CFI 2423f $rbx: .cfa -24 + ^ .cfa: $rsp 24 +
STACK CFI 24246 .cfa: $rsp 160 +
STACK CFI INIT 242aa fe .cfa: $rsp 8 + .ra: .cfa -8 + ^
STACK CFI 242ac $r13: .cfa -16 + ^ .cfa: $rsp 16 +
STACK CFI 242ae $r12: .cfa -24 + ^ .cfa: $rsp 24 +
STACK CFI 242af $rbp: .cfa -32 + ^ .cfa: $rsp 32 +
STACK CFI 242b0 $rbx: .cfa -40 + ^ .cfa: $rsp 40 +
STACK CFI 242b7 .cfa: $rsp 176 +
STACK CFI INIT 243a8 95 .cfa: $rsp 8 + .ra: .cfa -8 + ^
STACK CFI 243a9 $rbx: .cfa -16 + ^ .cfa: $rsp 16 +
STACK CFI 243ad .cfa: $rsp 64 +
STACK CFI 24416 .cfa: $rsp 16 +
STACK CFI 24417 .cfa: $rsp 8 +
STACK CFI 24418 .cfa: $rsp 64 +
STACK CFI INIT 2443d 11e .cfa: $rsp 8 + .ra: .cfa -8 + ^
STACK CFI 2443f $r12: .cfa -16 + ^ .cfa: $rsp 16 +
STACK CFI 24440 $rbp: .cfa -24 + ^ .cfa: $rsp 24 +
STACK CFI 24441 $rbx: .cfa -32 + ^ .cfa: $rsp 32 +
STACK CFI 24445 .cfa: $rsp 64 +
STACK CFI 2454a .cfa: $rsp 32 +
STACK CFI 2454b .cfa: $rsp 24 +
STACK CFI 2454c .cfa: $rsp 16 +
STACK CFI 2454e .cfa: $rsp 8 +
STACK CFI 2454f .cfa: $rsp 64 +
STACK CFI INIT 2455b 78b .cfa: $rsp 8 + .ra: .cfa -8 + ^
STACK CFI 2455d $r15: .cfa -16 + ^ .cfa: $rsp 16 +
STACK CFI 2455f $r14: .cfa -24 + ^ .cfa: $rsp 24 +
STACK CFI 24561 $r13: .cfa -32 + ^ .cfa: $rsp 32 +
STACK CFI 24563 $r12: .cfa -40 + ^ .cfa: $rsp 40 +
STACK CFI 24564 $rbp: .cfa -48 + ^ .cfa: $rsp 48 +
STACK CFI 24565 $rbx: .cfa -56 + ^ .cfa: $rsp 56 +
STACK CFI 24569 .cfa: $rsp 176 +
STACK CFI 24966 .cfa: $rsp 56 +
STACK CFI 24967 .cfa: $rsp 48 +
STACK CFI 24968 .cfa: $rsp 40 +
STACK CFI 2496a .cfa: $rsp 32 +
STACK CFI 2496c .cfa: $rsp 24 +
STACK CFI 2496e .cfa: $rsp 16 +
STACK CFI 24970 .cfa: $rsp 8 +
STACK CFI 24971 .cfa: $rsp 176 +
STACK CFI INIT 24ce6 1e9 .cfa: $rsp 8 + .ra: .cfa -8 + ^
STACK CFI 24ce8 $r13: .cfa -16 + ^ .cfa: $rsp 16 +
STACK CFI 24cea $r12: .cfa -24 + ^ .cfa: $rsp 24 +
STACK CFI 24ceb $rbp: .cfa -32 + ^ .cfa: $rsp 32 +
STACK CFI 24cec $rbx: .cfa -40 + ^ .cfa: $rsp 40 +
STACK CFI 24cf3 .cfa: $rsp 176 +
STACK CFI 24d76 .cfa: $rsp 40 +
STACK CFI 24d77 .cfa: $rsp 32 +
STACK CFI 24d78 .cfa: $rsp 24 +
STACK CFI 24d7a .cfa: $rsp 16 +
STACK CFI 24d7c .cfa: $rsp 8 +
STACK CFI 24d7d .cfa: $rsp 176 +
STACK CFI INIT 24ecf 383 .cfa: $rsp 8 + .ra: .cfa -8 + ^
STACK CFI 24ed1 $r15: .cfa -16 + ^ .cfa: $rsp 16 +
STACK CFI 24ed3 $r14: .cfa -24 + ^ .cfa: $rsp 24 +
STACK CFI 24ed5 $r13: .cfa -32 + ^ .cfa: $rsp 32 +
STACK CFI 24ed7 $r12: .cfa -40 + ^ .cfa: $rsp 40 +
STACK CFI 24ed8 $rbp: .cfa -48 + ^ .cfa: $rsp 48 +
STACK CFI 24ed9 $rbx: .cfa -56 + ^ .cfa: $rsp 56 +
STACK CFI 24ee0 .cfa: $rsp 736 +
STACK CFI 25237 .cfa: $rsp 56 +
STACK CFI 25238 .cfa: $rsp 48 +
STACK CFI 25239 .cfa: $rsp 40 +
STACK CFI 2523b .cfa: $rsp 32 +
STACK CFI 2523d .cfa: $rsp 24 +
STACK CFI 2523f .cfa: $rsp 16 +
STACK CFI 25241 .cfa: $rsp 8 +
STACK CFI 25242 .cfa: $rsp 736 +
STACK CFI INIT 25252 90 .cfa: $rsp 8 + .ra: .cfa -8 + ^
STACK CFI 25254 $r15: .cfa -16 + ^ .cfa: $rsp 16 +
STACK CFI 25256 $r14: .cfa -24 + ^ .cfa: $rsp 24 +
STACK CFI 25258 $r13: .cfa -32 + ^ .cfa: $rsp 32 +
STACK CFI 2525a $r12: .cfa -40 + ^ .cfa: $rsp 40 +
STACK CFI 2525b $rbp: .cfa -48 + ^ .cfa: $rsp 48 +
STACK CFI 2525c $rbx: .cfa -56 + ^ .cfa: $rsp 56 +
STACK CFI 25260 .cfa: $rsp 64 +
STACK CFI 252ca .cfa: $rsp 56 +
STACK CFI 252cb .cfa: $rsp 48 +
STACK CFI 252cc .cfa: $rsp 40 +
STACK CFI 252ce .cfa: $rsp 32 +
STACK CFI 252d0 .cfa: $rsp 24 +
STACK CFI 252d2 .cfa: $rsp 16 +
STACK CFI 252d4 .cfa: $rsp 8 +
STACK CFI 252d5 .cfa: $rsp 64 +
STACK CFI INIT 252e2 fd .cfa: $rsp 8 + .ra: .cfa -8 + ^
STACK CFI 252e4 $r14: .cfa -16 + ^ .cfa: $rsp 16 +
STACK CFI 252e6 $r13: .cfa -24 + ^ .cfa: $rsp 24 +
STACK CFI 252e8 $r12: .cfa -32 + ^ .cfa: $rsp 32 +
STACK CFI 252e9 $rbp: .cfa -40 + ^ .cfa: $rsp 40 +
STACK CFI 252ea $rbx: .cfa -48 + ^ .cfa: $rsp 48 +
STACK CFI 253d7 .cfa: $rsp 40 +
STACK CFI 253d8 .cfa: $rsp 32 +
STACK CFI 253da .cfa: $rsp 24 +
STACK CFI 253dc .cfa: $rsp 16 +
STACK CFI 253de .cfa: $rsp 8 +
STACK CFI INIT 1a4d7 99 .cfa: $rsp 8 + .ra: .cfa -8 + ^
STACK CFI 1a4db .cfa: $rsp 32 +
STACK CFI 1a502 .cfa: $rsp 8 +
STACK CFI 1a503 .cfa: $rsp 32 +
STACK CFI INIT 1a570 49 .cfa: $rsp 8 + .ra: .cfa -8 + ^
STACK CFI 1a571 $rbx: .cfa -16 + ^ .cfa: $rsp 16 +
STACK CFI 1a5b8 .cfa: $rsp 8 +
STACK CFI INIT 1a5b9 d5 .cfa: $rsp 8 + .ra: .cfa -8 + ^
STACK CFI 1a5bb $r15: .cfa -16 + ^ .cfa: $rsp 16 +
STACK CFI 1a5bd $r14: .cfa -24 + ^ .cfa: $rsp 24 +
STACK CFI 1a5bf $r13: .cfa -32 + ^ .cfa: $rsp 32 +
STACK CFI 1a5c1 $r12: .cfa -40 + ^ .cfa: $rsp 40 +
STACK CFI 1a5c2 $rbp: .cfa -48 + ^ .cfa: $rsp 48 +
STACK CFI 1a5c3 $rbx: .cfa -56 + ^ .cfa: $rsp 56 +
STACK CFI 1a5c7 .cfa: $rsp 64 +
STACK CFI 1a60d .cfa: $rsp 72 +
STACK CFI 1a615 .cfa: $rsp 80 +
STACK CFI 1a61d .cfa: $rsp 88 +
STACK CFI 1a625 .cfa: $rsp 96 +
STACK CFI 1a62d .cfa: $rsp 104 +
STACK CFI 1a635 .cfa: $rsp 112 +
STACK CFI 1a63d .cfa: $rsp 120 +
STACK CFI 1a645 .cfa: $rsp 128 +
STACK CFI 1a64c .cfa: $rsp 136 +
STACK CFI 1a653 .cfa: $rsp 144 +
STACK CFI 1a66b .cfa: $rsp 64 +
STACK CFI 1a683 .cfa: $rsp 56 +
STACK CFI 1a684 .cfa: $rsp 48 +
STACK CFI 1a685 .cfa: $rsp 40 +
STACK CFI 1a687 .cfa: $rsp 32 +
STACK CFI 1a689 .cfa: $rsp 24 +
STACK CFI 1a68b .cfa: $rsp 16 +
STACK CFI 1a68d .cfa: $rsp 8 +
STACK CFI INIT 1a68e c4 .cfa: $rsp 8 + .ra: .cfa -8 + ^
STACK CFI 1a690 $r15: .cfa -16 + ^ .cfa: $rsp 16 +
STACK CFI 1a692 $r14: .cfa -24 + ^ .cfa: $rsp 24 +
STACK CFI 1a694 $r13: .cfa -32 + ^ .cfa: $rsp 32 +
STACK CFI 1a696 $r12: .cfa -40 + ^ .cfa: $rsp 40 +
STACK CFI 1a697 $rbp: .cfa -48 + ^ .cfa: $rsp 48 +
STACK CFI 1a698 $rbx: .cfa -56 + ^ .cfa: $rsp 56 +
STACK CFI 1a69c .cfa: $rsp 80 +
STACK CFI 1a716 .cfa: $rsp 88 +
STACK CFI 1a717 .cfa: $rsp 96 +
STACK CFI 1a731 .cfa: $rsp 80 +
STACK CFI 1a747 .cfa: $rsp 56 +
STACK CFI 1a748 .cfa: $rsp 48 +
STACK CFI 1a749 .cfa: $rsp 40 +
STACK CFI 1a74b .cfa: $rsp 32 +
STACK CFI 1a74d .cfa: $rsp 24 +
STACK CFI 1a74f .cfa: $rsp 16 +
STACK CFI 1a751 .cfa: $rsp 8 +
STACK CFI INIT 1a752 e0 .cfa: $rsp 8 + .ra: .cfa -8 + ^
STACK CFI 1a754 $r13: .cfa -16 + ^ .cfa: $rsp 16 +
STACK CFI 1a756 $r12: .cfa -24 + ^ .cfa: $rsp 24 +
STACK CFI 1a757 $rbp: .cfa -32 + ^ .cfa: $rsp 32 +
STACK CFI 1a758 $rbx: .cfa -40 + ^ .cfa: $rsp 40 +
STACK CFI 1a75c .cfa: $rsp 48 +
STACK CFI 1a7d3 .cfa: $rsp 40 +
STACK CFI 1a7d4 .cfa: $rsp 32 +
STACK CFI 1a7d5 .cfa: $rsp 24 +
STACK CFI 1a7d7 .cfa: $rsp 16 +
STACK CFI 1a7d9 .cfa: $rsp 8 +
STACK CFI 1a7da .cfa: $rsp 48 +
STACK CFI INIT 1a832 13c .cfa: $rsp 8 + .ra: .cfa -8 + ^
STACK CFI 1a834 $r12: .cfa -16 + ^ .cfa: $rsp 16 +
STACK CFI 1a835 $rbp: .cfa -24 + ^ .cfa: $rsp 24 +
STACK CFI 1a836 $rbx: .cfa -32 + ^ .cfa: $rsp 32 +
STACK CFI 1a83a .cfa: $rsp 48 +
STACK CFI 1a927 .cfa: $rsp 32 +
STACK CFI 1a928 .cfa: $rsp 24 +
STACK CFI 1a929 .cfa: $rsp 16 +
STACK CFI 1a92b .cfa: $rsp 8 +
STACK CFI 1a92c .cfa: $rsp 48 +
STACK CFI INIT 1a96e 3ad .cfa: $rsp 8 + .ra: .cfa -8 + ^
STACK CFI 1a970 $r14: .cfa -16 + ^ .cfa: $rsp 16 +
STACK CFI 1a972 $r13: .cfa -24 + ^ .cfa: $rsp 24 +
STACK CFI 1a974 $r12: .cfa -32 + ^ .cfa: $rsp 32 +
STACK CFI 1a975 $rbp: .cfa -40 + ^ .cfa: $rsp 40 +
STACK CFI 1a976 $rbx: .cfa -48 + ^ .cfa: $rsp 48 +
STACK CFI 1a97a .cfa: $rsp 80 +
STACK CFI 1ad12 .cfa: $rsp 48 +
STACK CFI 1ad13 .cfa: $rsp 40 +
STACK CFI 1ad14 .cfa: $rsp 32 +
STACK CFI 1ad16 .cfa: $rsp 24 +
STACK CFI 1ad18 .cfa: $rsp 16 +
STACK CFI 1ad1a .cfa: $rsp 8 +
STACK CFI INIT 1ad1b 112 .cfa: $rsp 8 + .ra: .cfa -8 + ^
STACK CFI 1ad1d $r12: .cfa -16 + ^ .cfa: $rsp 16 +
STACK CFI 1ad1e $rbp: .cfa -24 + ^ .cfa: $rsp 24 +
STACK CFI 1ad1f $rbx: .cfa -32 + ^ .cfa: $rsp 32 +
STACK CFI 1ad23 .cfa: $rsp 64 +
STACK CFI 1ae15 .cfa: $rsp 32 +
STACK CFI 1ae16 .cfa: $rsp 24 +
STACK CFI 1ae17 .cfa: $rsp 16 +
STACK CFI 1ae19 .cfa: $rsp 8 +
STACK CFI 1ae1a .cfa: $rsp 64 +
STACK CFI INIT 1ae2d 290 .cfa: $rsp 8 + .ra: .cfa -8 + ^
STACK CFI 1ae38 $r13: .cfa -16 + ^ .cfa: $rsp 16 +
STACK CFI 1ae3a $r12: .cfa -24 + ^ .cfa: $rsp 24 +
STACK CFI 1ae3b $rbp: .cfa -32 + ^ .cfa: $rsp 32 +
STACK CFI 1ae3c $rbx: .cfa -40 + ^ .cfa: $rsp 40 +
STACK CFI 1ae40 .cfa: $rsp 112 +
STACK CFI 1af3d .cfa: $rsp 40 +
STACK CFI 1af3e .cfa: $rsp 32 +
STACK CFI 1af3f .cfa: $rsp 24 +
STACK CFI 1af41 .cfa: $rsp 16 +
STACK CFI 1af43 .cfa: $rsp 8 +
STACK CFI 1af44 .cfa: $rsp 112 +
STACK CFI 1b0bc $r12: $r12 $r13: $r13 $rbp: $rbp $rbx: $rbx .cfa: $rsp 8 +
STACK CFI INIT 1b0bd 446 .cfa: $rsp 8 + .ra: .cfa -8 + ^
STACK CFI 1b0bf $r15: .cfa -16 + ^ .cfa: $rsp 16 +
STACK CFI 1b0c1 $r14: .cfa -24 + ^ .cfa: $rsp 24 +
STACK CFI 1b0c3 $r13: .cfa -32 + ^ .cfa: $rsp 32 +
STACK CFI 1b0c5 $r12: .cfa -40 + ^ .cfa: $rsp 40 +
STACK CFI 1b0c6 $rbp: .cfa -48 + ^ .cfa: $rsp 48 +
STACK CFI 1b0c7 $rbx: .cfa -56 + ^ .cfa: $rsp 56 +
STACK CFI 1b0cb .cfa: $rsp 176 +
STACK CFI 1b352 .cfa: $rsp 56 +
STACK CFI 1b353 .cfa: $rsp 48 +
STACK CFI 1b354 .cfa: $rsp 40 +
STACK CFI 1b356 .cfa: $rsp 32 +
STACK CFI 1b358 .cfa: $rsp 24 +
STACK CFI 1b35a .cfa: $rsp 16 +
STACK CFI 1b35c .cfa: $rsp 8 +
STACK CFI 1b35d .cfa: $rsp 176 +
STACK CFI INIT 1b503 32ed .cfa: $rsp 8 + .ra: .cfa -8 + ^
STACK CFI 1b504 $rbp: .cfa -16 + ^ .cfa: $rsp 16 +
STACK CFI 1b507 .cfa: $rbp 16 +
STACK CFI 1b517 $r12: .cfa -48 + ^ $r13: .cfa -40 + ^ $r14: .cfa -32 + ^ $r15: .cfa -24 + ^ $rbx: .cfa -56 + ^
STACK CFI 1e654 .cfa: $rsp 8 +
STACK CFI 1e655 .cfa: $rbp 16 +
STACK CFI INIT 1e7f0 19 .cfa: $rsp 8 + .ra: .cfa -8 + ^
STACK CFI 1e7f4 .cfa: $rsp 16 +
STACK CFI 1e808 .cfa: $rsp 8 +
STACK CFI INIT 1e809 1a1 .cfa: $rsp 8 + .ra: .cfa -8 + ^
STACK CFI 1e80b $r13: .cfa -16 + ^ .cfa: $rsp 16 +
STACK CFI 1e80d $r12: .cfa -24 + ^ .cfa: $rsp 24 +
STACK CFI 1e80e $rbp: .cfa -32 + ^ .cfa: $rsp 32 +
STACK CFI 1e80f $rbx: .cfa -40 + ^ .cfa: $rsp 40 +
STACK CFI 1e813 .cfa: $rsp 64 +
STACK CFI 1e859 .cfa: $rsp 40 +
STACK CFI 1e85a .cfa: $rsp 32 +
STACK CFI 1e85b .cfa: $rsp 24 +
STACK CFI 1e85d .cfa: $rsp 16 +
STACK CFI 1e85f .cfa: $rsp 8 +
STACK CFI 1e860 .cfa: $rsp 64 +
STACK CFI INIT 253e0 fd .cfa: $rsp 8 + .ra: .cfa -8 + ^
STACK CFI 253e2 $r14: .cfa -16 + ^ .cfa: $rsp 16 +
STACK CFI 253e4 $r13: .cfa -24 + ^ .cfa: $rsp 24 +
STACK CFI 253e6 $r12: .cfa -32 + ^ .cfa: $rsp 32 +
STACK CFI 253e7 $rbp: .cfa -40 + ^ .cfa: $rsp 40 +
STACK CFI 253e8 $rbx: .cfa -48 + ^ .cfa: $rsp 48 +
STACK CFI 254d5 .cfa: $rsp 40 +
STACK CFI 254d6 .cfa: $rsp 32 +
STACK CFI 254d8 .cfa: $rsp 24 +
STACK CFI 254da .cfa: $rsp 16 +
STACK CFI 254dc .cfa: $rsp 8 +
STACK CFI INIT 1e9aa 200 .cfa: $rsp 8 + .ra: .cfa -8 + ^
STACK CFI 1e9bc $r13: .cfa -16 + ^ .cfa: $rsp 16 +
STACK CFI 1e9be $r12: .cfa -24 + ^ .cfa: $rsp 24 +
STACK CFI 1e9bf $rbp: .cfa -32 + ^ .cfa: $rsp 32 +
STACK CFI 1e9c0 $rbx: .cfa -40 + ^ .cfa: $rsp 40 +
STACK CFI 1e9c4 .cfa: $rsp 96 +
STACK CFI 1ead7 .cfa: $rsp 40 +
STACK CFI 1ead8 .cfa: $rsp 32 +
STACK CFI 1ead9 .cfa: $rsp 24 +
STACK CFI 1eadb .cfa: $rsp 16 +
STACK CFI 1eadd .cfa: $rsp 8 +
STACK CFI 1eade .cfa: $rsp 96 +
STACK CFI 1eba9 $r12: $r12 $r13: $r13 $rbp: $rbp $rbx: $rbx .cfa: $rsp 8 +
STACK CFI INIT 254dd 20 .cfa: $rsp 8 + .ra: .cfa -8 + ^
STACK CFI 254de $rbx: .cfa -16 + ^ .cfa: $rsp 16 +
STACK CFI 254fc .cfa: $rsp 8 +
STACK CFI INIT 254fe 8b .cfa: $rsp 8 + .ra: .cfa -8 + ^
STACK CFI 25500 $r13: .cfa -16 + ^ .cfa: $rsp 16 +
STACK CFI 25502 $r12: .cfa -24 + ^ .cfa: $rsp 24 +
STACK CFI 25503 $rbp: .cfa -32 + ^ .cfa: $rsp 32 +
STACK CFI 25504 $rbx: .cfa -40 + ^ .cfa: $rsp 40 +
STACK CFI 25508 .cfa: $rsp 48 +
STACK CFI 25582 .cfa: $rsp 40 +
STACK CFI 25583 .cfa: $rsp 32 +
STACK CFI 25584 .cfa: $rsp 24 +
STACK CFI 25586 .cfa: $rsp 16 +
STACK CFI 25588 .cfa: $rsp 8 +
STACK CFI INIT 2558a 20 .cfa: $rsp 8 + .ra: .cfa -8 + ^
STACK CFI 2558b $rbx: .cfa -16 + ^ .cfa: $rsp 16 +
STACK CFI 255a9 .cfa: $rsp 8 +
STACK CFI INIT 255aa 3a .cfa: $rsp 8 + .ra: .cfa -8 + ^
STACK CFI INIT 255e4 30 .cfa: $rsp 8 + .ra: .cfa -8 + ^
STACK CFI INIT 25614 67 .cfa: $rsp 8 + .ra: .cfa -8 + ^
STACK CFI 2561b $r14: .cfa -16 + ^ .cfa: $rsp 16 +
STACK CFI 2561d $r13: .cfa -24 + ^ .cfa: $rsp 24 +
STACK CFI 2561f $r12: .cfa -32 + ^ .cfa: $rsp 32 +
STACK CFI 25620 $rbp: .cfa -40 + ^ .cfa: $rsp 40 +
STACK CFI 25621 $rbx: .cfa -48 + ^ .cfa: $rsp 48 +
STACK CFI 25631 .cfa: $rsp 40 +
STACK CFI 25632 .cfa: $rsp 32 +
STACK CFI 25634 .cfa: $rsp 24 +
STACK CFI 25636 .cfa: $rsp 16 +
STACK CFI 25638 .cfa: $rsp 8 +
STACK CFI 25639 .cfa: $rsp 48 +
STACK CFI 2567a $r12: $r12 $r13: $r13 $r14: $r14 $rbp: $rbp $rbx: $rbx .cfa: $rsp 8 +
STACK CFI INIT 2567b 326 .cfa: $rsp 8 + .ra: .cfa -8 + ^
STACK CFI INIT 259a1 107 .cfa: $rsp 8 + .ra: .cfa -8 + ^
STACK CFI 259a2 $rbx: .cfa -16 + ^ .cfa: $rsp 16 +
STACK CFI 25a9d .cfa: $rsp 8 +
STACK CFI 25a9e .cfa: $rsp 16 +
STACK CFI INIT 25aa8 221 .cfa: $rsp 8 + .ra: .cfa -8 + ^
STACK CFI 25abc $r13: .cfa -16 + ^ .cfa: $rsp 16 +
STACK CFI 25abe $r12: .cfa -24 + ^ .cfa: $rsp 24 +
STACK CFI 25abf $rbp: .cfa -32 + ^ .cfa: $rsp 32 +
STACK CFI 25ac0 $rbx: .cfa -40 + ^ .cfa: $rsp 40 +
STACK CFI 25ac4 .cfa: $rsp 48 +
STACK CFI 25b5d .cfa: $rsp 40 +
STACK CFI 25b5e .cfa: $rsp 32 +
STACK CFI 25b5f .cfa: $rsp 24 +
STACK CFI 25b61 .cfa: $rsp 16 +
STACK CFI 25b63 .cfa: $rsp 8 +
STACK CFI 25b64 .cfa: $rsp 48 +
STACK CFI 25cc8 $r12: $r12 $r13: $r13 $rbp: $rbp $rbx: $rbx .cfa: $rsp 8 +
STACK CFI INIT 25cca 576 .cfa: $rsp 8 + .ra: .cfa -8 + ^
STACK CFI 25ccc $r15: .cfa -16 + ^ .cfa: $rsp 16 +
STACK CFI 25cce $r14: .cfa -24 + ^ .cfa: $rsp 24 +
STACK CFI 25cd0 $r13: .cfa -32 + ^ .cfa: $rsp 32 +
STACK CFI 25cd2 $r12: .cfa -40 + ^ .cfa: $rsp 40 +
STACK CFI 25cd3 $rbp: .cfa -48 + ^ .cfa: $rsp 48 +
STACK CFI 25cd4 $rbx: .cfa -56 + ^ .cfa: $rsp 56 +
STACK CFI 25cdb .cfa: $rsp 224 +
STACK CFI 261d2 .cfa: $rsp 56 +
STACK CFI 261d3 .cfa: $rsp 48 +
STACK CFI 261d4 .cfa: $rsp 40 +
STACK CFI 261d6 .cfa: $rsp 32 +
STACK CFI 261d8 .cfa: $rsp 24 +
STACK CFI 261da .cfa: $rsp 16 +
STACK CFI 261dc .cfa: $rsp 8 +
STACK CFI 261dd .cfa: $rsp 224 +
STACK CFI INIT 26240 4d .cfa: $rsp 8 + .ra: .cfa -8 + ^
STACK CFI 26242 $r12: .cfa -16 + ^ .cfa: $rsp 16 +
STACK CFI 26243 $rbp: .cfa -24 + ^ .cfa: $rsp 24 +
STACK CFI 26244 $rbx: .cfa -32 + ^ .cfa: $rsp 32 +
STACK CFI 26289 .cfa: $rsp 24 +
STACK CFI 2628a .cfa: $rsp 16 +
STACK CFI 2628c .cfa: $rsp 8 +
STACK CFI INIT 2628e 558 .cfa: $rsp 8 + .ra: .cfa -8 + ^
STACK CFI 26290 $r15: .cfa -16 + ^ .cfa: $rsp 16 +
STACK CFI 26292 $r14: .cfa -24 + ^ .cfa: $rsp 24 +
STACK CFI 26294 $r13: .cfa -32 + ^ .cfa: $rsp 32 +
STACK CFI 26296 $r12: .cfa -40 + ^ .cfa: $rsp 40 +
STACK CFI 26297 $rbp: .cfa -48 + ^ .cfa: $rsp 48 +
STACK CFI 26298 $rbx: .cfa -56 + ^ .cfa: $rsp 56 +
STACK CFI 2629f .cfa: $rsp 240 +
STACK CFI 2672b .cfa: $rsp 56 +
STACK CFI 2672c .cfa: $rsp 48 +
STACK CFI 2672d .cfa: $rsp 40 +
STACK CFI 2672f .cfa: $rsp 32 +
STACK CFI 26731 .cfa: $rsp 24 +
STACK CFI 26733 .cfa: $rsp 16 +
STACK CFI 26735 .cfa: $rsp 8 +
STACK CFI 26736 .cfa: $rsp 240 +
STACK CFI INIT 267e6 467 .cfa: $rsp 8 + .ra: .cfa -8 + ^
STACK CFI 267e8 $r15: .cfa -16 + ^ .cfa: $rsp 16 +
STACK CFI 267ea $r14: .cfa -24 + ^ .cfa: $rsp 24 +
STACK CFI 267ec $r13: .cfa -32 + ^ .cfa: $rsp 32 +
STACK CFI 267ee $r12: .cfa -40 + ^ .cfa: $rsp 40 +
STACK CFI 267ef $rbp: .cfa -48 + ^ .cfa: $rsp 48 +
STACK CFI 267f0 $rbx: .cfa -56 + ^ .cfa: $rsp 56 +
STACK CFI 267f7 .cfa: $rsp 240 +
STACK CFI 26965 .cfa: $rsp 56 +
STACK CFI 26966 .cfa: $rsp 48 +
STACK CFI 26967 .cfa: $rsp 40 +
STACK CFI 26969 .cfa: $rsp 32 +
STACK CFI 2696b .cfa: $rsp 24 +
STACK CFI 2696d .cfa: $rsp 16 +
STACK CFI 2696f .cfa: $rsp 8 +
STACK CFI 26970 .cfa: $rsp 240 +
STACK CFI INIT 26c4e 13f .cfa: $rsp 8 + .ra: .cfa -8 + ^
STACK CFI 26c50 $r13: .cfa -16 + ^ .cfa: $rsp 16 +
STACK CFI 26c52 $r12: .cfa -24 + ^ .cfa: $rsp 24 +
STACK CFI 26c53 $rbp: .cfa -32 + ^ .cfa: $rsp 32 +
STACK CFI 26c54 $rbx: .cfa -40 + ^ .cfa: $rsp 40 +
STACK CFI 26c58 .cfa: $rsp 112 +
STACK CFI 26c94 .cfa: $rsp 40 +
STACK CFI 26c95 .cfa: $rsp 32 +
STACK CFI 26c96 .cfa: $rsp 24 +
STACK CFI 26c98 .cfa: $rsp 16 +
STACK CFI 26c9a .cfa: $rsp 8 +
STACK CFI 26c9b .cfa: $rsp 112 +
STACK CFI INIT 1ebaa eaa .cfa: $rsp 8 + .ra: .cfa -8 + ^
STACK CFI 1ebb5 $r15: .cfa -16 + ^ .cfa: $rsp 16 +
STACK CFI 1ebb7 $r14: .cfa -24 + ^ .cfa: $rsp 24 +
STACK CFI 1ebb9 $r13: .cfa -32 + ^ .cfa: $rsp 32 +
STACK CFI 1ebbb $r12: .cfa -40 + ^ .cfa: $rsp 40 +
STACK CFI 1ebbc $rbp: .cfa -48 + ^ .cfa: $rsp 48 +
STACK CFI 1ebbd $rbx: .cfa -56 + ^ .cfa: $rsp 56 +
STACK CFI 1ebc4 .cfa: $rsp 864 +
STACK CFI 1f748 .cfa: $rsp 56 +
STACK CFI 1f749 .cfa: $rsp 48 +
STACK CFI 1f74a .cfa: $rsp 40 +
STACK CFI 1f74c .cfa: $rsp 32 +
STACK CFI 1f74e .cfa: $rsp 24 +
STACK CFI 1f750 .cfa: $rsp 16 +
STACK CFI 1f752 .cfa: $rsp 8 +
STACK CFI 1f753 .cfa: $rsp 864 +
STACK CFI 1fa53 $r12: $r12 $r13: $r13 $r14: $r14 $r15: $r15 $rbp: $rbp $rbx: $rbx .cfa: $rsp 8 +
STACK CFI INIT 26d8e 319 .cfa: $rsp 8 + .ra: .cfa -8 + ^
STACK CFI 26d90 $r15: .cfa -16 + ^ .cfa: $rsp 16 +
STACK CFI 26d92 $r14: .cfa -24 + ^ .cfa: $rsp 24 +
STACK CFI 26d94 $r13: .cfa -32 + ^ .cfa: $rsp 32 +
STACK CFI 26d96 $r12: .cfa -40 + ^ .cfa: $rsp 40 +
STACK CFI 26d97 $rbp: .cfa -48 + ^ .cfa: $rsp 48 +
STACK CFI 26d98 $rbx: .cfa -56 + ^ .cfa: $rsp 56 +
STACK CFI 26d9f .cfa: $rsp 224 +
STACK CFI 27021 .cfa: $rsp 56 +
STACK CFI 27022 .cfa: $rsp 48 +
STACK CFI 27023 .cfa: $rsp 40 +
STACK CFI 27025 .cfa: $rsp 32 +
STACK CFI 27027 .cfa: $rsp 24 +
STACK CFI 27029 .cfa: $rsp 16 +
STACK CFI 2702b .cfa: $rsp 8 +
STACK CFI 2702c .cfa: $rsp 224 +
STACK CFI INIT 1fa54 b87 .cfa: $rsp 8 + .ra: .cfa -8 + ^
STACK CFI 1fa56 $r15: .cfa -16 + ^ .cfa: $rsp 16 +
STACK CFI 1fa58 $r14: .cfa -24 + ^ .cfa: $rsp 24 +
STACK CFI 1fa5a $r13: .cfa -32 + ^ .cfa: $rsp 32 +
STACK CFI 1fa5c $r12: .cfa -40 + ^ .cfa: $rsp 40 +
STACK CFI 1fa5d $rbp: .cfa -48 + ^ .cfa: $rsp 48 +
STACK CFI 1fa5e $rbx: .cfa -56 + ^ .cfa: $rsp 56 +
STACK CFI 1fa65 .cfa: $rsp 400 +
STACK CFI 1fa94 .cfa: $rsp 56 +
STACK CFI 1fa95 .cfa: $rsp 48 +
STACK CFI 1fa96 .cfa: $rsp 40 +
STACK CFI 1fa98 .cfa: $rsp 32 +
STACK CFI 1fa9a .cfa: $rsp 24 +
STACK CFI 1fa9c .cfa: $rsp 16 +
STACK CFI 1fa9e .cfa: $rsp 8 +
STACK CFI 1fa9f .cfa: $rsp 400 +
STACK CFI INIT 205db 960 .cfa: $rsp 8 + .ra: .cfa -8 + ^
STACK CFI 205dd $r15: .cfa -16 + ^ .cfa: $rsp 16 +
STACK CFI 205df $r14: .cfa -24 + ^ .cfa: $rsp 24 +
STACK CFI 205e1 $r13: .cfa -32 + ^ .cfa: $rsp 32 +
STACK CFI 205e3 $r12: .cfa -40 + ^ .cfa: $rsp 40 +
STACK CFI 205e4 $rbp: .cfa -48 + ^ .cfa: $rsp 48 +
STACK CFI 205e5 $rbx: .cfa -56 + ^ .cfa: $rsp 56 +
STACK CFI 205ec .cfa: $rsp 272 +
STACK CFI 20b8b .cfa: $rsp 56 +
STACK CFI 20b8c .cfa: $rsp 48 +
STACK CFI 20b8d .cfa: $rsp 40 +
STACK CFI 20b8f .cfa: $rsp 32 +
STACK CFI 20b91 .cfa: $rsp 24 +
STACK CFI 20b93 .cfa: $rsp 16 +
STACK CFI 20b95 .cfa: $rsp 8 +
STACK CFI 20b96 .cfa: $rsp 272 +
