MODULE Linux x86_64 A168CA5C70E57B7862A2F92C181618D80 cds-avs-du-agent.exe
INFO CODE_ID 5CCA68A1E570787B62A2F92C181618D82E3A0736
PUBLIC 1c000 0 _init
PUBLIC 1ce7c 0 _start
PUBLIC 1cf52 0 svserror
PUBLIC 1d448 0 svserror_suppress
PUBLIC 1d52c 0 dvgui_init
PUBLIC 1ed25 0 init_printargs
PUBLIC 1fd75 0 svinit_getplusarg
PUBLIC 1fddf 0 init_forget
PUBLIC 202de 0 init_help
PUBLIC 20457 0 init_banner
PUBLIC 204c1 0 init_optchk
PUBLIC 212d9 0 loadStrap
PUBLIC 2131e 0 main
PUBLIC 2190e 0 dvgui_getversionstr
PUBLIC 21919 0 dvgui_printversion
PUBLIC 21932 0 dvgui_getbannerstr
PUBLIC 2193d 0 dvgui_printbanner
PUBLIC 21956 0 dvgui_setversionwriter
PUBLIC 2195e 0 dvgui_striptoolname
PUBLIC 2199f 0 dvgui_compareVersionName
PUBLIC 21fb0 0 claGetMaster_qd
PUBLIC 22080 0 claGetMaster
PUBLIC 224d0 0 claSetMaster
PUBLIC 22680 0 claGetLatest
PUBLIC 22740 0 claSetLatest
PUBLIC 22f70 0 claInvalidatePackedLib
PUBLIC 23020 0 claGetSpec
PUBLIC 233f0 0 claiZipExists
PUBLIC 23420 0 clai_mkspec
PUBLIC 237a0 0 cdsFS_strerror
PUBLIC 23870 0 cdsFSCreatePathSpec
PUBLIC 23900 0 cdsFSGetSpecIOImpName
PUBLIC 23930 0 cdsFSFreeSpec
PUBLIC 23990 0 cdsFSGetSpecString
PUBLIC 23a50 0 cdsFS_openFile
PUBLIC 23b20 0 cdsFS_open
PUBLIC 23bd0 0 cdsFS_fgets
PUBLIC 23c20 0 cdsFS_getc
PUBLIC 23c60 0 cdsFS_ungetc
PUBLIC 23ca0 0 cdsFS_fsync
PUBLIC 23d00 0 cdsFS_close
PUBLIC 23da0 0 cdsFS_rewind
PUBLIC 23df0 0 cdsFS_read
PUBLIC 23e70 0 cdsFS_write
PUBLIC 23ef0 0 cdsFS_seek
PUBLIC 23f60 0 cdsFS_tell
PUBLIC 23ff0 0 cdsFS_opendir
PUBLIC 24030 0 cdsFS_readdir
PUBLIC 24070 0 cdsFS_rewinddir
PUBLIC 240b0 0 cdsFS_closedir
PUBLIC 240f0 0 cdsFS_getDirentName
PUBLIC 24130 0 cdsFS_stat
PUBLIC 241c0 0 cdsFS_lstat
PUBLIC 24250 0 cdsFS_getFileMode
PUBLIC 24290 0 cdsFS_getFileGID
PUBLIC 242d0 0 cdsFS_getFileUID
PUBLIC 24310 0 cdsFS_getFileSize
PUBLIC 24350 0 cdsFS_getFileModTime
PUBLIC 24390 0 cdsFSiOpendir
PUBLIC 24480 0 cdsFSiReaddir
PUBLIC 244e0 0 cdsFSiRewinddir
PUBLIC 244f0 0 cdsFSiClosedir
PUBLIC 24550 0 cdsFSiGetDirentName
PUBLIC 24b10 0 cdsFSStdioCreatePathSpec
PUBLIC 24ba0 0 cdsFSStdio_openFile
PUBLIC 24d00 0 cdsZipOpenZip
PUBLIC 24d10 0 cdsZipCloseZip
PUBLIC 24d20 0 cdsZipCreateSpec
PUBLIC 24d30 0 cdsZip_zip
PUBLIC 24d40 0 cdsZip_unzip
PUBLIC 251d0 0 claInitEx
PUBLIC 257e0 0 claInit
PUBLIC 25800 0 claInitialize
PUBLIC 25820 0 claSetImplicitTmp
PUBLIC 258e0 0 claGetImplicitTmpFlags
PUBLIC 25910 0 claSetUnknownASSIGNfunc
PUBLIC 25920 0 claGetCurHandle
PUBLIC 25940 0 claAddCommand
PUBLIC 25a50 0 claSetUmask
PUBLIC 25ad0 0 claiReleaseHandle
PUBLIC 25b00 0 claReleaseHandle
PUBLIC 25bb0 0 claWhereGlobalExplicitTmp
PUBLIC 25c00 0 claWhereIncluded
PUBLIC 25e00 0 claIsIncluded
PUBLIC 25fb0 0 claGetErrorMsg
PUBLIC 25fd0 0 clai_getLastErr
PUBLIC 25fe0 0 clai_setLastErr
PUBLIC 25ff0 0 clai_useDefaultWarn
PUBLIC 26000 0 clai_doCdsLibCheck
PUBLIC 26010 0 claDumpEverything
PUBLIC 264c0 0 clai_get_libp
PUBLIC 26610 0 claLibHasTmp
PUBLIC 266c0 0 claGetPath
PUBLIC 26d40 0 claQuery
PUBLIC 27500 0 claWhereDefined
PUBLIC 275f0 0 claWhereAssigned
PUBLIC 27820 0 claIsDefined
PUBLIC 278b0 0 claIsAssigned
PUBLIC 27a60 0 clai_do_fatal
PUBLIC 27ae0 0 clai_do_error
PUBLIC 27b60 0 claSetPathNoneExistWarnFlag
PUBLIC 27b70 0 claiCheckPathNoneExistWarnFlag
PUBLIC 27b90 0 claGetDisplayValue
PUBLIC 27c80 0 claGetCombineValue
PUBLIC 28340 0 claStatCacheCtl
PUBLIC 28390 0 clai_setUidGid
PUBLIC 283b0 0 clai_getenv_stat_cache
PUBLIC 283f0 0 clai_quick_access
PUBLIC 289e0 0 claiMkdir
PUBLIC 28ee0 0 clai_access_path
PUBLIC 29890 0 claiLibPathReused
PUBLIC 29ad0 0 claiUpdateImplicit
PUBLIC 29c10 0 claiFreeLibinfo
PUBLIC 29c30 0 claiAddGlobalTmppath
PUBLIC 29f40 0 clai_process_command
PUBLIC 2b910 0 clai_parse_cdslib_file
PUBLIC 2c180 0 claSearch
PUBLIC 2c260 0 claSearchList
PUBLIC 2c310 0 claFullSearchList
PUBLIC 2c4a0 0 claFullSearch
PUBLIC 2c520 0 claFindWritable
PUBLIC 2c5d0 0 clai_generate_full_path
PUBLIC 2cd50 0 clai_generate_nsl_path_ex
PUBLIC 2d280 0 clai_generate_nsl_path
PUBLIC 2d290 0 clai_mkpath
PUBLIC 2d430 0 claiStrcpy
PUBLIC 2d4b0 0 claiIsGoodLibPath
PUBLIC 2d540 0 claiMkGoodLibPath
PUBLIC 2d640 0 claLookupHandle
PUBLIC 2d680 0 claHandleTableInsert
PUBLIC 2d740 0 claHandleTableDelete
PUBLIC 2d790 0 cdsCopyString
PUBLIC 2d7b0 0 cdsCatString
PUBLIC 2d8c0 0 cdsStrlistToStr
PUBLIC 2d930 0 cdsGrowStrlist
PUBLIC 2d9b0 0 cdsAddToStrlist
PUBLIC 2dac0 0 cdsFastAddToStrlist
PUBLIC 2dbc0 0 cdsCopyStrlist
PUBLIC 2dc80 0 cdsFreeStrlist
PUBLIC 2dcd0 0 cdsStrToStrlist
PUBLIC 2def0 0 cdsSortStrlist
PUBLIC 2df10 0 cdsFilterStrlist
PUBLIC 2fdb0 0 cds_regcomp
PUBLIC 30010 0 cds_regexec
PUBLIC 307c0 0 cifGetErrorMsg
PUBLIC 307e0 0 cifRegisterErrorHandler
PUBLIC 307f0 0 cifPrintError
PUBLIC 30830 0 cifNormalizePath
PUBLIC 30aa0 0 cifNormalizePathSorta
PUBLIC 30af0 0 cifiHandleInputLine
PUBLIC 31250 0 cifMakeCdsinfoObj
PUBLIC 31360 0 freeInfoStructMembers
PUBLIC 313b0 0 cifGetCdsinfoAtLoc
PUBLIC 317c0 0 cifLocalSearchElement
PUBLIC 31de0 0 cifRemoveEntry
PUBLIC 32200 0 cifAddEntry
PUBLIC 32370 0 cifiStringizeEntry
PUBLIC 32480 0 cifGetEntry
PUBLIC 32580 0 cifLookupEntry
PUBLIC 32760 0 cifLookupEntryX
PUBLIC 32890 0 cifClearPathUnmanaged
PUBLIC 328a0 0 cifSetPathDmType
PUBLIC 328b0 0 cifSetPathUnmanaged
PUBLIC 328c0 0 cifGetNameSpaceX
PUBLIC 32920 0 cifGetNameSpace
PUBLIC 32930 0 cifIsLibraryX
PUBLIC 32aa0 0 cifIsLibrary
PUBLIC 32ab0 0 cifIsInLibrary
PUBLIC 32ad0 0 cifIsInLibraryX
PUBLIC 32af0 0 cifCheckLibraryX
PUBLIC 32d10 0 cifCheckLibrary
PUBLIC 32d20 0 cifGetDmType
PUBLIC 32d30 0 cifGetDmTypeX
PUBLIC 32d40 0 cifCreateInfoFile
PUBLIC 32f50 0 cifResetCache
PUBLIC 33070 0 cds_regerror
PUBLIC 33090 0 cdsRegErrorFunc
PUBLIC 330a0 0 cdsGetErrorFunc
PUBLIC 330b0 0 cdsReportError
PUBLIC 330e0 0 cdsFileExists
PUBLIC 33120 0 cdsGetFileSize
PUBLIC 33160 0 cdsFileIsDirectory
PUBLIC 331b0 0 cdsFileIsLink
PUBLIC 331f0 0 cdsGetFileSizeInStatbuf
PUBLIC 33200 0 cdsGetTimestampInStatbuf
PUBLIC 33210 0 cdsReadSymLink
PUBLIC 33250 0 cdsBuildDirPath
PUBLIC 33360 0 nmpIsLegalLibraryUnix
PUBLIC 33410 0 nmpIdentToLibraryUnix
PUBLIC 33650 0 nmpLibraryUnixToIdent
PUBLIC 338b0 0 nmpIsLegalName
PUBLIC 338f0 0 nmpMapName
PUBLIC 33980 0 nmpMapper
PUBLIC 339f0 0 nmpGetNameToIdentFunc
PUBLIC 33a10 0 nmpGetIdentToNameFunc
PUBLIC 33a30 0 nmpGetIsLegalFunc
PUBLIC 33a50 0 nmpGetAllFuncs
PUBLIC 33ad0 0 nmpIdentCmp
PUBLIC 33bd0 0 nmpIdentHash
PUBLIC 33c40 0 nmpAllocHandle
PUBLIC 33f70 0 nmpGetHandle
PUBLIC 34530 0 nmpFreeHandle
PUBLIC 34550 0 nmpPathMapper
PUBLIC 346f0 0 nmpPathMapperEx
PUBLIC 34890 0 nmpGetHandleDefaults
PUBLIC 34b30 0 nmpPathGenStart
PUBLIC 34b40 0 nmpPathGenNext
PUBLIC 34c60 0 nmpPathGetLocation
PUBLIC 34ca0 0 nmpPathGetLastLocation
PUBLIC 34d50 0 nmpPathRemoveFromLocation
PUBLIC 35040 0 nmpPathSetLocation
PUBLIC 350a0 0 nmpPathGetIndex
PUBLIC 35130 0 nmpPathGetRange
PUBLIC 35230 0 nmpPathGetStepRange
PUBLIC 35370 0 nmpPathGetRepeat
PUBLIC 35400 0 nmpPathGetLib
PUBLIC 354a0 0 nmpPathGetFlag
PUBLIC 35530 0 nmpFreePath
PUBLIC 356b0 0 nmpCreatePath
PUBLIC 357a0 0 nmpPathRemoveIndex
PUBLIC 35830 0 nmpPathRemoveLevel
PUBLIC 35930 0 nmpiGetNewPath
PUBLIC 359e0 0 nmpPathAddListEnd
PUBLIC 35a80 0 nmpPathAddListStart
PUBLIC 35b20 0 nmpPathAddList
PUBLIC 35bc0 0 nmpPathAddIdent
PUBLIC 35cb0 0 nmpPathAddTopIdent
PUBLIC 35dc0 0 nmpPathAddRepeat
PUBLIC 35f00 0 nmpPathAddIndex
PUBLIC 36040 0 nmpPathAddLib
PUBLIC 361d0 0 nmpPathAddRange
PUBLIC 363a0 0 nmpPathAddStepRange
PUBLIC 365d0 0 nmpiPathAdd
PUBLIC 36630 0 nmpiScanVlog
PUBLIC 366d0 0 nmpiScanCDBA
PUBLIC 367e0 0 nmpiScanVHDL
PUBLIC 36890 0 nmpPathGetIdent
PUBLIC 37400 0 nmpPathGetString
PUBLIC 37910 0 nmpiScanGenesis
PUBLIC 37990 0 nmpiScanFlatGenesis
PUBLIC 379f0 0 nmpiPrevItem
PUBLIC 37a60 0 nmpiScanSpectreHDL
PUBLIC 37ae0 0 nmpiScanSpectre
PUBLIC 37b50 0 nmpiScanLef
PUBLIC 37bd0 0 nmpiScanSdf
PUBLIC 37c50 0 nmpiScanSpef
PUBLIC 37cd0 0 nmpiScanSpf
PUBLIC 37d50 0 nmpiScanGcf
PUBLIC 37dd0 0 nmpiScanDef
PUBLIC 37e50 0 nmpiScanSpice
PUBLIC 37eb0 0 nmpAllocRing
PUBLIC 37fd0 0 nmpFreeRing
PUBLIC 38030 0 nmpNewIdent
PUBLIC 38100 0 nmpNewString
PUBLIC 381b0 0 nmpToLowerCopy
PUBLIC 38220 0 nmpTableSearch
PUBLIC 38310 0 nmpToPoundHex
PUBLIC 38330 0 nmpFromPoundHex
PUBLIC 383c0 0 nmpAllLower
PUBLIC 38410 0 nmpIsForce
PUBLIC 38430 0 nmpSkipForce
PUBLIC 38460 0 nmpSetMapState
PUBLIC 38480 0 nmpGetMapState
PUBLIC 385c0 0 nmpIsLegalSdf
PUBLIC 386c0 0 nmpIdentToSdfWithHandle
PUBLIC 38a40 0 nmpIdentToSdf
PUBLIC 38a50 0 nmpSdfToIdentWithHandle
PUBLIC 38d70 0 nmpSdfToIdent
PUBLIC 38d80 0 nmpIsLegalSpf
PUBLIC 38e60 0 nmpIdentToSpfWithHandle
PUBLIC 39170 0 nmpIdentToSpf
PUBLIC 39180 0 nmpSpfToIdentWithHandle
PUBLIC 39440 0 nmpSpfToIdent
PUBLIC 39450 0 nmpVerifySpectreKeywords
PUBLIC 39a80 0 nmpIsSpectreKeyword
PUBLIC 39e60 0 nmpIsLegalSpectre
PUBLIC 39f90 0 nmpIdentToSpectre
PUBLIC 3a670 0 nmpSpectreToIdent
PUBLIC 3a8d0 0 nmpVerifySpectreHDLKeywords
PUBLIC 3aaf0 0 nmpIsSpectreHDLKeyword
PUBLIC 3ade0 0 nmpIsLegalSpectreHDL
PUBLIC 3ae80 0 nmpSpectreHDLToIdent
PUBLIC 3af20 0 nmpIdentToSpectreHDL
PUBLIC 3b180 0 nmpIsLegalSpef
PUBLIC 3b280 0 nmpIdentToSpefWithHandle
PUBLIC 3b600 0 nmpIdentToSpef
PUBLIC 3b610 0 nmpSpefToIdentWithHandle
PUBLIC 3b930 0 nmpSpefToIdent
PUBLIC 3b940 0 nmpIdentToSpice
PUBLIC 3bef0 0 nmpIsLegalSpice
PUBLIC 3bf10 0 nmpSpiceToIdent
PUBLIC 3bf80 0 nmpVerifySpiceKeywords
PUBLIC 3c1b0 0 nmpIsSpiceKeyword
PUBLIC 3c620 0 nmpVerifyVerilogKeywords
PUBLIC 3c840 0 nmpIsVerilogKeyword
PUBLIC 3cb30 0 nmpIsLegalVerilog
PUBLIC 3cbd0 0 nmpVerilogToIdent
PUBLIC 3cc70 0 nmpIdentToVerilog
PUBLIC 3d0c0 0 nmpVerifyVerilogAMSKeywords
PUBLIC 3d2f0 0 nmpIsVerilogAMSKeyword
PUBLIC 3d610 0 nmpIsLegalVerilogAMS
PUBLIC 3d6b0 0 nmpVerilogAMSToIdent
PUBLIC 3d750 0 nmpIdentToVerilogAMS
PUBLIC 3d9b0 0 nmpVerifyVHDLKeywords
PUBLIC 3dbc0 0 nmpSetVHDLMode
PUBLIC 3dbd0 0 nmpIsVHDLKeyword
PUBLIC 3e000 0 nmpIsLegalVHDL
PUBLIC 3e0d0 0 nmpIdentToVHDL
PUBLIC 3e710 0 nmpVHDLToIdent
PUBLIC 3e780 0 nmpVerifyVHDL87Keywords
PUBLIC 3e990 0 nmpIsVHDL87Keyword
PUBLIC 3ed10 0 nmpIsLegalVHDL87
PUBLIC 3ede0 0 nmpIdentToVHDL87
PUBLIC 3f420 0 nmpVHDL87ToIdent
PUBLIC 3f490 0 nmpVerifyVHDLAMSKeywords
PUBLIC 3f6b0 0 nmpIsVHDLAMSKeyword
PUBLIC 3fa50 0 nmpIsLegalVHDLAMS
PUBLIC 3fb20 0 nmpIdentToVHDLAMS
PUBLIC 40160 0 nmpVHDLAMSToIdent
PUBLIC 40290 0 nmpIsLegal44CDBA
PUBLIC 402e0 0 nmpIdentToEscCDBA
PUBLIC 40570 0 nmpIsLegalEscCDBA
PUBLIC 40620 0 nmpIdentTo44CDBA
PUBLIC 408c0 0 nmp44CDBAToIdent
PUBLIC 40ab0 0 nmpEscCDBAToIdent
PUBLIC 40e00 0 nmpIsLegalCDBA
PUBLIC 40e50 0 nmpIdentToCDBA
PUBLIC 40e60 0 nmpCDBAToIdent
PUBLIC 40e70 0 nmpCDBAFlatToCDBA
PUBLIC 410b0 0 nmpCDBAToCDBAFlat
PUBLIC 411b0 0 nmpIsLegalDef
PUBLIC 412b0 0 nmpVerifyDefKeywords
PUBLIC 414d0 0 nmpIsDefKeyword
PUBLIC 417b0 0 nmpIdentToDefWithHandle
PUBLIC 41b90 0 nmpIdentToDef
PUBLIC 41ba0 0 nmpDefToIdentWithHandle
PUBLIC 41f00 0 nmpDefToIdent
PUBLIC 41f10 0 nmpIsLegalFlatGenesis
PUBLIC 41fe0 0 nmpFlatGenesisToIdent
PUBLIC 42220 0 nmpIdentToFlatGenesis
PUBLIC 424c0 0 nmpIsLegalGcf
PUBLIC 425c0 0 nmpIdentToGcfWithHandle
PUBLIC 42920 0 nmpIdentToGcf
PUBLIC 42930 0 nmpGcfToIdentWithHandle
PUBLIC 42c30 0 nmpGcfToIdent
PUBLIC 42c40 0 nmpGetSpaceNames
PUBLIC 42c50 0 nmpGetAllSpaceNames
PUBLIC 42c60 0 nmpGetSpaceByName
PUBLIC 42fc0 0 nmpIdentToGenesis
PUBLIC 431f0 0 nmpIsLegalGenesis
PUBLIC 432e0 0 nmpGenesisToIdent
PUBLIC 434e0 0 nmpIsLegalIdent
PUBLIC 43520 0 nmpIsLegalLef
PUBLIC 43690 0 nmpVerifyLefKeywords
PUBLIC 438c0 0 nmpIsLefKeyword
PUBLIC 43bc0 0 nmpIdentToLefWithHandle
PUBLIC 43fa0 0 nmpIdentToLef
PUBLIC 43fb0 0 nmpLefToIdentWithHandle
PUBLIC 44310 0 nmpLefToIdent
PUBLIC 444a0 0 nmpIsLegalLibraryNT
PUBLIC 445b0 0 nmpIdentToLibraryNT
PUBLIC 44b10 0 nmpLibraryNTToIdent
PUBLIC 44c70 0 nmpParseCDBA
PUBLIC 45ea0 0 nmpParseVHDLGeneric
PUBLIC 46e80 0 nmpParseVHDL
PUBLIC 46e90 0 nmpParseVHDL87
PUBLIC 46eb0 0 nmpParseVHDLAMS
PUBLIC 46ed0 0 nmpParseVerilogGeneric
PUBLIC 47850 0 nmpParseVerilog
PUBLIC 47860 0 nmpParseVerilogAMS
PUBLIC 47880 0 nmpParseSpectre
PUBLIC 481f0 0 nmpParseSpectreHDL
PUBLIC 48b60 0 nmpParseFlatGenesis
PUBLIC 49120 0 nmpParseGenesis
PUBLIC 497e0 0 nmpParseLef
PUBLIC 49f10 0 nmpParseDef
PUBLIC 4a640 0 nmpParseSdf
PUBLIC 4ace0 0 nmpParseSpf
PUBLIC 4b380 0 nmpParseSpef
PUBLIC 4ba20 0 nmpParseGcf
PUBLIC 4c0c0 0 nmpParseSpice
PUBLIC 51cd0 0 nmpPathToCDBAEx
PUBLIC 52990 0 nmpPathToCDBA
PUBLIC 529a0 0 nmpPathToVHDLEx
PUBLIC 53310 0 nmpPathToVHDL
PUBLIC 53320 0 nmpPathToFlatGenesisEx
PUBLIC 53c70 0 nmpPathToFlatGenesis
PUBLIC 53c80 0 nmpPathToGenesisEx
PUBLIC 545d0 0 nmpPathToGenesis
PUBLIC 545e0 0 nmpPathToLefEx
PUBLIC 54fe0 0 nmpPathToLef
PUBLIC 54ff0 0 nmpPathToDefEx
PUBLIC 559f0 0 nmpPathToDef
PUBLIC 55a00 0 nmpPathToSdfEx
PUBLIC 563b0 0 nmpPathToSdf
PUBLIC 563c0 0 nmpPathToSpfEx
PUBLIC 56d70 0 nmpPathToSpf
PUBLIC 56d80 0 nmpPathToSpefEx
PUBLIC 57730 0 nmpPathToSpef
PUBLIC 57740 0 nmpPathToGcfEx
PUBLIC 580f0 0 nmpPathToGcf
PUBLIC 58100 0 nmpPathToSpiceEx
PUBLIC 58a20 0 nmpPathToSpice
PUBLIC 58a30 0 nmpPathToVerilogEx
PUBLIC 593c0 0 nmpPathToVerilog
PUBLIC 593d0 0 nmpPathToSpectreEx
PUBLIC 59d00 0 nmpPathToSpectre
PUBLIC 59d10 0 nmpPathToSpectreHDLEx
PUBLIC 5a640 0 nmpPathToSpectreHDL
PUBLIC 5a650 0 nmpIdentToNVerilog
PUBLIC 5a850 0 nmpIsLegalNVerilog
PUBLIC 5a8e0 0 nmpNVerilogToIdent
PUBLIC 5aab0 0 nmpIdentToPrint
PUBLIC 5ac90 0 nmpIsLegalPrint
PUBLIC 5ad20 0 nmpPrintToIdent
PUBLIC 5b0f0 0 nmpVerifySysVerilogKeywords
PUBLIC 5b310 0 nmpIsSysVerilogKeyword
PUBLIC 5b620 0 nmpIsLegalSysVerilog
PUBLIC 5b6c0 0 nmpSysVerilogToIdent
PUBLIC 5b760 0 nmpIdentToSysVerilog
PUBLIC 5bbb0 0 nmpVerifyVerilogAKeywords
PUBLIC 5bde0 0 nmpIsVerilogAKeyword
PUBLIC 5c100 0 nmpIsLegalVerilogA
PUBLIC 5c1a0 0 nmpVerilogAToIdent
PUBLIC 5c240 0 nmpIdentToVerilogA
PUBLIC 5c4a0 0 nmpIdentToAscii
PUBLIC 5c620 0 nmpIsLegalAscii
PUBLIC 5c6a0 0 nmpAsciiToIdent
PUBLIC 5c840 0 nmpIdentToConcept
PUBLIC 5cd30 0 nmpIsLegalConcept
PUBLIC 5cec0 0 nmpConceptToIdent
PUBLIC 5d310 0 nmpIdentToEdif200
PUBLIC 5d4e0 0 nmpIsLegalEdif200
PUBLIC 5d550 0 nmpEdif200ToIdent
PUBLIC 5d720 0 nmpIdentToEdif300
PUBLIC 5d8f0 0 nmpIsLegalEdif300
PUBLIC 5d960 0 nmpEdif300ToIdent
PUBLIC 5db30 0 cdsHashAllocTable
PUBLIC 5dc70 0 cdsHashFreeTable
PUBLIC 5dcd0 0 cdsHashDouble
PUBLIC 5dcf0 0 cdsHashDelete
PUBLIC 5dde0 0 cdsHashProbe
PUBLIC 5de80 0 cdsHashRebuildTable
PUBLIC 5dfd0 0 cdsHashCreate
PUBLIC 5e0c0 0 cdsHashReplace
PUBLIC 5e210 0 cdsHashCreateAfterProbe
PUBLIC 5e270 0 cdsHashStartGen
PUBLIC 5e2c0 0 cdsHashGen
PUBLIC 5e340 0 cdsHashStopGen
PUBLIC 5e360 0 cdsHashString
PUBLIC 5e390 0 cdsHashString32
PUBLIC 5e3c0 0 cdsHashStringLen
PUBLIC 5ea30 0 cdsInitDone
PUBLIC 5ea40 0 cdsInit
PUBLIC 5eab0 0 cdsInitNonCDSApp
PUBLIC 5eb20 0 cmnNoInstallRootRequired
PUBLIC 5eb40 0 cmnGetInstallRootRequired
PUBLIC 5eb50 0 cmnSetInstallRootRequired
PUBLIC 5eb60 0 cdsProcMinusVersionArg
PUBLIC 5ebc0 0 cdsPlat
PUBLIC 5ebd0 0 cdsGetLogin
PUBLIC 5ece0 0 cdsGetLoginInBuf
PUBLIC 5f8d0 0 cdsInstallRootsOpen
PUBLIC 5f9c0 0 cdsInstallRootsRead
PUBLIC 5f9d0 0 cdsToolsPathsRead
PUBLIC 5f9f0 0 cdsGetAllInstallRoots
PUBLIC 5fc20 0 cdsGetInstallRootWithPath
PUBLIC 5fe40 0 cdsGetInstallRootFromFilePath
PUBLIC 5ff30 0 cdsGetInstallRootFromPath
PUBLIC 60090 0 cdsIsCadenceHier
PUBLIC 60110 0 cdsGetInstallRoot
PUBLIC 601e0 0 cdsGetInstallRootInBuf
PUBLIC 60290 0 cdsGetInstPath
PUBLIC 60420 0 cdsGetInstPathInBuf
PUBLIC 60570 0 cdsGetToolsPath
PUBLIC 60640 0 cdsGetToolsPathInBuf
PUBLIC 60b10 0 cds_mkstemp
PUBLIC 60b40 0 cds_mktemp
PUBLIC 60b70 0 cds_tempnam
PUBLIC 60c40 0 cdsCanonicalizeDirSep
PUBLIC 60c50 0 cdsIsRooted
PUBLIC 60c60 0 cdsIsRoot
PUBLIC 60cc0 0 cdsIsUNCRoot
PUBLIC 60cd0 0 cdsGetWorkingDir
PUBLIC 60d30 0 cdsiMkRootedPath
PUBLIC 60e30 0 cdsMkRootedPath
PUBLIC 61060 0 cdsGetTmpDir
PUBLIC 61140 0 cdsMkUniqueFilePath
PUBLIC 61180 0 cds_fgets
PUBLIC 611f0 0 cdsNtToUnixLine
PUBLIC 61220 0 cdsGetFilesysCaseSensitivity
PUBLIC 61490 0 cdsiFileExistsExecutable
PUBLIC 614d0 0 cdsiPathExists
PUBLIC 61500 0 cdsiCleanupRootedPath
PUBLIC 61600 0 cdsFindExecInPath
PUBLIC 618e0 0 cdsFileWritable
PUBLIC 619e0 0 cdsFlSrchPathOpen
PUBLIC 619f0 0 cdsFlSrchPathClose
PUBLIC 61a00 0 cdsFlSrchPathRead
PUBLIC 61a80 0 cdsFlSrchIsMatchingDirent
PUBLIC 61c00 0 cdsFlSrchPathForDirent
PUBLIC 622d0 0 cdsFlSrchPathForExe
PUBLIC 623c0 0 cdsFlSrchHasDirSep
PUBLIC 624a0 0 csfDefaultErrMsgHandler
PUBLIC 63540 0 csfSetCwdToSearchList
PUBLIC 635a0 0 csfInsertToSearchList
PUBLIC 637a0 0 csfInitialize
PUBLIC 638a0 0 csfSearchGroup
PUBLIC 63a20 0 csfSearchDirList
PUBLIC 63b70 0 csfSearchEx
PUBLIC 63d10 0 csfGetPathToSetupLocFile
PUBLIC 63db0 0 csfSearch
PUBLIC 63ea0 0 csfFullSearchDirList
PUBLIC 640b0 0 csfFullSearch
PUBLIC 64140 0 csfReleaseHandle
PUBLIC 64260 0 csfGetErrorMsg
PUBLIC 64280 0 csfSetDebugMsgHandler
PUBLIC 64290 0 csfFindWritableEx
PUBLIC 64550 0 csfFindWritable
PUBLIC 64560 0 csfGetIncludeFilePath
PUBLIC 64e10 0 csfUseCsfFor
PUBLIC 64fe0 0 csfConvertPathNotThereEx
PUBLIC 65070 0 csfConvertPathEx
PUBLIC 65120 0 csfConvertPath
PUBLIC 651d0 0 csfConvertPathNotThere
PUBLIC 65280 0 cdsAssertErrString
PUBLIC 65300 0 cdsAssertInstallEmitter
PUBLIC 65310 0 cdsAssertEmit
PUBLIC 65320 0 cdsAssertSetAction
PUBLIC 65330 0 cdsAssertGetAction
PUBLIC 65340 0 cdsAssertInstallHandler
PUBLIC 65360 0 cdsAssertSimpleInstallHandler
PUBLIC 65370 0 cdsAssertSimpleInstallRelHandler
PUBLIC 65390 0 cdsAssertUninstallRelHandler
PUBLIC 653b0 0 cdsAssertFilterInsert
PUBLIC 65540 0 cdsAssertFilterRemove
PUBLIC 655d0 0 cdsAssertFilterCountReset
PUBLIC 655f0 0 cdsAssertGlobalHandler
PUBLIC 65600 0 cdsAssertHandler
PUBLIC 656b0 0 cdsReleaseAssertHandler
PUBLIC 65770 0 cdsFatalAssertHandler
PUBLIC 65810 0 cdsAssertDefaultEmit
PUBLIC 65890 0 cdsAssertDefaultHandler
PUBLIC 66640 0 cdsInterpolate
PUBLIC 67970 0 gzopen
PUBLIC 67980 0 gzdopen
PUBLIC 679d0 0 gzsetparams
PUBLIC 67a80 0 gzread
PUBLIC 68310 0 gzgetc
PUBLIC 68bd0 0 gzungetc
PUBLIC 68c30 0 gzgets
PUBLIC 695e0 0 gzwrite
PUBLIC 696f0 0 gzprintf
PUBLIC 698c0 0 gzputc
PUBLIC 699e0 0 gzputs
PUBLIC 69b00 0 gzflush
PUBLIC 69b60 0 gzseek
PUBLIC 69f70 0 gzrewind
PUBLIC 6a010 0 gztell
PUBLIC 6a020 0 gzeof
PUBLIC 6a060 0 gzdirect
PUBLIC 6a080 0 gzclose
PUBLIC 6a130 0 gzerror
PUBLIC 6a240 0 gzclearerr
PUBLIC 6a3b0 0 inflateReset
PUBLIC 6a450 0 inflatePrime
PUBLIC 6a4a0 0 inflateInit2_
PUBLIC 6a650 0 inflateInit_
PUBLIC 6a7b0 0 inflate
PUBLIC 6c7e0 0 inflateEnd
PUBLIC 6c850 0 inflateSetDictionary
PUBLIC 6c950 0 inflateGetHeader
PUBLIC 6c980 0 inflateSync
PUBLIC 6cc60 0 inflateSyncPoint
PUBLIC 6cc90 0 inflateCopy
PUBLIC 6cef0 0 inflate_table
PUBLIC 6d9e0 0 zlibVersion
PUBLIC 6d9f0 0 zlibCompileFlags
PUBLIC 6da00 0 zError
PUBLIC 6da20 0 zcalloc
PUBLIC 6da30 0 zcfree
PUBLIC 6da40 0 adler32
PUBLIC 6e0c0 0 adler32_combine
PUBLIC 6e1a0 0 get_crc_table
PUBLIC 6e1b0 0 crc32
PUBLIC 6e630 0 crc32_combine
PUBLIC 6fc70 0 deflateSetDictionary
PUBLIC 6fdc0 0 deflateReset
PUBLIC 6ff40 0 deflateSetHeader
PUBLIC 6ff70 0 deflatePrime
PUBLIC 6ffb0 0 deflateTune
PUBLIC 6ffe0 0 deflateBound
PUBLIC 70020 0 deflate
PUBLIC 70f60 0 deflateParams
PUBLIC 71080 0 deflateEnd
PUBLIC 71180 0 deflateInit2_
PUBLIC 71460 0 deflateInit_
PUBLIC 716a0 0 deflateCopy
PUBLIC 718d0 0 inflate_fast
PUBLIC 73de0 0 _tr_init
PUBLIC 73ee0 0 _tr_stored_block
PUBLIC 74080 0 _tr_align
PUBLIC 74360 0 _tr_flush_block
PUBLIC 74b90 0 _tr_tally
PUBLIC 74c40 0 compress2
PUBLIC 74d00 0 compress
PUBLIC 74dc0 0 compressBound
PUBLIC 74de0 0 simple_string_create_general
PUBLIC 74e60 0 simple_string_create
PUBLIC 74e70 0 simple_string_clear
PUBLIC 74e80 0 simple_string_destroy
PUBLIC 74ea0 0 simple_string_cat
PUBLIC 74f40 0 simple_string_n_cat
PUBLIC 74ff0 0 simple_string_cpy
PUBLIC 75000 0 simple_string_str
PUBLIC 75050 0 isOverflow
PUBLIC 75060 0 gvec_alloc
PUBLIC 750f0 0 gvec_reset
PUBLIC 75120 0 gadd_element
PUBLIC 75200 0 gvec_data
PUBLIC 75210 0 gvec_elements
PUBLIC 75220 0 gvec_size
PUBLIC 75230 0 gremove_last_element
PUBLIC 75250 0 gvec_free
PUBLIC 75280 0 gvec_sort
PUBLIC 752b0 0 gvector_capacity
PUBLIC 752c0 0 gvector_size
PUBLIC 752d0 0 gvector_empty
PUBLIC 752f0 0 gvector_create_general
PUBLIC 753c0 0 gvector_create
PUBLIC 753d0 0 gvector_reserve
PUBLIC 75440 0 gvector_append
PUBLIC 754d0 0 gvector_get
PUBLIC 75520 0 gvector_print_integers
PUBLIC 75570 0 gvector_get_last
PUBLIC 75580 0 gvector_contains
PUBLIC 755d0 0 gvector_set
PUBLIC 75620 0 gvector_delete
PUBLIC 756f0 0 gvector_delete_last
PUBLIC 75750 0 gvector_destroy
PUBLIC 757b0 0 gvector_resize
PUBLIC 758b0 0 gvector_insert
PUBLIC 759c0 0 gvector_sort
PUBLIC 75a00 0 gvector_partial_sort
PUBLIC 75a70 0 default_malloc
PUBLIC 75ad0 0 default_free
PUBLIC 75b00 0 svenlib_register_path_for_bpad
PUBLIC 75c20 0 svenlib_register_cbpad
PUBLIC 76490 0 ld_check_for_dynload_with_local_bind
PUBLIC 764b0 0 ld_stop_dyn_syms_processing
PUBLIC 764c0 0 cds_no_gcc
PUBLIC 76550 0 slib_set_shared_lib_symcheck_flag
PUBLIC 76560 0 ld_check_redux_install
PUBLIC 76580 0 ld_dyn_lookup
PUBLIC 766d0 0 ld_dyn_unload
PUBLIC 76870 0 ld_dyn_syminfo
PUBLIC 76a30 0 findExeName
PUBLIC 76c20 0 ld_dyn_syminfof
PUBLIC 76cf0 0 ld_dyn_libinfo
PUBLIC 76d70 0 ld_fix_exe_ptr
PUBLIC 76d80 0 ld_create_shared_object_cpp
PUBLIC 770d0 0 ld_create_shared_object
PUBLIC 772c0 0 ld_find_exe_name
PUBLIC 772f0 0 ld_exe_name
PUBLIC 77300 0 ld_stack_array
PUBLIC 77420 0 ld_dyn_get_env
PUBLIC 776d0 0 get_text_section_info
PUBLIC 779f0 0 ld_get_lib_info
PUBLIC 77c30 0 ld_exec_find_syminfo
PUBLIC 77de0 0 ld_dyn_get_lib_list
PUBLIC 78220 0 ld_exec_process_symbols
PUBLIC 787a0 0 ld_dumpStack
PUBLIC 78cd0 0 ld_exec_save_sym
PUBLIC 78d60 0 ld_populate_pcsym_hash
PUBLIC 78df0 0 ld_symkeep_header
PUBLIC 79230 0 ld_symkeep_translate
PUBLIC 79430 0 ld_create_symcheck_hash
PUBLIC 79580 0 ld_check_shared_symbols
PUBLIC 7a140 0 ld_dyn_load
PUBLIC 7a150 0 ld_find_lib
PUBLIC 7a320 0 ld_dyn_load_deferred
PUBLIC 7a640 0 svio_set_string_length
PUBLIC 7a650 0 svio_register_protection
PUBLIC 7a670 0 svio_get_filename
PUBLIC 7a6a0 0 svio_mt_safe_init
PUBLIC 7a6e0 0 svio_lock
PUBLIC 7a710 0 svio_unlock
PUBLIC 7a740 0 svio_fdinit_aux
PUBLIC 7a830 0 svio_fdinit
PUBLIC 7a890 0 svio_std_init
PUBLIC 7a960 0 svio_feof
PUBLIC 7a9e0 0 svio_lookup
PUBLIC 7aa90 0 svio_add_timeout_cbk
PUBLIC 7ab10 0 svio_remove_timeout_cbk
PUBLIC 7abd0 0 svio_push_aux
PUBLIC 7acf0 0 svio_push
PUBLIC 7ae20 0 svio_force_newline
PUBLIC 7ae80 0 svio_purge_pushed
PUBLIC 7af10 0 svio_stdin_push
PUBLIC 7afe0 0 svio_fill_simlogname
PUBLIC 7aff0 0 svio_remove_for_restart_aux
PUBLIC 7b0f0 0 svio_remove_for_restart
PUBLIC 7b140 0 svio_close_aux
PUBLIC 7b2f0 0 svio_custom_std_init_aux
PUBLIC 7b4b0 0 svio_custom_std_init
PUBLIC 7b520 0 svio_open_aux
PUBLIC 7b840 0 svio_open
PUBLIC 7b8a0 0 svio_close
PUBLIC 7b8f0 0 svio_filep
PUBLIC 7b910 0 svio_custom_device
PUBLIC 7b960 0 svio_ispushed
PUBLIC 7b970 0 svio_current_logfile
PUBLIC 7b980 0 svio_register_reinit
PUBLIC 7b990 0 svio_register_file
PUBLIC 7ba40 0 svio_init
PUBLIC 7bc30 0 svio_open_keyfile
PUBLIC 7bd00 0 svio_reinit
PUBLIC 7bef0 0 svio_unregister_file_aux
PUBLIC 7bf50 0 svio_unregister_file
PUBLIC 7bff0 0 svio_release_all
PUBLIC 7c0e0 0 svio_is_registered_aux
PUBLIC 7c150 0 svio_is_registered
PUBLIC 7c1f0 0 svio_new_logfile_aux
PUBLIC 7c320 0 svio_set_new_logfile_aux
PUBLIC 7c500 0 svio_new_logfile
PUBLIC 7d1a0 0 svio_write
PUBLIC 7d200 0 svio_stderr_write
PUBLIC 7d270 0 svio_stdout_write
PUBLIC 7d2e0 0 svio_printf
PUBLIC 7d3d0 0 svio_stdout_write_char
PUBLIC 7d440 0 svio_vprintf
PUBLIC 7d4b0 0 svio_stdout_write_log
PUBLIC 7d530 0 svio_stdout_write_key
PUBLIC 7d5b0 0 svio_printf_log
PUBLIC 7d6d0 0 svio_printf_stdout
PUBLIC 7d840 0 svio_stdout_write_stdout
PUBLIC 7d950 0 svio_tcl_stdout_write
PUBLIC 7d9c0 0 svio_vfprintf
PUBLIC 7da30 0 svio_fprintf
PUBLIC 7db20 0 svio_formatted_write_aux
PUBLIC 7dda0 0 svio_formatted_write
PUBLIC 7de20 0 svio_read_aux
PUBLIC 7e4a0 0 svio_read
PUBLIC 7e500 0 svio_readline_aux
PUBLIC 7e710 0 svio_readline
PUBLIC 7e770 0 svio_set_new_logfile
PUBLIC 7e9d0 0 svio_flush
PUBLIC 7ea30 0 svio_flush_logfile
PUBLIC 7ea50 0 svio_replace_logfile
PUBLIC 7ead0 0 svio_append_stop_execfile_info_aux
PUBLIC 7edd0 0 svio_append_stop_execfile_info
PUBLIC 7ee20 0 svio_printf_log_or_stdout
PUBLIC 7ef30 0 ldaddlibHash
PUBLIC 7f050 0 ldlookuphandleHash
PUBLIC 7f090 0 ldlookuplibHash
PUBLIC 7f1d0 0 ldremovelibHash
PUBLIC 7f480 0 bub_report_ignr_flock_acq_fail
PUBLIC 7f500 0 bub_open
PUBLIC 7f7e0 0 bub_flush
PUBLIC 7f900 0 bub_scramble
PUBLIC 7f940 0 bub_sync
PUBLIC 7f970 0 bub_tell
PUBLIC 7f9f0 0 bub_seek
PUBLIC 7fbe0 0 bub_stat
PUBLIC 7fc30 0 bub_isrofs
PUBLIC 7fc60 0 bub_isrofile
PUBLIC 7fca0 0 bub_read
PUBLIC 80120 0 bub_getc
PUBLIC 801a0 0 bub_gets
PUBLIC 80230 0 bub_getsx
PUBLIC 802c0 0 bub_write
PUBLIC 80960 0 bub_putc
PUBLIC 809d0 0 bub_puts
PUBLIC 80a10 0 bub_putsx
PUBLIC 80a50 0 bub_auto_close
PUBLIC 80a80 0 bub_shrink
PUBLIC 80b10 0 bub_set_ingr_flock_failure
PUBLIC 80b50 0 bub_lock
PUBLIC 81030 0 bub_close
PUBLIC 81300 0 bub_rsize
PUBLIC 81320 0 bub_move
PUBLIC 815d0 0 bub_copy
PUBLIC 81800 0 xlm_ns::perm_mkstring_ns::large_str_hash_fn(void*)
PUBLIC 81810 0 xlm_ns::perm_mkstring_ns::str_cmp_fn(void*, void*)
PUBLIC 81840 0 xlm_ns::perm_mkstring_ns::large_str_cmp_fn(void*, void*)
PUBLIC 81860 0 xlm_ns::perm_mkstring_ns::perm_mkstring_destroy_cache()
PUBLIC 81890 0 perm_init
PUBLIC 818a0 0 perm_mkstring
PUBLIC 81ae0 0 perm_mkstring_cached
PUBLIC 81e30 0 perm_find_string
PUBLIC 82000 0 perm_free_on_exit
PUBLIC 82070 0 str_free_fn
PUBLIC 82080 0 str_alloc_fn
PUBLIC 820a0 0 xlm_ns::string_table_ns::str_cmp_fn(void*, void*)
PUBLIC 820d0 0 xlm_ns::string_table_ns::string_table::insert(char const*, unsigned long)
PUBLIC 82140 0 xlm_ns::string_table_ns::string_table::insert(char const*)
PUBLIC 82180 0 xlm_ns::string_table_ns::string_table::find(char const*, unsigned long)
PUBLIC 82190 0 xlm_ns::string_table_ns::string_table::find(char const*)
PUBLIC 821d0 0 xlm_ns::string_table_ns::string_table::string_table(char*, unsigned long)
PUBLIC 82290 0 xlm_ns::string_table_ns::string_table::string_table(unsigned long)
PUBLIC 82310 0 xlm_ns::string_table_ns::string_table::~string_table()
PUBLIC 82580 0 salloc_resetcall
PUBLIC 825a0 0 salloc_showcalldiff
PUBLIC 825d0 0 slib_zmem
PUBLIC 825e0 0 ha_roundup
PUBLIC 825f0 0 smalloc
PUBLIC 82660 0 salloc
PUBLIC 82760 0 sfree
PUBLIC 827b0 0 safefree
PUBLIC 827d0 0 salloc_big
PUBLIC 82800 0 sfree_big
PUBLIC 82820 0 mkstring
PUBLIC 82840 0 ha_init
PUBLIC 828b0 0 ha_context_init
PUBLIC 828e0 0 ha_reset
PUBLIC 829e0 0 ha_mark
PUBLIC 82a20 0 ha_release
PUBLIC 82b70 0 ha_free
PUBLIC 82ca0 0 ha_free_munmap
PUBLIC 82dc0 0 ha_size
PUBLIC 82df0 0 ha_compute_ph_context_size_div_8
PUBLIC 82e60 0 ha_init3
PUBLIC 830b0 0 ha_context_custom_init
PUBLIC 830e0 0 ha_init3_mmap
PUBLIC 83350 0 ha_context_custom_init_mmap
PUBLIC 838f0 0 ha_context_free_size
PUBLIC 83990 0 ha_context_size
PUBLIC 84270 0 ha_merge_contexts
PUBLIC 84320 0 ha_unmerge_contexts
PUBLIC 843c0 0 ha_alloc_long_aligned
PUBLIC 84730 0 ha_alloc
PUBLIC 84ec0 0 ha_alloc_mmap
PUBLIC 85620 0 ha_freesize
PUBLIC 856d0 0 ha_find_pointer_in_context
PUBLIC 85720 0 ha_offset
PUBLIC 85780 0 ha_align
PUBLIC 85a50 0 ha_ptr
PUBLIC 85ac0 0 ha_mkstring
PUBLIC 85b00 0 ha_c2bs
PUBLIC 85c00 0 ha_binsearch
PUBLIC 85cc0 0 mkpstring
PUBLIC 85cd0 0 ha_register_context
PUBLIC 85ce0 0 default_salloc
PUBLIC 85d10 0 default_safefree
PUBLIC 85d40 0 default_sfree
PUBLIC 85d90 0 clean_sexit
PUBLIC 85e00 0 sexit0
PUBLIC 85e90 0 sexit1
PUBLIC 85f50 0 on_sexit3
PUBLIC 85ff0 0 on_sexit
PUBLIC 86000 0 on_sexit3_last
PUBLIC 86010 0 sexit_init
PUBLIC 86050 0 sexit_restart_pid
PUBLIC 86070 0 signal_and_kill_memory_monitor
PUBLIC 86100 0 sexit
PUBLIC 862c0 0 slib_grow_buffer
PUBLIC 86320 0 args_evaluate_name
PUBLIC 865f0 0 args_fix_env_name
PUBLIC 867d0 0 sparse_init_arg_file_2
PUBLIC 87410 0 sparse_init_arg_file
PUBLIC 87420 0 slib_64bit_env_check
PUBLIC 87450 0 slib_64bit_check
PUBLIC 878e0 0 slib_check_util_exit_status
PUBLIC 87a10 0 slib_qualcomm_ius_transition
PUBLIC 87a20 0 slib_set_qualcomm_ius_transition
PUBLIC 87a30 0 slib_set_warn_exe
PUBLIC 87af0 0 slib_init
PUBLIC 87c20 0 slib_get_warn_exe
PUBLIC 87c30 0 slib_is_deprecated_exe
PUBLIC 87c40 0 slib_depr_exe_warn
PUBLIC 87d00 0 spath_add_node_to_spath_amhln_hash_table
PUBLIC 87f40 0 spath_shrink
PUBLIC 881a0 0 spath_access
PUBLIC 88320 0 spath_getcwd
PUBLIC 88350 0 spath_getcwd_rsl
PUBLIC 88380 0 spath_concat
PUBLIC 884a0 0 spath_dirsep_concat
PUBLIC 88650 0 spath_single_str_replace
PUBLIC 887a0 0 spath_retarget_nostat
PUBLIC 88a80 0 spath_unlink
PUBLIC 88d00 0 spath_rmdir
PUBLIC 88de0 0 spath_rmdir_rf
PUBLIC 88f50 0 spath_rmdir_regf
PUBLIC 89080 0 spath_mkdir
PUBLIC 89240 0 spath_fix_dirsep
PUBLIC 89250 0 spath_basename
PUBLIC 896d0 0 spath_dirname
PUBLIC 89850 0 spath_dirname_and_filename
PUBLIC 89880 0 spath_readlink
PUBLIC 898a0 0 spath_isrooted
PUBLIC 898b0 0 spath_absolute
PUBLIC 89c50 0 spath_retarget
PUBLIC 89f50 0 spath_absolute_nl
PUBLIC 8a4e0 0 spath_simplify
PUBLIC 8a7b0 0 spath_simple_abs_dirname
PUBLIC 8a830 0 spath_setcwd
PUBLIC 8ab00 0 spath_chdir
PUBLIC 8ab50 0 spath_simple_abs_basename
PUBLIC 8ab80 0 spath_retarget_wsl
PUBLIC 8ae30 0 spath_bestpath
PUBLIC 8aef0 0 spath_install_root
PUBLIC 8af70 0 nc_install_root
PUBLIC 8af80 0 spath_compare
PUBLIC 8b030 0 spath_compare_ne
PUBLIC 8b0a0 0 spath_clean_tmp_dir
PUBLIC 8b0b0 0 spath_create_tmp_file
PUBLIC 8b240 0 spath_chk_path_in_install
PUBLIC 8b280 0 chk_file_in_libmapdir
PUBLIC 8b420 0 spath_resolve_Env_path
PUBLIC 8b610 0 spath_dir_files
PUBLIC 8b630 0 spath_dir_init
PUBLIC 8b6f0 0 spath_dir_has_file
PUBLIC 8b940 0 spath_dir_finish
PUBLIC 8ba70 0 spath_inc_dir_not_used
PUBLIC 8bb30 0 spath_isDirectory
PUBLIC 8bb60 0 spath_isDirectoryEmpty
PUBLIC 8bc10 0 spath_set_install_dir
PUBLIC 8bfd0 0 spath_init
PUBLIC 8c120 0 spath_simplify_nostat
PUBLIC 8c2b0 0 spath_absolute_nostat
PUBLIC 8c310 0 spath_concat3
PUBLIC 8c3a0 0 spath_read_write_state_file
PUBLIC 8c4e0 0 spath_scandir
PUBLIC 8c4f0 0 ssig_exit
PUBLIC 8c550 0 ssig_interr
PUBLIC 8c650 0 sexecp
PUBLIC 8c9d0 0 sexec
PUBLIC 8c9e0 0 sreinvoke
PUBLIC 8ca10 0 ssystem
PUBLIC 8ca50 0 sys_errmsg
PUBLIC 8ca60 0 ssig_handle
PUBLIC 8cad0 0 ssig_handle_unignored
PUBLIC 8cb70 0 ssig_set_unexpsig_msg
PUBLIC 8cba0 0 ssig_defaults
PUBLIC 8cc50 0 ssig_nt_exception
PUBLIC 8cc60 0 slock
PUBLIC 8ccc0 0 slock_wait
PUBLIC 8cd00 0 slib_cpu_type
PUBLIC 8d1c0 0 stats_get_memory
PUBLIC 8d280 0 stats_get_resident_memory
PUBLIC 8d3c0 0 stats_resident_memory_text
PUBLIC 8d540 0 stats_get_virtual_memory
PUBLIC 8d5e0 0 stats_memory_text
PUBLIC 8d860 0 get_peak_memory_data_perf_analysis
PUBLIC 8d9f0 0 adjusted_stats_memory_text
PUBLIC 8da30 0 stats_memory_to_environment_vars
PUBLIC 8db30 0 stats_memory_report
PUBLIC 8db70 0 stats_cpu_bias
PUBLIC 8dba0 0 stats_cpu_report_thread
PUBLIC 8dd50 0 slib_difftimeofday
PUBLIC 8ddc0 0 slib_gettimeofday
PUBLIC 8dde0 0 stats_init
PUBLIC 8de20 0 stats_cpu_report
PUBLIC 8e010 0 stats_get_cpu_data
PUBLIC 8e290 0 stats_cpu_data_to_environment_vars
PUBLIC 8e340 0 stats_cpu_report_full
PUBLIC 8e3d0 0 stats_get_cpu_data_incremental
PUBLIC 8e490 0 stats_cpu_report_incremental
PUBLIC 8e520 0 slib_wall_clock_time
PUBLIC 8e580 0 slib_ticks
PUBLIC 8e5a0 0 slib_is_win98
PUBLIC 8e5b0 0 slib_rusage
PUBLIC 8e680 0 slib_itoa
PUBLIC 8e6c0 0 slib_dump_proc_hostinfo
PUBLIC 8e6e0 0 slib_dump_proc_maps
PUBLIC 8e7a0 0 slib_dump_proc_cmdline
PUBLIC 8e8a0 0 slib_dumpall_env
PUBLIC 8e8f0 0 slib_dump_debug_info
PUBLIC 8ea70 0 stats_get_walltime
PUBLIC 8ea90 0 stoa
PUBLIC 8ed30 0 stoafree
PUBLIC 8eda0 0 stoacopy
PUBLIC 8ee60 0 stoacopy_efficient
PUBLIC 8ef40 0 stoamatch
PUBLIC 8efc0 0 sym_addr
PUBLIC 8f220 0 alarm_handler
PUBLIC 8f910 0 serror_alloc_tmp_dynamic_buff
PUBLIC 8f940 0 serror_copy_old_tmp_dynamic_buff_to_new_tmp_dynamic_buff
PUBLIC 8fae0 0 serror_realloc_tmp_dynamic_buff_generic
PUBLIC 8fce0 0 serror_realloc_tmp_dynamic_buff
PUBLIC 8fed0 0 serror_realloc_tmp_dynamic_buff_n
PUBLIC 900d0 0 serror_dealloc_tmp_dynamic_buff
PUBLIC 90110 0 serror_register_counter
PUBLIC 90120 0 serror_error_count
PUBLIC 90140 0 serror_update_status
PUBLIC 90160 0 serror_register_callback
PUBLIC 90170 0 serror_no_soft_errors
PUBLIC 901c0 0 errorToWarning
PUBLIC 901f0 0 serror_enable
PUBLIC 90250 0 serror_get_error_code
PUBLIC 902a0 0 serror_chk_err_flag
PUBLIC 90310 0 serror_get_ep_for
PUBLIC 903b0 0 serror_chk_inconsistent_err
PUBLIC 90430 0 serror_max_ep
PUBLIC 90450 0 set_error_info_flag_for_prtdesign
PUBLIC 90460 0 serror_set_all_warn_to_error_flag
PUBLIC 90470 0 serror_change_severity
PUBLIC 90480 0 is_multi_line_buff
PUBLIC 904c0 0 serror_prelf
PUBLIC 904d0 0 serror_set_bpad_status
PUBLIC 904e0 0 csi_init
PUBLIC 90590 0 csi_close
PUBLIC 90600 0 csi_get_error_msg
PUBLIC 90620 0 csi_override_sighandles
PUBLIC 906b0 0 csi_get_new_evidence
PUBLIC 90790 0 csi_set_evidence_inuse
PUBLIC 90830 0 csi_get_max_evidence
PUBLIC 90850 0 csi_is_done
PUBLIC 90890 0 csi_process_register_evidence
PUBLIC 908a0 0 csi_process_stack_evidence
PUBLIC 909c0 0 start_csi_investigation
PUBLIC 91260 0 vserror
PUBLIC 92e30 0 serror_msg
PUBLIC 92ed0 0 serror
PUBLIC 92fb0 0 serror_store_suppress_proc_sm
PUBLIC 930e0 0 serror_process_store_list
PUBLIC 93310 0 serror_ignr_warnmax
PUBLIC 93490 0 serror_severityN
PUBLIC 93730 0 isWarningOff
PUBLIC 937a0 0 serror_at_max_warn
PUBLIC 93820 0 serror_xmallerror_neverwarn_incompat_err
PUBLIC 939c0 0 serror_printf
PUBLIC 93c20 0 serror_set_header
PUBLIC 93ef0 0 serror_set_end_marker
PUBLIC 93f80 0 serror_update_errorcount
PUBLIC 94000 0 serror_report_ignr_flock_acq_fail
PUBLIC 94040 0 csi_sighandler
PUBLIC 94a70 0 serror_store_suppress_proc
PUBLIC 94e60 0 serror_suppress
PUBLIC 95270 0 serror_severityW
PUBLIC 95290 0 serror_undo_err
PUBLIC 955e0 0 serror_severityF
PUBLIC 958e0 0 serror_severityE
PUBLIC 95900 0 undo_severityW
PUBLIC 95920 0 sfatal
PUBLIC 959f0 0 csi_parse_structure
PUBLIC 97230 0 csi_print_evidence
PUBLIC 97d00 0 csi_register_agent
PUBLIC 97d90 0 csi_register_native_agent
PUBLIC 97db0 0 csi_register_user_agent
PUBLIC 97dd0 0 csi_register_set
PUBLIC 97df0 0 file_is_compressed
PUBLIC 97f40 0 spawn_decompress_file
PUBLIC 98190 0 error_get_source
PUBLIC 99180 0 error_show_source
PUBLIC 99300 0 create_dir_s
PUBLIC 993f0 0 cleanname_dot
PUBLIC 99460 0 clean_compressed_file
PUBLIC 997b0 0 spawn_decompress_file_tmp
PUBLIC 99c30 0 make_decompress_file
PUBLIC 99c70 0 serror_cleanup_source_fps
PUBLIC 99cc0 0 serror_msgcntl_valid_sev_change
PUBLIC 99ef0 0 serror_dump_msg_severities
PUBLIC 9a2b0 0 serror_init_msgcntl
PUBLIC 9ad90 0 serror_init
PUBLIC 9aeb0 0 slib_set_dmtcp
PUBLIC 9aec0 0 serror_gen_msgcntl
PUBLIC 9b240 0 serror_store_err
PUBLIC 9b350 0 serror_print_stored_err
PUBLIC 9b3f0 0 serror_stored_err_exist
PUBLIC 9b400 0 serror_enable_defer_msgs_during_suppression
PUBLIC 9b410 0 slib_set_msg_marker
PUBLIC 9b420 0 slib_addarg
PUBLIC 9b570 0 slib_addarg_efficient
PUBLIC 9b6f0 0 slib_addordarg_prefix
PUBLIC 9b830 0 slib_addordarg
PUBLIC 9b840 0 slib_adderrarg
PUBLIC 9b980 0 slib_adddeprarg
PUBLIC 9bae0 0 slib_ncmp_arg_helper
PUBLIC 9bb70 0 slib_cmp_arg_helper
PUBLIC 9bbd0 0 process_deprecated_opt_warn
PUBLIC 9bd80 0 ha_is_set_search_enabled
PUBLIC 9bdc0 0 ha_judy_if_memory_statistics
PUBLIC 9c2f0 0 ha_find_pheap_and_root
PUBLIC 9ce60 0 ha_is_pheap_registered
PUBLIC 9d100 0 ha_pthread_self_has_already_entered_critical_section
PUBLIC 9d400 0 ha_enable_malloc_unhooking
PUBLIC 9d5b0 0 ha_enable_mutex_locking
PUBLIC 9d760 0 ha_register_pheap
PUBLIC 9dc50 0 ha_register_root
PUBLIC 9dd60 0 ha_register_root_ldd
PUBLIC 9e2c0 0 ha_unregister_pheap
PUBLIC 9e880 0 ha_free_pheap_and_root_tracking_structures
PUBLIC 9ee30 0 ha_unregister_root
PUBLIC 9ef70 0 ha_unregister_root_ldd
PUBLIC 9f4f0 0 pheapMap_singleton_and_scoped_lock::free_substitute_hook(void*, void const*)
PUBLIC 9f870 0 pheapMap_singleton_and_scoped_lock::malloc_substitute_hook(unsigned long, void const*)
PUBLIC 9fd40 0 pheapMap_singleton_and_scoped_lock::pheapMap_singleton_and_scoped_lock()
PUBLIC a0cb0 0 pheapMap_singleton_and_scoped_lock::~pheapMap_singleton_and_scoped_lock()
PUBLIC a1920 0 std::pair<std::_Rb_tree_iterator<pheap_s const*>, bool> std::_Rb_tree<pheap_s const*, pheap_s const*, std::_Identity<pheap_s const*>, std::greater<pheap_s const*>, std::allocator<pheap_s const*> >::_M_insert_unique<pheap_s const* const&>(pheap_s const* const&)
PUBLIC a1a40 0 std::pair<std::_Rb_tree_iterator<if_root_s const*>, bool> std::_Rb_tree<if_root_s const*, if_root_s const*, std::_Identity<if_root_s const*>, std::greater<if_root_s const*>, std::allocator<if_root_s const*> >::_M_insert_unique<if_root_s const* const&>(if_root_s const* const&)
PUBLIC a1b60 0 std::_Rb_tree<pheap_s const*, pheap_s const*, std::_Identity<pheap_s const*>, std::greater<pheap_s const*>, std::allocator<pheap_s const*> >::_M_erase(std::_Rb_tree_node<pheap_s const*>*)
PUBLIC a1ba0 0 std::_Rb_tree<pheap_s const*, pheap_s const*, std::_Identity<pheap_s const*>, std::greater<pheap_s const*>, std::allocator<pheap_s const*> >::erase(pheap_s const* const&)
PUBLIC a1d20 0 std::_Rb_tree<if_root_s const*, if_root_s const*, std::_Identity<if_root_s const*>, std::greater<if_root_s const*>, std::allocator<if_root_s const*> >::_M_erase(std::_Rb_tree_node<if_root_s const*>*)
PUBLIC a1d60 0 MemblocksCache::~MemblocksCache()
PUBLIC a1dc0 0 std::_Rb_tree<if_root_s const*, if_root_s const*, std::_Identity<if_root_s const*>, std::greater<if_root_s const*>, std::allocator<if_root_s const*> >::erase(if_root_s const* const&)
PUBLIC a2db0 0 JudyHSDel_bootstrap
PUBLIC a2e00 0 Judy1MemUsed_bootstrap
PUBLIC a2e30 0 JudyLMemUsed_bootstrap
PUBLIC a2e60 0 Judy1FreeArray_bootstrap
PUBLIC a2ea0 0 JudyLFreeArray_bootstrap
PUBLIC a2ee0 0 JudyHSFreeArray_bootstrap
PUBLIC a2f20 0 JudySLFreeArray_bootstrap
PUBLIC a2f60 0 JudySLLast_bootstrap
PUBLIC a2fa0 0 JudySLPrev_bootstrap
PUBLIC a2fe0 0 JudyHSGet_bootstrap
PUBLIC a3020 0 JudySLGet_bootstrap
PUBLIC a3060 0 JudySLFirst_bootstrap
PUBLIC a30a0 0 JudySLNext_bootstrap
PUBLIC a30e0 0 JudyLLastEmpty_bootstrap
PUBLIC a3120 0 JudyLPrevEmpty_bootstrap
PUBLIC a3160 0 JudySLIns_bootstrap
PUBLIC a31a0 0 JudySLDel_bootstrap
PUBLIC a31e0 0 Judy1Set_bootstrap
PUBLIC a3220 0 Judy1Unset_bootstrap
PUBLIC a3260 0 Judy1Test_bootstrap
PUBLIC a32a0 0 Judy1Next_bootstrap
PUBLIC a32e0 0 Judy1Last_bootstrap
PUBLIC a3320 0 Judy1Prev_bootstrap
PUBLIC a3360 0 Judy1FirstEmpty_bootstrap
PUBLIC a33a0 0 Judy1First_bootstrap
PUBLIC a33e0 0 JudyLFirst_bootstrap
PUBLIC a3420 0 JudyLNext_bootstrap
PUBLIC a3460 0 JudyLLast_bootstrap
PUBLIC a34a0 0 JudyLPrev_bootstrap
PUBLIC a34e0 0 JudyLFirstEmpty_bootstrap
PUBLIC a3520 0 JudyLNextEmpty_bootstrap
PUBLIC a3560 0 Judy1NextEmpty_bootstrap
PUBLIC a35a0 0 Judy1LastEmpty_bootstrap
PUBLIC a35e0 0 Judy1PrevEmpty_bootstrap
PUBLIC a3620 0 JudyLIns_bootstrap
PUBLIC a3660 0 JudyLDel_bootstrap
PUBLIC a36a0 0 JudyLGet_bootstrap
PUBLIC a36e0 0 Judy1ByCount_bootstrap
PUBLIC a3730 0 JudyLCount_bootstrap
PUBLIC a3780 0 JudyLByCount_bootstrap
PUBLIC a37d0 0 Judy1Count_bootstrap
PUBLIC a3820 0 JudyHSIns_bootstrap
PUBLIC a3870 0 EJudy1::EJudy1Warn()
PUBLIC a38e0 0 EJudy1::EJudy1GetSet(void const*)
PUBLIC a38f0 0 EJudy1::EJudy1MemUsed(void const*)
PUBLIC a3920 0 EJudy1::EJudy1Test(void const*, unsigned long, J_UDY_ERROR_STRUCT*)
PUBLIC a39b0 0 EJudy1::EJudy1Count(void const*, unsigned long, unsigned long, J_UDY_ERROR_STRUCT*)
PUBLIC a3aa0 0 EJudy1::EJudy1ByCount(void const*, unsigned long, unsigned long*, J_UDY_ERROR_STRUCT*)
PUBLIC a3b40 0 EJudy1::EJudy1First(void const*, unsigned long*, J_UDY_ERROR_STRUCT*)
PUBLIC a3be0 0 EJudy1::EJudy1Next(void const*, unsigned long*, J_UDY_ERROR_STRUCT*)
PUBLIC a3c80 0 EJudy1::EJudy1Last(void const*, unsigned long*, J_UDY_ERROR_STRUCT*)
PUBLIC a3d40 0 EJudy1::EJudy1Prev(void const*, unsigned long*, J_UDY_ERROR_STRUCT*)
PUBLIC a3db0 0 EJudy1::EJudy1FirstEmpty(void const*, unsigned long*, J_UDY_ERROR_STRUCT*)
PUBLIC a3e70 0 EJudy1::EJudy1NextEmpty(void const*, unsigned long*, J_UDY_ERROR_STRUCT*)
PUBLIC a3ee0 0 EJudy1::EJudy1LastEmpty(void const*, unsigned long*, J_UDY_ERROR_STRUCT*)
PUBLIC a3fc0 0 EJudy1::EJudy1PrevEmpty(void const*, unsigned long*, J_UDY_ERROR_STRUCT*)
PUBLIC a4030 0 EJudy1::EJudy1GetSet(void**)
PUBLIC a4090 0 EJudyL::EJudyLWarn()
PUBLIC a4100 0 EJudyL::EJudyLGetMap(void const*)
PUBLIC a4110 0 EJudyL::EJudyLMemUsed(void const*)
PUBLIC a4140 0 EJudyL::EJudyLByCount(void const*, unsigned long, unsigned long*, J_UDY_ERROR_STRUCT*)
PUBLIC a41e0 0 EJudyL::EJudyLFirst(void const*, unsigned long*, J_UDY_ERROR_STRUCT*)
PUBLIC a4280 0 EJudyL::EJudyLGet(void const*, unsigned long, J_UDY_ERROR_STRUCT*)
PUBLIC a4300 0 EJudyL::EJudyLFirstEmpty(void const*, unsigned long*, J_UDY_ERROR_STRUCT*)
PUBLIC a43c0 0 EJudyL::EJudyLNextEmpty(void const*, unsigned long*, J_UDY_ERROR_STRUCT*)
PUBLIC a4430 0 EJudyL::EJudyLLastEmpty(void const*, unsigned long*, J_UDY_ERROR_STRUCT*)
PUBLIC a4510 0 EJudyL::EJudyLPrevEmpty(void const*, unsigned long*, J_UDY_ERROR_STRUCT*)
PUBLIC a4580 0 EJudyL::EJudyLCount(void const*, unsigned long, unsigned long, J_UDY_ERROR_STRUCT*)
PUBLIC a4670 0 EJudyL::EJudyLGetMap(void**)
PUBLIC a46d0 0 JudyIsAvailable
PUBLIC a4720 0 EJudy1::EJudy1FreeArray(void**, J_UDY_ERROR_STRUCT*)
PUBLIC a47d0 0 EJudy1::EJudy1Unset(void**, unsigned long, J_UDY_ERROR_STRUCT*)
PUBLIC a49a0 0 EJudy1::EJudy1Set(void**, unsigned long, J_UDY_ERROR_STRUCT*)
PUBLIC a4a00 0 EJudyL::EJudyLFreeArray(void**, J_UDY_ERROR_STRUCT*)
PUBLIC a4ab0 0 EJudyL::EJudyLDel(void**, unsigned long, J_UDY_ERROR_STRUCT*)
PUBLIC a4c80 0 EJudyL::EJudyLIns(void**, unsigned long, J_UDY_ERROR_STRUCT*)
PUBLIC a4d40 0 EJudyL::EJudyLNext(void const*, unsigned long*, J_UDY_ERROR_STRUCT*)
PUBLIC a4e50 0 EJudyL::EJudyLLast(void const*, unsigned long*, J_UDY_ERROR_STRUCT*)
PUBLIC a4fc0 0 EJudyL::EJudyLPrev(void const*, unsigned long*, J_UDY_ERROR_STRUCT*)
PUBLIC a5030 0 std::_Rb_tree<unsigned long, unsigned long, std::_Identity<unsigned long>, std::less<unsigned long>, std::allocator<unsigned long> >::_M_erase(std::_Rb_tree_node<unsigned long>*)
PUBLIC a5070 0 std::pair<std::_Rb_tree_iterator<unsigned long>, bool> std::_Rb_tree<unsigned long, unsigned long, std::_Identity<unsigned long>, std::less<unsigned long>, std::allocator<unsigned long> >::_M_insert_unique<unsigned long const&>(unsigned long const&)
PUBLIC a5190 0 std::_Rb_tree<unsigned long, std::pair<unsigned long const, unsigned long>, std::_Select1st<std::pair<unsigned long const, unsigned long> >, std::less<unsigned long>, std::allocator<std::pair<unsigned long const, unsigned long> > >::_M_erase(std::_Rb_tree_node<std::pair<unsigned long const, unsigned long> >*)
PUBLIC a51d0 0 std::_Rb_tree_iterator<std::pair<unsigned long const, unsigned long> > std::_Rb_tree<unsigned long, std::pair<unsigned long const, unsigned long>, std::_Select1st<std::pair<unsigned long const, unsigned long> >, std::less<unsigned long>, std::allocator<std::pair<unsigned long const, unsigned long> > >::_M_emplace_hint_unique<std::piecewise_construct_t const&, std::tuple<unsigned long const&>, std::tuple<> >(std::_Rb_tree_const_iterator<std::pair<unsigned long const, unsigned long> >, std::piecewise_construct_t const&, std::tuple<unsigned long const&>&&, std::tuple<>&&)
PUBLIC a5890 0 nc_print_peak
PUBLIC a59c0 0 memstats_alloc
PUBLIC a5a50 0 memstats_free
PUBLIC a5ad0 0 memstats_context_init
PUBLIC a5af0 0 memstats_context_free
PUBLIC a5c10 0 memstats_context_change
PUBLIC a5cb0 0 memstats_context_final_size
PUBLIC a5d40 0 memstats_if_init
PUBLIC a5ec0 0 memstats_if_context
PUBLIC a5f20 0 memstats_lptrblk
PUBLIC a5fb0 0 memstats_ptrblk
PUBLIC a6040 0 memstats_ha_alloc
PUBLIC a6470 0 memstats_addinfo
PUBLIC a6500 0 memstats_ha_report
PUBLIC a65d0 0 memstats_drp_report
PUBLIC a6610 0 memstats_newpass
PUBLIC a67e0 0 slib_enable_memstats
PUBLIC a67f0 0 slib_disable_memstats
PUBLIC a6800 0 size_in_megs
PUBLIC a6850 0 mp_collecting_banana_metrics
PUBLIC a68a0 0 mp_profiling_enabled
PUBLIC a68d0 0 mp_start_profile
PUBLIC a6a80 0 mp_enable_internal_debug
PUBLIC a6a90 0 mp_show_checkpoint_names
PUBLIC a6aa0 0 mp_if_read
PUBLIC a6af0 0 mp_salloc
PUBLIC a6b80 0 mp_sfree
PUBLIC a6bc0 0 mp_rm_context
PUBLIC a6cd0 0 mp_get_context_name_and_description
PUBLIC a6d70 0 mp_add_context_helper
PUBLIC a6e70 0 mp_add_context
PUBLIC a6e90 0 memory_monitor_set_peak_file_path
PUBLIC a6ef0 0 memory_monitor_get_peak
PUBLIC a7080 0 mp_dump_data
PUBLIC a7f40 0 mp_end_profile
PUBLIC a7fe0 0 mp_clear_sim_context
PUBLIC a8020 0 mp_rm_sim_context
PUBLIC a80c0 0 mp_add_sim_context
PUBLIC a8130 0 report_sim_context_free_size
PUBLIC a8150 0 get_sim_context_free_size
PUBLIC a81a0 0 mp_add_context_for_clone_cxts_info
PUBLIC a81c0 0 mp_context_clone_cxts_info
PUBLIC a8230 0 ncdbg_init
PUBLIC a82a0 0 ncdbg_wait
PUBLIC a8350 0 ncdbg_go
PUBLIC a8360 0 ncdbg_libs_loaded
PUBLIC a83c0 0 ncdbg_fatal
PUBLIC a84c0 0 ncdbg_exit
PUBLIC a8520 0 slib_getuid
PUBLIC a8530 0 slib_getpid
PUBLIC a8540 0 slib_gethostid
PUBLIC a8550 0 slib_putenv
PUBLIC a8560 0 slib_getenv
PUBLIC a8570 0 slib_setenv
PUBLIC a8580 0 slib_getcwd
PUBLIC a8590 0 slib_unsetenv
PUBLIC a85b0 0 slib_getenv_rebrand_helper_nomrg
PUBLIC a8630 0 slib_xlm_compatibility_mode_filenames
PUBLIC a8690 0 slib_xlm_compatibility_mode
PUBLIC a86e0 0 slib_xcelium_incisive_mergeopts
PUBLIC a8730 0 slib_getenv_rebrand_helper_nowarn
PUBLIC a8860 0 slib_getenv_rebrand_helper
PUBLIC a89c0 0 slib_unsetenv_rebrand_helper
PUBLIC a89e0 0 soption_set_and_get_vlogrelax
PUBLIC a8a40 0 soption_set_and_get_xlm_bq1
PUBLIC a8aa0 0 soption_set_and_get_enable_relax_format_specifier
PUBLIC a8b00 0 soption_set_and_get_disable_relax_format_specifier
PUBLIC a8b60 0 soption_set_and_get_allow_unsized_const
PUBLIC a8bc0 0 soption_set_and_get_svrollout
PUBLIC a8c20 0 soption_set_and_get_disable_dpiexp_longint_arr
PUBLIC a8c80 0 soption_set_and_get_disable_dpi_shortreal_arr
PUBLIC a8ce0 0 soption_set_and_get_disable_dpi_bitlogic_arr
PUBLIC a8d40 0 soption_set_and_get_disable_dpi_packarr_enum
PUBLIC a8da0 0 soption_set_and_get_disable_dpi_struct_arr
PUBLIC a8e00 0 soption_set_and_get_disable_dpi_struct_string_arr
PUBLIC a8e60 0 soption_set_and_get_disable_dpi_multidim_arr
PUBLIC a8ec0 0 soption_set_and_get_disable_dpi_openarray_bitselect_arg
PUBLIC a8f20 0 soption_set_and_get_disable_dpi_openarray_2D_dynamic_array_arg
PUBLIC a8f80 0 soption_set_and_get_disable_dpi_unpacked_struct_array_of_packed_struct_arg
PUBLIC a8fe0 0 soption_set_and_get_extended_flat_udn
PUBLIC a9040 0 soption_set_and_get_enable_elab_param
PUBLIC a90a0 0 soption_set_and_get_enable_upstruct_cfn
PUBLIC a9100 0 soption_set_and_get_disable_upstruct_cfn
PUBLIC a9160 0 soption_set_and_get_enable_array_op_inside
PUBLIC a91c0 0 soption_set_and_get_disable_array_op_inside
PUBLIC a9220 0 soption_set_and_get_enable_hier_type_param_ref
PUBLIC a9280 0 soption_set_and_get_disable_hier_type_param_ref
PUBLIC a92e0 0 soption_set_and_get_enable_multidim_strparam_uparr
PUBLIC a9340 0 soption_set_and_get_disable_multidim_strparam_uparr
PUBLIC a93a0 0 soption_set_and_get_enable_reduce_valfit_warns
PUBLIC a9400 0 soption_set_and_get_disable_reduce_valfit_warns
PUBLIC a9460 0 soption_set_and_get_enable_upstrmem_init
PUBLIC a94c0 0 soption_set_and_get_disable_upstrmem_init
PUBLIC a9520 0 soption_set_and_get_disable_ref_fork_check
PUBLIC a9580 0 soption_set_and_get_enable_cf
PUBLIC a95e0 0 soption_set_and_get_disable_cf
PUBLIC a9640 0 soption_set_and_get_disable_cfn_builtin_chk
PUBLIC a96a0 0 soption_set_and_get_enable_svsema_tp
PUBLIC a9700 0 soption_set_and_get_enable_muldim_sparsearray
PUBLIC a9760 0 soption_set_and_get_enable_chandle_tp
PUBLIC a97c0 0 soption_set_and_get_disable_chandle_tp
PUBLIC a9820 0 soption_set_and_get_allowundefinedsvhref
PUBLIC a9880 0 soption_set_and_get_enable_dbits
PUBLIC a98e0 0 soption_set_and_get_enable_ps_ap
PUBLIC a9940 0 soption_set_and_get_disable_tp_unp_array
PUBLIC a99a0 0 soption_set_and_get_enable_warn_rtoi_assign
PUBLIC a9a00 0 soption_set_and_get_enable_custom_format_system_tasks
PUBLIC a9a60 0 soption_set_and_get_enable_str_first_arg_fatal
PUBLIC a9ac0 0 soption_set_and_get_extended_dlnolk_err
PUBLIC a9b20 0 soption_set_and_get_disable_dbits
PUBLIC a9b80 0 soption_set_and_get_enable_tpe
PUBLIC a9be0 0 soption_set_and_get_relax_sv_assigns
PUBLIC a9c40 0 soption_set_and_get_disable_cf_da_chk
PUBLIC a9ca0 0 soption_set_and_get_disable_sc_libsearch_opt
PUBLIC a9d00 0 soption_set_and_get_nolock
PUBLIC a9d60 0 soption_set_and_get_unipri_lock_log
PUBLIC a9dc0 0 soption_set_and_get_abv_flushed_state
PUBLIC a9e20 0 soption_set_and_get_lps_enable_assertion_ctrl
PUBLIC a9e80 0 soption_set_and_get_disable_vifc_subelem_res
PUBLIC a9ee0 0 soption_set_and_get_process_save
PUBLIC a9f40 0 soption_set_and_get_checkpoint_enable
PUBLIC a9fa0 0 soption_set_and_get_cds_implicit_tmpdir
PUBLIC aa000 0 soption_set_and_get_abvasrtamalgopt
PUBLIC aa060 0 soption_set_and_get_default_port_array_wire
PUBLIC aa0c0 0 soption_set_and_get_enable_susres_in_func
PUBLIC aa120 0 soption_set_and_get_enable_compress_gz_check
PUBLIC aa180 0 soption_set_and_get_enable_strict_cfn_chk
PUBLIC aa1e0 0 soption_set_and_get_disable_strict_cfn_chk
PUBLIC aa240 0 soption_set_and_get_enable_enh_param_arch
PUBLIC aa2a0 0 soption_set_and_get_enable_autochk_monitor_strobe
PUBLIC aa300 0 soption_set_and_get_disable_2_state_wire
PUBLIC aa360 0 soption_set_and_get_enable_enum_array
PUBLIC aa3c0 0 soption_set_and_get_disable_strings_in_constraints
PUBLIC aa420 0 soption_set_and_get_disable_aa_index_twostate_cast
PUBLIC aa480 0 soption_set_vlogcontrolrelax
PUBLIC aa4f0 0 soption_get_vlogcontrolrelax
PUBLIC aa500 0 soption_unset_vlogcontrolrelax
PUBLIC aa570 0 sindex
PUBLIC aa5a0 0 srindex
PUBLIC aa5d0 0 cistrcmp
PUBLIC aa610 0 cistrncmp
PUBLIC aa630 0 fnamecmp
PUBLIC aa640 0 smkpath
PUBLIC aa680 0 sbasename
PUBLIC aa690 0 supcase
PUBLIC aa6f0 0 sdowncase
PUBLIC aa750 0 ignore_whitespace_newlinechar
PUBLIC aa7d0 0 iastrcmp
PUBLIC aa8f0 0 sconvert_line_to_string
PUBLIC aa910 0 sbeginswith
PUBLIC aa960 0 scibeginswith
PUBLIC aab20 0 ghash_create
PUBLIC aab40 0 ghash_default_uconfigs
PUBLIC aab90 0 ghash_create_custom
PUBLIC aaf70 0 ghash_create_general
PUBLIC ab100 0 ghash_create_general_size
PUBLIC ab2c0 0 ghash_get_array_index(ghash_s*, void*)
PUBLIC ab2f0 0 ghash_clear
PUBLIC ab5e0 0 ghash_destroy
PUBLIC ab640 0 ghash_has_key
PUBLIC ab740 0 ghash_find
PUBLIC ab800 0 ghash_find_or_insert
PUBLIC abb10 0 ghash_insert_with_key_ref
PUBLIC abe70 0 ghash_insert
PUBLIC abe90 0 ghash_delete_data_from_list
PUBLIC ac010 0 ghash_append_data_to_list
PUBLIC ac1a0 0 ghash_delete
PUBLIC ac400 0 ghash_hash_destroy
PUBLIC ac890 0 ghash_hash_find
PUBLIC ac8c0 0 ghash_hash_find_no_share_cs
PUBLIC ac990 0 ghash_hash_find_desc
PUBLIC aca80 0 ghash_hash_find_or_insert
PUBLIC acbc0 0 ghash_hash_insert
PUBLIC acd00 0 ghash_hash_insert_no_share_cs
PUBLIC acee0 0 ghash_hash_delete
PUBLIC acf10 0 ghash_hash_delete_no_share_cs
PUBLIC acfe0 0 ghash_hash_has_key
PUBLIC ad020 0 ghash_get_num_keys
PUBLIC ad030 0 ghash_get_num_elements
PUBLIC ad040 0 ghash_get_table_size
PUBLIC ad050 0 ghash_get_num_data_elements
PUBLIC ad080 0 ghash_iterate_simple
PUBLIC ad180 0 ghash_iterate_data_ref
PUBLIC ad220 0 ghash_print(ghash_s*)
PUBLIC ad3f0 0 ghash_quality
PUBLIC adb40 0 gslist_create_general
PUBLIC adbb0 0 gslist_create
PUBLIC adbc0 0 gslist_clear
PUBLIC adc90 0 gslist_destroy
PUBLIC adcc0 0 gslist_prepend
PUBLIC add10 0 gslist_append
PUBLIC add80 0 gslist_remove
PUBLIC ade20 0 gslist_exists_elem
PUBLIC ade50 0 gslist_count
PUBLIC ade60 0 gslist_pop_head
PUBLIC adec0 0 gslist_pop_tail
PUBLIC adf40 0 gslist_show_head
PUBLIC adf70 0 gslist_show_tail
PUBLIC adfa0 0 gslist_iter_begin
PUBLIC adfd0 0 gslist_iter_end
PUBLIC adfe0 0 gslist_iter_inc
PUBLIC ae010 0 gslist_iter_val
PUBLIC ae040 0 gstr_alloc
PUBLIC ae060 0 gstr_free
PUBLIC ae070 0 gstr_strcpy
PUBLIC ae0b0 0 gstr_strncpy
PUBLIC ae0f0 0 gstr_strcat
PUBLIC ae170 0 gstr_strcat_with_len
PUBLIC ae350 0 gstr_strncat
PUBLIC ae3d0 0 gstr_vsprintf
PUBLIC ae400 0 gstr_vsprintf_cat
PUBLIC ae450 0 gstr_sprintf
PUBLIC ae4e0 0 gstr_sprintf_cat
PUBLIC ae570 0 gstr_vsprintf_cat_with_len
PUBLIC ae5a0 0 gstr_sprintf_cat_with_len
PUBLIC ae640 0 __libc_csu_init
PUBLIC ae6b0 0 __libc_csu_fini
PUBLIC ae6dc 0 _fini
STACK CFI INIT 1ce7c 2a .cfa: $rsp 8 + .ra: .cfa -8 + ^
STACK CFI INIT 1c020 d00 .cfa: $rsp 16 + .ra: .cfa -8 + ^
STACK CFI 1c026 .cfa: $rsp 24 +
STACK CFI INIT 1cd20 10 .cfa: $rsp 8 + .ra: .cfa -8 + ^
STACK CFI INIT 1cf52 4f6 .cfa: $rsp 8 + .ra: .cfa -8 + ^
STACK CFI 1cf54 $r15: .cfa -16 + ^ .cfa: $rsp 16 +
STACK CFI 1cf56 $r14: .cfa -24 + ^ .cfa: $rsp 24 +
STACK CFI 1cf58 $r13: .cfa -32 + ^ .cfa: $rsp 32 +
STACK CFI 1cf5a $r12: .cfa -40 + ^ .cfa: $rsp 40 +
STACK CFI 1cf5b $rbp: .cfa -48 + ^ .cfa: $rsp 48 +
STACK CFI 1cf5c $rbx: .cfa -56 + ^ .cfa: $rsp 56 +
STACK CFI 1cf63 .cfa: $rsp 4176 +
STACK CFI 1d004 .cfa: $rsp 4184 +
STACK CFI 1d00b .cfa: $rsp 4192 +
STACK CFI 1d012 .cfa: $rsp 4200 +
STACK CFI 1d019 .cfa: $rsp 4208 +
STACK CFI 1d020 .cfa: $rsp 4216 +
STACK CFI 1d027 .cfa: $rsp 4224 +
STACK CFI 1d052 .cfa: $rsp 4176 +
STACK CFI 1d266 .cfa: $rsp 4184 +
STACK CFI 1d26d .cfa: $rsp 4192 +
STACK CFI 1d274 .cfa: $rsp 4200 +
STACK CFI 1d27b .cfa: $rsp 4208 +
STACK CFI 1d282 .cfa: $rsp 4216 +
STACK CFI 1d284 .cfa: $rsp 4224 +
STACK CFI 1d2a5 .cfa: $rsp 4176 +
STACK CFI 1d40f .cfa: $rsp 56 +
STACK CFI 1d410 .cfa: $rsp 48 +
STACK CFI 1d411 .cfa: $rsp 40 +
STACK CFI 1d413 .cfa: $rsp 32 +
STACK CFI 1d415 .cfa: $rsp 24 +
STACK CFI 1d417 .cfa: $rsp 16 +
STACK CFI 1d419 .cfa: $rsp 8 +
STACK CFI 1d41a .cfa: $rsp 4176 +
STACK CFI INIT 1d448 96 .cfa: $rsp 8 + .ra: .cfa -8 + ^
STACK CFI 1d453 $r13: .cfa -16 + ^ .cfa: $rsp 16 +
STACK CFI 1d455 $r12: .cfa -24 + ^ .cfa: $rsp 24 +
STACK CFI 1d456 $rbp: .cfa -32 + ^ .cfa: $rsp 32 +
STACK CFI 1d457 $rbx: .cfa -40 + ^ .cfa: $rsp 40 +
STACK CFI 1d45b .cfa: $rsp 48 +
STACK CFI 1d4d6 .cfa: $rsp 40 +
STACK CFI 1d4d7 .cfa: $rsp 32 +
STACK CFI 1d4d8 .cfa: $rsp 24 +
STACK CFI 1d4da .cfa: $rsp 16 +
STACK CFI 1d4dc .cfa: $rsp 8 +
STACK CFI 1d4dd $r12: $r12 $r13: $r13 $rbp: $rbp $rbx: $rbx
STACK CFI INIT 1d4de 4e .cfa: $rsp 8 + .ra: .cfa -8 + ^
STACK CFI INIT 1d52c 17f9 .cfa: $rsp 8 + .ra: .cfa -8 + ^
STACK CFI 1d52e $r15: .cfa -16 + ^ .cfa: $rsp 16 +
STACK CFI 1d530 $r14: .cfa -24 + ^ .cfa: $rsp 24 +
STACK CFI 1d532 $r13: .cfa -32 + ^ .cfa: $rsp 32 +
STACK CFI 1d534 $r12: .cfa -40 + ^ .cfa: $rsp 40 +
STACK CFI 1d535 $rbp: .cfa -48 + ^ .cfa: $rsp 48 +
STACK CFI 1d536 $rbx: .cfa -56 + ^ .cfa: $rsp 56 +
STACK CFI 1d53a .cfa: $rsp 96 +
STACK CFI 1d739 .cfa: $rsp 56 +
STACK CFI 1d73a .cfa: $rsp 48 +
STACK CFI 1d73b .cfa: $rsp 40 +
STACK CFI 1d73d .cfa: $rsp 32 +
STACK CFI 1d73f .cfa: $rsp 24 +
STACK CFI 1d741 .cfa: $rsp 16 +
STACK CFI 1d743 .cfa: $rsp 8 +
STACK CFI 1d744 .cfa: $rsp 96 +
STACK CFI INIT 1ed25 1050 .cfa: $rsp 8 + .ra: .cfa -8 + ^
STACK CFI 1ed27 $r15: .cfa -16 + ^ .cfa: $rsp 16 +
STACK CFI 1ed29 $r14: .cfa -24 + ^ .cfa: $rsp 24 +
STACK CFI 1ed2b $r13: .cfa -32 + ^ .cfa: $rsp 32 +
STACK CFI 1ed2d $r12: .cfa -40 + ^ .cfa: $rsp 40 +
STACK CFI 1ed2e $rbp: .cfa -48 + ^ .cfa: $rsp 48 +
STACK CFI 1ed2f $rbx: .cfa -56 + ^ .cfa: $rsp 56 +
STACK CFI 1ed33 .cfa: $rsp 96 +
STACK CFI 1fd6a .cfa: $rsp 56 +
STACK CFI 1fd6b .cfa: $rsp 48 +
STACK CFI 1fd6c .cfa: $rsp 40 +
STACK CFI 1fd6e .cfa: $rsp 32 +
STACK CFI 1fd70 .cfa: $rsp 24 +
STACK CFI 1fd72 .cfa: $rsp 16 +
STACK CFI 1fd74 .cfa: $rsp 8 +
STACK CFI INIT 1fd75 6a .cfa: $rsp 8 + .ra: .cfa -8 + ^
STACK CFI 1fd77 $r14: .cfa -16 + ^ .cfa: $rsp 16 +
STACK CFI 1fd79 $r13: .cfa -24 + ^ .cfa: $rsp 24 +
STACK CFI 1fd7b $r12: .cfa -32 + ^ .cfa: $rsp 32 +
STACK CFI 1fd7c $rbp: .cfa -40 + ^ .cfa: $rsp 40 +
STACK CFI 1fd7d $rbx: .cfa -48 + ^ .cfa: $rsp 48 +
STACK CFI 1fdd7 .cfa: $rsp 40 +
STACK CFI 1fdd8 .cfa: $rsp 32 +
STACK CFI 1fdda .cfa: $rsp 24 +
STACK CFI 1fddc .cfa: $rsp 16 +
STACK CFI 1fdde .cfa: $rsp 8 +
STACK CFI INIT 1fddf 4ff .cfa: $rsp 8 + .ra: .cfa -8 + ^
STACK CFI 1fde3 .cfa: $rsp 16 +
STACK CFI 202dd .cfa: $rsp 8 +
STACK CFI INIT 202de 179 .cfa: $rsp 8 + .ra: .cfa -8 + ^
STACK CFI 202ef .cfa: $rsp 16 +
STACK CFI 20455 .cfa: $rsp 8 +
STACK CFI INIT 20457 6a .cfa: $rsp 8 + .ra: .cfa -8 + ^
STACK CFI 20464 .cfa: $rsp 16 +
STACK CFI 204b8 .cfa: $rsp 8 +
STACK CFI 204b9 .cfa: $rsp 16 +
STACK CFI 204c0 .cfa: $rsp 8 +
STACK CFI INIT 204c1 26 .cfa: $rsp 8 + .ra: .cfa -8 + ^
STACK CFI 204c2 $rbp: .cfa -16 + ^ .cfa: $rsp 16 +
STACK CFI 204c3 $rbx: .cfa -24 + ^ .cfa: $rsp 24 +
STACK CFI 204c7 .cfa: $rsp 32 +
STACK CFI 204dd .cfa: $rsp 24 +
STACK CFI 204de .cfa: $rsp 16 +
STACK CFI 204df .cfa: $rsp 8 +
STACK CFI 204e0 .cfa: $rsp 32 +
STACK CFI INIT 204e7 11 .cfa: $rsp 8 + .ra: .cfa -8 + ^
STACK CFI INIT 204f8 b .cfa: $rsp 8 + .ra: .cfa -8 + ^
STACK CFI INIT 20503 45e .cfa: $rsp 8 + .ra: .cfa -8 + ^
STACK CFI 20505 $r14: .cfa -16 + ^ .cfa: $rsp 16 +
STACK CFI 20507 $r13: .cfa -24 + ^ .cfa: $rsp 24 +
STACK CFI 20509 $r12: .cfa -32 + ^ .cfa: $rsp 32 +
STACK CFI 2050a $rbp: .cfa -40 + ^ .cfa: $rsp 40 +
STACK CFI 2050b $rbx: .cfa -48 + ^ .cfa: $rsp 48 +
STACK CFI 20687 .cfa: $rsp 40 +
STACK CFI 20688 .cfa: $rsp 32 +
STACK CFI 2068a .cfa: $rsp 24 +
STACK CFI 2068c .cfa: $rsp 16 +
STACK CFI 2068e .cfa: $rsp 8 +
STACK CFI 2068f .cfa: $rsp 48 +
STACK CFI INIT 20961 10d .cfa: $rsp 8 + .ra: .cfa -8 + ^
STACK CFI 20963 $r12: .cfa -16 + ^ .cfa: $rsp 16 +
STACK CFI 20964 $rbp: .cfa -24 + ^ .cfa: $rsp 24 +
STACK CFI 20965 $rbx: .cfa -32 + ^ .cfa: $rsp 32 +
STACK CFI 20a63 .cfa: $rsp 24 +
STACK CFI 20a64 .cfa: $rsp 16 +
STACK CFI 20a66 .cfa: $rsp 8 +
STACK CFI 20a67 .cfa: $rsp 32 +
STACK CFI INIT 20a6e 80b .cfa: $rsp 8 + .ra: .cfa -8 + ^
STACK CFI 20a6f $rbp: .cfa -16 + ^ .cfa: $rsp 16 +
STACK CFI 20a70 $rbx: .cfa -24 + ^ .cfa: $rsp 24 +
STACK CFI 20a77 .cfa: $rsp 16464 +
STACK CFI 20ed4 .cfa: $rsp 24 +
STACK CFI 20ed5 .cfa: $rsp 16 +
STACK CFI 20ed6 .cfa: $rsp 8 +
STACK CFI 20ed7 .cfa: $rsp 16464 +
STACK CFI INIT 21279 60 .cfa: $rsp 8 + .ra: .cfa -8 + ^
STACK CFI 21280 .cfa: $rsp 144 +
STACK CFI 212aa .cfa: $rsp 8 +
STACK CFI 212ab .cfa: $rsp 144 +
STACK CFI INIT 212d9 45 .cfa: $rsp 8 + .ra: .cfa -8 + ^
STACK CFI 212dd .cfa: $rsp 32 +
STACK CFI 2130c .cfa: $rsp 8 +
STACK CFI 2130d .cfa: $rsp 32 +
STACK CFI INIT 2131e 5f0 .cfa: $rsp 8 + .ra: .cfa -8 + ^
STACK CFI 21320 $r13: .cfa -16 + ^ .cfa: $rsp 16 +
STACK CFI 21322 $r12: .cfa -24 + ^ .cfa: $rsp 24 +
STACK CFI 21323 $rbp: .cfa -32 + ^ .cfa: $rsp 32 +
STACK CFI 21324 $rbx: .cfa -40 + ^ .cfa: $rsp 40 +
STACK CFI 2132b .cfa: $rsp 192 +
STACK CFI 21693 .cfa: $rsp 200 +
STACK CFI 2169b .cfa: $rsp 208 +
STACK CFI 216a4 .cfa: $rsp 192 +
STACK CFI INIT 2190e b .cfa: $rsp 8 + .ra: .cfa -8 + ^
STACK CFI INIT 21919 19 .cfa: $rsp 8 + .ra: .cfa -8 + ^
STACK CFI 2191a $rbx: .cfa -16 + ^ .cfa: $rsp 16 +
STACK CFI 21931 .cfa: $rsp 8 +
STACK CFI INIT 21932 b .cfa: $rsp 8 + .ra: .cfa -8 + ^
STACK CFI INIT 2193d 19 .cfa: $rsp 8 + .ra: .cfa -8 + ^
STACK CFI 2193e $rbx: .cfa -16 + ^ .cfa: $rsp 16 +
STACK CFI 21955 .cfa: $rsp 8 +
STACK CFI INIT 21956 8 .cfa: $rsp 8 + .ra: .cfa -8 + ^
STACK CFI INIT 2195e 41 .cfa: $rsp 8 + .ra: .cfa -8 + ^
STACK CFI INIT 2199f 3c .cfa: $rsp 8 + .ra: .cfa -8 + ^
STACK CFI 219a0 $rbp: .cfa -16 + ^ .cfa: $rsp 16 +
STACK CFI 219a1 $rbx: .cfa -24 + ^ .cfa: $rsp 24 +
STACK CFI 219a5 .cfa: $rsp 32 +
STACK CFI 219d1 .cfa: $rsp 24 +
STACK CFI 219d2 .cfa: $rsp 16 +
STACK CFI 219d3 .cfa: $rsp 8 +
STACK CFI 219d4 .cfa: $rsp 32 +
STACK CFI INIT 219e0 43b .cfa: $rsp 8 + .ra: .cfa -8 + ^
STACK CFI 219e1 $rbp: .cfa -16 + ^ .cfa: $rsp 16 +
STACK CFI 219e4 .cfa: $rbp 16 +
STACK CFI 219ea $r13: .cfa -40 + ^ $r14: .cfa -32 + ^ $r15: .cfa -24 + ^
STACK CFI 219ef $r12: .cfa -48 + ^
STACK CFI 219f3 $rbx: .cfa -56 + ^
STACK CFI 21c3e .cfa: $rsp 8 +
STACK CFI 21c3f .cfa: $rbp 16 +
STACK CFI INIT 21e20 18b .cfa: $rsp 8 + .ra: .cfa -8 + ^
STACK CFI 21e21 $rbp: .cfa -16 + ^ .cfa: $rsp 16 +
STACK CFI 21e24 .cfa: $rbp 16 +
STACK CFI 21e28 $r13: .cfa -32 + ^ $r14: .cfa -24 + ^
STACK CFI 21e31 $r12: .cfa -40 + ^
STACK CFI 21e37 $rbx: .cfa -48 + ^
STACK CFI 21f2f .cfa: $rsp 8 +
STACK CFI 21f30 .cfa: $rbp 16 +
STACK CFI INIT 21fb0 c6 .cfa: $rsp 8 + .ra: .cfa -8 + ^
STACK CFI 21fb1 $rbp: .cfa -16 + ^ .cfa: $rsp 16 +
STACK CFI 21fb4 .cfa: $rbp 16 +
STACK CFI 21fbe $r12: .cfa -40 + ^ $r13: .cfa -32 + ^ $r14: .cfa -24 + ^
STACK CFI 22020 .cfa: $rsp 8 +
STACK CFI 22028 .cfa: $rbp 16 +
STACK CFI INIT 22080 449 .cfa: $rsp 8 + .ra: .cfa -8 + ^
STACK CFI 22081 $rbp: .cfa -16 + ^ .cfa: $rsp 16 +
STACK CFI 22084 .cfa: $rbp 16 +
STACK CFI 22094 $r12: .cfa -48 + ^ $r13: .cfa -40 + ^ $r14: .cfa -32 + ^ $r15: .cfa -24 + ^ $rbx: .cfa -56 + ^
STACK CFI 220fb .cfa: $rsp 8 +
STACK CFI 22100 .cfa: $rbp 16 +
STACK CFI INIT 224d0 1a8 .cfa: $rsp 8 + .ra: .cfa -8 + ^
STACK CFI 224d1 $rbp: .cfa -16 + ^ .cfa: $rsp 16 +
STACK CFI 224d4 .cfa: $rbp 16 +
STACK CFI 224e4 $r12: .cfa -48 + ^ $r13: .cfa -40 + ^ $r14: .cfa -32 + ^ $r15: .cfa -24 + ^ $rbx: .cfa -56 + ^
STACK CFI 225ed .cfa: $rsp 8 +
STACK CFI 225f0 .cfa: $rbp 16 +
STACK CFI INIT 22680 b3 .cfa: $rsp 8 + .ra: .cfa -8 + ^
STACK CFI 22681 $rbp: .cfa -16 + ^ .cfa: $rsp 16 +
STACK CFI 22684 .cfa: $rbp 16 +
STACK CFI 2268e $r12: .cfa -40 + ^ $r13: .cfa -32 + ^ $r14: .cfa -24 + ^
STACK CFI 226e3 .cfa: $rsp 8 +
STACK CFI 226e8 .cfa: $rbp 16 +
STACK CFI INIT 22740 13d .cfa: $rsp 8 + .ra: .cfa -8 + ^
STACK CFI 22741 $rbp: .cfa -16 + ^ .cfa: $rsp 16 +
STACK CFI 22744 .cfa: $rbp 16 +
STACK CFI 22753 $r12: .cfa -48 + ^ $r13: .cfa -40 + ^ $r14: .cfa -32 + ^ $r15: .cfa -24 + ^
STACK CFI 2279f .cfa: $rsp 8 +
STACK CFI 227a0 .cfa: $rbp 16 +
STACK CFI INIT 22880 93 .cfa: $rsp 8 + .ra: .cfa -8 + ^
STACK CFI 22881 $rbp: .cfa -16 + ^ .cfa: $rsp 16 +
STACK CFI 22884 .cfa: $rbp 16 +
STACK CFI 22888 $r12: .cfa -32 + ^ $r13: .cfa -24 + ^
STACK CFI 22912 .cfa: $rsp 8 +
STACK CFI INIT 22920 c .cfa: $rsp 8 + .ra: .cfa -8 + ^
STACK CFI INIT 22930 c .cfa: $rsp 8 + .ra: .cfa -8 + ^
STACK CFI INIT 22940 c .cfa: $rsp 8 + .ra: .cfa -8 + ^
STACK CFI INIT 22950 c .cfa: $rsp 8 + .ra: .cfa -8 + ^
STACK CFI INIT 22960 c .cfa: $rsp 8 + .ra: .cfa -8 + ^
STACK CFI INIT 22970 124 .cfa: $rsp 8 + .ra: .cfa -8 + ^
STACK CFI 22971 $rbp: .cfa -16 + ^ .cfa: $rsp 16 +
STACK CFI 22974 .cfa: $rbp 16 +
STACK CFI 22976 $r15: .cfa -24 + ^
STACK CFI 2297b $r14: .cfa -32 + ^
STACK CFI 22980 $r13: .cfa -40 + ^
STACK CFI 22986 $r12: .cfa -48 + ^ $rbx: .cfa -56 + ^
STACK CFI 22a36 .cfa: $rsp 8 +
STACK CFI 22a37 .cfa: $rbp 16 +
STACK CFI INIT 22aa0 1b4 .cfa: $rsp 8 + .ra: .cfa -8 + ^
STACK CFI 22aa1 $rbp: .cfa -16 + ^ .cfa: $rsp 16 +
STACK CFI 22aa4 .cfa: $rbp 16 +
STACK CFI 22aa8 $r14: .cfa -32 + ^ $r15: .cfa -24 + ^
STACK CFI 22aad $r13: .cfa -40 + ^
STACK CFI 22ab2 $r12: .cfa -48 + ^
STACK CFI 22ab6 $rbx: .cfa -56 + ^
STACK CFI 22c3c .cfa: $rsp 8 +
STACK CFI 22c40 .cfa: $rbp 16 +
STACK CFI 22c53 .cfa: $rsp 8 +
STACK CFI INIT 22c60 305 .cfa: $rsp 8 + .ra: .cfa -8 + ^
STACK CFI 22c61 $rbp: .cfa -16 + ^ .cfa: $rsp 16 +
STACK CFI 22c64 .cfa: $rbp 16 +
STACK CFI 22c74 $r12: .cfa -48 + ^ $r13: .cfa -40 + ^ $r14: .cfa -32 + ^ $r15: .cfa -24 + ^ $rbx: .cfa -56 + ^
STACK CFI 22cc5 .cfa: $rsp 8 +
STACK CFI 22cd0 .cfa: $rbp 16 +
STACK CFI INIT 22f70 af .cfa: $rsp 8 + .ra: .cfa -8 + ^
STACK CFI 22f71 $rbp: .cfa -16 + ^ .cfa: $rsp 16 +
STACK CFI 22f74 .cfa: $rbp 16 +
STACK CFI 22f7c $rbx: .cfa -24 + ^
STACK CFI 22ff4 .cfa: $rsp 8 +
STACK CFI 22ff8 .cfa: $rbp 16 +
STACK CFI 23006 .cfa: $rsp 8 +
STACK CFI 23010 .cfa: $rbp 16 +
STACK CFI 2301e .cfa: $rsp 8 +
STACK CFI INIT 23020 3c6 .cfa: $rsp 8 + .ra: .cfa -8 + ^
STACK CFI 23021 $rbp: .cfa -16 + ^ .cfa: $rsp 16 +
STACK CFI 23024 .cfa: $rbp 16 +
STACK CFI 23034 $r12: .cfa -48 + ^ $r13: .cfa -40 + ^ $r14: .cfa -32 + ^ $r15: .cfa -24 + ^ $rbx: .cfa -56 + ^
STACK CFI 2319a .cfa: $rsp 8 +
STACK CFI 2319b .cfa: $rbp 16 +
STACK CFI INIT 233f0 22 .cfa: $rsp 8 + .ra: .cfa -8 + ^
STACK CFI 233f1 $rbp: .cfa -16 + ^ .cfa: $rsp 16 +
STACK CFI 233f4 .cfa: $rbp 16 +
STACK CFI 23411 .cfa: $rsp 8 +
STACK CFI INIT 23420 37e .cfa: $rsp 8 + .ra: .cfa -8 + ^
STACK CFI 2342a $rbp: .cfa -16 + ^ .cfa: $rsp 16 +
STACK CFI 23430 .cfa: $rbp 16 +
STACK CFI 23438 $r12: .cfa -48 + ^ $r13: .cfa -40 + ^ $r14: .cfa -32 + ^ $r15: .cfa -24 + ^
STACK CFI 23443 $rbx: .cfa -56 + ^
STACK CFI 23577 .cfa: $rsp 8 +
STACK CFI 23580 .cfa: $rbp 16 +
STACK CFI 23698 $r12: $r12 $r13: $r13 $r14: $r14 $r15: $r15 $rbp: $rbp $rbx: $rbx .cfa: $rsp 8 +
STACK CFI 236a8 $r12: .cfa -48 + ^ $r13: .cfa -40 + ^ $r14: .cfa -32 + ^ $r15: .cfa -24 + ^ $rbp: .cfa -16 + ^ $rbx: .cfa -56 + ^ .cfa: $rbp 16 +
STACK CFI INIT 237a0 cc .cfa: $rsp 8 + .ra: .cfa -8 + ^
STACK CFI 237a1 $rbp: .cfa -16 + ^ .cfa: $rsp 16 +
STACK CFI 237a4 .cfa: $rbp 16 +
STACK CFI 237a6 $r15: .cfa -24 + ^
STACK CFI 237af $r12: .cfa -48 + ^ $r13: .cfa -40 + ^ $r14: .cfa -32 + ^
STACK CFI 237b3 $rbx: .cfa -56 + ^
STACK CFI 23819 .cfa: $rsp 8 +
STACK CFI 23820 .cfa: $rbp 16 +
STACK CFI INIT 23870 8c .cfa: $rsp 8 + .ra: .cfa -8 + ^
STACK CFI 23876 $rbp: .cfa -16 + ^ .cfa: $rsp 16 +
STACK CFI 2387e .cfa: $rbp 16 +
STACK CFI 23883 $r12: .cfa -32 + ^ $r13: .cfa -24 + ^ $rbx: .cfa -40 + ^
STACK CFI 238d6 .cfa: $rsp 8 +
STACK CFI 238e0 $r12: $r12 $r13: $r13 $rbp: $rbp $rbx: $rbx
STACK CFI 238e6 $r12: .cfa -32 + ^ $r13: .cfa -24 + ^ $rbp: .cfa -16 + ^ $rbx: .cfa -40 + ^ .cfa: $rbp 16 +
STACK CFI INIT 23900 26 .cfa: $rsp 8 + .ra: .cfa -8 + ^
STACK CFI INIT 23930 5d .cfa: $rsp 8 + .ra: .cfa -8 + ^
STACK CFI 23936 $rbp: .cfa -16 + ^ .cfa: $rsp 16 +
STACK CFI 23939 .cfa: $rbp 16 +
STACK CFI 2393b $r12: .cfa -24 + ^
STACK CFI 2395a $r12: $r12
STACK CFI 2395b $rbp: $rbp .cfa: $rsp 8 +
STACK CFI 23960 $r12: .cfa -24 + ^ $rbp: .cfa -16 + ^ .cfa: $rbp 16 +
STACK CFI 2397e .cfa: $rsp 8 +
STACK CFI 23980 $r12: $r12 $rbp: $rbp
STACK CFI 23986 $r12: .cfa -24 + ^ $rbp: .cfa -16 + ^ .cfa: $rbp 16 +
STACK CFI INIT 23990 b4 .cfa: $rsp 8 + .ra: .cfa -8 + ^
STACK CFI 2399a $rbp: .cfa -16 + ^ .cfa: $rsp 16 +
STACK CFI 2399d .cfa: $rbp 16 +
STACK CFI 239a1 $r12: .cfa -32 + ^ $r13: .cfa -24 + ^
STACK CFI 239c5 $r12: $r12
STACK CFI 239c7 $r13: $r13
STACK CFI 239c8 $rbp: $rbp .cfa: $rsp 8 +
STACK CFI 239d0 $r12: .cfa -32 + ^ $r13: .cfa -24 + ^ $rbp: .cfa -16 + ^ .cfa: $rbp 16 +
STACK CFI 23a12 .cfa: $rsp 8 +
STACK CFI 23a18 .cfa: $rbp 16 +
STACK CFI 23a26 .cfa: $rsp 8 +
STACK CFI 23a30 $r12: $r12 $r13: $r13 $rbp: $rbp
STACK CFI 23a36 $r12: .cfa -32 + ^ $r13: .cfa -24 + ^ $rbp: .cfa -16 + ^ .cfa: $rbp 16 +
STACK CFI INIT 23a50 c7 .cfa: $rsp 8 + .ra: .cfa -8 + ^
STACK CFI 23a5a $rbp: .cfa -16 + ^ .cfa: $rsp 16 +
STACK CFI 23a62 .cfa: $rbp 16 +
STACK CFI 23a66 $r13: .cfa -32 + ^ $r14: .cfa -24 + ^
STACK CFI 23a6c $r12: .cfa -40 + ^ $rbx: .cfa -48 + ^
STACK CFI 23add .cfa: $rsp 8 +
STACK CFI 23ae0 $r12: $r12 $r13: $r13 $r14: $r14 $rbp: $rbp $rbx: $rbx
STACK CFI 23af0 $r12: .cfa -40 + ^ $r13: .cfa -32 + ^ $r14: .cfa -24 + ^ $rbp: .cfa -16 + ^ $rbx: .cfa -48 + ^ .cfa: $rbp 16 +
STACK CFI INIT 23b20 ad .cfa: $rsp 8 + .ra: .cfa -8 + ^
STACK CFI 23b2b $rbp: .cfa -16 + ^ .cfa: $rsp 16 +
STACK CFI 23b2e .cfa: $rbp 16 +
STACK CFI 23b30 $r12: .cfa -24 + ^
STACK CFI 23b38 $rbx: .cfa -32 + ^
STACK CFI 23b4f $rbx: $rbx
STACK CFI 23b51 $r12: $r12
STACK CFI 23b52 $rbp: $rbp .cfa: $rsp 8 +
STACK CFI 23b60 $r12: .cfa -24 + ^ $rbp: .cfa -16 + ^ $rbx: .cfa -32 + ^ .cfa: $rbp 16 +
STACK CFI 23ba1 .cfa: $rsp 8 +
STACK CFI 23ba8 .cfa: $rbp 16 +
STACK CFI INIT 23bd0 46 .cfa: $rsp 8 + .ra: .cfa -8 + ^
STACK CFI INIT 23c20 36 .cfa: $rsp 8 + .ra: .cfa -8 + ^
STACK CFI INIT 23c60 36 .cfa: $rsp 8 + .ra: .cfa -8 + ^
STACK CFI INIT 23ca0 5f .cfa: $rsp 8 + .ra: .cfa -8 + ^
STACK CFI 23cc1 $rbp: .cfa -16 + ^ .cfa: $rsp 16 +
STACK CFI 23cc7 .cfa: $rbp 16 +
STACK CFI 23cd8 .cfa: $rsp 8 +
STACK CFI 23ce0 $rbp: $rbp
STACK CFI 23cf0 $rbp: .cfa -16 + ^ .cfa: $rbp 16 +
STACK CFI 23cf6 .cfa: $rsp 8 +
STACK CFI 23cf9 $rbp: $rbp
STACK CFI INIT 23d00 98 .cfa: $rsp 8 + .ra: .cfa -8 + ^
STACK CFI 23d06 $rbp: .cfa -16 + ^ .cfa: $rsp 16 +
STACK CFI 23d09 .cfa: $rbp 16 +
STACK CFI 23d0b $r12: .cfa -24 + ^
STACK CFI 23d2e $r12: $r12
STACK CFI 23d2f $rbp: $rbp .cfa: $rsp 8 +
STACK CFI 23d38 $r12: .cfa -24 + ^ $rbp: .cfa -16 + ^ .cfa: $rbp 16 +
STACK CFI 23d61 .cfa: $rsp 8 +
STACK CFI 23d68 $r12: $r12 $rbp: $rbp
STACK CFI 23d70 $r12: .cfa -24 + ^ $rbp: .cfa -16 + ^ .cfa: $rbp 16 +
STACK CFI INIT 23da0 4a .cfa: $rsp 8 + .ra: .cfa -8 + ^
STACK CFI 23dd1 $rbp: .cfa -16 + ^ .cfa: $rsp 16 +
STACK CFI 23ddb .cfa: $rbp 16 +
STACK CFI 23de3 .cfa: $rsp 8 +
STACK CFI 23de4 $rbp: $rbp
STACK CFI INIT 23df0 7e .cfa: $rsp 8 + .ra: .cfa -8 + ^
STACK CFI 23e31 $rbp: .cfa -16 + ^ .cfa: $rsp 16 +
STACK CFI 23e34 .cfa: $rbp 16 +
STACK CFI 23e54 .cfa: $rsp 8 +
STACK CFI 23e58 .cfa: $rbp 16 +
STACK CFI 23e67 .cfa: $rsp 8 +
STACK CFI 23e68 $rbp: $rbp
STACK CFI INIT 23e70 7e .cfa: $rsp 8 + .ra: .cfa -8 + ^
STACK CFI 23eb1 $rbp: .cfa -16 + ^ .cfa: $rsp 16 +
STACK CFI 23eb4 .cfa: $rbp 16 +
STACK CFI 23ed4 .cfa: $rsp 8 +
STACK CFI 23ed8 .cfa: $rbp 16 +
STACK CFI 23ee7 .cfa: $rsp 8 +
STACK CFI 23ee8 $rbp: $rbp
STACK CFI INIT 23ef0 67 .cfa: $rsp 8 + .ra: .cfa -8 + ^
STACK CFI 23f21 $rbp: .cfa -16 + ^ .cfa: $rsp 16 +
STACK CFI 23f24 .cfa: $rbp 16 +
STACK CFI 23f44 .cfa: $rsp 8 +
STACK CFI 23f48 .cfa: $rbp 16 +
STACK CFI 23f50 .cfa: $rsp 8 +
STACK CFI 23f51 $rbp: $rbp
STACK CFI INIT 23f60 8d .cfa: $rsp 8 + .ra: .cfa -8 + ^
STACK CFI 23f66 $rbp: .cfa -16 + ^ .cfa: $rsp 16 +
STACK CFI 23f69 .cfa: $rbp 16 +
STACK CFI 23f6b $r12: .cfa -24 + ^
STACK CFI 23f93 $r12: $r12
STACK CFI 23f94 $rbp: $rbp .cfa: $rsp 8 +
STACK CFI 23fa0 $r12: .cfa -24 + ^ $rbp: .cfa -16 + ^ .cfa: $rbp 16 +
STACK CFI 23fac .cfa: $rsp 8 +
STACK CFI 23fb0 .cfa: $rbp 16 +
STACK CFI 23fe0 $r12: $r12 $rbp: $rbp .cfa: $rsp 8 +
STACK CFI 23fe6 $r12: .cfa -24 + ^ $rbp: .cfa -16 + ^ .cfa: $rbp 16 +
STACK CFI INIT 23ff0 3b .cfa: $rsp 8 + .ra: .cfa -8 + ^
STACK CFI INIT 24030 3b .cfa: $rsp 8 + .ra: .cfa -8 + ^
STACK CFI INIT 24070 3b .cfa: $rsp 8 + .ra: .cfa -8 + ^
STACK CFI INIT 240b0 3b .cfa: $rsp 8 + .ra: .cfa -8 + ^
STACK CFI INIT 240f0 3b .cfa: $rsp 8 + .ra: .cfa -8 + ^
STACK CFI INIT 24130 8d .cfa: $rsp 8 + .ra: .cfa -8 + ^
STACK CFI 24136 $rbp: .cfa -16 + ^ .cfa: $rsp 16 +
STACK CFI 24139 .cfa: $rbp 16 +
STACK CFI 2413b $r13: .cfa -24 + ^
STACK CFI 24140 $r12: .cfa -32 + ^
STACK CFI 2415c $r12: $r12
STACK CFI 2415e $r13: $r13
STACK CFI 2415f $rbp: $rbp .cfa: $rsp 8 +
STACK CFI 24168 $r12: .cfa -32 + ^ $r13: .cfa -24 + ^ $rbp: .cfa -16 + ^ .cfa: $rbp 16 +
STACK CFI 24172 .cfa: $rsp 8 +
STACK CFI 24178 .cfa: $rbp 16 +
STACK CFI 241b0 $r12: $r12 $r13: $r13 $rbp: $rbp .cfa: $rsp 8 +
STACK CFI 241b6 $r12: .cfa -32 + ^ $r13: .cfa -24 + ^ $rbp: .cfa -16 + ^ .cfa: $rbp 16 +
STACK CFI INIT 241c0 8d .cfa: $rsp 8 + .ra: .cfa -8 + ^
STACK CFI 241c6 $rbp: .cfa -16 + ^ .cfa: $rsp 16 +
STACK CFI 241c9 .cfa: $rbp 16 +
STACK CFI 241cb $r13: .cfa -24 + ^
STACK CFI 241d0 $r12: .cfa -32 + ^
STACK CFI 241ec $r12: $r12
STACK CFI 241ee $r13: $r13
STACK CFI 241ef $rbp: $rbp .cfa: $rsp 8 +
STACK CFI 241f8 $r12: .cfa -32 + ^ $r13: .cfa -24 + ^ $rbp: .cfa -16 + ^ .cfa: $rbp 16 +
STACK CFI 24202 .cfa: $rsp 8 +
STACK CFI 24208 .cfa: $rbp 16 +
STACK CFI 24240 $r12: $r12 $r13: $r13 $rbp: $rbp .cfa: $rsp 8 +
STACK CFI 24246 $r12: .cfa -32 + ^ $r13: .cfa -24 + ^ $rbp: .cfa -16 + ^ .cfa: $rbp 16 +
STACK CFI INIT 24250 3e .cfa: $rsp 8 + .ra: .cfa -8 + ^
STACK CFI INIT 24290 3e .cfa: $rsp 8 + .ra: .cfa -8 + ^
STACK CFI INIT 242d0 3e .cfa: $rsp 8 + .ra: .cfa -8 + ^
STACK CFI INIT 24310 40 .cfa: $rsp 8 + .ra: .cfa -8 + ^
STACK CFI INIT 24350 40 .cfa: $rsp 8 + .ra: .cfa -8 + ^
STACK CFI INIT 24390 e1 .cfa: $rsp 8 + .ra: .cfa -8 + ^
STACK CFI 24391 $rbp: .cfa -16 + ^ .cfa: $rsp 16 +
STACK CFI 24394 .cfa: $rbp 16 +
STACK CFI 24398 $r14: .cfa -32 + ^ $r15: .cfa -24 + ^
STACK CFI 2439f $r12: .cfa -48 + ^ $r13: .cfa -40 + ^
STACK CFI 243a7 $rbx: .cfa -56 + ^
STACK CFI 2441f .cfa: $rsp 8 +
STACK CFI 24420 .cfa: $rbp 16 +
STACK CFI 2443c .cfa: $rsp 8 +
STACK CFI 2443d .cfa: $rbp 16 +
STACK CFI INIT 24480 5c .cfa: $rsp 8 + .ra: .cfa -8 + ^
STACK CFI 24481 $rbp: .cfa -16 + ^ .cfa: $rsp 16 +
STACK CFI 24484 .cfa: $rbp 16 +
STACK CFI 24486 $r12: .cfa -24 + ^
STACK CFI 2448a $rbx: .cfa -32 + ^
STACK CFI 244c4 .cfa: $rsp 8 +
STACK CFI 244c8 .cfa: $rbp 16 +
STACK CFI 244db .cfa: $rsp 8 +
STACK CFI INIT 244e0 10 .cfa: $rsp 8 + .ra: .cfa -8 + ^
STACK CFI 244e1 $rbp: .cfa -16 + ^ .cfa: $rsp 16 +
STACK CFI 244e7 .cfa: $rbp 16 +
STACK CFI 244ef .cfa: $rsp 8 +
STACK CFI INIT 244f0 5f .cfa: $rsp 8 + .ra: .cfa -8 + ^
STACK CFI 244f1 $rbp: .cfa -16 + ^ .cfa: $rsp 16 +
STACK CFI 244f4 .cfa: $rbp 16 +
STACK CFI 244f6 $r12: .cfa -24 + ^
STACK CFI 2453f .cfa: $rsp 8 +
STACK CFI 24540 .cfa: $rbp 16 +
STACK CFI 2454e .cfa: $rsp 8 +
STACK CFI INIT 24550 57 .cfa: $rsp 8 + .ra: .cfa -8 + ^
STACK CFI 24551 $rbp: .cfa -16 + ^ .cfa: $rsp 16 +
STACK CFI 24554 .cfa: $rbp 16 +
STACK CFI 24556 $r14: .cfa -24 + ^
STACK CFI 2455b $r13: .cfa -32 + ^
STACK CFI 24561 $r12: .cfa -40 + ^ $rbx: .cfa -48 + ^
STACK CFI 2459a .cfa: $rsp 8 +
STACK CFI 245a0 .cfa: $rbp 16 +
STACK CFI INIT 245b0 8 .cfa: $rsp 8 + .ra: .cfa -8 + ^
STACK CFI INIT 245c0 8 .cfa: $rsp 8 + .ra: .cfa -8 + ^
STACK CFI INIT 245d0 8 .cfa: $rsp 8 + .ra: .cfa -8 + ^
STACK CFI INIT 245e0 a .cfa: $rsp 8 + .ra: .cfa -8 + ^
STACK CFI INIT 245f0 a .cfa: $rsp 8 + .ra: .cfa -8 + ^
STACK CFI INIT 24600 27 .cfa: $rsp 8 + .ra: .cfa -8 + ^
STACK CFI 24601 $rbp: .cfa -16 + ^ .cfa: $rsp 16 +
STACK CFI 24604 .cfa: $rbp 16 +
STACK CFI 24606 $r12: .cfa -24 + ^
STACK CFI 24626 .cfa: $rsp 8 +
STACK CFI INIT 24630 5 .cfa: $rsp 8 + .ra: .cfa -8 + ^
STACK CFI INIT 24640 5 .cfa: $rsp 8 + .ra: .cfa -8 + ^
STACK CFI INIT 24650 5 .cfa: $rsp 8 + .ra: .cfa -8 + ^
STACK CFI INIT 24660 5 .cfa: $rsp 8 + .ra: .cfa -8 + ^
STACK CFI INIT 24670 5 .cfa: $rsp 8 + .ra: .cfa -8 + ^
STACK CFI INIT 24680 10 .cfa: $rsp 8 + .ra: .cfa -8 + ^
STACK CFI 24681 $rbp: .cfa -16 + ^ .cfa: $rsp 16 +
STACK CFI 24687 .cfa: $rbp 16 +
STACK CFI 2468f .cfa: $rsp 8 +
STACK CFI INIT 24690 1f .cfa: $rsp 8 + .ra: .cfa -8 + ^
STACK CFI 24691 $rbp: .cfa -16 + ^ .cfa: $rsp 16 +
STACK CFI 24694 .cfa: $rbp 16 +
STACK CFI 24695 $rbx: .cfa -24 + ^
STACK CFI 246ae .cfa: $rsp 8 +
STACK CFI INIT 246b0 10c .cfa: $rsp 8 + .ra: .cfa -8 + ^
STACK CFI 246b1 $rbp: .cfa -16 + ^ .cfa: $rsp 16 +
STACK CFI 246b4 .cfa: $rbp 16 +
STACK CFI 246b6 $r13: .cfa -24 + ^
STACK CFI 246bc $r12: .cfa -32 + ^ $rbx: .cfa -40 + ^
STACK CFI 24726 .cfa: $rsp 8 +
STACK CFI 24730 .cfa: $rbp 16 +
STACK CFI 247a1 .cfa: $rsp 8 +
STACK CFI 247a2 .cfa: $rbp 16 +
STACK CFI INIT 247c0 57 .cfa: $rsp 8 + .ra: .cfa -8 + ^
STACK CFI 247c1 $rbp: .cfa -16 + ^ .cfa: $rsp 16 +
STACK CFI 247c4 .cfa: $rbp 16 +
STACK CFI 247c8 $r13: .cfa -32 + ^ $r14: .cfa -24 + ^
STACK CFI 247cd $r12: .cfa -40 + ^
STACK CFI 247d1 $rbx: .cfa -48 + ^
STACK CFI 24805 .cfa: $rsp 8 +
STACK CFI 24810 .cfa: $rbp 16 +
STACK CFI INIT 24820 3c .cfa: $rsp 8 + .ra: .cfa -8 + ^
STACK CFI 24821 $rbp: .cfa -16 + ^ .cfa: $rsp 16 +
STACK CFI 24828 .cfa: $rbp 16 +
STACK CFI 2482a $r12: .cfa -24 + ^
STACK CFI 2482e $rbx: .cfa -32 + ^
STACK CFI 2484c .cfa: $rsp 8 +
STACK CFI 24850 .cfa: $rbp 16 +
STACK CFI 2485b .cfa: $rsp 8 +
STACK CFI INIT 24860 50 .cfa: $rsp 8 + .ra: .cfa -8 + ^
STACK CFI 24861 $rbp: .cfa -16 + ^ .cfa: $rsp 16 +
STACK CFI 24864 .cfa: $rbp 16 +
STACK CFI 24866 $r12: .cfa -24 + ^
STACK CFI 2486a $rbx: .cfa -32 + ^
STACK CFI 2489c .cfa: $rsp 8 +
STACK CFI 248a0 .cfa: $rbp 16 +
STACK CFI 248ac .cfa: $rsp 8 +
STACK CFI INIT 248b0 4c .cfa: $rsp 8 + .ra: .cfa -8 + ^
STACK CFI 248b1 $rbp: .cfa -16 + ^ .cfa: $rsp 16 +
STACK CFI 248b4 .cfa: $rbp 16 +
STACK CFI 248b6 $r12: .cfa -24 + ^
STACK CFI 248ba $rbx: .cfa -32 + ^
STACK CFI 248d8 .cfa: $rsp 8 +
STACK CFI 248e0 .cfa: $rbp 16 +
STACK CFI 248f1 .cfa: $rsp 8 +
STACK CFI INIT 24900 29 .cfa: $rsp 8 + .ra: .cfa -8 + ^
STACK CFI 24901 $rbp: .cfa -16 + ^ .cfa: $rsp 16 +
STACK CFI 24907 .cfa: $rbp 16 +
STACK CFI 24918 .cfa: $rsp 8 +
STACK CFI 24920 .cfa: $rbp 16 +
STACK CFI 24926 .cfa: $rsp 8 +
STACK CFI INIT 24930 42 .cfa: $rsp 8 + .ra: .cfa -8 + ^
STACK CFI 24931 $rbp: .cfa -16 + ^ .cfa: $rsp 16 +
STACK CFI 24934 .cfa: $rbp 16 +
STACK CFI 24935 $rbx: .cfa -24 + ^
STACK CFI 24959 .cfa: $rsp 8 +
STACK CFI 24960 .cfa: $rbp 16 +
STACK CFI 2496e .cfa: $rsp 8 +
STACK CFI INIT 24980 3c .cfa: $rsp 8 + .ra: .cfa -8 + ^
STACK CFI 24981 $rbp: .cfa -16 + ^ .cfa: $rsp 16 +
STACK CFI 24988 .cfa: $rbp 16 +
STACK CFI 2498a $r12: .cfa -24 + ^
STACK CFI 2498e $rbx: .cfa -32 + ^
STACK CFI 249ac .cfa: $rsp 8 +
STACK CFI 249b0 .cfa: $rbp 16 +
STACK CFI 249bb .cfa: $rsp 8 +
STACK CFI INIT 249c0 5d .cfa: $rsp 8 + .ra: .cfa -8 + ^
STACK CFI 249c1 $rbp: .cfa -16 + ^ .cfa: $rsp 16 +
STACK CFI 249c4 .cfa: $rbp 16 +
STACK CFI 249c8 $r12: .cfa -32 + ^ $r13: .cfa -24 + ^
STACK CFI 249f4 .cfa: $rsp 8 +
STACK CFI 249f8 .cfa: $rbp 16 +
STACK CFI 24a1c .cfa: $rsp 8 +
STACK CFI INIT 24a20 50 .cfa: $rsp 8 + .ra: .cfa -8 + ^
STACK CFI 24a21 $rbp: .cfa -16 + ^ .cfa: $rsp 16 +
STACK CFI 24a24 .cfa: $rbp 16 +
STACK CFI 24a26 $r12: .cfa -24 + ^
STACK CFI 24a2a $rbx: .cfa -32 + ^
STACK CFI 24a4c .cfa: $rsp 8 +
STACK CFI 24a50 .cfa: $rbp 16 +
STACK CFI 24a6f .cfa: $rsp 8 +
STACK CFI INIT 24a70 50 .cfa: $rsp 8 + .ra: .cfa -8 + ^
STACK CFI 24a71 $rbp: .cfa -16 + ^ .cfa: $rsp 16 +
STACK CFI 24a74 .cfa: $rbp 16 +
STACK CFI 24a76 $r12: .cfa -24 + ^
STACK CFI 24a7a $rbx: .cfa -32 + ^
STACK CFI 24a9c .cfa: $rsp 8 +
STACK CFI 24aa0 .cfa: $rbp 16 +
STACK CFI 24abf .cfa: $rsp 8 +
STACK CFI INIT 24ac0 4c .cfa: $rsp 8 + .ra: .cfa -8 + ^
STACK CFI 24ac1 $rbp: .cfa -16 + ^ .cfa: $rsp 16 +
STACK CFI 24ac4 .cfa: $rbp 16 +
STACK CFI 24ac6 $r12: .cfa -24 + ^
STACK CFI 24aca $rbx: .cfa -32 + ^
STACK CFI 24ae8 .cfa: $rsp 8 +
STACK CFI 24af0 .cfa: $rbp 16 +
STACK CFI 24b01 .cfa: $rsp 8 +
STACK CFI INIT 24b10 8c .cfa: $rsp 8 + .ra: .cfa -8 + ^
STACK CFI 24b16 $rbp: .cfa -16 + ^ .cfa: $rsp 16 +
STACK CFI 24b1e .cfa: $rbp 16 +
STACK CFI 24b23 $r12: .cfa -32 + ^ $r13: .cfa -24 + ^ $rbx: .cfa -40 + ^
STACK CFI 24b76 .cfa: $rsp 8 +
STACK CFI 24b80 $r12: $r12 $r13: $r13 $rbp: $rbp $rbx: $rbx
STACK CFI 24b86 $r12: .cfa -32 + ^ $r13: .cfa -24 + ^ $rbp: .cfa -16 + ^ $rbx: .cfa -40 + ^ .cfa: $rbp 16 +
STACK CFI INIT 24ba0 159 .cfa: $rsp 8 + .ra: .cfa -8 + ^
STACK CFI 24baa $rbp: .cfa -16 + ^ .cfa: $rsp 16 +
STACK CFI 24bb2 .cfa: $rbp 16 +
STACK CFI 24bb4 $r14: .cfa -24 + ^
STACK CFI 24bbc $r12: .cfa -40 + ^ $r13: .cfa -32 + ^ $rbx: .cfa -48 + ^
STACK CFI 24c54 .cfa: $rsp 8 +
STACK CFI 24c58 .cfa: $rbp 16 +
STACK CFI 24ccc .cfa: $rsp 8 +
STACK CFI 24cd0 $r12: $r12 $r13: $r13 $r14: $r14 $rbp: $rbp $rbx: $rbx
STACK CFI 24cd6 $r12: .cfa -40 + ^ $r13: .cfa -32 + ^ $r14: .cfa -24 + ^ $rbp: .cfa -16 + ^ $rbx: .cfa -48 + ^ .cfa: $rbp 16 +
STACK CFI INIT 24d00 6 .cfa: $rsp 8 + .ra: .cfa -8 + ^
STACK CFI INIT 24d10 6 .cfa: $rsp 8 + .ra: .cfa -8 + ^
STACK CFI INIT 24d20 6 .cfa: $rsp 8 + .ra: .cfa -8 + ^
STACK CFI INIT 24d30 6 .cfa: $rsp 8 + .ra: .cfa -8 + ^
STACK CFI INIT 24d40 6 .cfa: $rsp 8 + .ra: .cfa -8 + ^
STACK CFI INIT 24d50 3 .cfa: $rsp 8 + .ra: .cfa -8 + ^
STACK CFI INIT 24d60 3 .cfa: $rsp 8 + .ra: .cfa -8 + ^
STACK CFI INIT 24d70 6c .cfa: $rsp 8 + .ra: .cfa -8 + ^
STACK CFI 24d71 $rbp: .cfa -16 + ^ .cfa: $rsp 16 +
STACK CFI 24d7c .cfa: $rbp 16 +
STACK CFI 24d7d $rbx: .cfa -24 + ^
STACK CFI 24db4 .cfa: $rsp 8 +
STACK CFI 24db8 .cfa: $rbp 16 +
STACK CFI 24ddb .cfa: $rsp 8 +
STACK CFI INIT 24de0 115 .cfa: $rsp 8 + .ra: .cfa -8 + ^
STACK CFI 24de1 $rbp: .cfa -16 + ^ .cfa: $rsp 16 +
STACK CFI 24de4 .cfa: $rbp 16 +
STACK CFI 24de6 $r15: .cfa -24 + ^
STACK CFI 24df4 $r12: .cfa -48 + ^ $r13: .cfa -40 + ^ $r14: .cfa -32 + ^ $rbx: .cfa -56 + ^
STACK CFI 24ef0 .cfa: $rsp 8 +
STACK CFI INIT 24f00 2ce .cfa: $rsp 8 + .ra: .cfa -8 + ^
STACK CFI 24f01 $rbp: .cfa -16 + ^ .cfa: $rsp 16 +
STACK CFI 24f04 .cfa: $rbp 16 +
STACK CFI 24f0f $r13: .cfa -32 + ^ $r14: .cfa -24 + ^
STACK CFI 24f22 $r12: .cfa -40 + ^
STACK CFI 24f2d $rbx: .cfa -48 + ^
STACK CFI 24f79 .cfa: $rsp 8 +
STACK CFI 24f80 .cfa: $rbp 16 +
STACK CFI INIT 251d0 601 .cfa: $rsp 8 + .ra: .cfa -8 + ^
STACK CFI 251d1 $rbp: .cfa -16 + ^ .cfa: $rsp 16 +
STACK CFI 251d4 .cfa: $rbp 16 +
STACK CFI 251d6 $r15: .cfa -24 + ^
STACK CFI 251db $r14: .cfa -32 + ^
STACK CFI 251e0 $r13: .cfa -40 + ^
STACK CFI 251e5 $r12: .cfa -48 + ^
STACK CFI 251f0 $rbx: .cfa -56 + ^
STACK CFI 25507 .cfa: $rsp 8 +
STACK CFI 25510 .cfa: $rbp 16 +
STACK CFI INIT 257e0 17 .cfa: $rsp 8 + .ra: .cfa -8 + ^
STACK CFI 257e1 $rbp: .cfa -16 + ^ .cfa: $rsp 16 +
STACK CFI 257e7 .cfa: $rbp 16 +
STACK CFI 257f6 .cfa: $rsp 8 +
STACK CFI INIT 25800 1d .cfa: $rsp 8 + .ra: .cfa -8 + ^
STACK CFI 25801 $rbp: .cfa -16 + ^ .cfa: $rsp 16 +
STACK CFI 2580c .cfa: $rbp 16 +
STACK CFI 2581c .cfa: $rsp 8 +
STACK CFI INIT 25820 b6 .cfa: $rsp 8 + .ra: .cfa -8 + ^
STACK CFI 2582a $rbp: .cfa -16 + ^ .cfa: $rsp 16 +
STACK CFI 2582d .cfa: $rbp 16 +
STACK CFI 2582f $r12: .cfa -24 + ^
STACK CFI 25833 $rbx: .cfa -32 + ^
STACK CFI 2584b $rbx: $rbx
STACK CFI 25850 $r12: $r12
STACK CFI 25851 $rbp: $rbp .cfa: $rsp 8 +
STACK CFI 25860 $r12: .cfa -24 + ^ $rbp: .cfa -16 + ^ $rbx: .cfa -32 + ^ .cfa: $rbp 16 +
STACK CFI 258ce .cfa: $rsp 8 +
STACK CFI 258d0 $r12: $r12 $rbp: $rbp $rbx: $rbx
STACK CFI INIT 258e0 26 .cfa: $rsp 8 + .ra: .cfa -8 + ^
STACK CFI INIT 25910 f .cfa: $rsp 8 + .ra: .cfa -8 + ^
STACK CFI INIT 25920 17 .cfa: $rsp 8 + .ra: .cfa -8 + ^
STACK CFI INIT 25940 10f .cfa: $rsp 8 + .ra: .cfa -8 + ^
STACK CFI 25941 $rbp: .cfa -16 + ^ .cfa: $rsp 16 +
STACK CFI 25944 .cfa: $rbp 16 +
STACK CFI 25947 $r12: .cfa -24 + ^ $rbx: .cfa -32 + ^
STACK CFI 25994 .cfa: $rsp 8 +
STACK CFI 25998 .cfa: $rbp 16 +
STACK CFI 25a4e .cfa: $rsp 8 +
STACK CFI INIT 25a50 74 .cfa: $rsp 8 + .ra: .cfa -8 + ^
STACK CFI 25a75 $rbp: .cfa -16 + ^ .cfa: $rsp 16 +
STACK CFI 25a7f .cfa: $rbp 16 +
STACK CFI 25a96 .cfa: $rsp 8 +
STACK CFI 25aa0 .cfa: $rbp 16 +
STACK CFI 25ac3 .cfa: $rsp 8 +
STACK CFI INIT 25ad0 26 .cfa: $rsp 8 + .ra: .cfa -8 + ^
STACK CFI 25ada $rbp: .cfa -16 + ^ .cfa: $rsp 16 +
STACK CFI 25add .cfa: $rbp 16 +
STACK CFI 25ae5 .cfa: $rsp 8 +
STACK CFI 25af0 $rbp: $rbp
STACK CFI INIT 25b00 ac .cfa: $rsp 8 + .ra: .cfa -8 + ^
STACK CFI 25b01 $rbp: .cfa -16 + ^ .cfa: $rsp 16 +
STACK CFI 25b04 .cfa: $rbp 16 +
STACK CFI 25b06 $r12: .cfa -24 + ^
STACK CFI 25b39 .cfa: $rsp 8 +
STACK CFI 25b40 .cfa: $rbp 16 +
STACK CFI 25b4e .cfa: $rsp 8 +
STACK CFI 25b50 .cfa: $rbp 16 +
STACK CFI 25b80 .cfa: $rsp 8 +
STACK CFI 25b88 .cfa: $rbp 16 +
STACK CFI INIT 25bb0 4a .cfa: $rsp 8 + .ra: .cfa -8 + ^
STACK CFI INIT 25c00 1fb .cfa: $rsp 8 + .ra: .cfa -8 + ^
STACK CFI 25c01 $rbp: .cfa -16 + ^ .cfa: $rsp 16 +
STACK CFI 25c04 .cfa: $rbp 16 +
STACK CFI 25c08 $r13: .cfa -32 + ^ $r14: .cfa -24 + ^
STACK CFI 25c0d $r12: .cfa -40 + ^
STACK CFI 25c18 $rbx: .cfa -48 + ^
STACK CFI 25d6d .cfa: $rsp 8 +
STACK CFI 25d70 .cfa: $rbp 16 +
STACK CFI INIT 25e00 1ab .cfa: $rsp 8 + .ra: .cfa -8 + ^
STACK CFI 25e01 $rbp: .cfa -16 + ^ .cfa: $rsp 16 +
STACK CFI 25e04 .cfa: $rbp 16 +
STACK CFI 25e10 $r12: .cfa -32 + ^ $r13: .cfa -24 + ^ $rbx: .cfa -40 + ^
STACK CFI 25f2b .cfa: $rsp 8 +
STACK CFI 25f30 .cfa: $rbp 16 +
STACK CFI INIT 25fb0 15 .cfa: $rsp 8 + .ra: .cfa -8 + ^
STACK CFI INIT 25fd0 7 .cfa: $rsp 8 + .ra: .cfa -8 + ^
STACK CFI INIT 25fe0 7 .cfa: $rsp 8 + .ra: .cfa -8 + ^
STACK CFI INIT 25ff0 7 .cfa: $rsp 8 + .ra: .cfa -8 + ^
STACK CFI INIT 26000 7 .cfa: $rsp 8 + .ra: .cfa -8 + ^
STACK CFI INIT 26010 4a1 .cfa: $rsp 8 + .ra: .cfa -8 + ^
STACK CFI 26011 $rbp: .cfa -16 + ^ .cfa: $rsp 16 +
STACK CFI 26014 .cfa: $rbp 16 +
STACK CFI 2601a $r13: .cfa -40 + ^ $r14: .cfa -32 + ^ $r15: .cfa -24 + ^
STACK CFI 2601f $r12: .cfa -48 + ^
STACK CFI 26027 $rbx: .cfa -56 + ^
STACK CFI 26470 .cfa: $rsp 8 +
STACK CFI 26475 .cfa: $rbp 16 +
STACK CFI 264ac .cfa: $rsp 8 +
STACK CFI INIT 264c0 14b .cfa: $rsp 8 + .ra: .cfa -8 + ^
STACK CFI 264c1 $rbp: .cfa -16 + ^ .cfa: $rsp 16 +
STACK CFI 264c4 .cfa: $rbp 16 +
STACK CFI 264c6 $r13: .cfa -24 + ^
STACK CFI 264cc $r12: .cfa -32 + ^ $rbx: .cfa -40 + ^
STACK CFI 26577 .cfa: $rsp 8 +
STACK CFI 26580 .cfa: $rbp 16 +
STACK CFI 265ff .cfa: $rsp 8 +
STACK CFI 26600 .cfa: $rbp 16 +
STACK CFI INIT 26610 a8 .cfa: $rsp 8 + .ra: .cfa -8 + ^
STACK CFI 26626 $rbp: .cfa -16 + ^ .cfa: $rsp 16 +
STACK CFI 26629 .cfa: $rbp 16 +
STACK CFI 2662a $rbx: .cfa -24 + ^
STACK CFI 26670 .cfa: $rsp 8 +
STACK CFI 26678 .cfa: $rbp 16 +
STACK CFI 26690 $rbp: $rbp $rbx: $rbx .cfa: $rsp 8 +
STACK CFI 266a0 $rbp: .cfa -16 + ^ $rbx: .cfa -24 + ^ .cfa: $rbp 16 +
STACK CFI INIT 266c0 679 .cfa: $rsp 8 + .ra: .cfa -8 + ^
STACK CFI 266c1 $rbp: .cfa -16 + ^ .cfa: $rsp 16 +
STACK CFI 266c4 .cfa: $rbp 16 +
STACK CFI 266c6 $r15: .cfa -24 + ^
STACK CFI 266cb $r14: .cfa -32 + ^
STACK CFI 266d0 $r13: .cfa -40 + ^
STACK CFI 266d6 $r12: .cfa -48 + ^ $rbx: .cfa -56 + ^
STACK CFI 26879 .cfa: $rsp 8 +
STACK CFI 26880 .cfa: $rbp 16 +
STACK CFI INIT 26d40 7b6 .cfa: $rsp 8 + .ra: .cfa -8 + ^
STACK CFI 26d41 $rbp: .cfa -16 + ^ .cfa: $rsp 16 +
STACK CFI 26d44 .cfa: $rbp 16 +
STACK CFI 26d46 $r15: .cfa -24 + ^
STACK CFI 26d4b $r14: .cfa -32 + ^
STACK CFI 26d50 $r13: .cfa -40 + ^
STACK CFI 26d56 $r12: .cfa -48 + ^ $rbx: .cfa -56 + ^
STACK CFI 26e33 .cfa: $rsp 8 +
STACK CFI 26e38 .cfa: $rbp 16 +
STACK CFI INIT 27500 ea .cfa: $rsp 8 + .ra: .cfa -8 + ^
STACK CFI 27501 $rbp: .cfa -16 + ^ .cfa: $rsp 16 +
STACK CFI 27504 .cfa: $rbp 16 +
STACK CFI 27506 $r12: .cfa -24 + ^
STACK CFI 2750a $rbx: .cfa -32 + ^
STACK CFI 2755f .cfa: $rsp 8 +
STACK CFI 27560 .cfa: $rbp 16 +
STACK CFI 2759e .cfa: $rsp 8 +
STACK CFI 275a0 .cfa: $rbp 16 +
STACK CFI INIT 275f0 22f .cfa: $rsp 8 + .ra: .cfa -8 + ^
STACK CFI 275f1 $rbp: .cfa -16 + ^ .cfa: $rsp 16 +
STACK CFI 275f4 .cfa: $rbp 16 +
STACK CFI 275fd $r12: .cfa -48 + ^ $r13: .cfa -40 + ^ $r14: .cfa -32 + ^ $r15: .cfa -24 + ^ $rbx: .cfa -56 + ^
STACK CFI 277ab .cfa: $rsp 8 +
STACK CFI 277b0 .cfa: $rbp 16 +
STACK CFI INIT 27820 90 .cfa: $rsp 8 + .ra: .cfa -8 + ^
STACK CFI 27821 $rbp: .cfa -16 + ^ .cfa: $rsp 16 +
STACK CFI 27824 .cfa: $rbp 16 +
STACK CFI 27834 .cfa: $rsp 8 +
STACK CFI 27840 .cfa: $rbp 16 +
STACK CFI 2787b .cfa: $rsp 8 +
STACK CFI 27880 .cfa: $rbp 16 +
STACK CFI 278af .cfa: $rsp 8 +
STACK CFI INIT 278b0 1a2 .cfa: $rsp 8 + .ra: .cfa -8 + ^
STACK CFI 278b1 $rbp: .cfa -16 + ^ .cfa: $rsp 16 +
STACK CFI 278b4 .cfa: $rbp 16 +
STACK CFI 278bd $r12: .cfa -48 + ^ $r13: .cfa -40 + ^ $r14: .cfa -32 + ^ $r15: .cfa -24 + ^ $rbx: .cfa -56 + ^
STACK CFI 279bb .cfa: $rsp 8 +
STACK CFI 279c0 .cfa: $rbp 16 +
STACK CFI INIT 27a60 73 .cfa: $rsp 8 + .ra: .cfa -8 + ^
STACK CFI 27a61 $rbp: .cfa -16 + ^ .cfa: $rsp 16 +
STACK CFI 27a64 .cfa: $rbp 16 +
STACK CFI 27a66 $r12: .cfa -24 + ^
STACK CFI 27a8d .cfa: $rsp 8 +
STACK CFI 27a90 .cfa: $rbp 16 +
STACK CFI 27ad2 .cfa: $rsp 8 +
STACK CFI INIT 27ae0 75 .cfa: $rsp 8 + .ra: .cfa -8 + ^
STACK CFI 27ae1 $rbp: .cfa -16 + ^ .cfa: $rsp 16 +
STACK CFI 27ae7 .cfa: $rbp 16 +
STACK CFI 27ae9 $r12: .cfa -24 + ^
STACK CFI 27b10 .cfa: $rsp 8 +
STACK CFI 27b18 .cfa: $rbp 16 +
STACK CFI 27b40 .cfa: $rsp 8 +
STACK CFI 27b48 .cfa: $rbp 16 +
STACK CFI INIT 27b60 7 .cfa: $rsp 8 + .ra: .cfa -8 + ^
STACK CFI INIT 27b70 1f .cfa: $rsp 8 + .ra: .cfa -8 + ^
STACK CFI INIT 27b90 eb .cfa: $rsp 8 + .ra: .cfa -8 + ^
STACK CFI 27b91 $rbp: .cfa -16 + ^ .cfa: $rsp 16 +
STACK CFI 27b94 .cfa: $rbp 16 +
STACK CFI 27b95 $rbx: .cfa -24 + ^
STACK CFI 27bed .cfa: $rsp 8 +
STACK CFI 27bf0 .cfa: $rbp 16 +
STACK CFI 27c34 .cfa: $rsp 8 +
STACK CFI 27c38 .cfa: $rbp 16 +
STACK CFI INIT 27c80 2b6 .cfa: $rsp 8 + .ra: .cfa -8 + ^
STACK CFI 27c81 $rbp: .cfa -16 + ^ .cfa: $rsp 16 +
STACK CFI 27c84 .cfa: $rbp 16 +
STACK CFI 27c91 $r12: .cfa -48 + ^ $r13: .cfa -40 + ^ $r14: .cfa -32 + ^ $r15: .cfa -24 + ^ $rbx: .cfa -56 + ^
STACK CFI 27e44 .cfa: $rsp 8 +
STACK CFI 27e45 .cfa: $rbp 16 +
STACK CFI INIT 27f40 9 .cfa: $rsp 8 + .ra: .cfa -8 + ^
STACK CFI INIT 27f50 2b .cfa: $rsp 8 + .ra: .cfa -8 + ^
STACK CFI 27f5b $rbp: .cfa -16 + ^ .cfa: $rsp 16 +
STACK CFI 27f66 .cfa: $rbp 16 +
STACK CFI 27f6c .cfa: $rsp 8 +
STACK CFI 27f78 $rbp: $rbp
STACK CFI INIT 27f80 11d .cfa: $rsp 8 + .ra: .cfa -8 + ^
STACK CFI 27f81 $rbp: .cfa -16 + ^ .cfa: $rsp 16 +
STACK CFI 27f84 .cfa: $rbp 16 +
STACK CFI 27f91 $r12: .cfa -48 + ^ $r13: .cfa -40 + ^ $r14: .cfa -32 + ^ $r15: .cfa -24 + ^ $rbx: .cfa -56 + ^
STACK CFI 2809c .cfa: $rsp 8 +
STACK CFI INIT 280a0 292 .cfa: $rsp 8 + .ra: .cfa -8 + ^
STACK CFI 280a1 $rbp: .cfa -16 + ^ .cfa: $rsp 16 +
STACK CFI 280a4 .cfa: $rbp 16 +
STACK CFI 280af $r12: .cfa -40 + ^ $r13: .cfa -32 + ^ $r14: .cfa -24 + ^ $rbx: .cfa -48 + ^
STACK CFI 2813a .cfa: $rsp 8 +
STACK CFI 28140 .cfa: $rbp 16 +
STACK CFI INIT 28340 41 .cfa: $rsp 8 + .ra: .cfa -8 + ^
STACK CFI 28371 $rbp: .cfa -16 + ^ .cfa: $rsp 16 +
STACK CFI 28374 .cfa: $rbp 16 +
STACK CFI 28380 .cfa: $rsp 8 +
STACK CFI INIT 28390 1c .cfa: $rsp 8 + .ra: .cfa -8 + ^
STACK CFI 28391 $rbp: .cfa -16 + ^ .cfa: $rsp 16 +
STACK CFI 28394 .cfa: $rbp 16 +
STACK CFI 283a5 .cfa: $rsp 8 +
STACK CFI INIT 283b0 32 .cfa: $rsp 8 + .ra: .cfa -8 + ^
STACK CFI 283b1 $rbp: .cfa -16 + ^ .cfa: $rsp 16 +
STACK CFI 283b9 .cfa: $rbp 16 +
STACK CFI 283e1 .cfa: $rsp 8 +
STACK CFI INIT 283f0 5ee .cfa: $rsp 8 + .ra: .cfa -8 + ^
STACK CFI 283f1 $rbp: .cfa -16 + ^ .cfa: $rsp 16 +
STACK CFI 283f4 .cfa: $rbp 16 +
STACK CFI 283f8 $r14: .cfa -32 + ^ $r15: .cfa -24 + ^
STACK CFI 283fd $r13: .cfa -40 + ^
STACK CFI 28402 $r12: .cfa -48 + ^
STACK CFI 28406 $rbx: .cfa -56 + ^
STACK CFI 28457 .cfa: $rsp 8 +
STACK CFI 28460 .cfa: $rbp 16 +
STACK CFI INIT 289e0 4fb .cfa: $rsp 8 + .ra: .cfa -8 + ^
STACK CFI 289e1 $rbp: .cfa -16 + ^ .cfa: $rsp 16 +
STACK CFI 289e4 .cfa: $rbp 16 +
STACK CFI 289ea $r13: .cfa -40 + ^ $r14: .cfa -32 + ^ $r15: .cfa -24 + ^
STACK CFI 289ef $r12: .cfa -48 + ^
STACK CFI 289fb $rbx: .cfa -56 + ^
STACK CFI 28a6c .cfa: $rsp 8 +
STACK CFI 28a70 .cfa: $rbp 16 +
STACK CFI INIT 28ee0 6d0 .cfa: $rsp 8 + .ra: .cfa -8 + ^
STACK CFI 28ee1 $rbp: .cfa -16 + ^ .cfa: $rsp 16 +
STACK CFI 28ee4 .cfa: $rbp 16 +
STACK CFI 28ee6 $r15: .cfa -24 + ^
STACK CFI 28ef7 $r12: .cfa -48 + ^ $r13: .cfa -40 + ^ $r14: .cfa -32 + ^ $rbx: .cfa -56 + ^
STACK CFI 28f3f .cfa: $rsp 8 +
STACK CFI 28f40 .cfa: $rbp 16 +
STACK CFI INIT 295b0 175 .cfa: $rsp 8 + .ra: .cfa -8 + ^
STACK CFI 295b1 $rbp: .cfa -16 + ^ .cfa: $rsp 16 +
STACK CFI 295b9 .cfa: $rbp 16 +
STACK CFI 295c6 $r12: .cfa -48 + ^ $r13: .cfa -40 + ^ $r14: .cfa -32 + ^ $r15: .cfa -24 + ^ $rbx: .cfa -56 + ^
STACK CFI 296c9 .cfa: $rsp 8 +
STACK CFI 296d0 .cfa: $rbp 16 +
STACK CFI 2971d .cfa: $rsp 8 +
STACK CFI 2971e .cfa: $rbp 16 +
STACK CFI INIT 29730 85 .cfa: $rsp 8 + .ra: .cfa -8 + ^
STACK CFI 29731 $rbp: .cfa -16 + ^ .cfa: $rsp 16 +
STACK CFI 29734 .cfa: $rbp 16 +
STACK CFI 29736 $r15: .cfa -24 + ^
STACK CFI 2973b $r14: .cfa -32 + ^
STACK CFI 29745 $r13: .cfa -40 + ^
STACK CFI 29750 $r12: .cfa -48 + ^ $rbx: .cfa -56 + ^
STACK CFI 297ad .cfa: $rsp 8 +
STACK CFI 297b0 .cfa: $rbp 16 +
STACK CFI INIT 297c0 c2 .cfa: $rsp 8 + .ra: .cfa -8 + ^
STACK CFI 297c1 $rbp: .cfa -16 + ^ .cfa: $rsp 16 +
STACK CFI 297c4 .cfa: $rbp 16 +
STACK CFI 297c6 $r13: .cfa -24 + ^
STACK CFI 297d0 $r12: .cfa -32 + ^ $rbx: .cfa -40 + ^
STACK CFI 2987d .cfa: $rsp 8 +
STACK CFI INIT 29890 231 .cfa: $rsp 8 + .ra: .cfa -8 + ^
STACK CFI 29891 $rbp: .cfa -16 + ^ .cfa: $rsp 16 +
STACK CFI 29894 .cfa: $rbp 16 +
STACK CFI 2989c $r12: .cfa -48 + ^ $r13: .cfa -40 + ^ $r14: .cfa -32 + ^ $r15: .cfa -24 + ^
STACK CFI 298a0 $rbx: .cfa -56 + ^
STACK CFI 29a74 .cfa: $rsp 8 +
STACK CFI 29a78 .cfa: $rbp 16 +
STACK CFI INIT 29ad0 135 .cfa: $rsp 8 + .ra: .cfa -8 + ^
STACK CFI 29ad1 $rbp: .cfa -16 + ^ .cfa: $rsp 16 +
STACK CFI 29ad4 .cfa: $rbp 16 +
STACK CFI 29add $r12: .cfa -48 + ^ $r13: .cfa -40 + ^ $r14: .cfa -32 + ^ $r15: .cfa -24 + ^ $rbx: .cfa -56 + ^
STACK CFI 29ba7 .cfa: $rsp 8 +
STACK CFI 29bb0 .cfa: $rbp 16 +
STACK CFI INIT 29c10 11 .cfa: $rsp 8 + .ra: .cfa -8 + ^
STACK CFI INIT 29c30 30c .cfa: $rsp 8 + .ra: .cfa -8 + ^
STACK CFI 29c4e $rbp: .cfa -16 + ^ .cfa: $rsp 16 +
STACK CFI 29c51 .cfa: $rbp 16 +
STACK CFI 29c55 $r13: .cfa -32 + ^ $r14: .cfa -24 + ^
STACK CFI 29c5e $r12: .cfa -40 + ^
STACK CFI 29c6c $rbx: .cfa -48 + ^
STACK CFI 29dd6 .cfa: $rsp 8 +
STACK CFI 29de0 .cfa: $rbp 16 +
STACK CFI 29e9d .cfa: $rsp 8 +
STACK CFI 29ea0 .cfa: $rbp 16 +
STACK CFI 29ed0 $r12: $r12 $r13: $r13 $r14: $r14 $rbp: $rbp $rbx: $rbx .cfa: $rsp 8 +
STACK CFI 29ed8 $r12: .cfa -40 + ^ $r13: .cfa -32 + ^ $r14: .cfa -24 + ^ $rbp: .cfa -16 + ^ $rbx: .cfa -48 + ^ .cfa: $rbp 16 +
STACK CFI 29f0b .cfa: $rsp 8 +
STACK CFI 29f10 .cfa: $rbp 16 +
STACK CFI INIT 29f40 19c5 .cfa: $rsp 8 + .ra: .cfa -8 + ^
STACK CFI 29f41 $rbp: .cfa -16 + ^ .cfa: $rsp 16 +
STACK CFI 29f46 .cfa: $rbp 16 +
STACK CFI 29f4a $r14: .cfa -32 + ^ $r15: .cfa -24 + ^
STACK CFI 29f55 $r12: .cfa -48 + ^ $r13: .cfa -40 + ^
STACK CFI 29f59 $rbx: .cfa -56 + ^
STACK CFI 2a197 .cfa: $rsp 8 +
STACK CFI 2a198 .cfa: $rbp 16 +
STACK CFI 2a278 .cfa: $rsp 8 +
STACK CFI 2a279 .cfa: $rbp 16 +
STACK CFI 2a3c1 .cfa: $rsp 8 +
STACK CFI 2a3c8 .cfa: $rbp 16 +
STACK CFI INIT 2b910 391 .cfa: $rsp 8 + .ra: .cfa -8 + ^
STACK CFI 2b911 $rbp: .cfa -16 + ^ .cfa: $rsp 16 +
STACK CFI 2b914 .cfa: $rbp 16 +
STACK CFI 2b918 $r14: .cfa -32 + ^ $r15: .cfa -24 + ^
STACK CFI 2b921 $r12: .cfa -48 + ^ $r13: .cfa -40 + ^
STACK CFI 2b925 $rbx: .cfa -56 + ^
STACK CFI 2bb24 .cfa: $rsp 8 +
STACK CFI 2bb28 .cfa: $rbp 16 +
STACK CFI INIT 2bcb0 12 .cfa: $rsp 8 + .ra: .cfa -8 + ^
STACK CFI INIT 2bcd0 f .cfa: $rsp 8 + .ra: .cfa -8 + ^
STACK CFI INIT 2bce0 13c .cfa: $rsp 8 + .ra: .cfa -8 + ^
STACK CFI 2bce1 $rbp: .cfa -16 + ^ .cfa: $rsp 16 +
STACK CFI 2bce4 .cfa: $rbp 16 +
STACK CFI 2bce8 $r13: .cfa -32 + ^ $r14: .cfa -24 + ^
STACK CFI 2bcf4 $r12: .cfa -40 + ^
STACK CFI 2bcf8 $rbx: .cfa -48 + ^
STACK CFI 2bd59 .cfa: $rsp 8 +
STACK CFI 2bd60 .cfa: $rbp 16 +
STACK CFI 2bdd2 .cfa: $rsp 8 +
STACK CFI 2bdd8 .cfa: $rbp 16 +
STACK CFI INIT 2be20 13c .cfa: $rsp 8 + .ra: .cfa -8 + ^
STACK CFI 2be21 $rbp: .cfa -16 + ^ .cfa: $rsp 16 +
STACK CFI 2be24 .cfa: $rbp 16 +
STACK CFI 2be28 $r13: .cfa -32 + ^ $r14: .cfa -24 + ^
STACK CFI 2be34 $r12: .cfa -40 + ^
STACK CFI 2be38 $rbx: .cfa -48 + ^
STACK CFI 2be99 .cfa: $rsp 8 +
STACK CFI 2bea0 .cfa: $rbp 16 +
STACK CFI 2bf12 .cfa: $rsp 8 +
STACK CFI 2bf18 .cfa: $rbp 16 +
STACK CFI INIT 2bf60 217 .cfa: $rsp 8 + .ra: .cfa -8 + ^
STACK CFI 2bf61 $rbp: .cfa -16 + ^ .cfa: $rsp 16 +
STACK CFI 2bf64 .cfa: $rbp 16 +
STACK CFI 2bf6a $r13: .cfa -40 + ^ $r14: .cfa -32 + ^ $r15: .cfa -24 + ^
STACK CFI 2bf6f $r12: .cfa -48 + ^
STACK CFI 2bf77 $rbx: .cfa -56 + ^
STACK CFI 2c020 .cfa: $rsp 8 +
STACK CFI 2c028 .cfa: $rbp 16 +
STACK CFI INIT 2c180 d1 .cfa: $rsp 8 + .ra: .cfa -8 + ^
STACK CFI 2c181 $rbp: .cfa -16 + ^ .cfa: $rsp 16 +
STACK CFI 2c18b .cfa: $rbp 16 +
STACK CFI 2c18d $r15: .cfa -24 + ^
STACK CFI 2c192 $r14: .cfa -32 + ^
STACK CFI 2c197 $r13: .cfa -40 + ^
STACK CFI 2c19c $r12: .cfa -48 + ^
STACK CFI 2c1a0 $rbx: .cfa -56 + ^
STACK CFI 2c23c .cfa: $rsp 8 +
STACK CFI 2c240 .cfa: $rbp 16 +
STACK CFI INIT 2c260 ae .cfa: $rsp 8 + .ra: .cfa -8 + ^
STACK CFI 2c261 $rbp: .cfa -16 + ^ .cfa: $rsp 16 +
STACK CFI 2c268 .cfa: $rbp 16 +
STACK CFI 2c26a $r15: .cfa -24 + ^
STACK CFI 2c26f $r14: .cfa -32 + ^
STACK CFI 2c274 $r13: .cfa -40 + ^
STACK CFI 2c279 $r12: .cfa -48 + ^
STACK CFI 2c27d $rbx: .cfa -56 + ^
STACK CFI 2c2f5 .cfa: $rsp 8 +
STACK CFI 2c300 .cfa: $rbp 16 +
STACK CFI INIT 2c310 18b .cfa: $rsp 8 + .ra: .cfa -8 + ^
STACK CFI 2c311 $rbp: .cfa -16 + ^ .cfa: $rsp 16 +
STACK CFI 2c318 .cfa: $rbp 16 +
STACK CFI 2c31a $r15: .cfa -24 + ^
STACK CFI 2c326 $r14: .cfa -32 + ^
STACK CFI 2c32b $r13: .cfa -40 + ^
STACK CFI 2c333 $r12: .cfa -48 + ^
STACK CFI 2c337 $rbx: .cfa -56 + ^
STACK CFI 2c43c .cfa: $rsp 8 +
STACK CFI 2c440 .cfa: $rbp 16 +
STACK CFI INIT 2c4a0 7b .cfa: $rsp 8 + .ra: .cfa -8 + ^
STACK CFI 2c4a1 $rbp: .cfa -16 + ^ .cfa: $rsp 16 +
STACK CFI 2c4ab .cfa: $rbp 16 +
STACK CFI 2c4ad $r14: .cfa -24 + ^
STACK CFI 2c4b2 $r13: .cfa -32 + ^
STACK CFI 2c4b7 $r12: .cfa -40 + ^
STACK CFI 2c4bb $rbx: .cfa -48 + ^
STACK CFI 2c51a .cfa: $rsp 8 +
STACK CFI INIT 2c520 a1 .cfa: $rsp 8 + .ra: .cfa -8 + ^
STACK CFI 2c521 $rbp: .cfa -16 + ^ .cfa: $rsp 16 +
STACK CFI 2c528 .cfa: $rbp 16 +
STACK CFI 2c52c $r14: .cfa -32 + ^ $r15: .cfa -24 + ^
STACK CFI 2c531 $r13: .cfa -40 + ^
STACK CFI 2c536 $r12: .cfa -48 + ^
STACK CFI 2c53a $rbx: .cfa -56 + ^
STACK CFI 2c5a7 .cfa: $rsp 8 +
STACK CFI 2c5b0 .cfa: $rbp 16 +
STACK CFI INIT 2c5d0 77d .cfa: $rsp 8 + .ra: .cfa -8 + ^
STACK CFI 2c5d1 $rbp: .cfa -16 + ^ .cfa: $rsp 16 +
STACK CFI 2c5d4 .cfa: $rbp 16 +
STACK CFI 2c5da $r13: .cfa -40 + ^ $r14: .cfa -32 + ^ $r15: .cfa -24 + ^
STACK CFI 2c5df $r12: .cfa -48 + ^
STACK CFI 2c5ea $rbx: .cfa -56 + ^
STACK CFI 2c7d0 .cfa: $rsp 8 +
STACK CFI 2c7d8 .cfa: $rbp 16 +
STACK CFI INIT 2cd50 52e .cfa: $rsp 8 + .ra: .cfa -8 + ^
STACK CFI 2cd51 $rbp: .cfa -16 + ^ .cfa: $rsp 16 +
STACK CFI 2cd54 .cfa: $rbp 16 +
STACK CFI 2cd58 $r14: .cfa -32 + ^ $r15: .cfa -24 + ^
STACK CFI 2cd5f $r12: .cfa -48 + ^ $r13: .cfa -40 + ^
STACK CFI 2cd67 $rbx: .cfa -56 + ^
STACK CFI 2cdd6 .cfa: $rsp 8 +
STACK CFI 2cdd7 .cfa: $rbp 16 +
STACK CFI INIT 2d280 b .cfa: $rsp 8 + .ra: .cfa -8 + ^
STACK CFI INIT 2d290 194 .cfa: $rsp 8 + .ra: .cfa -8 + ^
STACK CFI 2d291 $rbp: .cfa -16 + ^ .cfa: $rsp 16 +
STACK CFI 2d294 .cfa: $rbp 16 +
STACK CFI 2d296 $r15: .cfa -24 + ^
STACK CFI 2d29b $r14: .cfa -32 + ^
STACK CFI 2d2a0 $r13: .cfa -40 + ^
STACK CFI 2d2a5 $r12: .cfa -48 + ^
STACK CFI 2d2a9 $rbx: .cfa -56 + ^
STACK CFI 2d360 .cfa: $rsp 8 +
STACK CFI 2d368 .cfa: $rbp 16 +
STACK CFI INIT 2d430 73 .cfa: $rsp 8 + .ra: .cfa -8 + ^
STACK CFI 2d431 $rbp: .cfa -16 + ^ .cfa: $rsp 16 +
STACK CFI 2d434 .cfa: $rbp 16 +
STACK CFI 2d436 $r14: .cfa -24 + ^
STACK CFI 2d43e $r13: .cfa -32 + ^
STACK CFI 2d444 $r12: .cfa -40 + ^ $rbx: .cfa -48 + ^
STACK CFI 2d476 .cfa: $rsp 8 +
STACK CFI 2d480 .cfa: $rbp 16 +
STACK CFI INIT 2d4b0 8a .cfa: $rsp 8 + .ra: .cfa -8 + ^
STACK CFI 2d4b1 $rbp: .cfa -16 + ^ .cfa: $rsp 16 +
STACK CFI 2d4b4 .cfa: $rbp 16 +
STACK CFI 2d4b6 $r14: .cfa -24 + ^
STACK CFI 2d4c2 $r13: .cfa -32 + ^
STACK CFI 2d4cc $r12: .cfa -40 + ^
STACK CFI 2d507 .cfa: $rsp 8 +
STACK CFI 2d510 .cfa: $rbp 16 +
STACK CFI 2d539 .cfa: $rsp 8 +
STACK CFI INIT 2d540 fe .cfa: $rsp 8 + .ra: .cfa -8 + ^
STACK CFI 2d541 $rbp: .cfa -16 + ^ .cfa: $rsp 16 +
STACK CFI 2d544 .cfa: $rbp 16 +
STACK CFI 2d546 $r15: .cfa -24 + ^
STACK CFI 2d54b $r14: .cfa -32 + ^
STACK CFI 2d550 $r13: .cfa -40 + ^
STACK CFI 2d55c $r12: .cfa -48 + ^
STACK CFI 2d560 $rbx: .cfa -56 + ^
STACK CFI 2d5ab .cfa: $rsp 8 +
STACK CFI 2d5b0 .cfa: $rbp 16 +
STACK CFI INIT 2d640 31 .cfa: $rsp 8 + .ra: .cfa -8 + ^
STACK CFI 2d64d $rbp: .cfa -16 + ^ .cfa: $rsp 16 +
STACK CFI 2d650 .cfa: $rbp 16 +
STACK CFI 2d66d .cfa: $rsp 8 +
STACK CFI 2d670 $rbp: $rbp
STACK CFI INIT 2d680 be .cfa: $rsp 8 + .ra: .cfa -8 + ^
STACK CFI 2d681 $rbp: .cfa -16 + ^ .cfa: $rsp 16 +
STACK CFI 2d684 .cfa: $rbp 16 +
STACK CFI 2d689 $r12: .cfa -32 + ^ $r13: .cfa -24 + ^ $rbx: .cfa -40 + ^
STACK CFI 2d6dd .cfa: $rsp 8 +
STACK CFI 2d6e0 .cfa: $rbp 16 +
STACK CFI 2d73d .cfa: $rsp 8 +
STACK CFI INIT 2d740 41 .cfa: $rsp 8 + .ra: .cfa -8 + ^
STACK CFI 2d74d $rbp: .cfa -16 + ^ .cfa: $rsp 16 +
STACK CFI 2d750 .cfa: $rbp 16 +
STACK CFI 2d77a .cfa: $rsp 8 +
STACK CFI 2d780 $rbp: $rbp
STACK CFI INIT 2d790 13 .cfa: $rsp 8 + .ra: .cfa -8 + ^
STACK CFI INIT 2d7b0 f5 .cfa: $rsp 8 + .ra: .cfa -8 + ^
STACK CFI 2d7b1 $rbp: .cfa -16 + ^ .cfa: $rsp 16 +
STACK CFI 2d7b4 .cfa: $rbp 16 +
STACK CFI 2d7b8 $r14: .cfa -32 + ^ $r15: .cfa -24 + ^
STACK CFI 2d7c4 $r12: .cfa -48 + ^ $r13: .cfa -40 + ^ $rbx: .cfa -56 + ^
STACK CFI 2d85c .cfa: $rsp 8 +
STACK CFI 2d860 .cfa: $rbp 16 +
STACK CFI 2d876 .cfa: $rsp 8 +
STACK CFI 2d880 .cfa: $rbp 16 +
STACK CFI INIT 2d8b0 b .cfa: $rsp 8 + .ra: .cfa -8 + ^
STACK CFI INIT 2d8c0 61 .cfa: $rsp 8 + .ra: .cfa -8 + ^
STACK CFI 2d8c1 $rbp: .cfa -16 + ^ .cfa: $rsp 16 +
STACK CFI 2d8c4 .cfa: $rbp 16 +
STACK CFI 2d8c8 $r13: .cfa -32 + ^ $r14: .cfa -24 + ^
STACK CFI 2d8ce $r12: .cfa -40 + ^ $rbx: .cfa -48 + ^
STACK CFI 2d920 .cfa: $rsp 8 +
STACK CFI INIT 2d930 79 .cfa: $rsp 8 + .ra: .cfa -8 + ^
STACK CFI 2d931 $rbp: .cfa -16 + ^ .cfa: $rsp 16 +
STACK CFI 2d934 .cfa: $rbp 16 +
STACK CFI 2d936 $r13: .cfa -24 + ^
STACK CFI 2d93b $r12: .cfa -32 + ^
STACK CFI 2d943 $rbx: .cfa -40 + ^
STACK CFI 2d987 .cfa: $rsp 8 +
STACK CFI 2d990 .cfa: $rbp 16 +
STACK CFI INIT 2d9b0 10c .cfa: $rsp 8 + .ra: .cfa -8 + ^
STACK CFI 2d9b1 $rbp: .cfa -16 + ^ .cfa: $rsp 16 +
STACK CFI 2d9b4 .cfa: $rbp 16 +
STACK CFI 2d9ba $r13: .cfa -40 + ^ $r14: .cfa -32 + ^ $r15: .cfa -24 + ^
STACK CFI 2d9c4 $r12: .cfa -48 + ^ $rbx: .cfa -56 + ^
STACK CFI 2da6d .cfa: $rsp 8 +
STACK CFI 2da70 .cfa: $rbp 16 +
STACK CFI INIT 2dac0 fe .cfa: $rsp 8 + .ra: .cfa -8 + ^
STACK CFI 2dac1 $rbp: .cfa -16 + ^ .cfa: $rsp 16 +
STACK CFI 2dac4 .cfa: $rbp 16 +
STACK CFI 2dac6 $r15: .cfa -24 + ^
STACK CFI 2dacb $r14: .cfa -32 + ^
STACK CFI 2dad2 $r12: .cfa -48 + ^ $r13: .cfa -40 + ^
STACK CFI 2dada $rbx: .cfa -56 + ^
STACK CFI 2db10 .cfa: $rsp 8 +
STACK CFI 2db18 .cfa: $rbp 16 +
STACK CFI 2db99 .cfa: $rsp 8 +
STACK CFI 2dba0 .cfa: $rbp 16 +
STACK CFI INIT 2dbc0 b7 .cfa: $rsp 8 + .ra: .cfa -8 + ^
STACK CFI 2dbc1 $rbp: .cfa -16 + ^ .cfa: $rsp 16 +
STACK CFI 2dbc4 .cfa: $rbp 16 +
STACK CFI 2dbcb $r12: .cfa -40 + ^ $r13: .cfa -32 + ^ $r14: .cfa -24 + ^ $rbx: .cfa -48 + ^
STACK CFI 2dc40 .cfa: $rsp 8 +
STACK CFI 2dc48 .cfa: $rbp 16 +
STACK CFI 2dc56 .cfa: $rsp 8 +
STACK CFI 2dc60 .cfa: $rbp 16 +
STACK CFI INIT 2dc80 41 .cfa: $rsp 8 + .ra: .cfa -8 + ^
STACK CFI 2dc86 $rbp: .cfa -16 + ^ .cfa: $rsp 16 +
STACK CFI 2dc89 .cfa: $rbp 16 +
STACK CFI 2dc8b $r12: .cfa -24 + ^
STACK CFI 2dc8f $rbx: .cfa -32 + ^
STACK CFI 2dcb3 $rbx: $rbx
STACK CFI 2dcb8 $r12: $r12
STACK CFI 2dcb9 $rbp: $rbp .cfa: $rsp 8 +
STACK CFI INIT 2dcd0 217 .cfa: $rsp 8 + .ra: .cfa -8 + ^
STACK CFI 2dcd1 $rbp: .cfa -16 + ^ .cfa: $rsp 16 +
STACK CFI 2dcd4 .cfa: $rbp 16 +
STACK CFI 2dce4 $r12: .cfa -48 + ^ $r13: .cfa -40 + ^ $r14: .cfa -32 + ^ $r15: .cfa -24 + ^ $rbx: .cfa -56 + ^
STACK CFI 2de08 .cfa: $rsp 8 +
STACK CFI 2de10 .cfa: $rbp 16 +
STACK CFI INIT 2def0 12 .cfa: $rsp 8 + .ra: .cfa -8 + ^
STACK CFI INIT 2df10 fd .cfa: $rsp 8 + .ra: .cfa -8 + ^
STACK CFI 2df11 $rbp: .cfa -16 + ^ .cfa: $rsp 16 +
STACK CFI 2df14 .cfa: $rbp 16 +
STACK CFI 2df1b $r12: .cfa -40 + ^ $r13: .cfa -32 + ^ $r14: .cfa -24 + ^ $rbx: .cfa -48 + ^
STACK CFI 2dff9 .cfa: $rsp 8 +
STACK CFI 2dffa .cfa: $rbp 16 +
STACK CFI 2e00c .cfa: $rsp 8 +
STACK CFI INIT 2e010 526 .cfa: $rsp 8 + .ra: .cfa -8 + ^
STACK CFI 2e011 $rbp: .cfa -16 + ^ .cfa: $rsp 16 +
STACK CFI 2e014 .cfa: $rbp 16 +
STACK CFI 2e021 $r12: .cfa -48 + ^ $r13: .cfa -40 + ^ $r14: .cfa -32 + ^ $r15: .cfa -24 + ^ $rbx: .cfa -56 + ^
STACK CFI 2e12a .cfa: $rsp 8 +
STACK CFI 2e130 .cfa: $rbp 16 +
STACK CFI 2e182 .cfa: $rsp 8 +
STACK CFI 2e188 .cfa: $rbp 16 +
STACK CFI 2e2f0 .cfa: $rsp 8 +
STACK CFI 2e2f8 .cfa: $rbp 16 +
STACK CFI INIT 2e540 41c .cfa: $rsp 8 + .ra: .cfa -8 + ^
STACK CFI 2e541 $rbp: .cfa -16 + ^ .cfa: $rsp 16 +
STACK CFI 2e544 .cfa: $rbp 16 +
STACK CFI 2e546 $r15: .cfa -24 + ^
STACK CFI 2e54f $r12: .cfa -48 + ^ $r13: .cfa -40 + ^ $r14: .cfa -32 + ^
STACK CFI 2e557 $rbx: .cfa -56 + ^
STACK CFI 2e844 .cfa: $rsp 8 +
STACK CFI 2e848 .cfa: $rbp 16 +
STACK CFI INIT 2e960 1450 .cfa: $rsp 8 + .ra: .cfa -8 + ^
STACK CFI 2e961 $rbp: .cfa -16 + ^ .cfa: $rsp 16 +
STACK CFI 2e967 .cfa: $rbp 16 +
STACK CFI 2e974 $r12: .cfa -48 + ^ $r13: .cfa -40 + ^ $r14: .cfa -32 + ^ $r15: .cfa -24 + ^ $rbx: .cfa -56 + ^
STACK CFI 2eec2 .cfa: $rsp 8 +
STACK CFI 2eec3 .cfa: $rbp 16 +
STACK CFI INIT 2fdb0 259 .cfa: $rsp 8 + .ra: .cfa -8 + ^
STACK CFI 2fdb1 $rbp: .cfa -16 + ^ .cfa: $rsp 16 +
STACK CFI 2fdb4 .cfa: $rbp 16 +
STACK CFI 2fdc1 $r12: .cfa -48 + ^ $r13: .cfa -40 + ^ $r14: .cfa -32 + ^ $r15: .cfa -24 + ^ $rbx: .cfa -56 + ^
STACK CFI 2ff81 .cfa: $rsp 8 +
STACK CFI 2ff88 .cfa: $rbp 16 +
STACK CFI INIT 1cd30 a $r12: .cfa -48 + ^ $r13: .cfa -40 + ^ $r14: .cfa -32 + ^ $r15: .cfa -24 + ^ $rbp: .cfa -16 + ^ $rbx: .cfa -56 + ^ .cfa: $rbp 16 + .ra: .cfa -8 + ^
STACK CFI INIT 30010 263 .cfa: $rsp 8 + .ra: .cfa -8 + ^
STACK CFI 30011 $rbp: .cfa -16 + ^ .cfa: $rsp 16 +
STACK CFI 30014 .cfa: $rbp 16 +
STACK CFI 30021 $r12: .cfa -48 + ^ $r13: .cfa -40 + ^ $r14: .cfa -32 + ^ $r15: .cfa -24 + ^ $rbx: .cfa -56 + ^
STACK CFI 3009b .cfa: $rsp 8 +
STACK CFI 300a0 .cfa: $rbp 16 +
STACK CFI 3015e .cfa: $rsp 8 +
STACK CFI 30160 .cfa: $rbp 16 +
STACK CFI INIT 30280 d0 .cfa: $rsp 8 + .ra: .cfa -8 + ^
STACK CFI 30281 $rbp: .cfa -16 + ^ .cfa: $rsp 16 +
STACK CFI 30287 .cfa: $rbp 16 +
STACK CFI 30290 $r12: .cfa -24 + ^
STACK CFI 302d2 .cfa: $rsp 8 +
STACK CFI 302d8 .cfa: $rbp 16 +
STACK CFI INIT 30350 228 .cfa: $rsp 8 + .ra: .cfa -8 + ^
STACK CFI 30351 $rbp: .cfa -16 + ^ .cfa: $rsp 16 +
STACK CFI 30354 .cfa: $rbp 16 +
STACK CFI 30358 $r14: .cfa -32 + ^ $r15: .cfa -24 + ^
STACK CFI 30367 $r13: .cfa -40 + ^
STACK CFI 30376 $r12: .cfa -48 + ^
STACK CFI 30459 .cfa: $rsp 8 +
STACK CFI 30460 .cfa: $rbp 16 +
STACK CFI INIT 30580 233 .cfa: $rsp 8 + .ra: .cfa -8 + ^
STACK CFI 30581 $rbp: .cfa -16 + ^ .cfa: $rsp 16 +
STACK CFI 30584 .cfa: $rbp 16 +
STACK CFI 30586 $r15: .cfa -24 + ^
STACK CFI 3058d $r13: .cfa -40 + ^ $r14: .cfa -32 + ^
STACK CFI 30592 $r12: .cfa -48 + ^
STACK CFI 3059d $rbx: .cfa -56 + ^
STACK CFI 3069d .cfa: $rsp 8 +
STACK CFI 306a0 .cfa: $rbp 16 +
STACK CFI INIT 307c0 15 .cfa: $rsp 8 + .ra: .cfa -8 + ^
STACK CFI INIT 307e0 f .cfa: $rsp 8 + .ra: .cfa -8 + ^
STACK CFI INIT 307f0 40 .cfa: $rsp 8 + .ra: .cfa -8 + ^
STACK CFI 307f1 $rbp: .cfa -16 + ^ .cfa: $rsp 16 +
STACK CFI 307f4 .cfa: $rbp 16 +
STACK CFI 307f6 $r12: .cfa -24 + ^
STACK CFI 30815 .cfa: $rsp 8 +
STACK CFI 30820 .cfa: $rbp 16 +
STACK CFI 3082f .cfa: $rsp 8 +
STACK CFI INIT 30830 264 .cfa: $rsp 8 + .ra: .cfa -8 + ^
STACK CFI 30831 $rbp: .cfa -16 + ^ .cfa: $rsp 16 +
STACK CFI 30834 .cfa: $rbp 16 +
STACK CFI 30838 $r14: .cfa -32 + ^ $r15: .cfa -24 + ^
STACK CFI 30844 $r13: .cfa -40 + ^
STACK CFI 30850 $r12: .cfa -48 + ^
STACK CFI 308de .cfa: $rsp 8 +
STACK CFI 308e0 .cfa: $rbp 16 +
STACK CFI INIT 30aa0 4c .cfa: $rsp 8 + .ra: .cfa -8 + ^
STACK CFI 30aab $rbp: .cfa -16 + ^ .cfa: $rsp 16 +
STACK CFI 30ac6 .cfa: $rbp 16 +
STACK CFI 30ad3 .cfa: $rsp 8 +
STACK CFI 30ad8 $rbp: $rbp
STACK CFI 30ae0 $rbp: .cfa -16 + ^ .cfa: $rbp 16 +
STACK CFI 30aeb .cfa: $rsp 8 +
STACK CFI INIT 30af0 3a4 .cfa: $rsp 8 + .ra: .cfa -8 + ^
STACK CFI 30af1 $rbp: .cfa -16 + ^ .cfa: $rsp 16 +
STACK CFI 30af4 .cfa: $rbp 16 +
STACK CFI 30af8 $r14: .cfa -32 + ^ $r15: .cfa -24 + ^
STACK CFI 30afd $r13: .cfa -40 + ^
STACK CFI 30b02 $r12: .cfa -48 + ^
STACK CFI 30b06 $rbx: .cfa -56 + ^
STACK CFI 30b6d .cfa: $rsp 8 +
STACK CFI 30b70 .cfa: $rbp 16 +
STACK CFI 30be6 .cfa: $rsp 8 +
STACK CFI 30bf0 .cfa: $rbp 16 +
STACK CFI 30c96 .cfa: $rsp 8 +
STACK CFI 30ca0 .cfa: $rbp 16 +
STACK CFI INIT 30ea0 3ae .cfa: $rsp 8 + .ra: .cfa -8 + ^
STACK CFI 30ea1 $rbp: .cfa -16 + ^ .cfa: $rsp 16 +
STACK CFI 30ea4 .cfa: $rbp 16 +
STACK CFI 30eaa $r13: .cfa -40 + ^ $r14: .cfa -32 + ^ $r15: .cfa -24 + ^
STACK CFI 30eaf $r12: .cfa -48 + ^
STACK CFI 30eb7 $rbx: .cfa -56 + ^
STACK CFI 31177 .cfa: $rsp 8 +
STACK CFI 31180 .cfa: $rbp 16 +
STACK CFI INIT 31250 10b .cfa: $rsp 8 + .ra: .cfa -8 + ^
STACK CFI 31251 $rbp: .cfa -16 + ^ .cfa: $rsp 16 +
STACK CFI 31254 .cfa: $rbp 16 +
STACK CFI 31256 $r13: .cfa -24 + ^
STACK CFI 31260 $r12: .cfa -32 + ^
STACK CFI 31268 $rbx: .cfa -40 + ^
STACK CFI 3135a .cfa: $rsp 8 +
STACK CFI INIT 31360 46 .cfa: $rsp 8 + .ra: .cfa -8 + ^
STACK CFI 31361 $rbp: .cfa -16 + ^ .cfa: $rsp 16 +
STACK CFI 31364 .cfa: $rbp 16 +
STACK CFI 3136a $r13: .cfa -24 + ^
STACK CFI 31370 $r12: .cfa -32 + ^
STACK CFI 31398 .cfa: $rsp 8 +
STACK CFI 313a0 .cfa: $rbp 16 +
STACK CFI 313a5 .cfa: $rsp 8 +
STACK CFI INIT 313b0 40e .cfa: $rsp 8 + .ra: .cfa -8 + ^
STACK CFI 313b1 $rbp: .cfa -16 + ^ .cfa: $rsp 16 +
STACK CFI 313b6 .cfa: $rbp 16 +
STACK CFI 313b8 $r15: .cfa -24 + ^
STACK CFI 313bd $r14: .cfa -32 + ^
STACK CFI 313c2 $r13: .cfa -40 + ^
STACK CFI 313c7 $r12: .cfa -48 + ^
STACK CFI 313d4 $rbx: .cfa -56 + ^
STACK CFI 31506 .cfa: $rsp 8 +
STACK CFI 31510 .cfa: $rbp 16 +
STACK CFI 31584 .cfa: $rsp 8 +
STACK CFI 31588 .cfa: $rbp 16 +
STACK CFI INIT 317c0 611 .cfa: $rsp 8 + .ra: .cfa -8 + ^
STACK CFI 317c1 $rbp: .cfa -16 + ^ .cfa: $rsp 16 +
STACK CFI 317c4 .cfa: $rbp 16 +
STACK CFI 317c8 $r14: .cfa -32 + ^ $r15: .cfa -24 + ^
STACK CFI 317db $r12: .cfa -48 + ^ $r13: .cfa -40 + ^ $rbx: .cfa -56 + ^
STACK CFI 31a83 .cfa: $rsp 8 +
STACK CFI 31a88 .cfa: $rbp 16 +
STACK CFI INIT 31de0 415 .cfa: $rsp 8 + .ra: .cfa -8 + ^
STACK CFI 31de1 $rbp: .cfa -16 + ^ .cfa: $rsp 16 +
STACK CFI 31df4 .cfa: $rbp 16 +
STACK CFI 31dfa $r13: .cfa -40 + ^ $r14: .cfa -32 + ^ $r15: .cfa -24 + ^
STACK CFI 31e06 $r12: .cfa -48 + ^
STACK CFI 31e16 $rbx: .cfa -56 + ^
STACK CFI 31ecc .cfa: $rsp 8 +
STACK CFI 31ed0 .cfa: $rbp 16 +
STACK CFI 31fc8 .cfa: $rsp 8 +
STACK CFI 31fd0 .cfa: $rbp 16 +
STACK CFI INIT 32200 167 .cfa: $rsp 8 + .ra: .cfa -8 + ^
STACK CFI 32201 $rbp: .cfa -16 + ^ .cfa: $rsp 16 +
STACK CFI 32204 .cfa: $rbp 16 +
STACK CFI 32206 $r13: .cfa -24 + ^
STACK CFI 3220b $r12: .cfa -32 + ^
STACK CFI 32366 .cfa: $rsp 8 +
STACK CFI INIT 32370 10e .cfa: $rsp 8 + .ra: .cfa -8 + ^
STACK CFI 32371 $rbp: .cfa -16 + ^ .cfa: $rsp 16 +
STACK CFI 32379 .cfa: $rbp 16 +
STACK CFI 3237e $r12: .cfa -32 + ^ $r13: .cfa -24 + ^ $rbx: .cfa -40 + ^
STACK CFI 3241b .cfa: $rsp 8 +
STACK CFI 32420 .cfa: $rbp 16 +
STACK CFI 3243c .cfa: $rsp 8 +
STACK CFI 32440 .cfa: $rbp 16 +
STACK CFI 3246e .cfa: $rsp 8 +
STACK CFI 32470 .cfa: $rbp 16 +
STACK CFI INIT 32480 f8 .cfa: $rsp 8 + .ra: .cfa -8 + ^
STACK CFI 32481 $rbp: .cfa -16 + ^ .cfa: $rsp 16 +
STACK CFI 32484 .cfa: $rbp 16 +
STACK CFI 3248d $r12: .cfa -24 + ^
STACK CFI 3256d .cfa: $rsp 8 +
STACK CFI 32570 .cfa: $rbp 16 +
STACK CFI 32577 .cfa: $rsp 8 +
STACK CFI INIT 32580 1d5 .cfa: $rsp 8 + .ra: .cfa -8 + ^
STACK CFI 32581 $rbp: .cfa -16 + ^ .cfa: $rsp 16 +
STACK CFI 32587 .cfa: $rbp 16 +
STACK CFI 32589 $r13: .cfa -24 + ^
STACK CFI 3258e $r12: .cfa -32 + ^
STACK CFI 32659 .cfa: $rsp 8 +
STACK CFI 32660 .cfa: $rbp 16 +
STACK CFI 32708 .cfa: $rsp 8 +
STACK CFI 32710 .cfa: $rbp 16 +
STACK CFI 3271b .cfa: $rsp 8 +
STACK CFI 32720 .cfa: $rbp 16 +
STACK CFI 32754 .cfa: $rsp 8 +
STACK CFI INIT 32760 121 .cfa: $rsp 8 + .ra: .cfa -8 + ^
STACK CFI 32761 $rbp: .cfa -16 + ^ .cfa: $rsp 16 +
STACK CFI 32764 .cfa: $rbp 16 +
STACK CFI 32766 $r14: .cfa -24 + ^
STACK CFI 3276b $r13: .cfa -32 + ^
STACK CFI 32775 $r12: .cfa -40 + ^ $rbx: .cfa -48 + ^
STACK CFI 32806 .cfa: $rsp 8 +
STACK CFI 32810 .cfa: $rbp 16 +
STACK CFI 32826 .cfa: $rsp 8 +
STACK CFI 32830 .cfa: $rbp 16 +
STACK CFI 32880 .cfa: $rsp 8 +
STACK CFI INIT 32890 a .cfa: $rsp 8 + .ra: .cfa -8 + ^
STACK CFI INIT 328a0 d .cfa: $rsp 8 + .ra: .cfa -8 + ^
STACK CFI INIT 328b0 f .cfa: $rsp 8 + .ra: .cfa -8 + ^
STACK CFI INIT 328c0 59 .cfa: $rsp 8 + .ra: .cfa -8 + ^
STACK CFI 328c1 $rbp: .cfa -16 + ^ .cfa: $rsp 16 +
STACK CFI 328cc .cfa: $rbp 16 +
STACK CFI 328ce $r13: .cfa -24 + ^
STACK CFI 328da $r12: .cfa -32 + ^
STACK CFI 32918 .cfa: $rsp 8 +
STACK CFI INIT 32920 4 .cfa: $rsp 8 + .ra: .cfa -8 + ^
STACK CFI INIT 32930 163 .cfa: $rsp 8 + .ra: .cfa -8 + ^
STACK CFI 32931 $rbp: .cfa -16 + ^ .cfa: $rsp 16 +
STACK CFI 32937 .cfa: $rbp 16 +
STACK CFI 3293b $r12: .cfa -32 + ^ $r13: .cfa -24 + ^
STACK CFI 329ae .cfa: $rsp 8 +
STACK CFI 329b0 .cfa: $rbp 16 +
STACK CFI 32a2a .cfa: $rsp 8 +
STACK CFI 32a30 .cfa: $rbp 16 +
STACK CFI 32a68 .cfa: $rsp 8 +
STACK CFI 32a70 .cfa: $rbp 16 +
STACK CFI INIT 32aa0 7 .cfa: $rsp 8 + .ra: .cfa -8 + ^
STACK CFI INIT 32ab0 18 .cfa: $rsp 8 + .ra: .cfa -8 + ^
STACK CFI 32ab1 $rbp: .cfa -16 + ^ .cfa: $rsp 16 +
STACK CFI 32abb .cfa: $rbp 16 +
STACK CFI 32ac1 .cfa: $rsp 8 +
STACK CFI INIT 32ad0 19 .cfa: $rsp 8 + .ra: .cfa -8 + ^
STACK CFI 32ad1 $rbp: .cfa -16 + ^ .cfa: $rsp 16 +
STACK CFI 32adc .cfa: $rbp 16 +
STACK CFI 32ae2 .cfa: $rsp 8 +
STACK CFI INIT 32af0 218 .cfa: $rsp 8 + .ra: .cfa -8 + ^
STACK CFI 32af1 $rbp: .cfa -16 + ^ .cfa: $rsp 16 +
STACK CFI 32af4 .cfa: $rbp 16 +
STACK CFI 32afa $r12: .cfa -40 + ^ $r13: .cfa -32 + ^ $r14: .cfa -24 + ^
STACK CFI 32b05 $rbx: .cfa -48 + ^
STACK CFI 32b75 .cfa: $rsp 8 +
STACK CFI 32b80 .cfa: $rbp 16 +
STACK CFI INIT 32d10 7 .cfa: $rsp 8 + .ra: .cfa -8 + ^
STACK CFI INIT 32d20 c .cfa: $rsp 8 + .ra: .cfa -8 + ^
STACK CFI INIT 32d30 d .cfa: $rsp 8 + .ra: .cfa -8 + ^
STACK CFI INIT 32d40 202 .cfa: $rsp 8 + .ra: .cfa -8 + ^
STACK CFI 32d41 $rbp: .cfa -16 + ^ .cfa: $rsp 16 +
STACK CFI 32d44 .cfa: $rbp 16 +
STACK CFI 32d47 $r12: .cfa -24 + ^ $rbx: .cfa -32 + ^
STACK CFI 32e24 .cfa: $rsp 8 +
STACK CFI 32e28 .cfa: $rbp 16 +
STACK CFI 32e56 .cfa: $rsp 8 +
STACK CFI 32e60 .cfa: $rbp 16 +
STACK CFI 32ece .cfa: $rsp 8 +
STACK CFI 32ed0 .cfa: $rbp 16 +
STACK CFI INIT 32f50 11a .cfa: $rsp 8 + .ra: .cfa -8 + ^
STACK CFI 32f51 $rbp: .cfa -16 + ^ .cfa: $rsp 16 +
STACK CFI 32f54 .cfa: $rbp 16 +
STACK CFI 32f58 $r13: .cfa -32 + ^ $r14: .cfa -24 + ^
STACK CFI 32f61 $r12: .cfa -40 + ^ $rbx: .cfa -48 + ^
STACK CFI 33069 .cfa: $rsp 8 +
STACK CFI INIT 33070 16 .cfa: $rsp 8 + .ra: .cfa -8 + ^
STACK CFI INIT 33090 f .cfa: $rsp 8 + .ra: .cfa -8 + ^
STACK CFI INIT 330a0 8 .cfa: $rsp 8 + .ra: .cfa -8 + ^
STACK CFI INIT 330b0 26 .cfa: $rsp 8 + .ra: .cfa -8 + ^
STACK CFI INIT 330e0 33 .cfa: $rsp 8 + .ra: .cfa -8 + ^
STACK CFI 330f1 $rbp: .cfa -16 + ^ .cfa: $rsp 16 +
STACK CFI 330fe .cfa: $rbp 16 +
STACK CFI 33104 .cfa: $rsp 8 +
STACK CFI 33110 $rbp: $rbp
STACK CFI INIT 33120 3c .cfa: $rsp 8 + .ra: .cfa -8 + ^
STACK CFI 33131 $rbp: .cfa -16 + ^ .cfa: $rsp 16 +
STACK CFI 3313e .cfa: $rbp 16 +
STACK CFI 33150 .cfa: $rsp 8 +
STACK CFI 33158 .cfa: $rbp 16 +
STACK CFI 3315b .cfa: $rsp 8 +
STACK CFI INIT 33160 44 .cfa: $rsp 8 + .ra: .cfa -8 + ^
STACK CFI 33171 $rbp: .cfa -16 + ^ .cfa: $rsp 16 +
STACK CFI 3317e .cfa: $rbp 16 +
STACK CFI 3318f .cfa: $rsp 8 +
STACK CFI 331a0 .cfa: $rbp 16 +
STACK CFI 331a3 .cfa: $rsp 8 +
STACK CFI INIT 331b0 39 .cfa: $rsp 8 + .ra: .cfa -8 + ^
STACK CFI 331b1 $rbp: .cfa -16 + ^ .cfa: $rsp 16 +
STACK CFI 331c1 .cfa: $rbp 16 +
STACK CFI 331e8 .cfa: $rsp 8 +
STACK CFI INIT 331f0 8 .cfa: $rsp 8 + .ra: .cfa -8 + ^
STACK CFI INIT 33200 8 .cfa: $rsp 8 + .ra: .cfa -8 + ^
STACK CFI INIT 33210 33 .cfa: $rsp 8 + .ra: .cfa -8 + ^
STACK CFI 33211 $rbp: .cfa -16 + ^ .cfa: $rsp 16 +
STACK CFI 33219 .cfa: $rbp 16 +
STACK CFI 3321a $rbx: .cfa -24 + ^
STACK CFI 33242 .cfa: $rsp 8 +
STACK CFI INIT 33250 10b .cfa: $rsp 8 + .ra: .cfa -8 + ^
STACK CFI 3325a $rbp: .cfa -16 + ^ .cfa: $rsp 16 +
STACK CFI 3325d .cfa: $rbp 16 +
STACK CFI 33261 $r12: .cfa -32 + ^ $r13: .cfa -24 + ^
STACK CFI 332ce .cfa: $rsp 8 +
STACK CFI 332d0 .cfa: $rbp 16 +
STACK CFI 33326 .cfa: $rsp 8 +
STACK CFI 33330 .cfa: $rbp 16 +
STACK CFI 33358 $r12: $r12 $r13: $r13 $rbp: $rbp .cfa: $rsp 8 +
STACK CFI INIT 33360 a4 .cfa: $rsp 8 + .ra: .cfa -8 + ^
STACK CFI 33361 $rbp: .cfa -16 + ^ .cfa: $rsp 16 +
STACK CFI 33364 .cfa: $rbp 16 +
STACK CFI 3336d $r12: .cfa -32 + ^ $r13: .cfa -24 + ^ $rbx: .cfa -40 + ^
STACK CFI 333e5 .cfa: $rsp 8 +
STACK CFI 333f0 .cfa: $rbp 16 +
STACK CFI 33403 .cfa: $rsp 8 +
STACK CFI INIT 33410 232 .cfa: $rsp 8 + .ra: .cfa -8 + ^
STACK CFI 33411 $rbp: .cfa -16 + ^ .cfa: $rsp 16 +
STACK CFI 33414 .cfa: $rbp 16 +
STACK CFI 33416 $r15: .cfa -24 + ^
STACK CFI 3341d $r13: .cfa -40 + ^ $r14: .cfa -32 + ^
STACK CFI 33422 $r12: .cfa -48 + ^
STACK CFI 3342d $rbx: .cfa -56 + ^
STACK CFI 33577 .cfa: $rsp 8 +
STACK CFI 33580 .cfa: $rbp 16 +
STACK CFI INIT 33650 258 .cfa: $rsp 8 + .ra: .cfa -8 + ^
STACK CFI 33651 $rbp: .cfa -16 + ^ .cfa: $rsp 16 +
STACK CFI 33654 .cfa: $rbp 16 +
STACK CFI 33664 $r12: .cfa -48 + ^ $r13: .cfa -40 + ^ $r14: .cfa -32 + ^ $r15: .cfa -24 + ^ $rbx: .cfa -56 + ^
STACK CFI 336ff .cfa: $rsp 8 +
STACK CFI 33700 .cfa: $rbp 16 +
STACK CFI INIT 338b0 3a .cfa: $rsp 8 + .ra: .cfa -8 + ^
STACK CFI 338b1 $rbp: .cfa -16 + ^ .cfa: $rsp 16 +
STACK CFI 338b4 .cfa: $rbp 16 +
STACK CFI 338b6 $r12: .cfa -24 + ^
STACK CFI 338d5 .cfa: $rsp 8 +
STACK CFI 338e0 .cfa: $rbp 16 +
STACK CFI 338e9 .cfa: $rsp 8 +
STACK CFI INIT 338f0 84 .cfa: $rsp 8 + .ra: .cfa -8 + ^
STACK CFI 338f1 $rbp: .cfa -16 + ^ .cfa: $rsp 16 +
STACK CFI 338f4 .cfa: $rbp 16 +
STACK CFI 338f6 $r15: .cfa -24 + ^
STACK CFI 338fb $r14: .cfa -32 + ^
STACK CFI 33900 $r13: .cfa -40 + ^
STACK CFI 33905 $r12: .cfa -48 + ^
STACK CFI 33910 $rbx: .cfa -56 + ^
STACK CFI 33966 .cfa: $rsp 8 +
STACK CFI 33970 .cfa: $rbp 16 +
STACK CFI INIT 33980 63 .cfa: $rsp 8 + .ra: .cfa -8 + ^
STACK CFI 33989 $rbp: .cfa -16 + ^ .cfa: $rsp 16 +
STACK CFI 3398c .cfa: $rbp 16 +
STACK CFI 33991 $r12: .cfa -32 + ^ $r13: .cfa -24 + ^ $rbx: .cfa -40 + ^
STACK CFI 339cc .cfa: $rsp 8 +
STACK CFI 339d0 .cfa: $rbp 16 +
STACK CFI 339df .cfa: $rsp 8 +
STACK CFI 339e0 $r12: $r12 $r13: $r13 $rbp: $rbp $rbx: $rbx
STACK CFI INIT 339f0 1c .cfa: $rsp 8 + .ra: .cfa -8 + ^
STACK CFI 339f1 $rbp: .cfa -16 + ^ .cfa: $rsp 16 +
STACK CFI 339f4 .cfa: $rbp 16 +
STACK CFI 33a03 .cfa: $rsp 8 +
STACK CFI 33a08 .cfa: $rbp 16 +
STACK CFI 33a0b .cfa: $rsp 8 +
STACK CFI INIT 33a10 1c .cfa: $rsp 8 + .ra: .cfa -8 + ^
STACK CFI 33a11 $rbp: .cfa -16 + ^ .cfa: $rsp 16 +
STACK CFI 33a14 .cfa: $rbp 16 +
STACK CFI 33a23 .cfa: $rsp 8 +
STACK CFI 33a28 .cfa: $rbp 16 +
STACK CFI 33a2b .cfa: $rsp 8 +
STACK CFI INIT 33a30 1c .cfa: $rsp 8 + .ra: .cfa -8 + ^
STACK CFI 33a31 $rbp: .cfa -16 + ^ .cfa: $rsp 16 +
STACK CFI 33a34 .cfa: $rbp 16 +
STACK CFI 33a43 .cfa: $rsp 8 +
STACK CFI 33a48 .cfa: $rbp 16 +
STACK CFI 33a4b .cfa: $rsp 8 +
STACK CFI INIT 33a50 74 .cfa: $rsp 8 + .ra: .cfa -8 + ^
STACK CFI 33a51 $rbp: .cfa -16 + ^ .cfa: $rsp 16 +
STACK CFI 33a54 .cfa: $rbp 16 +
STACK CFI 33a56 $r13: .cfa -24 + ^
STACK CFI 33a5b $r12: .cfa -32 + ^
STACK CFI 33a5f $rbx: .cfa -40 + ^
STACK CFI 33aa6 .cfa: $rsp 8 +
STACK CFI 33ab0 .cfa: $rbp 16 +
STACK CFI 33ac3 .cfa: $rsp 8 +
STACK CFI INIT 33ad0 fb .cfa: $rsp 8 + .ra: .cfa -8 + ^
STACK CFI 33ad1 $rbp: .cfa -16 + ^ .cfa: $rsp 16 +
STACK CFI 33ad4 .cfa: $rbp 16 +
STACK CFI 33ad6 $r13: .cfa -24 + ^
STACK CFI 33adb $r12: .cfa -32 + ^
STACK CFI 33ae6 $rbx: .cfa -40 + ^
STACK CFI 33afe .cfa: $rsp 8 +
STACK CFI 33b00 .cfa: $rbp 16 +
STACK CFI 33b5d .cfa: $rsp 8 +
STACK CFI 33b60 .cfa: $rbp 16 +
STACK CFI 33bac .cfa: $rsp 8 +
STACK CFI 33bb0 .cfa: $rbp 16 +
STACK CFI INIT 33bd0 61 .cfa: $rsp 8 + .ra: .cfa -8 + ^
STACK CFI INIT 33c40 322 .cfa: $rsp 8 + .ra: .cfa -8 + ^
STACK CFI 33c41 $rbp: .cfa -16 + ^ .cfa: $rsp 16 +
STACK CFI 33c44 .cfa: $rbp 16 +
STACK CFI 33c46 $r15: .cfa -24 + ^
STACK CFI 33c4b $r14: .cfa -32 + ^
STACK CFI 33c50 $r13: .cfa -40 + ^
STACK CFI 33c56 $r12: .cfa -48 + ^ $rbx: .cfa -56 + ^
STACK CFI 33cb4 .cfa: $rsp 8 +
STACK CFI 33cb8 .cfa: $rbp 16 +
STACK CFI INIT 33f70 5b5 .cfa: $rsp 8 + .ra: .cfa -8 + ^
STACK CFI 33f71 $rbp: .cfa -16 + ^ .cfa: $rsp 16 +
STACK CFI 33f74 .cfa: $rbp 16 +
STACK CFI 33f81 $r12: .cfa -48 + ^ $r13: .cfa -40 + ^ $r14: .cfa -32 + ^ $r15: .cfa -24 + ^ $rbx: .cfa -56 + ^
STACK CFI 33fbc .cfa: $rsp 8 +
STACK CFI 33fc0 .cfa: $rbp 16 +
STACK CFI INIT 34530 15 .cfa: $rsp 8 + .ra: .cfa -8 + ^
STACK CFI INIT 34550 19a .cfa: $rsp 8 + .ra: .cfa -8 + ^
STACK CFI 34551 $rbp: .cfa -16 + ^ .cfa: $rsp 16 +
STACK CFI 34554 .cfa: $rbp 16 +
STACK CFI 34556 $r15: .cfa -24 + ^
STACK CFI 3455b $r14: .cfa -32 + ^
STACK CFI 34560 $r13: .cfa -40 + ^
STACK CFI 34565 $r12: .cfa -48 + ^
STACK CFI 34569 $rbx: .cfa -56 + ^
STACK CFI 3460c .cfa: $rsp 8 +
STACK CFI 34610 .cfa: $rbp 16 +
STACK CFI INIT 346f0 19a .cfa: $rsp 8 + .ra: .cfa -8 + ^
STACK CFI 346f1 $rbp: .cfa -16 + ^ .cfa: $rsp 16 +
STACK CFI 346f4 .cfa: $rbp 16 +
STACK CFI 346f6 $r15: .cfa -24 + ^
STACK CFI 346fb $r14: .cfa -32 + ^
STACK CFI 34700 $r13: .cfa -40 + ^
STACK CFI 34705 $r12: .cfa -48 + ^
STACK CFI 34709 $rbx: .cfa -56 + ^
STACK CFI 347af .cfa: $rsp 8 +
STACK CFI 347b0 .cfa: $rbp 16 +
STACK CFI INIT 34890 2a0 .cfa: $rsp 8 + .ra: .cfa -8 + ^
STACK CFI 34891 $rbp: .cfa -16 + ^ .cfa: $rsp 16 +
STACK CFI 34894 .cfa: $rbp 16 +
STACK CFI 348a1 $r12: .cfa -48 + ^ $r13: .cfa -40 + ^ $r14: .cfa -32 + ^ $r15: .cfa -24 + ^ $rbx: .cfa -56 + ^
STACK CFI 348dc .cfa: $rsp 8 +
STACK CFI 348e0 .cfa: $rbp 16 +
STACK CFI INIT 34b30 5 .cfa: $rsp 8 + .ra: .cfa -8 + ^
STACK CFI INIT 34b40 11e .cfa: $rsp 8 + .ra: .cfa -8 + ^
STACK CFI INIT 34c60 39 .cfa: $rsp 8 + .ra: .cfa -8 + ^
STACK CFI INIT 34ca0 b0 .cfa: $rsp 8 + .ra: .cfa -8 + ^
STACK CFI INIT 34d50 2e3 .cfa: $rsp 8 + .ra: .cfa -8 + ^
STACK CFI 34d51 $rbp: .cfa -16 + ^ .cfa: $rsp 16 +
STACK CFI 34d54 .cfa: $rbp 16 +
STACK CFI 34d58 $r14: .cfa -32 + ^ $r15: .cfa -24 + ^
STACK CFI 34d64 $r12: .cfa -48 + ^ $r13: .cfa -40 + ^ $rbx: .cfa -56 + ^
STACK CFI 34fa9 .cfa: $rsp 8 +
STACK CFI 34fb0 .cfa: $rbp 16 +
STACK CFI INIT 35040 57 .cfa: $rsp 8 + .ra: .cfa -8 + ^
STACK CFI INIT 350a0 81 .cfa: $rsp 8 + .ra: .cfa -8 + ^
STACK CFI INIT 35130 f3 .cfa: $rsp 8 + .ra: .cfa -8 + ^
STACK CFI INIT 35230 134 .cfa: $rsp 8 + .ra: .cfa -8 + ^
STACK CFI INIT 35370 81 .cfa: $rsp 8 + .ra: .cfa -8 + ^
STACK CFI INIT 35400 95 .cfa: $rsp 8 + .ra: .cfa -8 + ^
STACK CFI INIT 354a0 8f .cfa: $rsp 8 + .ra: .cfa -8 + ^
STACK CFI INIT 35530 17c .cfa: $rsp 8 + .ra: .cfa -8 + ^
STACK CFI 35531 $rbp: .cfa -16 + ^ .cfa: $rsp 16 +
STACK CFI 35534 .cfa: $rbp 16 +
STACK CFI 35536 $r15: .cfa -24 + ^
STACK CFI 3553f $r12: .cfa -48 + ^ $r13: .cfa -40 + ^ $r14: .cfa -32 + ^
STACK CFI 35543 $rbx: .cfa -56 + ^
STACK CFI 356ab .cfa: $rsp 8 +
STACK CFI INIT 356b0 eb .cfa: $rsp 8 + .ra: .cfa -8 + ^
STACK CFI 356b1 $rbp: .cfa -16 + ^ .cfa: $rsp 16 +
STACK CFI 356b4 .cfa: $rbp 16 +
STACK CFI 356b6 $r12: .cfa -24 + ^
STACK CFI 356ba $rbx: .cfa -32 + ^
STACK CFI 35764 .cfa: $rsp 8 +
STACK CFI 35768 .cfa: $rbp 16 +
STACK CFI 3579a .cfa: $rsp 8 +
STACK CFI INIT 357a0 81 .cfa: $rsp 8 + .ra: .cfa -8 + ^
STACK CFI INIT 35830 f1 .cfa: $rsp 8 + .ra: .cfa -8 + ^
STACK CFI INIT 35930 a7 .cfa: $rsp 8 + .ra: .cfa -8 + ^
STACK CFI 35931 $rbp: .cfa -16 + ^ .cfa: $rsp 16 +
STACK CFI 3593d .cfa: $rbp 16 +
STACK CFI 359c9 .cfa: $rsp 8 +
STACK CFI 359d0 .cfa: $rbp 16 +
STACK CFI INIT 359e0 95 .cfa: $rsp 8 + .ra: .cfa -8 + ^
STACK CFI 359e1 $rbp: .cfa -16 + ^ .cfa: $rsp 16 +
STACK CFI 359e7 .cfa: $rbp 16 +
STACK CFI 359ec $rbx: .cfa -24 + ^
STACK CFI 35a21 .cfa: $rsp 8 +
STACK CFI 35a28 .cfa: $rbp 16 +
STACK CFI INIT 35a80 95 .cfa: $rsp 8 + .ra: .cfa -8 + ^
STACK CFI 35a81 $rbp: .cfa -16 + ^ .cfa: $rsp 16 +
STACK CFI 35a87 .cfa: $rbp 16 +
STACK CFI 35a8c $rbx: .cfa -24 + ^
STACK CFI 35ac1 .cfa: $rsp 8 +
STACK CFI 35ac8 .cfa: $rbp 16 +
STACK CFI INIT 35b20 95 .cfa: $rsp 8 + .ra: .cfa -8 + ^
STACK CFI 35b21 $rbp: .cfa -16 + ^ .cfa: $rsp 16 +
STACK CFI 35b27 .cfa: $rbp 16 +
STACK CFI 35b2c $rbx: .cfa -24 + ^
STACK CFI 35b61 .cfa: $rsp 8 +
STACK CFI 35b68 .cfa: $rbp 16 +
STACK CFI INIT 35bc0 e8 .cfa: $rsp 8 + .ra: .cfa -8 + ^
STACK CFI 35bc1 $rbp: .cfa -16 + ^ .cfa: $rsp 16 +
STACK CFI 35bc7 .cfa: $rbp 16 +
STACK CFI 35bc9 $r13: .cfa -24 + ^
STACK CFI 35bce $r12: .cfa -32 + ^
STACK CFI 35bd6 $rbx: .cfa -40 + ^
STACK CFI 35c73 .cfa: $rsp 8 +
STACK CFI 35c78 .cfa: $rbp 16 +
STACK CFI INIT 35cb0 108 .cfa: $rsp 8 + .ra: .cfa -8 + ^
STACK CFI 35cb1 $rbp: .cfa -16 + ^ .cfa: $rsp 16 +
STACK CFI 35cb7 .cfa: $rbp 16 +
STACK CFI 35cb9 $r13: .cfa -24 + ^
STACK CFI 35cbe $r12: .cfa -32 + ^
STACK CFI 35cc6 $rbx: .cfa -40 + ^
STACK CFI 35d83 .cfa: $rsp 8 +
STACK CFI 35d88 .cfa: $rbp 16 +
STACK CFI INIT 35dc0 13d .cfa: $rsp 8 + .ra: .cfa -8 + ^
STACK CFI 35dc1 $rbp: .cfa -16 + ^ .cfa: $rsp 16 +
STACK CFI 35dc4 .cfa: $rbp 16 +
STACK CFI 35dc8 $r13: .cfa -32 + ^ $r14: .cfa -24 + ^
STACK CFI 35dd5 $r12: .cfa -40 + ^
STACK CFI 35ddc $rbx: .cfa -48 + ^
STACK CFI 35e8a .cfa: $rsp 8 +
STACK CFI 35e90 .cfa: $rbp 16 +
STACK CFI 35ed4 .cfa: $rsp 8 +
STACK CFI 35ed8 .cfa: $rbp 16 +
STACK CFI INIT 35f00 13d .cfa: $rsp 8 + .ra: .cfa -8 + ^
STACK CFI 35f01 $rbp: .cfa -16 + ^ .cfa: $rsp 16 +
STACK CFI 35f04 .cfa: $rbp 16 +
STACK CFI 35f08 $r13: .cfa -32 + ^ $r14: .cfa -24 + ^
STACK CFI 35f15 $r12: .cfa -40 + ^
STACK CFI 35f1c $rbx: .cfa -48 + ^
STACK CFI 35fca .cfa: $rsp 8 +
STACK CFI 35fd0 .cfa: $rbp 16 +
STACK CFI 36014 .cfa: $rsp 8 +
STACK CFI 36018 .cfa: $rbp 16 +
STACK CFI INIT 36040 18c .cfa: $rsp 8 + .ra: .cfa -8 + ^
STACK CFI 36041 $rbp: .cfa -16 + ^ .cfa: $rsp 16 +
STACK CFI 3604a .cfa: $rbp 16 +
STACK CFI 3604c $r15: .cfa -24 + ^
STACK CFI 36051 $r14: .cfa -32 + ^
STACK CFI 36056 $r13: .cfa -40 + ^
STACK CFI 36060 $r12: .cfa -48 + ^ $rbx: .cfa -56 + ^
STACK CFI 3618f .cfa: $rsp 8 +
STACK CFI 36190 .cfa: $rbp 16 +
STACK CFI INIT 361d0 1d0 .cfa: $rsp 8 + .ra: .cfa -8 + ^
STACK CFI 361d1 $rbp: .cfa -16 + ^ .cfa: $rsp 16 +
STACK CFI 361d7 .cfa: $rbp 16 +
STACK CFI 361dd $r13: .cfa -40 + ^ $r14: .cfa -32 + ^ $r15: .cfa -24 + ^
STACK CFI 361e2 $r12: .cfa -48 + ^
STACK CFI 361ea $rbx: .cfa -56 + ^
STACK CFI 36301 .cfa: $rsp 8 +
STACK CFI 36308 .cfa: $rbp 16 +
STACK CFI 36374 .cfa: $rsp 8 +
STACK CFI 36378 .cfa: $rbp 16 +
STACK CFI INIT 363a0 230 .cfa: $rsp 8 + .ra: .cfa -8 + ^
STACK CFI 363a1 $rbp: .cfa -16 + ^ .cfa: $rsp 16 +
STACK CFI 363a7 .cfa: $rbp 16 +
STACK CFI 363ab $r14: .cfa -32 + ^ $r15: .cfa -24 + ^
STACK CFI 363b0 $r13: .cfa -40 + ^
STACK CFI 363b5 $r12: .cfa -48 + ^
STACK CFI 363bd $rbx: .cfa -56 + ^
STACK CFI 36507 .cfa: $rsp 8 +
STACK CFI 36510 .cfa: $rbp 16 +
STACK CFI 3656d .cfa: $rsp 8 +
STACK CFI 36570 .cfa: $rbp 16 +
STACK CFI INIT 365d0 60 .cfa: $rsp 8 + .ra: .cfa -8 + ^
STACK CFI 365d1 $rbp: .cfa -16 + ^ .cfa: $rsp 16 +
STACK CFI 365d9 .cfa: $rbp 16 +
STACK CFI 365da $rbx: .cfa -24 + ^
STACK CFI 3661b .cfa: $rsp 8 +
STACK CFI 36620 .cfa: $rbp 16 +
STACK CFI INIT 36630 98 .cfa: $rsp 8 + .ra: .cfa -8 + ^
STACK CFI 36631 $rbp: .cfa -16 + ^ .cfa: $rsp 16 +
STACK CFI 36634 .cfa: $rbp 16 +
STACK CFI 36636 $r12: .cfa -24 + ^
STACK CFI 3663b $rbx: .cfa -32 + ^
STACK CFI 36698 .cfa: $rsp 8 +
STACK CFI 366a0 .cfa: $rbp 16 +
STACK CFI 366c7 .cfa: $rsp 8 +
STACK CFI INIT 366d0 10a .cfa: $rsp 8 + .ra: .cfa -8 + ^
STACK CFI 366d1 $rbp: .cfa -16 + ^ .cfa: $rsp 16 +
STACK CFI 366d4 .cfa: $rbp 16 +
STACK CFI 366d6 $r13: .cfa -24 + ^
STACK CFI 366e0 $r12: .cfa -32 + ^ $rbx: .cfa -40 + ^
STACK CFI 36767 .cfa: $rsp 8 +
STACK CFI 36770 .cfa: $rbp 16 +
STACK CFI INIT 367e0 ae .cfa: $rsp 8 + .ra: .cfa -8 + ^
STACK CFI 367e1 $rbp: .cfa -16 + ^ .cfa: $rsp 16 +
STACK CFI 367e4 .cfa: $rbp 16 +
STACK CFI 367e6 $r12: .cfa -24 + ^
STACK CFI 367eb $rbx: .cfa -32 + ^
STACK CFI 3682e .cfa: $rsp 8 +
STACK CFI 36830 .cfa: $rbp 16 +
STACK CFI INIT 36890 b6d .cfa: $rsp 8 + .ra: .cfa -8 + ^
STACK CFI 36891 $rbp: .cfa -16 + ^ .cfa: $rsp 16 +
STACK CFI 36894 .cfa: $rbp 16 +
STACK CFI 36898 $r14: .cfa -32 + ^ $r15: .cfa -24 + ^
STACK CFI 368a0 $r12: .cfa -48 + ^ $r13: .cfa -40 + ^ $rbx: .cfa -56 + ^
STACK CFI 36936 .cfa: $rsp 8 +
STACK CFI 36940 .cfa: $rbp 16 +
STACK CFI INIT 37400 50a .cfa: $rsp 8 + .ra: .cfa -8 + ^
STACK CFI 37401 $rbp: .cfa -16 + ^ .cfa: $rsp 16 +
STACK CFI 37407 .cfa: $rbp 16 +
STACK CFI 3740e $r12: .cfa -40 + ^ $r13: .cfa -32 + ^ $r14: .cfa -24 + ^ $rbx: .cfa -48 + ^
STACK CFI 3746a .cfa: $rsp 8 +
STACK CFI 37470 .cfa: $rbp 16 +
STACK CFI 374f4 .cfa: $rsp 8 +
STACK CFI 374f5 .cfa: $rbp 16 +
STACK CFI INIT 37910 76 .cfa: $rsp 8 + .ra: .cfa -8 + ^
STACK CFI 37911 $rbp: .cfa -16 + ^ .cfa: $rsp 16 +
STACK CFI 37914 .cfa: $rbp 16 +
STACK CFI 37916 $r12: .cfa -24 + ^
STACK CFI 3791a $rbx: .cfa -32 + ^
STACK CFI 37980 .cfa: $rsp 8 +
STACK CFI 37981 .cfa: $rbp 16 +
STACK CFI INIT 37990 5d .cfa: $rsp 8 + .ra: .cfa -8 + ^
STACK CFI 37991 $rbp: .cfa -16 + ^ .cfa: $rsp 16 +
STACK CFI 37994 .cfa: $rbp 16 +
STACK CFI 37996 $r12: .cfa -24 + ^
STACK CFI 3799a $rbx: .cfa -32 + ^
STACK CFI 379e7 .cfa: $rsp 8 +
STACK CFI 379e8 .cfa: $rbp 16 +
STACK CFI INIT 379f0 6e .cfa: $rsp 8 + .ra: .cfa -8 + ^
STACK CFI INIT 37a60 78 .cfa: $rsp 8 + .ra: .cfa -8 + ^
STACK CFI 37a61 $rbp: .cfa -16 + ^ .cfa: $rsp 16 +
STACK CFI 37a64 .cfa: $rbp 16 +
STACK CFI 37a66 $r12: .cfa -24 + ^
STACK CFI 37a6b $rbx: .cfa -32 + ^
STACK CFI 37aab .cfa: $rsp 8 +
STACK CFI 37ab0 .cfa: $rbp 16 +
STACK CFI 37ad7 .cfa: $rsp 8 +
STACK CFI INIT 37ae0 6f .cfa: $rsp 8 + .ra: .cfa -8 + ^
STACK CFI 37ae1 $rbp: .cfa -16 + ^ .cfa: $rsp 16 +
STACK CFI 37ae4 .cfa: $rbp 16 +
STACK CFI 37ae6 $r12: .cfa -24 + ^
STACK CFI 37aea $rbx: .cfa -32 + ^
STACK CFI 37b3c .cfa: $rsp 8 +
STACK CFI 37b40 .cfa: $rbp 16 +
STACK CFI INIT 37b50 7f .cfa: $rsp 8 + .ra: .cfa -8 + ^
STACK CFI 37b51 $rbp: .cfa -16 + ^ .cfa: $rsp 16 +
STACK CFI 37b54 .cfa: $rbp 16 +
STACK CFI 37b58 $r12: .cfa -32 + ^ $r13: .cfa -24 + ^
STACK CFI 37b60 $rbx: .cfa -40 + ^
STACK CFI 37bc9 .cfa: $rsp 8 +
STACK CFI 37bca .cfa: $rbp 16 +
STACK CFI INIT 37bd0 7f .cfa: $rsp 8 + .ra: .cfa -8 + ^
STACK CFI 37bd1 $rbp: .cfa -16 + ^ .cfa: $rsp 16 +
STACK CFI 37bd4 .cfa: $rbp 16 +
STACK CFI 37bd8 $r12: .cfa -32 + ^ $r13: .cfa -24 + ^
STACK CFI 37be0 $rbx: .cfa -40 + ^
STACK CFI 37c49 .cfa: $rsp 8 +
STACK CFI 37c4a .cfa: $rbp 16 +
STACK CFI INIT 37c50 7f .cfa: $rsp 8 + .ra: .cfa -8 + ^
STACK CFI 37c51 $rbp: .cfa -16 + ^ .cfa: $rsp 16 +
STACK CFI 37c54 .cfa: $rbp 16 +
STACK CFI 37c58 $r12: .cfa -32 + ^ $r13: .cfa -24 + ^
STACK CFI 37c60 $rbx: .cfa -40 + ^
STACK CFI 37cc9 .cfa: $rsp 8 +
STACK CFI 37cca .cfa: $rbp 16 +
STACK CFI INIT 37cd0 7f .cfa: $rsp 8 + .ra: .cfa -8 + ^
STACK CFI 37cd1 $rbp: .cfa -16 + ^ .cfa: $rsp 16 +
STACK CFI 37cd4 .cfa: $rbp 16 +
STACK CFI 37cd8 $r12: .cfa -32 + ^ $r13: .cfa -24 + ^
STACK CFI 37ce0 $rbx: .cfa -40 + ^
STACK CFI 37d49 .cfa: $rsp 8 +
STACK CFI 37d4a .cfa: $rbp 16 +
STACK CFI INIT 37d50 7f .cfa: $rsp 8 + .ra: .cfa -8 + ^
STACK CFI 37d51 $rbp: .cfa -16 + ^ .cfa: $rsp 16 +
STACK CFI 37d54 .cfa: $rbp 16 +
STACK CFI 37d58 $r12: .cfa -32 + ^ $r13: .cfa -24 + ^
STACK CFI 37d60 $rbx: .cfa -40 + ^
STACK CFI 37dc9 .cfa: $rsp 8 +
STACK CFI 37dca .cfa: $rbp 16 +
STACK CFI INIT 37dd0 7f .cfa: $rsp 8 + .ra: .cfa -8 + ^
STACK CFI 37dd1 $rbp: .cfa -16 + ^ .cfa: $rsp 16 +
STACK CFI 37dd4 .cfa: $rbp 16 +
STACK CFI 37dd8 $r12: .cfa -32 + ^ $r13: .cfa -24 + ^
STACK CFI 37de0 $rbx: .cfa -40 + ^
STACK CFI 37e49 .cfa: $rsp 8 +
STACK CFI 37e4a .cfa: $rbp 16 +
STACK CFI INIT 37e50 57 .cfa: $rsp 8 + .ra: .cfa -8 + ^
STACK CFI 37e51 $rbp: .cfa -16 + ^ .cfa: $rsp 16 +
STACK CFI 37e54 .cfa: $rbp 16 +
STACK CFI 37e56 $r12: .cfa -24 + ^
STACK CFI 37e5a $rbx: .cfa -32 + ^
STACK CFI 37ea1 .cfa: $rsp 8 +
STACK CFI 37ea2 .cfa: $rbp 16 +
STACK CFI INIT 37eb0 116 .cfa: $rsp 8 + .ra: .cfa -8 + ^
STACK CFI 37eb1 $rbp: .cfa -16 + ^ .cfa: $rsp 16 +
STACK CFI 37eb4 .cfa: $rbp 16 +
STACK CFI 37eb6 $r12: .cfa -24 + ^
STACK CFI 37eba $rbx: .cfa -32 + ^
STACK CFI 37f0c .cfa: $rsp 8 +
STACK CFI 37f10 .cfa: $rbp 16 +
STACK CFI 37f39 .cfa: $rsp 8 +
STACK CFI 37f40 .cfa: $rbp 16 +
STACK CFI INIT 37fd0 57 .cfa: $rsp 8 + .ra: .cfa -8 + ^
STACK CFI 37fd1 $rbp: .cfa -16 + ^ .cfa: $rsp 16 +
STACK CFI 37fd4 .cfa: $rbp 16 +
STACK CFI 37fdb $r12: .cfa -40 + ^ $r13: .cfa -32 + ^ $r14: .cfa -24 + ^ $rbx: .cfa -48 + ^
STACK CFI 38026 .cfa: $rsp 8 +
STACK CFI INIT 38030 ca .cfa: $rsp 8 + .ra: .cfa -8 + ^
STACK CFI 38031 $rbp: .cfa -16 + ^ .cfa: $rsp 16 +
STACK CFI 38034 .cfa: $rbp 16 +
STACK CFI 38036 $r14: .cfa -24 + ^
STACK CFI 3803b $r13: .cfa -32 + ^
STACK CFI 38040 $r12: .cfa -40 + ^
STACK CFI 38044 $rbx: .cfa -48 + ^
STACK CFI 3809f .cfa: $rsp 8 +
STACK CFI 380a0 .cfa: $rbp 16 +
STACK CFI 380b6 .cfa: $rsp 8 +
STACK CFI 380c0 .cfa: $rbp 16 +
STACK CFI 380f9 .cfa: $rsp 8 +
STACK CFI INIT 38100 ae .cfa: $rsp 8 + .ra: .cfa -8 + ^
STACK CFI 38101 $rbp: .cfa -16 + ^ .cfa: $rsp 16 +
STACK CFI 38104 .cfa: $rbp 16 +
STACK CFI 3810d $r12: .cfa -32 + ^ $r13: .cfa -24 + ^ $rbx: .cfa -40 + ^
STACK CFI 38155 .cfa: $rsp 8 +
STACK CFI 38160 .cfa: $rbp 16 +
STACK CFI 38175 .cfa: $rsp 8 +
STACK CFI 38180 .cfa: $rbp 16 +
STACK CFI 38197 .cfa: $rsp 8 +
STACK CFI 381a0 .cfa: $rbp 16 +
STACK CFI INIT 381b0 68 .cfa: $rsp 8 + .ra: .cfa -8 + ^
STACK CFI 381b1 $rbp: .cfa -16 + ^ .cfa: $rsp 16 +
STACK CFI 381b4 .cfa: $rbp 16 +
STACK CFI 381ba $r12: .cfa -40 + ^ $r13: .cfa -32 + ^ $r14: .cfa -24 + ^
STACK CFI 381be $rbx: .cfa -48 + ^
STACK CFI 38217 .cfa: $rsp 8 +
STACK CFI INIT 38220 f0 .cfa: $rsp 8 + .ra: .cfa -8 + ^
STACK CFI 38221 $rbp: .cfa -16 + ^ .cfa: $rsp 16 +
STACK CFI 38224 .cfa: $rbp 16 +
STACK CFI 38226 $r15: .cfa -24 + ^
STACK CFI 3822b $r14: .cfa -32 + ^
STACK CFI 38231 $r13: .cfa -40 + ^
STACK CFI 3823b $r12: .cfa -48 + ^ $rbx: .cfa -56 + ^
STACK CFI 38303 .cfa: $rsp 8 +
STACK CFI 38308 .cfa: $rbp 16 +
STACK CFI INIT 38310 1b .cfa: $rsp 8 + .ra: .cfa -8 + ^
STACK CFI 38311 $rbp: .cfa -16 + ^ .cfa: $rsp 16 +
STACK CFI 3831f .cfa: $rbp 16 +
STACK CFI 3832a .cfa: $rsp 8 +
STACK CFI INIT 38330 8e .cfa: $rsp 8 + .ra: .cfa -8 + ^
STACK CFI 38331 $rbp: .cfa -16 + ^ .cfa: $rsp 16 +
STACK CFI 38334 .cfa: $rbp 16 +
STACK CFI 38338 $r12: .cfa -32 + ^ $r13: .cfa -24 + ^
STACK CFI 38340 $rbx: .cfa -40 + ^
STACK CFI 38380 .cfa: $rsp 8 +
STACK CFI 38388 .cfa: $rbp 16 +
STACK CFI 383bd .cfa: $rsp 8 +
STACK CFI INIT 383c0 4a .cfa: $rsp 8 + .ra: .cfa -8 + ^
STACK CFI 383c1 $rbp: .cfa -16 + ^ .cfa: $rsp 16 +
STACK CFI 383c4 .cfa: $rbp 16 +
STACK CFI 383c7 $r12: .cfa -24 + ^ $rbx: .cfa -32 + ^
STACK CFI 383fb .cfa: $rsp 8 +
STACK CFI 38400 .cfa: $rbp 16 +
STACK CFI 38409 .cfa: $rsp 8 +
STACK CFI INIT 38410 1d .cfa: $rsp 8 + .ra: .cfa -8 + ^
STACK CFI INIT 38430 23 .cfa: $rsp 8 + .ra: .cfa -8 + ^
STACK CFI INIT 38460 15 .cfa: $rsp 8 + .ra: .cfa -8 + ^
STACK CFI INIT 38480 133 .cfa: $rsp 8 + .ra: .cfa -8 + ^
STACK CFI 38491 $rbp: .cfa -16 + ^ .cfa: $rsp 16 +
STACK CFI 38499 .cfa: $rbp 16 +
STACK CFI 384a2 $r12: .cfa -32 + ^ $r13: .cfa -24 + ^ $rbx: .cfa -40 + ^
STACK CFI 38529 .cfa: $rsp 8 +
STACK CFI 38530 .cfa: $rbp 16 +
STACK CFI INIT 385c0 ff .cfa: $rsp 8 + .ra: .cfa -8 + ^
STACK CFI 385c1 $rbp: .cfa -16 + ^ .cfa: $rsp 16 +
STACK CFI 385c4 .cfa: $rbp 16 +
STACK CFI 385cd $r12: .cfa -32 + ^ $r13: .cfa -24 + ^ $rbx: .cfa -40 + ^
STACK CFI 38680 .cfa: $rsp 8 +
STACK CFI 38688 .cfa: $rbp 16 +
STACK CFI 386be .cfa: $rsp 8 +
STACK CFI INIT 386c0 378 .cfa: $rsp 8 + .ra: .cfa -8 + ^
STACK CFI 386c1 $rbp: .cfa -16 + ^ .cfa: $rsp 16 +
STACK CFI 386c4 .cfa: $rbp 16 +
STACK CFI 386cd $r12: .cfa -48 + ^ $r13: .cfa -40 + ^ $r14: .cfa -32 + ^ $r15: .cfa -24 + ^ $rbx: .cfa -56 + ^
STACK CFI 38894 .cfa: $rsp 8 +
STACK CFI 38898 .cfa: $rbp 16 +
STACK CFI INIT 38a40 7 .cfa: $rsp 8 + .ra: .cfa -8 + ^
STACK CFI INIT 38a50 316 .cfa: $rsp 8 + .ra: .cfa -8 + ^
STACK CFI 38a51 $rbp: .cfa -16 + ^ .cfa: $rsp 16 +
STACK CFI 38a54 .cfa: $rbp 16 +
STACK CFI 38a58 $r14: .cfa -32 + ^ $r15: .cfa -24 + ^
STACK CFI 38a67 $r12: .cfa -48 + ^ $r13: .cfa -40 + ^ $rbx: .cfa -56 + ^
STACK CFI 38b5e .cfa: $rsp 8 +
STACK CFI 38b60 .cfa: $rbp 16 +
STACK CFI INIT 38d70 7 .cfa: $rsp 8 + .ra: .cfa -8 + ^
STACK CFI INIT 38d80 d9 .cfa: $rsp 8 + .ra: .cfa -8 + ^
STACK CFI 38d81 $rbp: .cfa -16 + ^ .cfa: $rsp 16 +
STACK CFI 38d84 .cfa: $rbp 16 +
STACK CFI 38d8d $r12: .cfa -32 + ^ $r13: .cfa -24 + ^ $rbx: .cfa -40 + ^
STACK CFI 38e2b .cfa: $rsp 8 +
STACK CFI 38e30 .cfa: $rbp 16 +
STACK CFI 38e4f .cfa: $rsp 8 +
STACK CFI 38e50 .cfa: $rbp 16 +
STACK CFI INIT 38e60 30d .cfa: $rsp 8 + .ra: .cfa -8 + ^
STACK CFI 38e61 $rbp: .cfa -16 + ^ .cfa: $rsp 16 +
STACK CFI 38e64 .cfa: $rbp 16 +
STACK CFI 38e66 $r15: .cfa -24 + ^
STACK CFI 38e77 $r12: .cfa -48 + ^ $r13: .cfa -40 + ^ $r14: .cfa -32 + ^ $rbx: .cfa -56 + ^
STACK CFI 38fe5 .cfa: $rsp 8 +
STACK CFI 38ff0 .cfa: $rbp 16 +
STACK CFI INIT 39170 7 .cfa: $rsp 8 + .ra: .cfa -8 + ^
STACK CFI INIT 39180 2b7 .cfa: $rsp 8 + .ra: .cfa -8 + ^
STACK CFI 39181 $rbp: .cfa -16 + ^ .cfa: $rsp 16 +
STACK CFI 39184 .cfa: $rbp 16 +
STACK CFI 39188 $r14: .cfa -32 + ^ $r15: .cfa -24 + ^
STACK CFI 39197 $r12: .cfa -48 + ^ $r13: .cfa -40 + ^ $rbx: .cfa -56 + ^
STACK CFI 392d9 .cfa: $rsp 8 +
STACK CFI 392e0 .cfa: $rbp 16 +
STACK CFI INIT 39440 7 .cfa: $rsp 8 + .ra: .cfa -8 + ^
STACK CFI INIT 39450 621 .cfa: $rsp 8 + .ra: .cfa -8 + ^
STACK CFI 39451 $rbp: .cfa -16 + ^ .cfa: $rsp 16 +
STACK CFI 39454 .cfa: $rbp 16 +
STACK CFI 3945d $r12: .cfa -48 + ^ $r13: .cfa -40 + ^ $r14: .cfa -32 + ^ $r15: .cfa -24 + ^ $rbx: .cfa -56 + ^
STACK CFI 3980d .cfa: $rsp 8 +
STACK CFI 3980e .cfa: $rbp 16 +
STACK CFI INIT 39a80 19d .cfa: $rsp 8 + .ra: .cfa -8 + ^
STACK CFI 39a81 $rbp: .cfa -16 + ^ .cfa: $rsp 16 +
STACK CFI 39a84 .cfa: $rbp 16 +
STACK CFI 39a86 $r12: .cfa -24 + ^
STACK CFI 39abe .cfa: $rsp 8 +
STACK CFI 39abf .cfa: $rbp 16 +
STACK CFI 39ad3 .cfa: $rsp 8 +
STACK CFI 39ad8 .cfa: $rbp 16 +
STACK CFI 39aec .cfa: $rsp 8 +
STACK CFI 39af1 .cfa: $rbp 16 +
STACK CFI 39b05 .cfa: $rsp 8 +
STACK CFI 39b0a .cfa: $rbp 16 +
STACK CFI 39b1e .cfa: $rsp 8 +
STACK CFI 39b23 .cfa: $rbp 16 +
STACK CFI 39b37 .cfa: $rsp 8 +
STACK CFI 39b3c .cfa: $rbp 16 +
STACK CFI 39b50 .cfa: $rsp 8 +
STACK CFI 39b55 .cfa: $rbp 16 +
STACK CFI 39b69 .cfa: $rsp 8 +
STACK CFI 39b6e .cfa: $rbp 16 +
STACK CFI 39b82 .cfa: $rsp 8 +
STACK CFI 39b87 .cfa: $rbp 16 +
STACK CFI 39b9b .cfa: $rsp 8 +
STACK CFI 39ba0 .cfa: $rbp 16 +
STACK CFI 39bb4 .cfa: $rsp 8 +
STACK CFI 39bb9 .cfa: $rbp 16 +
STACK CFI 39bcd .cfa: $rsp 8 +
STACK CFI 39bd2 .cfa: $rbp 16 +
STACK CFI 39be6 .cfa: $rsp 8 +
STACK CFI 39beb .cfa: $rbp 16 +
STACK CFI 39bff .cfa: $rsp 8 +
STACK CFI 39c04 .cfa: $rbp 16 +
STACK CFI 39c18 .cfa: $rsp 8 +
STACK CFI INIT 39c20 231 .cfa: $rsp 8 + .ra: .cfa -8 + ^
STACK CFI 39c21 $rbp: .cfa -16 + ^ .cfa: $rsp 16 +
STACK CFI 39c24 .cfa: $rbp 16 +
STACK CFI 39c26 $r12: .cfa -24 + ^
STACK CFI 39c2a $rbx: .cfa -32 + ^
STACK CFI 39ccc .cfa: $rsp 8 +
STACK CFI 39cd0 .cfa: $rbp 16 +
STACK CFI 39d15 .cfa: $rsp 8 +
STACK CFI 39d20 .cfa: $rbp 16 +
STACK CFI 39d93 .cfa: $rsp 8 +
STACK CFI 39d98 .cfa: $rbp 16 +
STACK CFI INIT 39e60 12f .cfa: $rsp 8 + .ra: .cfa -8 + ^
STACK CFI 39e6a $rbp: .cfa -16 + ^ .cfa: $rsp 16 +
STACK CFI 39e6d .cfa: $rbp 16 +
STACK CFI 39e6f $r12: .cfa -24 + ^
STACK CFI 39e84 .cfa: $rsp 8 +
STACK CFI 39e88 .cfa: $rbp 16 +
STACK CFI 39f20 $r12: $r12 $rbp: $rbp .cfa: $rsp 8 +
STACK CFI 39f28 $r12: .cfa -24 + ^ $rbp: .cfa -16 + ^ .cfa: $rbp 16 +
STACK CFI 39f89 $r12: $r12
STACK CFI 39f8a $rbp: $rbp .cfa: $rsp 8 +
STACK CFI INIT 39f90 40e .cfa: $rsp 8 + .ra: .cfa -8 + ^
STACK CFI 39f91 $rbp: .cfa -16 + ^ .cfa: $rsp 16 +
STACK CFI 39f94 .cfa: $rbp 16 +
STACK CFI 39f96 $r15: .cfa -24 + ^
STACK CFI 39fa7 $r12: .cfa -48 + ^ $r13: .cfa -40 + ^ $r14: .cfa -32 + ^ $rbx: .cfa -56 + ^
STACK CFI 3a144 .cfa: $rsp 8 +
STACK CFI 3a148 .cfa: $rbp 16 +
STACK CFI INIT 3a3a0 2c3 .cfa: $rsp 8 + .ra: .cfa -8 + ^
STACK CFI 3a3a1 $rbp: .cfa -16 + ^ .cfa: $rsp 16 +
STACK CFI 3a3a9 .cfa: $rbp 16 +
STACK CFI 3a3ab $r15: .cfa -24 + ^
STACK CFI 3a3c1 $r12: .cfa -48 + ^ $r13: .cfa -40 + ^ $r14: .cfa -32 + ^ $rbx: .cfa -56 + ^
STACK CFI 3a49b .cfa: $rsp 8 +
STACK CFI 3a4a0 .cfa: $rbp 16 +
STACK CFI INIT 3a670 69 .cfa: $rsp 8 + .ra: .cfa -8 + ^
STACK CFI 3a671 $rbp: .cfa -16 + ^ .cfa: $rsp 16 +
STACK CFI 3a674 .cfa: $rbp 16 +
STACK CFI 3a67e $r12: .cfa -40 + ^ $r13: .cfa -32 + ^ $r14: .cfa -24 + ^
STACK CFI 3a6b2 .cfa: $rsp 8 +
STACK CFI 3a6c0 .cfa: $rbp 16 +
STACK CFI 3a6d8 .cfa: $rsp 8 +
STACK CFI INIT 3a6e0 1e4 .cfa: $rsp 8 + .ra: .cfa -8 + ^
STACK CFI 3a6e1 $rbp: .cfa -16 + ^ .cfa: $rsp 16 +
STACK CFI 3a6e4 .cfa: $rbp 16 +
STACK CFI 3a6f4 $r12: .cfa -48 + ^ $r13: .cfa -40 + ^ $r14: .cfa -32 + ^ $r15: .cfa -24 + ^ $rbx: .cfa -56 + ^
STACK CFI 3a822 .cfa: $rsp 8 +
STACK CFI 3a828 .cfa: $rbp 16 +
STACK CFI INIT 3a8d0 216 .cfa: $rsp 8 + .ra: .cfa -8 + ^
STACK CFI 3a8d1 $rbp: .cfa -16 + ^ .cfa: $rsp 16 +
STACK CFI 3a8d4 .cfa: $rbp 16 +
STACK CFI 3a8da $r13: .cfa -40 + ^ $r14: .cfa -32 + ^ $r15: .cfa -24 + ^
STACK CFI 3a8e7 $r12: .cfa -48 + ^ $rbx: .cfa -56 + ^
STACK CFI 3a923 .cfa: $rsp 8 +
STACK CFI 3a924 .cfa: $rbp 16 +
STACK CFI INIT 1cd3a 10 $r12: .cfa -48 + ^ $r13: .cfa -40 + ^ $r14: .cfa -32 + ^ $r15: .cfa -24 + ^ $rbp: .cfa -16 + ^ $rbx: .cfa -56 + ^ .cfa: $rbp 16 + .ra: .cfa -8 + ^
STACK CFI INIT 3aaf0 24c .cfa: $rsp 8 + .ra: .cfa -8 + ^
STACK CFI 3aaf1 $rbp: .cfa -16 + ^ .cfa: $rsp 16 +
STACK CFI 3aaf4 .cfa: $rbp 16 +
STACK CFI 3aaf6 $r12: .cfa -24 + ^
STACK CFI 3ab2e .cfa: $rsp 8 +
STACK CFI 3ab2f .cfa: $rbp 16 +
STACK CFI 3ab43 .cfa: $rsp 8 +
STACK CFI 3ab48 .cfa: $rbp 16 +
STACK CFI 3ab5c .cfa: $rsp 8 +
STACK CFI 3ab61 .cfa: $rbp 16 +
STACK CFI 3ab75 .cfa: $rsp 8 +
STACK CFI 3ab7a .cfa: $rbp 16 +
STACK CFI 3ab8e .cfa: $rsp 8 +
STACK CFI 3ab93 .cfa: $rbp 16 +
STACK CFI 3aba7 .cfa: $rsp 8 +
STACK CFI 3abac .cfa: $rbp 16 +
STACK CFI 3abc0 .cfa: $rsp 8 +
STACK CFI 3abc5 .cfa: $rbp 16 +
STACK CFI 3abd9 .cfa: $rsp 8 +
STACK CFI 3abde .cfa: $rbp 16 +
STACK CFI 3abf2 .cfa: $rsp 8 +
STACK CFI 3abf7 .cfa: $rbp 16 +
STACK CFI 3ac0b .cfa: $rsp 8 +
STACK CFI 3ac10 .cfa: $rbp 16 +
STACK CFI 3ac24 .cfa: $rsp 8 +
STACK CFI 3ac29 .cfa: $rbp 16 +
STACK CFI 3ac3d .cfa: $rsp 8 +
STACK CFI 3ac42 .cfa: $rbp 16 +
STACK CFI 3ac56 .cfa: $rsp 8 +
STACK CFI 3ac5b .cfa: $rbp 16 +
STACK CFI 3ac6f .cfa: $rsp 8 +
STACK CFI 3ac74 .cfa: $rbp 16 +
STACK CFI 3ac88 .cfa: $rsp 8 +
STACK CFI 3ac8d .cfa: $rbp 16 +
STACK CFI 3aca1 .cfa: $rsp 8 +
STACK CFI 3aca6 .cfa: $rbp 16 +
STACK CFI 3acba .cfa: $rsp 8 +
STACK CFI 3acbf .cfa: $rbp 16 +
STACK CFI 3acd3 .cfa: $rsp 8 +
STACK CFI 3acd8 .cfa: $rbp 16 +
STACK CFI 3acec .cfa: $rsp 8 +
STACK CFI 3acf1 .cfa: $rbp 16 +
STACK CFI 3ad05 .cfa: $rsp 8 +
STACK CFI 3ad0a .cfa: $rbp 16 +
STACK CFI 3ad1e .cfa: $rsp 8 +
STACK CFI 3ad23 .cfa: $rbp 16 +
STACK CFI 3ad37 .cfa: $rsp 8 +
STACK CFI INIT 3ad40 97 .cfa: $rsp 8 + .ra: .cfa -8 + ^
STACK CFI 3ad41 $rbp: .cfa -16 + ^ .cfa: $rsp 16 +
STACK CFI 3ad44 .cfa: $rbp 16 +
STACK CFI 3ad48 $r12: .cfa -32 + ^ $r13: .cfa -24 + ^
STACK CFI 3ad50 $rbx: .cfa -40 + ^
STACK CFI 3ad7f .cfa: $rsp 8 +
STACK CFI 3ad80 .cfa: $rbp 16 +
STACK CFI 3adb2 .cfa: $rsp 8 +
STACK CFI 3adb8 .cfa: $rbp 16 +
STACK CFI INIT 3ade0 98 .cfa: $rsp 8 + .ra: .cfa -8 + ^
STACK CFI 3ade6 $rbp: .cfa -16 + ^ .cfa: $rsp 16 +
STACK CFI 3ade9 .cfa: $rbp 16 +
STACK CFI 3adeb $r12: .cfa -24 + ^
STACK CFI 3adef $rbx: .cfa -32 + ^
STACK CFI 3ae46 .cfa: $rsp 8 +
STACK CFI 3ae50 $r12: $r12 $rbp: $rbp $rbx: $rbx
STACK CFI 3ae58 $r12: .cfa -24 + ^ $rbp: .cfa -16 + ^ $rbx: .cfa -32 + ^ .cfa: $rbp 16 +
STACK CFI 3ae59 $rbx: $rbx
STACK CFI 3ae5e $r12: $r12
STACK CFI 3ae5f $rbp: $rbp .cfa: $rsp 8 +
STACK CFI 3ae68 $r12: .cfa -24 + ^ $rbp: .cfa -16 + ^ $rbx: .cfa -32 + ^ .cfa: $rbp 16 +
STACK CFI INIT 3ae80 93 .cfa: $rsp 8 + .ra: .cfa -8 + ^
STACK CFI 3ae81 $rbp: .cfa -16 + ^ .cfa: $rsp 16 +
STACK CFI 3ae84 .cfa: $rbp 16 +
STACK CFI 3ae8e $r12: .cfa -40 + ^ $r13: .cfa -32 + ^ $r14: .cfa -24 + ^
STACK CFI 3aece .cfa: $rsp 8 +
STACK CFI 3aed8 .cfa: $rbp 16 +
STACK CFI 3aef0 .cfa: $rsp 8 +
STACK CFI 3aef8 .cfa: $rbp 16 +
STACK CFI 3af0e .cfa: $rsp 8 +
STACK CFI INIT 3af20 258 .cfa: $rsp 8 + .ra: .cfa -8 + ^
STACK CFI 3af21 $rbp: .cfa -16 + ^ .cfa: $rsp 16 +
STACK CFI 3af24 .cfa: $rbp 16 +
STACK CFI 3af28 $r14: .cfa -32 + ^ $r15: .cfa -24 + ^
STACK CFI 3af2d $r13: .cfa -40 + ^
STACK CFI 3af3a $r12: .cfa -48 + ^ $rbx: .cfa -56 + ^
STACK CFI 3b0bb .cfa: $rsp 8 +
STACK CFI 3b0c0 .cfa: $rbp 16 +
STACK CFI INIT 3b180 ff .cfa: $rsp 8 + .ra: .cfa -8 + ^
STACK CFI 3b181 $rbp: .cfa -16 + ^ .cfa: $rsp 16 +
STACK CFI 3b184 .cfa: $rbp 16 +
STACK CFI 3b18d $r12: .cfa -32 + ^ $r13: .cfa -24 + ^ $rbx: .cfa -40 + ^
STACK CFI 3b240 .cfa: $rsp 8 +
STACK CFI 3b248 .cfa: $rbp 16 +
STACK CFI 3b27e .cfa: $rsp 8 +
STACK CFI INIT 3b280 378 .cfa: $rsp 8 + .ra: .cfa -8 + ^
STACK CFI 3b281 $rbp: .cfa -16 + ^ .cfa: $rsp 16 +
STACK CFI 3b284 .cfa: $rbp 16 +
STACK CFI 3b28d $r12: .cfa -48 + ^ $r13: .cfa -40 + ^ $r14: .cfa -32 + ^ $r15: .cfa -24 + ^ $rbx: .cfa -56 + ^
STACK CFI 3b454 .cfa: $rsp 8 +
STACK CFI 3b458 .cfa: $rbp 16 +
STACK CFI INIT 3b600 7 .cfa: $rsp 8 + .ra: .cfa -8 + ^
STACK CFI INIT 3b610 316 .cfa: $rsp 8 + .ra: .cfa -8 + ^
STACK CFI 3b611 $rbp: .cfa -16 + ^ .cfa: $rsp 16 +
STACK CFI 3b614 .cfa: $rbp 16 +
STACK CFI 3b618 $r14: .cfa -32 + ^ $r15: .cfa -24 + ^
STACK CFI 3b627 $r12: .cfa -48 + ^ $r13: .cfa -40 + ^ $rbx: .cfa -56 + ^
STACK CFI 3b71e .cfa: $rsp 8 +
STACK CFI 3b720 .cfa: $rbp 16 +
STACK CFI INIT 3b930 7 .cfa: $rsp 8 + .ra: .cfa -8 + ^
STACK CFI INIT 3b940 2aa .cfa: $rsp 8 + .ra: .cfa -8 + ^
STACK CFI 3b941 $rbp: .cfa -16 + ^ .cfa: $rsp 16 +
STACK CFI 3b944 .cfa: $rbp 16 +
STACK CFI 3b94a $r13: .cfa -40 + ^ $r14: .cfa -32 + ^ $r15: .cfa -24 + ^
STACK CFI 3b94f $r12: .cfa -48 + ^
STACK CFI 3b95a $rbx: .cfa -56 + ^
STACK CFI 3ba19 .cfa: $rsp 8 +
STACK CFI 3ba1a .cfa: $rbp 16 +
STACK CFI INIT 3bbf0 23b .cfa: $rsp 8 + .ra: .cfa -8 + ^
STACK CFI 3bbf1 $rbp: .cfa -16 + ^ .cfa: $rsp 16 +
STACK CFI 3bbf4 .cfa: $rbp 16 +
STACK CFI 3bbf8 $r14: .cfa -32 + ^ $r15: .cfa -24 + ^
STACK CFI 3bc07 $r12: .cfa -48 + ^ $r13: .cfa -40 + ^ $rbx: .cfa -56 + ^
STACK CFI 3bd82 .cfa: $rsp 8 +
STACK CFI 3bd88 .cfa: $rbp 16 +
STACK CFI INIT 3be30 bd .cfa: $rsp 8 + .ra: .cfa -8 + ^
STACK CFI 3be31 $rbp: .cfa -16 + ^ .cfa: $rsp 16 +
STACK CFI 3be34 .cfa: $rbp 16 +
STACK CFI 3be38 $r12: .cfa -32 + ^ $r13: .cfa -24 + ^
STACK CFI 3be40 $rbx: .cfa -40 + ^
STACK CFI 3bece .cfa: $rsp 8 +
STACK CFI 3bed0 .cfa: $rbp 16 +
STACK CFI 3beec .cfa: $rsp 8 +
STACK CFI INIT 3bef0 13 .cfa: $rsp 8 + .ra: .cfa -8 + ^
STACK CFI INIT 3bf10 61 .cfa: $rsp 8 + .ra: .cfa -8 + ^
STACK CFI 3bf11 $rbp: .cfa -16 + ^ .cfa: $rsp 16 +
STACK CFI 3bf14 .cfa: $rbp 16 +
STACK CFI 3bf1e $r12: .cfa -40 + ^ $r13: .cfa -32 + ^ $r14: .cfa -24 + ^
STACK CFI 3bf4e .cfa: $rsp 8 +
STACK CFI 3bf58 .cfa: $rbp 16 +
STACK CFI 3bf70 .cfa: $rsp 8 +
STACK CFI INIT 3bf80 226 .cfa: $rsp 8 + .ra: .cfa -8 + ^
STACK CFI 3bf81 $rbp: .cfa -16 + ^ .cfa: $rsp 16 +
STACK CFI 3bf84 .cfa: $rbp 16 +
STACK CFI 3bf8a $r13: .cfa -40 + ^ $r14: .cfa -32 + ^ $r15: .cfa -24 + ^
STACK CFI 3bf97 $r12: .cfa -48 + ^ $rbx: .cfa -56 + ^
STACK CFI 3bfd3 .cfa: $rsp 8 +
STACK CFI 3bfd4 .cfa: $rbp 16 +
STACK CFI INIT 1cd4a 10 $r12: .cfa -48 + ^ $r13: .cfa -40 + ^ $r14: .cfa -32 + ^ $r15: .cfa -24 + ^ $rbp: .cfa -16 + ^ $rbx: .cfa -56 + ^ .cfa: $rbp 16 + .ra: .cfa -8 + ^
STACK CFI INIT 3c1b0 27e .cfa: $rsp 8 + .ra: .cfa -8 + ^
STACK CFI 3c1b1 $rbp: .cfa -16 + ^ .cfa: $rsp 16 +
STACK CFI 3c1b4 .cfa: $rbp 16 +
STACK CFI 3c1b6 $r12: .cfa -24 + ^
STACK CFI 3c1ee .cfa: $rsp 8 +
STACK CFI 3c1ef .cfa: $rbp 16 +
STACK CFI 3c203 .cfa: $rsp 8 +
STACK CFI 3c208 .cfa: $rbp 16 +
STACK CFI 3c21c .cfa: $rsp 8 +
STACK CFI 3c221 .cfa: $rbp 16 +
STACK CFI 3c235 .cfa: $rsp 8 +
STACK CFI 3c23a .cfa: $rbp 16 +
STACK CFI 3c24e .cfa: $rsp 8 +
STACK CFI 3c253 .cfa: $rbp 16 +
STACK CFI 3c267 .cfa: $rsp 8 +
STACK CFI 3c26c .cfa: $rbp 16 +
STACK CFI 3c280 .cfa: $rsp 8 +
STACK CFI 3c285 .cfa: $rbp 16 +
STACK CFI 3c299 .cfa: $rsp 8 +
STACK CFI 3c29e .cfa: $rbp 16 +
STACK CFI 3c2b2 .cfa: $rsp 8 +
STACK CFI 3c2b7 .cfa: $rbp 16 +
STACK CFI 3c2cb .cfa: $rsp 8 +
STACK CFI 3c2d0 .cfa: $rbp 16 +
STACK CFI 3c2e4 .cfa: $rsp 8 +
STACK CFI 3c2e9 .cfa: $rbp 16 +
STACK CFI 3c2fd .cfa: $rsp 8 +
STACK CFI 3c302 .cfa: $rbp 16 +
STACK CFI 3c316 .cfa: $rsp 8 +
STACK CFI 3c31b .cfa: $rbp 16 +
STACK CFI 3c32f .cfa: $rsp 8 +
STACK CFI 3c334 .cfa: $rbp 16 +
STACK CFI 3c348 .cfa: $rsp 8 +
STACK CFI 3c34d .cfa: $rbp 16 +
STACK CFI 3c361 .cfa: $rsp 8 +
STACK CFI 3c366 .cfa: $rbp 16 +
STACK CFI 3c37a .cfa: $rsp 8 +
STACK CFI 3c37f .cfa: $rbp 16 +
STACK CFI 3c393 .cfa: $rsp 8 +
STACK CFI 3c398 .cfa: $rbp 16 +
STACK CFI 3c3ac .cfa: $rsp 8 +
STACK CFI 3c3b1 .cfa: $rbp 16 +
STACK CFI 3c3c5 .cfa: $rsp 8 +
STACK CFI 3c3ca .cfa: $rbp 16 +
STACK CFI 3c3de .cfa: $rsp 8 +
STACK CFI 3c3e3 .cfa: $rbp 16 +
STACK CFI 3c3f7 .cfa: $rsp 8 +
STACK CFI 3c3fc .cfa: $rbp 16 +
STACK CFI 3c410 .cfa: $rsp 8 +
STACK CFI 3c415 .cfa: $rbp 16 +
STACK CFI 3c429 .cfa: $rsp 8 +
STACK CFI INIT 3c430 1e4 .cfa: $rsp 8 + .ra: .cfa -8 + ^
STACK CFI 3c431 $rbp: .cfa -16 + ^ .cfa: $rsp 16 +
STACK CFI 3c434 .cfa: $rbp 16 +
STACK CFI 3c444 $r12: .cfa -48 + ^ $r13: .cfa -40 + ^ $r14: .cfa -32 + ^ $r15: .cfa -24 + ^ $rbx: .cfa -56 + ^
STACK CFI 3c572 .cfa: $rsp 8 +
STACK CFI 3c578 .cfa: $rbp 16 +
STACK CFI INIT 3c620 216 .cfa: $rsp 8 + .ra: .cfa -8 + ^
STACK CFI 3c621 $rbp: .cfa -16 + ^ .cfa: $rsp 16 +
STACK CFI 3c624 .cfa: $rbp 16 +
STACK CFI 3c62a $r13: .cfa -40 + ^ $r14: .cfa -32 + ^ $r15: .cfa -24 + ^
STACK CFI 3c637 $r12: .cfa -48 + ^ $rbx: .cfa -56 + ^
STACK CFI 3c66b .cfa: $rsp 8 +
STACK CFI 3c66c .cfa: $rbp 16 +
STACK CFI INIT 3c840 24c .cfa: $rsp 8 + .ra: .cfa -8 + ^
STACK CFI 3c841 $rbp: .cfa -16 + ^ .cfa: $rsp 16 +
STACK CFI 3c844 .cfa: $rbp 16 +
STACK CFI 3c846 $r12: .cfa -24 + ^
STACK CFI 3c87e .cfa: $rsp 8 +
STACK CFI 3c87f .cfa: $rbp 16 +
STACK CFI 3c893 .cfa: $rsp 8 +
STACK CFI 3c898 .cfa: $rbp 16 +
STACK CFI 3c8ac .cfa: $rsp 8 +
STACK CFI 3c8b1 .cfa: $rbp 16 +
STACK CFI 3c8c5 .cfa: $rsp 8 +
STACK CFI 3c8ca .cfa: $rbp 16 +
STACK CFI 3c8de .cfa: $rsp 8 +
STACK CFI 3c8e3 .cfa: $rbp 16 +
STACK CFI 3c8f7 .cfa: $rsp 8 +
STACK CFI 3c8fc .cfa: $rbp 16 +
STACK CFI 3c910 .cfa: $rsp 8 +
STACK CFI 3c915 .cfa: $rbp 16 +
STACK CFI 3c929 .cfa: $rsp 8 +
STACK CFI 3c92e .cfa: $rbp 16 +
STACK CFI 3c942 .cfa: $rsp 8 +
STACK CFI 3c947 .cfa: $rbp 16 +
STACK CFI 3c95b .cfa: $rsp 8 +
STACK CFI 3c960 .cfa: $rbp 16 +
STACK CFI 3c974 .cfa: $rsp 8 +
STACK CFI 3c979 .cfa: $rbp 16 +
STACK CFI 3c98d .cfa: $rsp 8 +
STACK CFI 3c992 .cfa: $rbp 16 +
STACK CFI 3c9a6 .cfa: $rsp 8 +
STACK CFI 3c9ab .cfa: $rbp 16 +
STACK CFI 3c9bf .cfa: $rsp 8 +
STACK CFI 3c9c4 .cfa: $rbp 16 +
STACK CFI 3c9d8 .cfa: $rsp 8 +
STACK CFI 3c9dd .cfa: $rbp 16 +
STACK CFI 3c9f1 .cfa: $rsp 8 +
STACK CFI 3c9f6 .cfa: $rbp 16 +
STACK CFI 3ca0a .cfa: $rsp 8 +
STACK CFI 3ca0f .cfa: $rbp 16 +
STACK CFI 3ca23 .cfa: $rsp 8 +
STACK CFI 3ca28 .cfa: $rbp 16 +
STACK CFI 3ca3c .cfa: $rsp 8 +
STACK CFI 3ca41 .cfa: $rbp 16 +
STACK CFI 3ca55 .cfa: $rsp 8 +
STACK CFI 3ca5a .cfa: $rbp 16 +
STACK CFI 3ca6e .cfa: $rsp 8 +
STACK CFI 3ca73 .cfa: $rbp 16 +
STACK CFI 3ca87 .cfa: $rsp 8 +
STACK CFI INIT 3ca90 9f .cfa: $rsp 8 + .ra: .cfa -8 + ^
STACK CFI 3ca91 $rbp: .cfa -16 + ^ .cfa: $rsp 16 +
STACK CFI 3ca94 .cfa: $rbp 16 +
STACK CFI 3ca98 $r12: .cfa -32 + ^ $r13: .cfa -24 + ^
STACK CFI 3caa0 $rbx: .cfa -40 + ^
STACK CFI 3cacf .cfa: $rsp 8 +
STACK CFI 3cad0 .cfa: $rbp 16 +
STACK CFI 3cb06 .cfa: $rsp 8 +
STACK CFI 3cb10 .cfa: $rbp 16 +
STACK CFI INIT 3cb30 98 .cfa: $rsp 8 + .ra: .cfa -8 + ^
STACK CFI 3cb36 $rbp: .cfa -16 + ^ .cfa: $rsp 16 +
STACK CFI 3cb39 .cfa: $rbp 16 +
STACK CFI 3cb3b $r12: .cfa -24 + ^
STACK CFI 3cb3f $rbx: .cfa -32 + ^
STACK CFI 3cb96 .cfa: $rsp 8 +
STACK CFI 3cba0 $r12: $r12 $rbp: $rbp $rbx: $rbx
STACK CFI 3cba8 $r12: .cfa -24 + ^ $rbp: .cfa -16 + ^ $rbx: .cfa -32 + ^ .cfa: $rbp 16 +
STACK CFI 3cba9 $rbx: $rbx
STACK CFI 3cbae $r12: $r12
STACK CFI 3cbaf $rbp: $rbp .cfa: $rsp 8 +
STACK CFI 3cbb8 $r12: .cfa -24 + ^ $rbp: .cfa -16 + ^ $rbx: .cfa -32 + ^ .cfa: $rbp 16 +
STACK CFI INIT 3cbd0 93 .cfa: $rsp 8 + .ra: .cfa -8 + ^
STACK CFI 3cbd1 $rbp: .cfa -16 + ^ .cfa: $rsp 16 +
STACK CFI 3cbd4 .cfa: $rbp 16 +
STACK CFI 3cbde $r12: .cfa -40 + ^ $r13: .cfa -32 + ^ $r14: .cfa -24 + ^
STACK CFI 3cc1e .cfa: $rsp 8 +
STACK CFI 3cc28 .cfa: $rbp 16 +
STACK CFI 3cc40 .cfa: $rsp 8 +
STACK CFI 3cc48 .cfa: $rbp 16 +
STACK CFI 3cc5e .cfa: $rsp 8 +
STACK CFI INIT 3cc70 258 .cfa: $rsp 8 + .ra: .cfa -8 + ^
STACK CFI 3cc71 $rbp: .cfa -16 + ^ .cfa: $rsp 16 +
STACK CFI 3cc74 .cfa: $rbp 16 +
STACK CFI 3cc78 $r14: .cfa -32 + ^ $r15: .cfa -24 + ^
STACK CFI 3cc7d $r13: .cfa -40 + ^
STACK CFI 3cc8a $r12: .cfa -48 + ^ $rbx: .cfa -56 + ^
STACK CFI 3ce0b .cfa: $rsp 8 +
STACK CFI 3ce10 .cfa: $rbp 16 +
STACK CFI INIT 3ced0 1e4 .cfa: $rsp 8 + .ra: .cfa -8 + ^
STACK CFI 3ced1 $rbp: .cfa -16 + ^ .cfa: $rsp 16 +
STACK CFI 3ced4 .cfa: $rbp 16 +
STACK CFI 3cee4 $r12: .cfa -48 + ^ $r13: .cfa -40 + ^ $r14: .cfa -32 + ^ $r15: .cfa -24 + ^ $rbx: .cfa -56 + ^
STACK CFI 3d012 .cfa: $rsp 8 +
STACK CFI 3d018 .cfa: $rbp 16 +
STACK CFI INIT 3d0c0 226 .cfa: $rsp 8 + .ra: .cfa -8 + ^
STACK CFI 3d0c1 $rbp: .cfa -16 + ^ .cfa: $rsp 16 +
STACK CFI 3d0c4 .cfa: $rbp 16 +
STACK CFI 3d0ca $r13: .cfa -40 + ^ $r14: .cfa -32 + ^ $r15: .cfa -24 + ^
STACK CFI 3d0d7 $r12: .cfa -48 + ^ $rbx: .cfa -56 + ^
STACK CFI 3d113 .cfa: $rsp 8 +
STACK CFI 3d114 .cfa: $rbp 16 +
STACK CFI INIT 1cd5a 10 $r12: .cfa -48 + ^ $r13: .cfa -40 + ^ $r14: .cfa -32 + ^ $r15: .cfa -24 + ^ $rbp: .cfa -16 + ^ $rbx: .cfa -56 + ^ .cfa: $rbp 16 + .ra: .cfa -8 + ^
STACK CFI INIT 3d2f0 27e .cfa: $rsp 8 + .ra: .cfa -8 + ^
STACK CFI 3d2f1 $rbp: .cfa -16 + ^ .cfa: $rsp 16 +
STACK CFI 3d2f4 .cfa: $rbp 16 +
STACK CFI 3d2f6 $r12: .cfa -24 + ^
STACK CFI 3d32e .cfa: $rsp 8 +
STACK CFI 3d32f .cfa: $rbp 16 +
STACK CFI 3d343 .cfa: $rsp 8 +
STACK CFI 3d348 .cfa: $rbp 16 +
STACK CFI 3d35c .cfa: $rsp 8 +
STACK CFI 3d361 .cfa: $rbp 16 +
STACK CFI 3d375 .cfa: $rsp 8 +
STACK CFI 3d37a .cfa: $rbp 16 +
STACK CFI 3d38e .cfa: $rsp 8 +
STACK CFI 3d393 .cfa: $rbp 16 +
STACK CFI 3d3a7 .cfa: $rsp 8 +
STACK CFI 3d3ac .cfa: $rbp 16 +
STACK CFI 3d3c0 .cfa: $rsp 8 +
STACK CFI 3d3c5 .cfa: $rbp 16 +
STACK CFI 3d3d9 .cfa: $rsp 8 +
STACK CFI 3d3de .cfa: $rbp 16 +
STACK CFI 3d3f2 .cfa: $rsp 8 +
STACK CFI 3d3f7 .cfa: $rbp 16 +
STACK CFI 3d40b .cfa: $rsp 8 +
STACK CFI 3d410 .cfa: $rbp 16 +
STACK CFI 3d424 .cfa: $rsp 8 +
STACK CFI 3d429 .cfa: $rbp 16 +
STACK CFI 3d43d .cfa: $rsp 8 +
STACK CFI 3d442 .cfa: $rbp 16 +
STACK CFI 3d456 .cfa: $rsp 8 +
STACK CFI 3d45b .cfa: $rbp 16 +
STACK CFI 3d46f .cfa: $rsp 8 +
STACK CFI 3d474 .cfa: $rbp 16 +
STACK CFI 3d488 .cfa: $rsp 8 +
STACK CFI 3d48d .cfa: $rbp 16 +
STACK CFI 3d4a1 .cfa: $rsp 8 +
STACK CFI 3d4a6 .cfa: $rbp 16 +
STACK CFI 3d4ba .cfa: $rsp 8 +
STACK CFI 3d4bf .cfa: $rbp 16 +
STACK CFI 3d4d3 .cfa: $rsp 8 +
STACK CFI 3d4d8 .cfa: $rbp 16 +
STACK CFI 3d4ec .cfa: $rsp 8 +
STACK CFI 3d4f1 .cfa: $rbp 16 +
STACK CFI 3d505 .cfa: $rsp 8 +
STACK CFI 3d50a .cfa: $rbp 16 +
STACK CFI 3d51e .cfa: $rsp 8 +
STACK CFI 3d523 .cfa: $rbp 16 +
STACK CFI 3d537 .cfa: $rsp 8 +
STACK CFI 3d53c .cfa: $rbp 16 +
STACK CFI 3d550 .cfa: $rsp 8 +
STACK CFI 3d555 .cfa: $rbp 16 +
STACK CFI 3d569 .cfa: $rsp 8 +
STACK CFI INIT 3d570 9f .cfa: $rsp 8 + .ra: .cfa -8 + ^
STACK CFI 3d571 $rbp: .cfa -16 + ^ .cfa: $rsp 16 +
STACK CFI 3d574 .cfa: $rbp 16 +
STACK CFI 3d578 $r12: .cfa -32 + ^ $r13: .cfa -24 + ^
STACK CFI 3d580 $rbx: .cfa -40 + ^
STACK CFI 3d5af .cfa: $rsp 8 +
STACK CFI 3d5b0 .cfa: $rbp 16 +
STACK CFI 3d5e6 .cfa: $rsp 8 +
STACK CFI 3d5f0 .cfa: $rbp 16 +
STACK CFI INIT 3d610 98 .cfa: $rsp 8 + .ra: .cfa -8 + ^
STACK CFI 3d616 $rbp: .cfa -16 + ^ .cfa: $rsp 16 +
STACK CFI 3d619 .cfa: $rbp 16 +
STACK CFI 3d61b $r12: .cfa -24 + ^
STACK CFI 3d61f $rbx: .cfa -32 + ^
STACK CFI 3d676 .cfa: $rsp 8 +
STACK CFI 3d680 $r12: $r12 $rbp: $rbp $rbx: $rbx
STACK CFI 3d688 $r12: .cfa -24 + ^ $rbp: .cfa -16 + ^ $rbx: .cfa -32 + ^ .cfa: $rbp 16 +
STACK CFI 3d689 $rbx: $rbx
STACK CFI 3d68e $r12: $r12
STACK CFI 3d68f $rbp: $rbp .cfa: $rsp 8 +
STACK CFI 3d698 $r12: .cfa -24 + ^ $rbp: .cfa -16 + ^ $rbx: .cfa -32 + ^ .cfa: $rbp 16 +
STACK CFI INIT 3d6b0 93 .cfa: $rsp 8 + .ra: .cfa -8 + ^
STACK CFI 3d6b1 $rbp: .cfa -16 + ^ .cfa: $rsp 16 +
STACK CFI 3d6b4 .cfa: $rbp 16 +
STACK CFI 3d6be $r12: .cfa -40 + ^ $r13: .cfa -32 + ^ $r14: .cfa -24 + ^
STACK CFI 3d6fe .cfa: $rsp 8 +
STACK CFI 3d708 .cfa: $rbp 16 +
STACK CFI 3d720 .cfa: $rsp 8 +
STACK CFI 3d728 .cfa: $rbp 16 +
STACK CFI 3d73e .cfa: $rsp 8 +
STACK CFI INIT 3d750 258 .cfa: $rsp 8 + .ra: .cfa -8 + ^
STACK CFI 3d751 $rbp: .cfa -16 + ^ .cfa: $rsp 16 +
STACK CFI 3d754 .cfa: $rbp 16 +
STACK CFI 3d758 $r14: .cfa -32 + ^ $r15: .cfa -24 + ^
STACK CFI 3d75d $r13: .cfa -40 + ^
STACK CFI 3d76a $r12: .cfa -48 + ^ $rbx: .cfa -56 + ^
STACK CFI 3d8eb .cfa: $rsp 8 +
STACK CFI 3d8f0 .cfa: $rbp 16 +
STACK CFI INIT 3d9b0 206 .cfa: $rsp 8 + .ra: .cfa -8 + ^
STACK CFI 3d9b1 $rbp: .cfa -16 + ^ .cfa: $rsp 16 +
STACK CFI 3d9b4 .cfa: $rbp 16 +
STACK CFI 3d9ba $r13: .cfa -40 + ^ $r14: .cfa -32 + ^ $r15: .cfa -24 + ^
STACK CFI 3d9c7 $r12: .cfa -48 + ^ $rbx: .cfa -56 + ^
STACK CFI 3d9fb .cfa: $rsp 8 +
STACK CFI 3d9fc .cfa: $rbp 16 +
STACK CFI INIT 3dbc0 7 .cfa: $rsp 8 + .ra: .cfa -8 + ^
STACK CFI INIT 3dbd0 368 .cfa: $rsp 8 + .ra: .cfa -8 + ^
STACK CFI 3dbd1 $rbp: .cfa -16 + ^ .cfa: $rsp 16 +
STACK CFI 3dbd7 .cfa: $rbp 16 +
STACK CFI 3dc88 .cfa: $rsp 8 +
STACK CFI 3dc90 .cfa: $rbp 16 +
STACK CFI 3dc91 .cfa: $rsp 8 +
STACK CFI 3dc98 .cfa: $rbp 16 +
STACK CFI 3dcd7 .cfa: $rsp 8 +
STACK CFI 3dce0 .cfa: $rbp 16 +
STACK CFI 3dcf7 .cfa: $rsp 8 +
STACK CFI 3dd00 .cfa: $rbp 16 +
STACK CFI 3dd17 .cfa: $rsp 8 +
STACK CFI 3dd20 .cfa: $rbp 16 +
STACK CFI 3dd37 .cfa: $rsp 8 +
STACK CFI 3dd40 .cfa: $rbp 16 +
STACK CFI 3dd57 .cfa: $rsp 8 +
STACK CFI 3dd60 .cfa: $rbp 16 +
STACK CFI 3dd77 .cfa: $rsp 8 +
STACK CFI 3dd80 .cfa: $rbp 16 +
STACK CFI 3dd97 .cfa: $rsp 8 +
STACK CFI 3dda0 .cfa: $rbp 16 +
STACK CFI 3ddb7 .cfa: $rsp 8 +
STACK CFI 3ddc0 .cfa: $rbp 16 +
STACK CFI 3ddd7 .cfa: $rsp 8 +
STACK CFI 3dde0 .cfa: $rbp 16 +
STACK CFI 3ddf7 .cfa: $rsp 8 +
STACK CFI 3de00 .cfa: $rbp 16 +
STACK CFI 3de17 .cfa: $rsp 8 +
STACK CFI 3de20 .cfa: $rbp 16 +
STACK CFI 3de37 .cfa: $rsp 8 +
STACK CFI 3de40 .cfa: $rbp 16 +
STACK CFI 3de57 .cfa: $rsp 8 +
STACK CFI 3de60 .cfa: $rbp 16 +
STACK CFI 3de77 .cfa: $rsp 8 +
STACK CFI 3de80 .cfa: $rbp 16 +
STACK CFI 3de97 .cfa: $rsp 8 +
STACK CFI 3dea0 .cfa: $rbp 16 +
STACK CFI 3deb7 .cfa: $rsp 8 +
STACK CFI 3dec0 .cfa: $rbp 16 +
STACK CFI 3ded7 .cfa: $rsp 8 +
STACK CFI 3dee0 .cfa: $rbp 16 +
STACK CFI 3def7 .cfa: $rsp 8 +
STACK CFI 3df00 .cfa: $rbp 16 +
STACK CFI 3df17 .cfa: $rsp 8 +
STACK CFI 3df20 .cfa: $rbp 16 +
STACK CFI 3df37 .cfa: $rsp 8 +
STACK CFI INIT 3df40 b3 .cfa: $rsp 8 + .ra: .cfa -8 + ^
STACK CFI 3df41 $rbp: .cfa -16 + ^ .cfa: $rsp 16 +
STACK CFI 3df44 .cfa: $rbp 16 +
STACK CFI 3df48 $r12: .cfa -32 + ^ $r13: .cfa -24 + ^
STACK CFI 3df50 $rbx: .cfa -40 + ^
STACK CFI 3df78 .cfa: $rsp 8 +
STACK CFI 3df80 .cfa: $rbp 16 +
STACK CFI 3dfb3 .cfa: $rsp 8 +
STACK CFI 3dfb8 .cfa: $rbp 16 +
STACK CFI INIT 3e000 d0 .cfa: $rsp 8 + .ra: .cfa -8 + ^
STACK CFI 3e001 $rbp: .cfa -16 + ^ .cfa: $rsp 16 +
STACK CFI 3e004 .cfa: $rbp 16 +
STACK CFI 3e00b $r12: .cfa -40 + ^ $r13: .cfa -32 + ^ $r14: .cfa -24 + ^ $rbx: .cfa -48 + ^
STACK CFI 3e086 .cfa: $rsp 8 +
STACK CFI 3e090 .cfa: $rbp 16 +
STACK CFI 3e0cb .cfa: $rsp 8 +
STACK CFI INIT 3e0d0 35e .cfa: $rsp 8 + .ra: .cfa -8 + ^
STACK CFI 3e0d1 $rbp: .cfa -16 + ^ .cfa: $rsp 16 +
STACK CFI 3e0d4 .cfa: $rbp 16 +
STACK CFI 3e0da $r13: .cfa -40 + ^ $r14: .cfa -32 + ^ $r15: .cfa -24 + ^
STACK CFI 3e0df $r12: .cfa -48 + ^
STACK CFI 3e0e3 $rbx: .cfa -56 + ^
STACK CFI 3e330 .cfa: $rsp 8 +
STACK CFI 3e338 .cfa: $rbp 16 +
STACK CFI INIT 3e430 2d9 .cfa: $rsp 8 + .ra: .cfa -8 + ^
STACK CFI 3e431 $rbp: .cfa -16 + ^ .cfa: $rsp 16 +
STACK CFI 3e434 .cfa: $rbp 16 +
STACK CFI 3e436 $r15: .cfa -24 + ^
STACK CFI 3e43b $r14: .cfa -32 + ^
STACK CFI 3e443 $r12: .cfa -48 + ^ $r13: .cfa -40 + ^ $rbx: .cfa -56 + ^
STACK CFI 3e4a7 .cfa: $rsp 8 +
STACK CFI 3e4b0 .cfa: $rbp 16 +
STACK CFI INIT 3e710 69 .cfa: $rsp 8 + .ra: .cfa -8 + ^
STACK CFI 3e711 $rbp: .cfa -16 + ^ .cfa: $rsp 16 +
STACK CFI 3e714 .cfa: $rbp 16 +
STACK CFI 3e71e $r12: .cfa -40 + ^ $r13: .cfa -32 + ^ $r14: .cfa -24 + ^
STACK CFI 3e752 .cfa: $rsp 8 +
STACK CFI 3e760 .cfa: $rbp 16 +
STACK CFI 3e778 .cfa: $rsp 8 +
STACK CFI INIT 3e780 206 .cfa: $rsp 8 + .ra: .cfa -8 + ^
STACK CFI 3e781 $rbp: .cfa -16 + ^ .cfa: $rsp 16 +
STACK CFI 3e784 .cfa: $rbp 16 +
STACK CFI 3e78a $r13: .cfa -40 + ^ $r14: .cfa -32 + ^ $r15: .cfa -24 + ^
STACK CFI 3e797 $r12: .cfa -48 + ^ $rbx: .cfa -56 + ^
STACK CFI 3e7cb .cfa: $rsp 8 +
STACK CFI 3e7cc .cfa: $rbp 16 +
STACK CFI INIT 3e990 2b8 .cfa: $rsp 8 + .ra: .cfa -8 + ^
STACK CFI 3e991 $rbp: .cfa -16 + ^ .cfa: $rsp 16 +
STACK CFI 3e997 .cfa: $rbp 16 +
STACK CFI 3e9c9 .cfa: $rsp 8 +
STACK CFI 3e9d0 .cfa: $rbp 16 +
STACK CFI 3e9e7 .cfa: $rsp 8 +
STACK CFI 3e9f0 .cfa: $rbp 16 +
STACK CFI 3ea07 .cfa: $rsp 8 +
STACK CFI 3ea10 .cfa: $rbp 16 +
STACK CFI 3ea27 .cfa: $rsp 8 +
STACK CFI 3ea30 .cfa: $rbp 16 +
STACK CFI 3ea47 .cfa: $rsp 8 +
STACK CFI 3ea50 .cfa: $rbp 16 +
STACK CFI 3ea67 .cfa: $rsp 8 +
STACK CFI 3ea70 .cfa: $rbp 16 +
STACK CFI 3ea87 .cfa: $rsp 8 +
STACK CFI 3ea90 .cfa: $rbp 16 +
STACK CFI 3eaa7 .cfa: $rsp 8 +
STACK CFI 3eab0 .cfa: $rbp 16 +
STACK CFI 3eac7 .cfa: $rsp 8 +
STACK CFI 3ead0 .cfa: $rbp 16 +
STACK CFI 3eae7 .cfa: $rsp 8 +
STACK CFI 3eaf0 .cfa: $rbp 16 +
STACK CFI 3eb07 .cfa: $rsp 8 +
STACK CFI 3eb10 .cfa: $rbp 16 +
STACK CFI 3eb27 .cfa: $rsp 8 +
STACK CFI 3eb30 .cfa: $rbp 16 +
STACK CFI 3eb47 .cfa: $rsp 8 +
STACK CFI 3eb50 .cfa: $rbp 16 +
STACK CFI 3eb67 .cfa: $rsp 8 +
STACK CFI 3eb70 .cfa: $rbp 16 +
STACK CFI 3eb87 .cfa: $rsp 8 +
STACK CFI 3eb90 .cfa: $rbp 16 +
STACK CFI 3eba7 .cfa: $rsp 8 +
STACK CFI 3ebb0 .cfa: $rbp 16 +
STACK CFI 3ebc7 .cfa: $rsp 8 +
STACK CFI 3ebd0 .cfa: $rbp 16 +
STACK CFI 3ebe7 .cfa: $rsp 8 +
STACK CFI 3ebf0 .cfa: $rbp 16 +
STACK CFI 3ec07 .cfa: $rsp 8 +
STACK CFI 3ec10 .cfa: $rbp 16 +
STACK CFI 3ec27 .cfa: $rsp 8 +
STACK CFI 3ec30 .cfa: $rbp 16 +
STACK CFI 3ec47 .cfa: $rsp 8 +
STACK CFI INIT 3ec50 b3 .cfa: $rsp 8 + .ra: .cfa -8 + ^
STACK CFI 3ec51 $rbp: .cfa -16 + ^ .cfa: $rsp 16 +
STACK CFI 3ec54 .cfa: $rbp 16 +
STACK CFI 3ec58 $r12: .cfa -32 + ^ $r13: .cfa -24 + ^
STACK CFI 3ec60 $rbx: .cfa -40 + ^
STACK CFI 3ec88 .cfa: $rsp 8 +
STACK CFI 3ec90 .cfa: $rbp 16 +
STACK CFI 3ecc3 .cfa: $rsp 8 +
STACK CFI 3ecc8 .cfa: $rbp 16 +
STACK CFI INIT 3ed10 d0 .cfa: $rsp 8 + .ra: .cfa -8 + ^
STACK CFI 3ed11 $rbp: .cfa -16 + ^ .cfa: $rsp 16 +
STACK CFI 3ed14 .cfa: $rbp 16 +
STACK CFI 3ed1b $r12: .cfa -40 + ^ $r13: .cfa -32 + ^ $r14: .cfa -24 + ^ $rbx: .cfa -48 + ^
STACK CFI 3ed96 .cfa: $rsp 8 +
STACK CFI 3eda0 .cfa: $rbp 16 +
STACK CFI 3eddb .cfa: $rsp 8 +
STACK CFI INIT 3ede0 35e .cfa: $rsp 8 + .ra: .cfa -8 + ^
STACK CFI 3ede1 $rbp: .cfa -16 + ^ .cfa: $rsp 16 +
STACK CFI 3ede4 .cfa: $rbp 16 +
STACK CFI 3edea $r13: .cfa -40 + ^ $r14: .cfa -32 + ^ $r15: .cfa -24 + ^
STACK CFI 3edef $r12: .cfa -48 + ^
STACK CFI 3edf3 $rbx: .cfa -56 + ^
STACK CFI 3f040 .cfa: $rsp 8 +
STACK CFI 3f048 .cfa: $rbp 16 +
STACK CFI INIT 3f140 2d9 .cfa: $rsp 8 + .ra: .cfa -8 + ^
STACK CFI 3f141 $rbp: .cfa -16 + ^ .cfa: $rsp 16 +
STACK CFI 3f144 .cfa: $rbp 16 +
STACK CFI 3f146 $r15: .cfa -24 + ^
STACK CFI 3f14b $r14: .cfa -32 + ^
STACK CFI 3f153 $r12: .cfa -48 + ^ $r13: .cfa -40 + ^ $rbx: .cfa -56 + ^
STACK CFI 3f1b7 .cfa: $rsp 8 +
STACK CFI 3f1c0 .cfa: $rbp 16 +
STACK CFI INIT 3f420 69 .cfa: $rsp 8 + .ra: .cfa -8 + ^
STACK CFI 3f421 $rbp: .cfa -16 + ^ .cfa: $rsp 16 +
STACK CFI 3f424 .cfa: $rbp 16 +
STACK CFI 3f42e $r12: .cfa -40 + ^ $r13: .cfa -32 + ^ $r14: .cfa -24 + ^
STACK CFI 3f462 .cfa: $rsp 8 +
STACK CFI 3f470 .cfa: $rbp 16 +
STACK CFI 3f488 .cfa: $rsp 8 +
STACK CFI INIT 3f490 216 .cfa: $rsp 8 + .ra: .cfa -8 + ^
STACK CFI 3f491 $rbp: .cfa -16 + ^ .cfa: $rsp 16 +
STACK CFI 3f494 .cfa: $rbp 16 +
STACK CFI 3f49a $r13: .cfa -40 + ^ $r14: .cfa -32 + ^ $r15: .cfa -24 + ^
STACK CFI 3f4a7 $r12: .cfa -48 + ^ $rbx: .cfa -56 + ^
STACK CFI 3f4db .cfa: $rsp 8 +
STACK CFI 3f4dc .cfa: $rbp 16 +
STACK CFI INIT 3f6b0 2d8 .cfa: $rsp 8 + .ra: .cfa -8 + ^
STACK CFI 3f6b1 $rbp: .cfa -16 + ^ .cfa: $rsp 16 +
STACK CFI 3f6b7 .cfa: $rbp 16 +
STACK CFI 3f6e9 .cfa: $rsp 8 +
STACK CFI 3f6f0 .cfa: $rbp 16 +
STACK CFI 3f707 .cfa: $rsp 8 +
STACK CFI 3f710 .cfa: $rbp 16 +
STACK CFI 3f727 .cfa: $rsp 8 +
STACK CFI 3f730 .cfa: $rbp 16 +
STACK CFI 3f747 .cfa: $rsp 8 +
STACK CFI 3f750 .cfa: $rbp 16 +
STACK CFI 3f767 .cfa: $rsp 8 +
STACK CFI 3f770 .cfa: $rbp 16 +
STACK CFI 3f787 .cfa: $rsp 8 +
STACK CFI 3f790 .cfa: $rbp 16 +
STACK CFI 3f7a7 .cfa: $rsp 8 +
STACK CFI 3f7b0 .cfa: $rbp 16 +
STACK CFI 3f7c7 .cfa: $rsp 8 +
STACK CFI 3f7d0 .cfa: $rbp 16 +
STACK CFI 3f7e7 .cfa: $rsp 8 +
STACK CFI 3f7f0 .cfa: $rbp 16 +
STACK CFI 3f807 .cfa: $rsp 8 +
STACK CFI 3f810 .cfa: $rbp 16 +
STACK CFI 3f827 .cfa: $rsp 8 +
STACK CFI 3f830 .cfa: $rbp 16 +
STACK CFI 3f847 .cfa: $rsp 8 +
STACK CFI 3f850 .cfa: $rbp 16 +
STACK CFI 3f867 .cfa: $rsp 8 +
STACK CFI 3f870 .cfa: $rbp 16 +
STACK CFI 3f887 .cfa: $rsp 8 +
STACK CFI 3f890 .cfa: $rbp 16 +
STACK CFI 3f8a7 .cfa: $rsp 8 +
STACK CFI 3f8b0 .cfa: $rbp 16 +
STACK CFI 3f8c7 .cfa: $rsp 8 +
STACK CFI 3f8d0 .cfa: $rbp 16 +
STACK CFI 3f8e7 .cfa: $rsp 8 +
STACK CFI 3f8f0 .cfa: $rbp 16 +
STACK CFI 3f907 .cfa: $rsp 8 +
STACK CFI 3f910 .cfa: $rbp 16 +
STACK CFI 3f927 .cfa: $rsp 8 +
STACK CFI 3f930 .cfa: $rbp 16 +
STACK CFI 3f947 .cfa: $rsp 8 +
STACK CFI 3f950 .cfa: $rbp 16 +
STACK CFI 3f967 .cfa: $rsp 8 +
STACK CFI 3f970 .cfa: $rbp 16 +
STACK CFI 3f987 .cfa: $rsp 8 +
STACK CFI INIT 3f990 b3 .cfa: $rsp 8 + .ra: .cfa -8 + ^
STACK CFI 3f991 $rbp: .cfa -16 + ^ .cfa: $rsp 16 +
STACK CFI 3f994 .cfa: $rbp 16 +
STACK CFI 3f998 $r12: .cfa -32 + ^ $r13: .cfa -24 + ^
STACK CFI 3f9a0 $rbx: .cfa -40 + ^
STACK CFI 3f9c8 .cfa: $rsp 8 +
STACK CFI 3f9d0 .cfa: $rbp 16 +
STACK CFI 3fa03 .cfa: $rsp 8 +
STACK CFI 3fa08 .cfa: $rbp 16 +
STACK CFI INIT 3fa50 d0 .cfa: $rsp 8 + .ra: .cfa -8 + ^
STACK CFI 3fa51 $rbp: .cfa -16 + ^ .cfa: $rsp 16 +
STACK CFI 3fa54 .cfa: $rbp 16 +
STACK CFI 3fa5b $r12: .cfa -40 + ^ $r13: .cfa -32 + ^ $r14: .cfa -24 + ^ $rbx: .cfa -48 + ^
STACK CFI 3fad6 .cfa: $rsp 8 +
STACK CFI 3fae0 .cfa: $rbp 16 +
STACK CFI 3fb1b .cfa: $rsp 8 +
STACK CFI INIT 3fb20 35e .cfa: $rsp 8 + .ra: .cfa -8 + ^
STACK CFI 3fb21 $rbp: .cfa -16 + ^ .cfa: $rsp 16 +
STACK CFI 3fb24 .cfa: $rbp 16 +
STACK CFI 3fb2a $r13: .cfa -40 + ^ $r14: .cfa -32 + ^ $r15: .cfa -24 + ^
STACK CFI 3fb2f $r12: .cfa -48 + ^
STACK CFI 3fb33 $rbx: .cfa -56 + ^
STACK CFI 3fd80 .cfa: $rsp 8 +
STACK CFI 3fd88 .cfa: $rbp 16 +
STACK CFI INIT 3fe80 2d9 .cfa: $rsp 8 + .ra: .cfa -8 + ^
STACK CFI 3fe81 $rbp: .cfa -16 + ^ .cfa: $rsp 16 +
STACK CFI 3fe84 .cfa: $rbp 16 +
STACK CFI 3fe86 $r15: .cfa -24 + ^
STACK CFI 3fe8b $r14: .cfa -32 + ^
STACK CFI 3fe93 $r12: .cfa -48 + ^ $r13: .cfa -40 + ^ $rbx: .cfa -56 + ^
STACK CFI 3fef7 .cfa: $rsp 8 +
STACK CFI 3ff00 .cfa: $rbp 16 +
STACK CFI INIT 40160 69 .cfa: $rsp 8 + .ra: .cfa -8 + ^
STACK CFI 40161 $rbp: .cfa -16 + ^ .cfa: $rsp 16 +
STACK CFI 40164 .cfa: $rbp 16 +
STACK CFI 4016e $r12: .cfa -40 + ^ $r13: .cfa -32 + ^ $r14: .cfa -24 + ^
STACK CFI 401a2 .cfa: $rsp 8 +
STACK CFI 401b0 .cfa: $rbp 16 +
STACK CFI 401c8 .cfa: $rsp 8 +
STACK CFI INIT 401d0 c0 .cfa: $rsp 8 + .ra: .cfa -8 + ^
STACK CFI 401d1 $rbp: .cfa -16 + ^ .cfa: $rsp 16 +
STACK CFI 401d4 .cfa: $rbp 16 +
STACK CFI 401dd $r12: .cfa -32 + ^ $r13: .cfa -24 + ^ $rbx: .cfa -40 + ^
STACK CFI 4022d .cfa: $rsp 8 +
STACK CFI 40230 .cfa: $rbp 16 +
STACK CFI 4028f .cfa: $rsp 8 +
STACK CFI INIT 40290 4b .cfa: $rsp 8 + .ra: .cfa -8 + ^
STACK CFI 40296 $rbp: .cfa -16 + ^ .cfa: $rsp 16 +
STACK CFI 40299 .cfa: $rbp 16 +
STACK CFI 4029b $r12: .cfa -24 + ^
STACK CFI 402bd $r12: $r12
STACK CFI 402be $rbp: $rbp .cfa: $rsp 8 +
STACK CFI 402c8 $r12: .cfa -24 + ^ $rbp: .cfa -16 + ^ .cfa: $rbp 16 +
STACK CFI 402d1 .cfa: $rsp 8 +
STACK CFI 402d8 $r12: $r12 $rbp: $rbp
STACK CFI INIT 402e0 28c .cfa: $rsp 8 + .ra: .cfa -8 + ^
STACK CFI 402e1 $rbp: .cfa -16 + ^ .cfa: $rsp 16 +
STACK CFI 402e4 .cfa: $rbp 16 +
STACK CFI 402e8 $r14: .cfa -32 + ^ $r15: .cfa -24 + ^
STACK CFI 402f0 $r12: .cfa -48 + ^ $r13: .cfa -40 + ^ $rbx: .cfa -56 + ^
STACK CFI 40480 .cfa: $rsp 8 +
STACK CFI 40488 .cfa: $rbp 16 +
STACK CFI INIT 40570 b0 .cfa: $rsp 8 + .ra: .cfa -8 + ^
STACK CFI 40571 $rbp: .cfa -16 + ^ .cfa: $rsp 16 +
STACK CFI 40574 .cfa: $rbp 16 +
STACK CFI 4057b $r12: .cfa -40 + ^ $r13: .cfa -32 + ^ $r14: .cfa -24 + ^ $rbx: .cfa -48 + ^
STACK CFI 405f6 .cfa: $rsp 8 +
STACK CFI 40600 .cfa: $rbp 16 +
STACK CFI 4061b .cfa: $rsp 8 +
STACK CFI INIT 40620 296 .cfa: $rsp 8 + .ra: .cfa -8 + ^
STACK CFI 40621 $rbp: .cfa -16 + ^ .cfa: $rsp 16 +
STACK CFI 40624 .cfa: $rbp 16 +
STACK CFI 4062c $r12: .cfa -48 + ^ $r13: .cfa -40 + ^ $r14: .cfa -32 + ^ $r15: .cfa -24 + ^
STACK CFI 40637 $rbx: .cfa -56 + ^
STACK CFI 40734 .cfa: $rsp 8 +
STACK CFI 40735 .cfa: $rbp 16 +
STACK CFI INIT 408c0 1e7 .cfa: $rsp 8 + .ra: .cfa -8 + ^
STACK CFI 408c1 $rbp: .cfa -16 + ^ .cfa: $rsp 16 +
STACK CFI 408c4 .cfa: $rbp 16 +
STACK CFI 408d4 $r12: .cfa -48 + ^ $r13: .cfa -40 + ^ $r14: .cfa -32 + ^ $r15: .cfa -24 + ^ $rbx: .cfa -56 + ^
STACK CFI 40a43 .cfa: $rsp 8 +
STACK CFI 40a44 .cfa: $rbp 16 +
STACK CFI INIT 40ab0 348 .cfa: $rsp 8 + .ra: .cfa -8 + ^
STACK CFI 40ab1 $rbp: .cfa -16 + ^ .cfa: $rsp 16 +
STACK CFI 40ab4 .cfa: $rbp 16 +
STACK CFI 40ac4 $r12: .cfa -48 + ^ $r13: .cfa -40 + ^ $r14: .cfa -32 + ^ $r15: .cfa -24 + ^ $rbx: .cfa -56 + ^
STACK CFI 40c0e .cfa: $rsp 8 +
STACK CFI 40c10 .cfa: $rbp 16 +
STACK CFI INIT 40e00 4b .cfa: $rsp 8 + .ra: .cfa -8 + ^
STACK CFI 40e06 $rbp: .cfa -16 + ^ .cfa: $rsp 16 +
STACK CFI 40e09 .cfa: $rbp 16 +
STACK CFI 40e0b $r12: .cfa -24 + ^
STACK CFI 40e2d $r12: $r12
STACK CFI 40e2e $rbp: $rbp .cfa: $rsp 8 +
STACK CFI 40e38 $r12: .cfa -24 + ^ $rbp: .cfa -16 + ^ .cfa: $rbp 16 +
STACK CFI 40e41 .cfa: $rsp 8 +
STACK CFI 40e48 $r12: $r12 $rbp: $rbp
STACK CFI INIT 40e50 5 .cfa: $rsp 8 + .ra: .cfa -8 + ^
STACK CFI INIT 40e60 5 .cfa: $rsp 8 + .ra: .cfa -8 + ^
STACK CFI INIT 40e70 23f .cfa: $rsp 8 + .ra: .cfa -8 + ^
STACK CFI 40e71 $rbp: .cfa -16 + ^ .cfa: $rsp 16 +
STACK CFI 40e74 .cfa: $rbp 16 +
STACK CFI 40e7b $r12: .cfa -40 + ^ $r13: .cfa -32 + ^ $r14: .cfa -24 + ^ $rbx: .cfa -48 + ^
STACK CFI 40f3c .cfa: $rsp 8 +
STACK CFI 40f40 .cfa: $rbp 16 +
STACK CFI INIT 410b0 f6 .cfa: $rsp 8 + .ra: .cfa -8 + ^
STACK CFI 410b1 $rbp: .cfa -16 + ^ .cfa: $rsp 16 +
STACK CFI 410b4 .cfa: $rbp 16 +
STACK CFI 410b5 $rbx: .cfa -24 + ^
STACK CFI 41115 .cfa: $rsp 8 +
STACK CFI 41116 .cfa: $rbp 16 +
STACK CFI INIT 411b0 f4 .cfa: $rsp 8 + .ra: .cfa -8 + ^
STACK CFI 411b1 $rbp: .cfa -16 + ^ .cfa: $rsp 16 +
STACK CFI 411b4 .cfa: $rbp 16 +
STACK CFI 411bb $r12: .cfa -40 + ^ $r13: .cfa -32 + ^ $r14: .cfa -24 + ^ $rbx: .cfa -48 + ^
STACK CFI 41276 .cfa: $rsp 8 +
STACK CFI 41280 .cfa: $rbp 16 +
STACK CFI 412a3 .cfa: $rsp 8 +
STACK CFI INIT 412b0 216 .cfa: $rsp 8 + .ra: .cfa -8 + ^
STACK CFI 412b1 $rbp: .cfa -16 + ^ .cfa: $rsp 16 +
STACK CFI 412b4 .cfa: $rbp 16 +
STACK CFI 412ba $r13: .cfa -40 + ^ $r14: .cfa -32 + ^ $r15: .cfa -24 + ^
STACK CFI 412c7 $r12: .cfa -48 + ^ $rbx: .cfa -56 + ^
STACK CFI 412fb .cfa: $rsp 8 +
STACK CFI 412fc .cfa: $rbp 16 +
STACK CFI INIT 414d0 2d8 .cfa: $rsp 8 + .ra: .cfa -8 + ^
STACK CFI 414d1 $rbp: .cfa -16 + ^ .cfa: $rsp 16 +
STACK CFI 414d7 .cfa: $rbp 16 +
STACK CFI 41509 .cfa: $rsp 8 +
STACK CFI 41510 .cfa: $rbp 16 +
STACK CFI 41527 .cfa: $rsp 8 +
STACK CFI 41530 .cfa: $rbp 16 +
STACK CFI 41547 .cfa: $rsp 8 +
STACK CFI 41550 .cfa: $rbp 16 +
STACK CFI 41567 .cfa: $rsp 8 +
STACK CFI 41570 .cfa: $rbp 16 +
STACK CFI 41587 .cfa: $rsp 8 +
STACK CFI 41590 .cfa: $rbp 16 +
STACK CFI 415a7 .cfa: $rsp 8 +
STACK CFI 415b0 .cfa: $rbp 16 +
STACK CFI 415c7 .cfa: $rsp 8 +
STACK CFI 415d0 .cfa: $rbp 16 +
STACK CFI 415e7 .cfa: $rsp 8 +
STACK CFI 415f0 .cfa: $rbp 16 +
STACK CFI 41607 .cfa: $rsp 8 +
STACK CFI 41610 .cfa: $rbp 16 +
STACK CFI 41627 .cfa: $rsp 8 +
STACK CFI 41630 .cfa: $rbp 16 +
STACK CFI 41647 .cfa: $rsp 8 +
STACK CFI 41650 .cfa: $rbp 16 +
STACK CFI 41667 .cfa: $rsp 8 +
STACK CFI 41670 .cfa: $rbp 16 +
STACK CFI 41687 .cfa: $rsp 8 +
STACK CFI 41690 .cfa: $rbp 16 +
STACK CFI 416a7 .cfa: $rsp 8 +
STACK CFI 416b0 .cfa: $rbp 16 +
STACK CFI 416c7 .cfa: $rsp 8 +
STACK CFI 416d0 .cfa: $rbp 16 +
STACK CFI 416e7 .cfa: $rsp 8 +
STACK CFI 416f0 .cfa: $rbp 16 +
STACK CFI 41707 .cfa: $rsp 8 +
STACK CFI 41710 .cfa: $rbp 16 +
STACK CFI 41727 .cfa: $rsp 8 +
STACK CFI 41730 .cfa: $rbp 16 +
STACK CFI 41747 .cfa: $rsp 8 +
STACK CFI 41750 .cfa: $rbp 16 +
STACK CFI 41767 .cfa: $rsp 8 +
STACK CFI 41770 .cfa: $rbp 16 +
STACK CFI 41787 .cfa: $rsp 8 +
STACK CFI 41790 .cfa: $rbp 16 +
STACK CFI 417a7 .cfa: $rsp 8 +
STACK CFI INIT 417b0 3dd .cfa: $rsp 8 + .ra: .cfa -8 + ^
STACK CFI 417b1 $rbp: .cfa -16 + ^ .cfa: $rsp 16 +
STACK CFI 417b4 .cfa: $rbp 16 +
STACK CFI 417b6 $r15: .cfa -24 + ^
STACK CFI 417c7 $r12: .cfa -48 + ^ $r13: .cfa -40 + ^ $r14: .cfa -32 + ^ $rbx: .cfa -56 + ^
STACK CFI 4191f .cfa: $rsp 8 +
STACK CFI 41920 .cfa: $rbp 16 +
STACK CFI INIT 41b90 7 .cfa: $rsp 8 + .ra: .cfa -8 + ^
STACK CFI INIT 41ba0 35f .cfa: $rsp 8 + .ra: .cfa -8 + ^
STACK CFI 41ba1 $rbp: .cfa -16 + ^ .cfa: $rsp 16 +
STACK CFI 41ba4 .cfa: $rbp 16 +
STACK CFI 41ba6 $r15: .cfa -24 + ^
STACK CFI 41bb7 $r12: .cfa -48 + ^ $r13: .cfa -40 + ^ $r14: .cfa -32 + ^ $rbx: .cfa -56 + ^
STACK CFI 41cd1 .cfa: $rsp 8 +
STACK CFI 41cd8 .cfa: $rbp 16 +
STACK CFI INIT 41f00 7 .cfa: $rsp 8 + .ra: .cfa -8 + ^
STACK CFI INIT 41f10 c1 .cfa: $rsp 8 + .ra: .cfa -8 + ^
STACK CFI 41f11 $rbp: .cfa -16 + ^ .cfa: $rsp 16 +
STACK CFI 41f14 .cfa: $rbp 16 +
STACK CFI 41f1d $r12: .cfa -32 + ^ $r13: .cfa -24 + ^ $rbx: .cfa -40 + ^
STACK CFI 41f4d .cfa: $rsp 8 +
STACK CFI 41f50 .cfa: $rbp 16 +
STACK CFI 41fb9 .cfa: $rsp 8 +
STACK CFI 41fc0 .cfa: $rbp 16 +
STACK CFI 41fd0 .cfa: $rsp 8 +
STACK CFI INIT 41fe0 238 .cfa: $rsp 8 + .ra: .cfa -8 + ^
STACK CFI 41fe1 $rbp: .cfa -16 + ^ .cfa: $rsp 16 +
STACK CFI 41fe4 .cfa: $rbp 16 +
STACK CFI 41ff4 $r12: .cfa -48 + ^ $r13: .cfa -40 + ^ $r14: .cfa -32 + ^ $r15: .cfa -24 + ^ $rbx: .cfa -56 + ^
STACK CFI 4211a .cfa: $rsp 8 +
STACK CFI 42120 .cfa: $rbp 16 +
STACK CFI INIT 42220 292 .cfa: $rsp 8 + .ra: .cfa -8 + ^
STACK CFI 42221 $rbp: .cfa -16 + ^ .cfa: $rsp 16 +
STACK CFI 42224 .cfa: $rbp 16 +
STACK CFI 42228 $r14: .cfa -32 + ^ $r15: .cfa -24 + ^
STACK CFI 42237 $r12: .cfa -48 + ^ $r13: .cfa -40 + ^ $rbx: .cfa -56 + ^
STACK CFI 42380 .cfa: $rsp 8 +
STACK CFI 42388 .cfa: $rbp 16 +
STACK CFI INIT 424c0 ff .cfa: $rsp 8 + .ra: .cfa -8 + ^
STACK CFI 424c1 $rbp: .cfa -16 + ^ .cfa: $rsp 16 +
STACK CFI 424c4 .cfa: $rbp 16 +
STACK CFI 424cd $r12: .cfa -32 + ^ $r13: .cfa -24 + ^ $rbx: .cfa -40 + ^
STACK CFI 42580 .cfa: $rsp 8 +
STACK CFI 42588 .cfa: $rbp 16 +
STACK CFI 425be .cfa: $rsp 8 +
STACK CFI INIT 425c0 358 .cfa: $rsp 8 + .ra: .cfa -8 + ^
STACK CFI 425c1 $rbp: .cfa -16 + ^ .cfa: $rsp 16 +
STACK CFI 425c4 .cfa: $rbp 16 +
STACK CFI 425cd $r12: .cfa -48 + ^ $r13: .cfa -40 + ^ $r14: .cfa -32 + ^ $r15: .cfa -24 + ^ $rbx: .cfa -56 + ^
STACK CFI 42784 .cfa: $rsp 8 +
STACK CFI 42788 .cfa: $rbp 16 +
STACK CFI INIT 42920 7 .cfa: $rsp 8 + .ra: .cfa -8 + ^
STACK CFI INIT 42930 300 .cfa: $rsp 8 + .ra: .cfa -8 + ^
STACK CFI 42931 $rbp: .cfa -16 + ^ .cfa: $rsp 16 +
STACK CFI 42934 .cfa: $rbp 16 +
STACK CFI 42938 $r14: .cfa -32 + ^ $r15: .cfa -24 + ^
STACK CFI 42947 $r12: .cfa -48 + ^ $r13: .cfa -40 + ^ $rbx: .cfa -56 + ^
STACK CFI 42a38 .cfa: $rsp 8 +
STACK CFI 42a40 .cfa: $rbp 16 +
STACK CFI INIT 42c30 7 .cfa: $rsp 8 + .ra: .cfa -8 + ^
STACK CFI INIT 42c40 6 .cfa: $rsp 8 + .ra: .cfa -8 + ^
STACK CFI INIT 42c50 6 .cfa: $rsp 8 + .ra: .cfa -8 + ^
STACK CFI INIT 42c60 35c .cfa: $rsp 8 + .ra: .cfa -8 + ^
STACK CFI 42c6e $rbp: .cfa -16 + ^ .cfa: $rsp 16 +
STACK CFI 42c76 .cfa: $rbp 16 +
STACK CFI 42ccb .cfa: $rsp 8 +
STACK CFI 42cd0 $rbp: $rbp
STACK CFI 42cd8 $rbp: .cfa -16 + ^ .cfa: $rbp 16 +
STACK CFI 42d27 .cfa: $rsp 8 +
STACK CFI 42d30 .cfa: $rbp 16 +
STACK CFI 42d38 .cfa: $rsp 8 +
STACK CFI 42d40 .cfa: $rbp 16 +
STACK CFI 42d5c .cfa: $rsp 8 +
STACK CFI 42d60 .cfa: $rbp 16 +
STACK CFI 42d68 .cfa: $rsp 8 +
STACK CFI 42d70 .cfa: $rbp 16 +
STACK CFI 42d78 .cfa: $rsp 8 +
STACK CFI 42d80 .cfa: $rbp 16 +
STACK CFI 42d9c .cfa: $rsp 8 +
STACK CFI 42da0 .cfa: $rbp 16 +
STACK CFI 42dbc .cfa: $rsp 8 +
STACK CFI 42dc0 .cfa: $rbp 16 +
STACK CFI 42ddc .cfa: $rsp 8 +
STACK CFI 42de0 .cfa: $rbp 16 +
STACK CFI 42de8 .cfa: $rsp 8 +
STACK CFI 42df0 .cfa: $rbp 16 +
STACK CFI 42e4b .cfa: $rsp 8 +
STACK CFI 42e50 .cfa: $rbp 16 +
STACK CFI 42e58 .cfa: $rsp 8 +
STACK CFI 42e60 .cfa: $rbp 16 +
STACK CFI 42e68 .cfa: $rsp 8 +
STACK CFI 42e70 .cfa: $rbp 16 +
STACK CFI 42e90 .cfa: $rsp 8 +
STACK CFI 42e98 .cfa: $rbp 16 +
STACK CFI 42ec9 .cfa: $rsp 8 +
STACK CFI 42ed0 .cfa: $rbp 16 +
STACK CFI 42ef0 .cfa: $rsp 8 +
STACK CFI 42ef1 .cfa: $rbp 16 +
STACK CFI 42ef9 .cfa: $rsp 8 +
STACK CFI 42efa .cfa: $rbp 16 +
STACK CFI 42f02 .cfa: $rsp 8 +
STACK CFI 42f03 .cfa: $rbp 16 +
STACK CFI 42f0b .cfa: $rsp 8 +
STACK CFI 42f0c .cfa: $rbp 16 +
STACK CFI 42f14 .cfa: $rsp 8 +
STACK CFI 42f15 .cfa: $rbp 16 +
STACK CFI 42f1d .cfa: $rsp 8 +
STACK CFI 42f1e .cfa: $rbp 16 +
STACK CFI 42f26 .cfa: $rsp 8 +
STACK CFI 42f27 .cfa: $rbp 16 +
STACK CFI 42f39 .cfa: $rsp 8 +
STACK CFI 42f3a .cfa: $rbp 16 +
STACK CFI 42f42 .cfa: $rsp 8 +
STACK CFI 42f43 .cfa: $rbp 16 +
STACK CFI 42f4b .cfa: $rsp 8 +
STACK CFI 42f4c .cfa: $rbp 16 +
STACK CFI 42f67 .cfa: $rsp 8 +
STACK CFI 42f68 .cfa: $rbp 16 +
STACK CFI 42f70 .cfa: $rsp 8 +
STACK CFI 42f71 .cfa: $rbp 16 +
STACK CFI 42f79 .cfa: $rsp 8 +
STACK CFI 42f7a .cfa: $rbp 16 +
STACK CFI 42f82 .cfa: $rsp 8 +
STACK CFI 42f83 .cfa: $rbp 16 +
STACK CFI 42f8b .cfa: $rsp 8 +
STACK CFI 42f8c .cfa: $rbp 16 +
STACK CFI 42fb2 .cfa: $rsp 8 +
STACK CFI 42fb3 .cfa: $rbp 16 +
STACK CFI 42fbb .cfa: $rsp 8 +
STACK CFI INIT 42fc0 222 .cfa: $rsp 8 + .ra: .cfa -8 + ^
STACK CFI 42fc1 $rbp: .cfa -16 + ^ .cfa: $rsp 16 +
STACK CFI 42fc4 .cfa: $rbp 16 +
STACK CFI 42fc6 $r15: .cfa -24 + ^
STACK CFI 42fd7 $r12: .cfa -48 + ^ $r13: .cfa -40 + ^ $r14: .cfa -32 + ^ $rbx: .cfa -56 + ^
STACK CFI 43130 .cfa: $rsp 8 +
STACK CFI 43138 .cfa: $rbp 16 +
STACK CFI INIT 431f0 e4 .cfa: $rsp 8 + .ra: .cfa -8 + ^
STACK CFI 431f1 $rbp: .cfa -16 + ^ .cfa: $rsp 16 +
STACK CFI 431f4 .cfa: $rbp 16 +
STACK CFI 431fb $r12: .cfa -40 + ^ $r13: .cfa -32 + ^ $r14: .cfa -24 + ^ $rbx: .cfa -48 + ^
STACK CFI 432aa .cfa: $rsp 8 +
STACK CFI 432b0 .cfa: $rbp 16 +
STACK CFI 432d3 .cfa: $rsp 8 +
STACK CFI INIT 432e0 1fa .cfa: $rsp 8 + .ra: .cfa -8 + ^
STACK CFI 432e1 $rbp: .cfa -16 + ^ .cfa: $rsp 16 +
STACK CFI 432e4 .cfa: $rbp 16 +
STACK CFI 432f4 $r12: .cfa -48 + ^ $r13: .cfa -40 + ^ $r14: .cfa -32 + ^ $r15: .cfa -24 + ^ $rbx: .cfa -56 + ^
STACK CFI 43481 .cfa: $rsp 8 +
STACK CFI 43488 .cfa: $rbp 16 +
STACK CFI INIT 434e0 2c .cfa: $rsp 8 + .ra: .cfa -8 + ^
STACK CFI INIT 43510 5 .cfa: $rsp 8 + .ra: .cfa -8 + ^
STACK CFI INIT 43520 167 .cfa: $rsp 8 + .ra: .cfa -8 + ^
STACK CFI 43521 $rbp: .cfa -16 + ^ .cfa: $rsp 16 +
STACK CFI 43524 .cfa: $rbp 16 +
STACK CFI 43531 $r12: .cfa -48 + ^ $r13: .cfa -40 + ^ $r14: .cfa -32 + ^ $r15: .cfa -24 + ^ $rbx: .cfa -56 + ^
STACK CFI 43664 .cfa: $rsp 8 +
STACK CFI 43668 .cfa: $rbp 16 +
STACK CFI INIT 43690 226 .cfa: $rsp 8 + .ra: .cfa -8 + ^
STACK CFI 43691 $rbp: .cfa -16 + ^ .cfa: $rsp 16 +
STACK CFI 43694 .cfa: $rbp 16 +
STACK CFI 4369a $r13: .cfa -40 + ^ $r14: .cfa -32 + ^ $r15: .cfa -24 + ^
STACK CFI 436a7 $r12: .cfa -48 + ^ $rbx: .cfa -56 + ^
STACK CFI 436db .cfa: $rsp 8 +
STACK CFI 436dc .cfa: $rbp 16 +
STACK CFI INIT 438c0 2f8 .cfa: $rsp 8 + .ra: .cfa -8 + ^
STACK CFI 438c1 $rbp: .cfa -16 + ^ .cfa: $rsp 16 +
STACK CFI 438c7 .cfa: $rbp 16 +
STACK CFI 438f9 .cfa: $rsp 8 +
STACK CFI 43900 .cfa: $rbp 16 +
STACK CFI 43917 .cfa: $rsp 8 +
STACK CFI 43920 .cfa: $rbp 16 +
STACK CFI 43937 .cfa: $rsp 8 +
STACK CFI 43940 .cfa: $rbp 16 +
STACK CFI 43957 .cfa: $rsp 8 +
STACK CFI 43960 .cfa: $rbp 16 +
STACK CFI 43977 .cfa: $rsp 8 +
STACK CFI 43980 .cfa: $rbp 16 +
STACK CFI 43997 .cfa: $rsp 8 +
STACK CFI 439a0 .cfa: $rbp 16 +
STACK CFI 439b7 .cfa: $rsp 8 +
STACK CFI 439c0 .cfa: $rbp 16 +
STACK CFI 439d7 .cfa: $rsp 8 +
STACK CFI 439e0 .cfa: $rbp 16 +
STACK CFI 439f7 .cfa: $rsp 8 +
STACK CFI 43a00 .cfa: $rbp 16 +
STACK CFI 43a17 .cfa: $rsp 8 +
STACK CFI 43a20 .cfa: $rbp 16 +
STACK CFI 43a37 .cfa: $rsp 8 +
STACK CFI 43a40 .cfa: $rbp 16 +
STACK CFI 43a57 .cfa: $rsp 8 +
STACK CFI 43a60 .cfa: $rbp 16 +
STACK CFI 43a77 .cfa: $rsp 8 +
STACK CFI 43a80 .cfa: $rbp 16 +
STACK CFI 43a97 .cfa: $rsp 8 +
STACK CFI 43aa0 .cfa: $rbp 16 +
STACK CFI 43ab7 .cfa: $rsp 8 +
STACK CFI 43ac0 .cfa: $rbp 16 +
STACK CFI 43ad7 .cfa: $rsp 8 +
STACK CFI 43ae0 .cfa: $rbp 16 +
STACK CFI 43af7 .cfa: $rsp 8 +
STACK CFI 43b00 .cfa: $rbp 16 +
STACK CFI 43b17 .cfa: $rsp 8 +
STACK CFI 43b20 .cfa: $rbp 16 +
STACK CFI 43b37 .cfa: $rsp 8 +
STACK CFI 43b40 .cfa: $rbp 16 +
STACK CFI 43b57 .cfa: $rsp 8 +
STACK CFI 43b60 .cfa: $rbp 16 +
STACK CFI 43b77 .cfa: $rsp 8 +
STACK CFI 43b80 .cfa: $rbp 16 +
STACK CFI 43b97 .cfa: $rsp 8 +
STACK CFI 43ba0 .cfa: $rbp 16 +
STACK CFI 43bb7 .cfa: $rsp 8 +
STACK CFI INIT 43bc0 3dd .cfa: $rsp 8 + .ra: .cfa -8 + ^
STACK CFI 43bc1 $rbp: .cfa -16 + ^ .cfa: $rsp 16 +
STACK CFI 43bc4 .cfa: $rbp 16 +
STACK CFI 43bc6 $r15: .cfa -24 + ^
STACK CFI 43bd7 $r12: .cfa -48 + ^ $r13: .cfa -40 + ^ $r14: .cfa -32 + ^ $rbx: .cfa -56 + ^
STACK CFI 43d2f .cfa: $rsp 8 +
STACK CFI 43d30 .cfa: $rbp 16 +
STACK CFI INIT 43fa0 7 .cfa: $rsp 8 + .ra: .cfa -8 + ^
STACK CFI INIT 43fb0 35f .cfa: $rsp 8 + .ra: .cfa -8 + ^
STACK CFI 43fb1 $rbp: .cfa -16 + ^ .cfa: $rsp 16 +
STACK CFI 43fb4 .cfa: $rbp 16 +
STACK CFI 43fb6 $r15: .cfa -24 + ^
STACK CFI 43fc7 $r12: .cfa -48 + ^ $r13: .cfa -40 + ^ $r14: .cfa -32 + ^ $rbx: .cfa -56 + ^
STACK CFI 440e1 .cfa: $rsp 8 +
STACK CFI 440e8 .cfa: $rbp 16 +
STACK CFI INIT 44310 7 .cfa: $rsp 8 + .ra: .cfa -8 + ^
STACK CFI INIT 44320 174 .cfa: $rsp 8 + .ra: .cfa -8 + ^
STACK CFI 44321 $rbp: .cfa -16 + ^ .cfa: $rsp 16 +
STACK CFI 44324 .cfa: $rbp 16 +
STACK CFI 4432c $r12: .cfa -48 + ^ $r13: .cfa -40 + ^ $r14: .cfa -32 + ^ $r15: .cfa -24 + ^
STACK CFI 44334 $rbx: .cfa -56 + ^
STACK CFI 443f0 .cfa: $rsp 8 +
STACK CFI 443f8 .cfa: $rbp 16 +
STACK CFI 44434 .cfa: $rsp 8 +
STACK CFI 44438 .cfa: $rbp 16 +
STACK CFI INIT 444a0 10e .cfa: $rsp 8 + .ra: .cfa -8 + ^
STACK CFI 444a1 $rbp: .cfa -16 + ^ .cfa: $rsp 16 +
STACK CFI 444a4 .cfa: $rbp 16 +
STACK CFI 444ab $r12: .cfa -40 + ^ $r13: .cfa -32 + ^ $r14: .cfa -24 + ^ $rbx: .cfa -48 + ^
STACK CFI 44575 .cfa: $rsp 8 +
STACK CFI 44580 .cfa: $rbp 16 +
STACK CFI 4458e .cfa: $rsp 8 +
STACK CFI 44590 .cfa: $rbp 16 +
STACK CFI 445a9 .cfa: $rsp 8 +
STACK CFI INIT 445b0 2ae .cfa: $rsp 8 + .ra: .cfa -8 + ^
STACK CFI 445b1 $rbp: .cfa -16 + ^ .cfa: $rsp 16 +
STACK CFI 445b4 .cfa: $rbp 16 +
STACK CFI 445b6 $r15: .cfa -24 + ^
STACK CFI 445bd $r13: .cfa -40 + ^ $r14: .cfa -32 + ^
STACK CFI 445ca $r12: .cfa -48 + ^ $rbx: .cfa -56 + ^
STACK CFI 4466b .cfa: $rsp 8 +
STACK CFI 44670 .cfa: $rbp 16 +
STACK CFI INIT 44860 2ad .cfa: $rsp 8 + .ra: .cfa -8 + ^
STACK CFI 44861 $rbp: .cfa -16 + ^ .cfa: $rsp 16 +
STACK CFI 44864 .cfa: $rbp 16 +
STACK CFI 44874 $r12: .cfa -48 + ^ $r13: .cfa -40 + ^ $r14: .cfa -32 + ^ $r15: .cfa -24 + ^ $rbx: .cfa -56 + ^
STACK CFI 449c4 .cfa: $rsp 8 +
STACK CFI 449c8 .cfa: $rbp 16 +
STACK CFI INIT 44b10 85 .cfa: $rsp 8 + .ra: .cfa -8 + ^
STACK CFI 44b11 $rbp: .cfa -16 + ^ .cfa: $rsp 16 +
STACK CFI 44b14 .cfa: $rbp 16 +
STACK CFI 44b1b $r12: .cfa -40 + ^ $r13: .cfa -32 + ^ $r14: .cfa -24 + ^ $rbx: .cfa -48 + ^
STACK CFI 44b4f .cfa: $rsp 8 +
STACK CFI 44b58 .cfa: $rbp 16 +
STACK CFI 44b6d .cfa: $rsp 8 +
STACK CFI 44b70 .cfa: $rbp 16 +
STACK CFI 44b90 .cfa: $rsp 8 +
STACK CFI INIT 44ba0 d0 .cfa: $rsp 8 + .ra: .cfa -8 + ^
STACK CFI 44ba1 $rbp: .cfa -16 + ^ .cfa: $rsp 16 +
STACK CFI 44ba4 .cfa: $rbp 16 +
STACK CFI 44ba6 $r13: .cfa -24 + ^
STACK CFI 44bab $r12: .cfa -32 + ^
STACK CFI 44bb3 $rbx: .cfa -40 + ^
STACK CFI 44c15 .cfa: $rsp 8 +
STACK CFI 44c20 .cfa: $rbp 16 +
STACK CFI 44c6f .cfa: $rsp 8 +
STACK CFI INIT 44c70 1229 .cfa: $rsp 8 + .ra: .cfa -8 + ^
STACK CFI 44c71 $rbp: .cfa -16 + ^ .cfa: $rsp 16 +
STACK CFI 44c77 .cfa: $rbp 16 +
STACK CFI 44c79 $r15: .cfa -24 + ^
STACK CFI 44c81 $r14: .cfa -32 + ^
STACK CFI 44c89 $r12: .cfa -48 + ^ $r13: .cfa -40 + ^ $rbx: .cfa -56 + ^
STACK CFI 44dcd .cfa: $rsp 8 +
STACK CFI 44dce .cfa: $rbp 16 +
STACK CFI INIT 45ea0 fdd .cfa: $rsp 8 + .ra: .cfa -8 + ^
STACK CFI 45ea1 $rbp: .cfa -16 + ^ .cfa: $rsp 16 +
STACK CFI 45ea4 .cfa: $rbp 16 +
STACK CFI 45ea6 $r15: .cfa -24 + ^
STACK CFI 45eae $r14: .cfa -32 + ^
STACK CFI 45eb3 $r13: .cfa -40 + ^
STACK CFI 45ebc $r12: .cfa -48 + ^ $rbx: .cfa -56 + ^
STACK CFI 461b5 .cfa: $rsp 8 +
STACK CFI 461c0 .cfa: $rbp 16 +
STACK CFI INIT 46e80 10 .cfa: $rsp 8 + .ra: .cfa -8 + ^
STACK CFI INIT 46e90 13 .cfa: $rsp 8 + .ra: .cfa -8 + ^
STACK CFI INIT 46eb0 13 .cfa: $rsp 8 + .ra: .cfa -8 + ^
STACK CFI INIT 46ed0 97d .cfa: $rsp 8 + .ra: .cfa -8 + ^
STACK CFI 46ed1 $rbp: .cfa -16 + ^ .cfa: $rsp 16 +
STACK CFI 46ed4 .cfa: $rbp 16 +
STACK CFI 46ed6 $r15: .cfa -24 + ^
STACK CFI 46edb $r14: .cfa -32 + ^
STACK CFI 46ee0 $r13: .cfa -40 + ^
STACK CFI 46ee9 $r12: .cfa -48 + ^ $rbx: .cfa -56 + ^
STACK CFI 47141 .cfa: $rsp 8 +
STACK CFI 47148 .cfa: $rbp 16 +
STACK CFI INIT 47850 10 .cfa: $rsp 8 + .ra: .cfa -8 + ^
STACK CFI INIT 47860 13 .cfa: $rsp 8 + .ra: .cfa -8 + ^
STACK CFI INIT 47880 96d .cfa: $rsp 8 + .ra: .cfa -8 + ^
STACK CFI 47881 $rbp: .cfa -16 + ^ .cfa: $rsp 16 +
STACK CFI 47887 .cfa: $rbp 16 +
STACK CFI 47889 $r15: .cfa -24 + ^
STACK CFI 4788e $r14: .cfa -32 + ^
STACK CFI 47896 $r12: .cfa -48 + ^ $r13: .cfa -40 + ^ $rbx: .cfa -56 + ^
STACK CFI 47ae1 .cfa: $rsp 8 +
STACK CFI 47ae8 .cfa: $rbp 16 +
STACK CFI INIT 481f0 96d .cfa: $rsp 8 + .ra: .cfa -8 + ^
STACK CFI 481f1 $rbp: .cfa -16 + ^ .cfa: $rsp 16 +
STACK CFI 481f7 .cfa: $rbp 16 +
STACK CFI 481f9 $r15: .cfa -24 + ^
STACK CFI 481fe $r14: .cfa -32 + ^
STACK CFI 48206 $r12: .cfa -48 + ^ $r13: .cfa -40 + ^ $rbx: .cfa -56 + ^
STACK CFI 48451 .cfa: $rsp 8 +
STACK CFI 48458 .cfa: $rbp 16 +
STACK CFI INIT 48b60 5bb .cfa: $rsp 8 + .ra: .cfa -8 + ^
STACK CFI 48b61 $rbp: .cfa -16 + ^ .cfa: $rsp 16 +
STACK CFI 48b67 .cfa: $rbp 16 +
STACK CFI 48b6b $r14: .cfa -32 + ^ $r15: .cfa -24 + ^
STACK CFI 48b70 $r13: .cfa -40 + ^
STACK CFI 48b76 $r12: .cfa -48 + ^ $rbx: .cfa -56 + ^
STACK CFI 48c6e .cfa: $rsp 8 +
STACK CFI 48c70 .cfa: $rbp 16 +
STACK CFI INIT 49120 6be .cfa: $rsp 8 + .ra: .cfa -8 + ^
STACK CFI 49121 $rbp: .cfa -16 + ^ .cfa: $rsp 16 +
STACK CFI 49127 .cfa: $rbp 16 +
STACK CFI 49129 $r15: .cfa -24 + ^
STACK CFI 49130 $r13: .cfa -40 + ^ $r14: .cfa -32 + ^
STACK CFI 49136 $r12: .cfa -48 + ^ $rbx: .cfa -56 + ^
STACK CFI 4923f .cfa: $rsp 8 +
STACK CFI 49240 .cfa: $rbp 16 +
STACK CFI INIT 497e0 722 .cfa: $rsp 8 + .ra: .cfa -8 + ^
STACK CFI 497e1 $rbp: .cfa -16 + ^ .cfa: $rsp 16 +
STACK CFI 497e4 .cfa: $rbp 16 +
STACK CFI 497e6 $r15: .cfa -24 + ^
STACK CFI 497eb $r14: .cfa -32 + ^
STACK CFI 497f0 $r13: .cfa -40 + ^
STACK CFI 497f9 $r12: .cfa -48 + ^ $rbx: .cfa -56 + ^
STACK CFI 4991c .cfa: $rsp 8 +
STACK CFI 49920 .cfa: $rbp 16 +
STACK CFI INIT 49f10 722 .cfa: $rsp 8 + .ra: .cfa -8 + ^
STACK CFI 49f11 $rbp: .cfa -16 + ^ .cfa: $rsp 16 +
STACK CFI 49f14 .cfa: $rbp 16 +
STACK CFI 49f16 $r15: .cfa -24 + ^
STACK CFI 49f1b $r14: .cfa -32 + ^
STACK CFI 49f20 $r13: .cfa -40 + ^
STACK CFI 49f29 $r12: .cfa -48 + ^ $rbx: .cfa -56 + ^
STACK CFI 4a04c .cfa: $rsp 8 +
STACK CFI 4a050 .cfa: $rbp 16 +
STACK CFI INIT 4a640 69f .cfa: $rsp 8 + .ra: .cfa -8 + ^
STACK CFI 4a641 $rbp: .cfa -16 + ^ .cfa: $rsp 16 +
STACK CFI 4a644 .cfa: $rbp 16 +
STACK CFI 4a646 $r15: .cfa -24 + ^
STACK CFI 4a64b $r14: .cfa -32 + ^
STACK CFI 4a650 $r13: .cfa -40 + ^
STACK CFI 4a659 $r12: .cfa -48 + ^ $rbx: .cfa -56 + ^
STACK CFI 4a767 .cfa: $rsp 8 +
STACK CFI 4a770 .cfa: $rbp 16 +
STACK CFI INIT 4ace0 69f .cfa: $rsp 8 + .ra: .cfa -8 + ^
STACK CFI 4ace1 $rbp: .cfa -16 + ^ .cfa: $rsp 16 +
STACK CFI 4ace4 .cfa: $rbp 16 +
STACK CFI 4ace6 $r15: .cfa -24 + ^
STACK CFI 4aceb $r14: .cfa -32 + ^
STACK CFI 4acf0 $r13: .cfa -40 + ^
STACK CFI 4acf9 $r12: .cfa -48 + ^ $rbx: .cfa -56 + ^
STACK CFI 4ae07 .cfa: $rsp 8 +
STACK CFI 4ae10 .cfa: $rbp 16 +
STACK CFI INIT 4b380 69f .cfa: $rsp 8 + .ra: .cfa -8 + ^
STACK CFI 4b381 $rbp: .cfa -16 + ^ .cfa: $rsp 16 +
STACK CFI 4b384 .cfa: $rbp 16 +
STACK CFI 4b386 $r15: .cfa -24 + ^
STACK CFI 4b38b $r14: .cfa -32 + ^
STACK CFI 4b390 $r13: .cfa -40 + ^
STACK CFI 4b399 $r12: .cfa -48 + ^ $rbx: .cfa -56 + ^
STACK CFI 4b4a7 .cfa: $rsp 8 +
STACK CFI 4b4b0 .cfa: $rbp 16 +
STACK CFI INIT 4ba20 69f .cfa: $rsp 8 + .ra: .cfa -8 + ^
STACK CFI 4ba21 $rbp: .cfa -16 + ^ .cfa: $rsp 16 +
STACK CFI 4ba24 .cfa: $rbp 16 +
STACK CFI 4ba26 $r15: .cfa -24 + ^
STACK CFI 4ba2b $r14: .cfa -32 + ^
STACK CFI 4ba30 $r13: .cfa -40 + ^
STACK CFI 4ba39 $r12: .cfa -48 + ^ $rbx: .cfa -56 + ^
STACK CFI 4bb47 .cfa: $rsp 8 +
STACK CFI 4bb50 .cfa: $rbp 16 +
STACK CFI INIT 4c0c0 543 .cfa: $rsp 8 + .ra: .cfa -8 + ^
STACK CFI 4c0c1 $rbp: .cfa -16 + ^ .cfa: $rsp 16 +
STACK CFI 4c0c7 .cfa: $rbp 16 +
STACK CFI 4c0cb $r14: .cfa -32 + ^ $r15: .cfa -24 + ^
STACK CFI 4c0d3 $r12: .cfa -48 + ^ $r13: .cfa -40 + ^ $rbx: .cfa -56 + ^
STACK CFI 4c1da .cfa: $rsp 8 +
STACK CFI 4c1e0 .cfa: $rbp 16 +
STACK CFI INIT 4c610 3c3 .cfa: $rsp 8 + .ra: .cfa -8 + ^
STACK CFI 4c611 $rbp: .cfa -16 + ^ .cfa: $rsp 16 +
STACK CFI 4c614 .cfa: $rbp 16 +
STACK CFI 4c617 $r12: .cfa -24 + ^ $rbx: .cfa -32 + ^
STACK CFI 4c718 .cfa: $rsp 8 +
STACK CFI 4c720 .cfa: $rbp 16 +
STACK CFI 4c7c1 .cfa: $rsp 8 +
STACK CFI 4c7c8 .cfa: $rbp 16 +
STACK CFI INIT 4c9e0 45e .cfa: $rsp 8 + .ra: .cfa -8 + ^
STACK CFI 4c9e1 $rbp: .cfa -16 + ^ .cfa: $rsp 16 +
STACK CFI 4c9e4 .cfa: $rbp 16 +
STACK CFI 4c9ea $r13: .cfa -40 + ^ $r14: .cfa -32 + ^ $r15: .cfa -24 + ^
STACK CFI 4c9f4 $r12: .cfa -48 + ^ $rbx: .cfa -56 + ^
STACK CFI 4cc76 .cfa: $rsp 8 +
STACK CFI 4cc80 .cfa: $rbp 16 +
STACK CFI INIT 4ce40 2c1 .cfa: $rsp 8 + .ra: .cfa -8 + ^
STACK CFI 4ce41 $rbp: .cfa -16 + ^ .cfa: $rsp 16 +
STACK CFI 4ce44 .cfa: $rbp 16 +
STACK CFI 4ce4a $r13: .cfa -40 + ^ $r14: .cfa -32 + ^ $r15: .cfa -24 + ^
STACK CFI 4ce4f $r12: .cfa -48 + ^
STACK CFI 4ce53 $rbx: .cfa -56 + ^
STACK CFI 4d093 .cfa: $rsp 8 +
STACK CFI 4d098 .cfa: $rbp 16 +
STACK CFI INIT 4d110 215 .cfa: $rsp 8 + .ra: .cfa -8 + ^
STACK CFI 4d111 $rbp: .cfa -16 + ^ .cfa: $rsp 16 +
STACK CFI 4d114 .cfa: $rbp 16 +
STACK CFI 4d118 $r14: .cfa -32 + ^ $r15: .cfa -24 + ^
STACK CFI 4d120 $r12: .cfa -48 + ^ $r13: .cfa -40 + ^ $rbx: .cfa -56 + ^
STACK CFI 4d286 .cfa: $rsp 8 +
STACK CFI 4d290 .cfa: $rbp 16 +
STACK CFI INIT 4d330 3ff .cfa: $rsp 8 + .ra: .cfa -8 + ^
STACK CFI 4d331 $rbp: .cfa -16 + ^ .cfa: $rsp 16 +
STACK CFI 4d334 .cfa: $rbp 16 +
STACK CFI 4d336 $r15: .cfa -24 + ^
STACK CFI 4d33d $r13: .cfa -40 + ^ $r14: .cfa -32 + ^
STACK CFI 4d347 $r12: .cfa -48 + ^ $rbx: .cfa -56 + ^
STACK CFI 4d68d .cfa: $rsp 8 +
STACK CFI 4d690 .cfa: $rbp 16 +
STACK CFI INIT 4d730 4dc .cfa: $rsp 8 + .ra: .cfa -8 + ^
STACK CFI 4d731 $rbp: .cfa -16 + ^ .cfa: $rsp 16 +
STACK CFI 4d734 .cfa: $rbp 16 +
STACK CFI 4d741 $r12: .cfa -48 + ^ $r13: .cfa -40 + ^ $r14: .cfa -32 + ^ $r15: .cfa -24 + ^ $rbx: .cfa -56 + ^
STACK CFI 4d859 .cfa: $rsp 8 +
STACK CFI 4d860 .cfa: $rbp 16 +
STACK CFI INIT 4dc10 771 .cfa: $rsp 8 + .ra: .cfa -8 + ^
STACK CFI 4dc11 $rbp: .cfa -16 + ^ .cfa: $rsp 16 +
STACK CFI 4dc14 .cfa: $rbp 16 +
STACK CFI 4dc1a $r13: .cfa -40 + ^ $r14: .cfa -32 + ^ $r15: .cfa -24 + ^
STACK CFI 4dc20 $r12: .cfa -48 + ^ $rbx: .cfa -56 + ^
STACK CFI 4de17 .cfa: $rsp 8 +
STACK CFI 4de20 .cfa: $rbp 16 +
STACK CFI INIT 4e390 62f .cfa: $rsp 8 + .ra: .cfa -8 + ^
STACK CFI 4e391 $rbp: .cfa -16 + ^ .cfa: $rsp 16 +
STACK CFI 4e394 .cfa: $rbp 16 +
STACK CFI 4e397 $r12: .cfa -24 + ^ $rbx: .cfa -32 + ^
STACK CFI 4e3ee .cfa: $rsp 8 +
STACK CFI 4e3f0 .cfa: $rbp 16 +
STACK CFI 4e417 .cfa: $rsp 8 +
STACK CFI 4e420 .cfa: $rbp 16 +
STACK CFI 4e45e .cfa: $rsp 8 +
STACK CFI 4e460 .cfa: $rbp 16 +
STACK CFI 4e493 .cfa: $rsp 8 +
STACK CFI 4e498 .cfa: $rbp 16 +
STACK CFI INIT 4e9c0 414 .cfa: $rsp 8 + .ra: .cfa -8 + ^
STACK CFI 4e9c1 $rbp: .cfa -16 + ^ .cfa: $rsp 16 +
STACK CFI 4e9c4 .cfa: $rbp 16 +
STACK CFI 4e9c6 $r15: .cfa -24 + ^
STACK CFI 4e9d0 $r13: .cfa -40 + ^ $r14: .cfa -32 + ^
STACK CFI 4e9d5 $r12: .cfa -48 + ^
STACK CFI 4e9d9 $rbx: .cfa -56 + ^
STACK CFI 4ea7c .cfa: $rsp 8 +
STACK CFI 4ea80 .cfa: $rbp 16 +
STACK CFI INIT 4ede0 3d4 .cfa: $rsp 8 + .ra: .cfa -8 + ^
STACK CFI 4ede1 $rbp: .cfa -16 + ^ .cfa: $rsp 16 +
STACK CFI 4ede4 .cfa: $rbp 16 +
STACK CFI 4ede9 $r12: .cfa -32 + ^ $r13: .cfa -24 + ^ $rbx: .cfa -40 + ^
STACK CFI 4ee40 .cfa: $rsp 8 +
STACK CFI 4ee48 .cfa: $rbp 16 +
STACK CFI 4ee5c .cfa: $rsp 8 +
STACK CFI 4ee60 .cfa: $rbp 16 +
STACK CFI 4ee78 .cfa: $rsp 8 +
STACK CFI 4ee80 .cfa: $rbp 16 +
STACK CFI INIT 4f1c0 3d4 .cfa: $rsp 8 + .ra: .cfa -8 + ^
STACK CFI 4f1c1 $rbp: .cfa -16 + ^ .cfa: $rsp 16 +
STACK CFI 4f1c4 .cfa: $rbp 16 +
STACK CFI 4f1c9 $r12: .cfa -32 + ^ $r13: .cfa -24 + ^ $rbx: .cfa -40 + ^
STACK CFI 4f220 .cfa: $rsp 8 +
STACK CFI 4f228 .cfa: $rbp 16 +
STACK CFI 4f23c .cfa: $rsp 8 +
STACK CFI 4f240 .cfa: $rbp 16 +
STACK CFI 4f258 .cfa: $rsp 8 +
STACK CFI 4f260 .cfa: $rbp 16 +
STACK CFI INIT 4f5a0 404 .cfa: $rsp 8 + .ra: .cfa -8 + ^
STACK CFI 4f5a1 $rbp: .cfa -16 + ^ .cfa: $rsp 16 +
STACK CFI 4f5a4 .cfa: $rbp 16 +
STACK CFI 4f5ab $r12: .cfa -40 + ^ $r13: .cfa -32 + ^ $r14: .cfa -24 + ^ $rbx: .cfa -48 + ^
STACK CFI 4f5fe .cfa: $rsp 8 +
STACK CFI 4f600 .cfa: $rbp 16 +
STACK CFI 4f612 .cfa: $rsp 8 +
STACK CFI 4f618 .cfa: $rbp 16 +
STACK CFI 4f62e .cfa: $rsp 8 +
STACK CFI 4f630 .cfa: $rbp 16 +
STACK CFI INIT 4f9b0 404 .cfa: $rsp 8 + .ra: .cfa -8 + ^
STACK CFI 4f9b1 $rbp: .cfa -16 + ^ .cfa: $rsp 16 +
STACK CFI 4f9b4 .cfa: $rbp 16 +
STACK CFI 4f9bb $r12: .cfa -40 + ^ $r13: .cfa -32 + ^ $r14: .cfa -24 + ^ $rbx: .cfa -48 + ^
STACK CFI 4fa0e .cfa: $rsp 8 +
STACK CFI 4fa10 .cfa: $rbp 16 +
STACK CFI 4fa22 .cfa: $rsp 8 +
STACK CFI 4fa28 .cfa: $rbp 16 +
STACK CFI 4fa3e .cfa: $rsp 8 +
STACK CFI 4fa40 .cfa: $rbp 16 +
STACK CFI INIT 4fdc0 404 .cfa: $rsp 8 + .ra: .cfa -8 + ^
STACK CFI 4fdc1 $rbp: .cfa -16 + ^ .cfa: $rsp 16 +
STACK CFI 4fdc4 .cfa: $rbp 16 +
STACK CFI 4fdcb $r12: .cfa -40 + ^ $r13: .cfa -32 + ^ $r14: .cfa -24 + ^ $rbx: .cfa -48 + ^
STACK CFI 4fe1e .cfa: $rsp 8 +
STACK CFI 4fe20 .cfa: $rbp 16 +
STACK CFI 4fe32 .cfa: $rsp 8 +
STACK CFI 4fe38 .cfa: $rbp 16 +
STACK CFI 4fe4e .cfa: $rsp 8 +
STACK CFI 4fe50 .cfa: $rbp 16 +
STACK CFI INIT 501d0 404 .cfa: $rsp 8 + .ra: .cfa -8 + ^
STACK CFI 501d1 $rbp: .cfa -16 + ^ .cfa: $rsp 16 +
STACK CFI 501d4 .cfa: $rbp 16 +
STACK CFI 501db $r12: .cfa -40 + ^ $r13: .cfa -32 + ^ $r14: .cfa -24 + ^ $rbx: .cfa -48 + ^
STACK CFI 5022e .cfa: $rsp 8 +
STACK CFI 50230 .cfa: $rbp 16 +
STACK CFI 50242 .cfa: $rsp 8 +
STACK CFI 50248 .cfa: $rbp 16 +
STACK CFI 5025e .cfa: $rsp 8 +
STACK CFI 50260 .cfa: $rbp 16 +
STACK CFI INIT 505e0 404 .cfa: $rsp 8 + .ra: .cfa -8 + ^
STACK CFI 505e1 $rbp: .cfa -16 + ^ .cfa: $rsp 16 +
STACK CFI 505e4 .cfa: $rbp 16 +
STACK CFI 505eb $r12: .cfa -40 + ^ $r13: .cfa -32 + ^ $r14: .cfa -24 + ^ $rbx: .cfa -48 + ^
STACK CFI 5063e .cfa: $rsp 8 +
STACK CFI 50640 .cfa: $rbp 16 +
STACK CFI 50652 .cfa: $rsp 8 +
STACK CFI 50658 .cfa: $rbp 16 +
STACK CFI 5066e .cfa: $rsp 8 +
STACK CFI 50670 .cfa: $rbp 16 +
STACK CFI INIT 509f0 404 .cfa: $rsp 8 + .ra: .cfa -8 + ^
STACK CFI 509f1 $rbp: .cfa -16 + ^ .cfa: $rsp 16 +
STACK CFI 509f4 .cfa: $rbp 16 +
STACK CFI 509fb $r12: .cfa -40 + ^ $r13: .cfa -32 + ^ $r14: .cfa -24 + ^ $rbx: .cfa -48 + ^
STACK CFI 50a4e .cfa: $rsp 8 +
STACK CFI 50a50 .cfa: $rbp 16 +
STACK CFI 50a62 .cfa: $rsp 8 +
STACK CFI 50a68 .cfa: $rbp 16 +
STACK CFI 50a7e .cfa: $rsp 8 +
STACK CFI 50a80 .cfa: $rbp 16 +
STACK CFI INIT 50e00 384 .cfa: $rsp 8 + .ra: .cfa -8 + ^
STACK CFI 50e01 $rbp: .cfa -16 + ^ .cfa: $rsp 16 +
STACK CFI 50e04 .cfa: $rbp 16 +
STACK CFI 50e07 $r12: .cfa -24 + ^ $rbx: .cfa -32 + ^
STACK CFI 50e47 .cfa: $rsp 8 +
STACK CFI 50e50 .cfa: $rbp 16 +
STACK CFI 50e7b .cfa: $rsp 8 +
STACK CFI 50e80 .cfa: $rbp 16 +
STACK CFI 50e8f .cfa: $rsp 8 +
STACK CFI 50e90 .cfa: $rbp 16 +
STACK CFI INIT 51190 3f2 .cfa: $rsp 8 + .ra: .cfa -8 + ^
STACK CFI 51191 $rbp: .cfa -16 + ^ .cfa: $rsp 16 +
STACK CFI 51194 .cfa: $rbp 16 +
STACK CFI 51198 $r12: .cfa -32 + ^ $r13: .cfa -24 + ^
STACK CFI 5119c $rbx: .cfa -40 + ^
STACK CFI 511f5 .cfa: $rsp 8 +
STACK CFI 51200 .cfa: $rbp 16 +
STACK CFI 51256 .cfa: $rsp 8 +
STACK CFI 51260 .cfa: $rbp 16 +
STACK CFI 51275 .cfa: $rsp 8 +
STACK CFI 51280 .cfa: $rbp 16 +
STACK CFI 51313 .cfa: $rsp 8 +
STACK CFI 51318 .cfa: $rbp 16 +
STACK CFI INIT 51590 394 .cfa: $rsp 8 + .ra: .cfa -8 + ^
STACK CFI 51591 $rbp: .cfa -16 + ^ .cfa: $rsp 16 +
STACK CFI 51594 .cfa: $rbp 16 +
STACK CFI 51596 $r12: .cfa -24 + ^
STACK CFI 5159a $rbx: .cfa -32 + ^
STACK CFI 515df .cfa: $rsp 8 +
STACK CFI 515e0 .cfa: $rbp 16 +
STACK CFI 51630 .cfa: $rsp 8 +
STACK CFI 51638 .cfa: $rbp 16 +
STACK CFI 51647 .cfa: $rsp 8 +
STACK CFI 51650 .cfa: $rbp 16 +
STACK CFI INIT 51930 394 .cfa: $rsp 8 + .ra: .cfa -8 + ^
STACK CFI 51931 $rbp: .cfa -16 + ^ .cfa: $rsp 16 +
STACK CFI 51934 .cfa: $rbp 16 +
STACK CFI 51936 $r12: .cfa -24 + ^
STACK CFI 5193a $rbx: .cfa -32 + ^
STACK CFI 5197f .cfa: $rsp 8 +
STACK CFI 51980 .cfa: $rbp 16 +
STACK CFI 519d0 .cfa: $rsp 8 +
STACK CFI 519d8 .cfa: $rbp 16 +
STACK CFI 519e7 .cfa: $rsp 8 +
STACK CFI 519f0 .cfa: $rbp 16 +
STACK CFI INIT 51cd0 cc0 .cfa: $rsp 8 + .ra: .cfa -8 + ^
STACK CFI 51cd1 $rbp: .cfa -16 + ^ .cfa: $rsp 16 +
STACK CFI 51cd9 .cfa: $rbp 16 +
STACK CFI 51ce2 $r12: .cfa -48 + ^ $r13: .cfa -40 + ^ $r14: .cfa -32 + ^ $r15: .cfa -24 + ^ $rbx: .cfa -56 + ^
STACK CFI 51ed8 .cfa: $rsp 8 +
STACK CFI 51ee0 .cfa: $rbp 16 +
STACK CFI INIT 52990 a .cfa: $rsp 8 + .ra: .cfa -8 + ^
STACK CFI INIT 529a0 96e .cfa: $rsp 8 + .ra: .cfa -8 + ^
STACK CFI 529a1 $rbp: .cfa -16 + ^ .cfa: $rsp 16 +
STACK CFI 529a4 .cfa: $rbp 16 +
STACK CFI 529a8 $r14: .cfa -32 + ^ $r15: .cfa -24 + ^
STACK CFI 529b7 $r12: .cfa -48 + ^ $r13: .cfa -40 + ^ $rbx: .cfa -56 + ^
STACK CFI 52bb8 .cfa: $rsp 8 +
STACK CFI 52bc0 .cfa: $rbp 16 +
STACK CFI INIT 53310 a .cfa: $rsp 8 + .ra: .cfa -8 + ^
STACK CFI INIT 53320 942 .cfa: $rsp 8 + .ra: .cfa -8 + ^
STACK CFI 53321 $rbp: .cfa -16 + ^ .cfa: $rsp 16 +
STACK CFI 53324 .cfa: $rbp 16 +
STACK CFI 5332d $r12: .cfa -48 + ^ $r13: .cfa -40 + ^ $r14: .cfa -32 + ^ $r15: .cfa -24 + ^ $rbx: .cfa -56 + ^
STACK CFI 53528 .cfa: $rsp 8 +
STACK CFI 53530 .cfa: $rbp 16 +
STACK CFI INIT 53c70 a .cfa: $rsp 8 + .ra: .cfa -8 + ^
STACK CFI INIT 53c80 942 .cfa: $rsp 8 + .ra: .cfa -8 + ^
STACK CFI 53c81 $rbp: .cfa -16 + ^ .cfa: $rsp 16 +
STACK CFI 53c84 .cfa: $rbp 16 +
STACK CFI 53c8d $r12: .cfa -48 + ^ $r13: .cfa -40 + ^ $r14: .cfa -32 + ^ $r15: .cfa -24 + ^ $rbx: .cfa -56 + ^
STACK CFI 53e88 .cfa: $rsp 8 +
STACK CFI 53e90 .cfa: $rbp 16 +
STACK CFI INIT 545d0 a .cfa: $rsp 8 + .ra: .cfa -8 + ^
STACK CFI INIT 545e0 a00 .cfa: $rsp 8 + .ra: .cfa -8 + ^
STACK CFI 545e1 $rbp: .cfa -16 + ^ .cfa: $rsp 16 +
STACK CFI 545e4 .cfa: $rbp 16 +
STACK CFI 545ed $r12: .cfa -48 + ^ $r13: .cfa -40 + ^ $r14: .cfa -32 + ^ $r15: .cfa -24 + ^ $rbx: .cfa -56 + ^
STACK CFI 547f6 .cfa: $rsp 8 +
STACK CFI 54800 .cfa: $rbp 16 +
STACK CFI INIT 54fe0 a .cfa: $rsp 8 + .ra: .cfa -8 + ^
STACK CFI INIT 54ff0 a00 .cfa: $rsp 8 + .ra: .cfa -8 + ^
STACK CFI 54ff1 $rbp: .cfa -16 + ^ .cfa: $rsp 16 +
STACK CFI 54ff4 .cfa: $rbp 16 +
STACK CFI 54ffd $r12: .cfa -48 + ^ $r13: .cfa -40 + ^ $r14: .cfa -32 + ^ $r15: .cfa -24 + ^ $rbx: .cfa -56 + ^
STACK CFI 55206 .cfa: $rsp 8 +
STACK CFI 55210 .cfa: $rbp 16 +
STACK CFI INIT 559f0 a .cfa: $rsp 8 + .ra: .cfa -8 + ^
STACK CFI INIT 55a00 9a8 .cfa: $rsp 8 + .ra: .cfa -8 + ^
STACK CFI 55a01 $rbp: .cfa -16 + ^ .cfa: $rsp 16 +
STACK CFI 55a04 .cfa: $rbp 16 +
STACK CFI 55a08 $r14: .cfa -32 + ^ $r15: .cfa -24 + ^
STACK CFI 55a10 $r12: .cfa -48 + ^ $r13: .cfa -40 + ^ $rbx: .cfa -56 + ^
STACK CFI 55c06 .cfa: $rsp 8 +
STACK CFI 55c10 .cfa: $rbp 16 +
STACK CFI INIT 563b0 a .cfa: $rsp 8 + .ra: .cfa -8 + ^
STACK CFI INIT 563c0 9a8 .cfa: $rsp 8 + .ra: .cfa -8 + ^
STACK CFI 563c1 $rbp: .cfa -16 + ^ .cfa: $rsp 16 +
STACK CFI 563c4 .cfa: $rbp 16 +
STACK CFI 563c8 $r14: .cfa -32 + ^ $r15: .cfa -24 + ^
STACK CFI 563d0 $r12: .cfa -48 + ^ $r13: .cfa -40 + ^ $rbx: .cfa -56 + ^
STACK CFI 565c6 .cfa: $rsp 8 +
STACK CFI 565d0 .cfa: $rbp 16 +
STACK CFI INIT 56d70 a .cfa: $rsp 8 + .ra: .cfa -8 + ^
STACK CFI INIT 56d80 9a8 .cfa: $rsp 8 + .ra: .cfa -8 + ^
STACK CFI 56d81 $rbp: .cfa -16 + ^ .cfa: $rsp 16 +
STACK CFI 56d84 .cfa: $rbp 16 +
STACK CFI 56d88 $r14: .cfa -32 + ^ $r15: .cfa -24 + ^
STACK CFI 56d90 $r12: .cfa -48 + ^ $r13: .cfa -40 + ^ $rbx: .cfa -56 + ^
STACK CFI 56f86 .cfa: $rsp 8 +
STACK CFI 56f90 .cfa: $rbp 16 +
STACK CFI INIT 57730 a .cfa: $rsp 8 + .ra: .cfa -8 + ^
STACK CFI INIT 57740 9a8 .cfa: $rsp 8 + .ra: .cfa -8 + ^
STACK CFI 57741 $rbp: .cfa -16 + ^ .cfa: $rsp 16 +
STACK CFI 57744 .cfa: $rbp 16 +
STACK CFI 57748 $r14: .cfa -32 + ^ $r15: .cfa -24 + ^
STACK CFI 57750 $r12: .cfa -48 + ^ $r13: .cfa -40 + ^ $rbx: .cfa -56 + ^
STACK CFI 57946 .cfa: $rsp 8 +
STACK CFI 57950 .cfa: $rbp 16 +
STACK CFI INIT 580f0 a .cfa: $rsp 8 + .ra: .cfa -8 + ^
STACK CFI INIT 58100 91d .cfa: $rsp 8 + .ra: .cfa -8 + ^
STACK CFI 58101 $rbp: .cfa -16 + ^ .cfa: $rsp 16 +
STACK CFI 58104 .cfa: $rbp 16 +
STACK CFI 5810d $r12: .cfa -48 + ^ $r13: .cfa -40 + ^ $r14: .cfa -32 + ^ $r15: .cfa -24 + ^ $rbx: .cfa -56 + ^
STACK CFI 582f8 .cfa: $rsp 8 +
STACK CFI 58300 .cfa: $rbp 16 +
STACK CFI INIT 58a20 a .cfa: $rsp 8 + .ra: .cfa -8 + ^
STACK CFI INIT 58a30 985 .cfa: $rsp 8 + .ra: .cfa -8 + ^
STACK CFI 58a31 $rbp: .cfa -16 + ^ .cfa: $rsp 16 +
STACK CFI 58a34 .cfa: $rbp 16 +
STACK CFI 58a3c $r12: .cfa -48 + ^ $r13: .cfa -40 + ^ $r14: .cfa -32 + ^ $r15: .cfa -24 + ^
STACK CFI 58a40 $rbx: .cfa -56 + ^
STACK CFI 58c48 .cfa: $rsp 8 +
STACK CFI 58c50 .cfa: $rbp 16 +
STACK CFI INIT 593c0 a .cfa: $rsp 8 + .ra: .cfa -8 + ^
STACK CFI INIT 593d0 92d .cfa: $rsp 8 + .ra: .cfa -8 + ^
STACK CFI 593d1 $rbp: .cfa -16 + ^ .cfa: $rsp 16 +
STACK CFI 593d4 .cfa: $rbp 16 +
STACK CFI 593dd $r12: .cfa -48 + ^ $r13: .cfa -40 + ^ $r14: .cfa -32 + ^ $r15: .cfa -24 + ^ $rbx: .cfa -56 + ^
STACK CFI 595d8 .cfa: $rsp 8 +
STACK CFI 595e0 .cfa: $rbp 16 +
STACK CFI INIT 59d00 a .cfa: $rsp 8 + .ra: .cfa -8 + ^
STACK CFI INIT 59d10 92d .cfa: $rsp 8 + .ra: .cfa -8 + ^
STACK CFI 59d11 $rbp: .cfa -16 + ^ .cfa: $rsp 16 +
STACK CFI 59d14 .cfa: $rbp 16 +
STACK CFI 59d1d $r12: .cfa -48 + ^ $r13: .cfa -40 + ^ $r14: .cfa -32 + ^ $r15: .cfa -24 + ^ $rbx: .cfa -56 + ^
STACK CFI 59f18 .cfa: $rsp 8 +
STACK CFI 59f20 .cfa: $rbp 16 +
STACK CFI INIT 5a640 a .cfa: $rsp 8 + .ra: .cfa -8 + ^
STACK CFI INIT 5a650 1f2 .cfa: $rsp 8 + .ra: .cfa -8 + ^
STACK CFI 5a651 $rbp: .cfa -16 + ^ .cfa: $rsp 16 +
STACK CFI 5a654 .cfa: $rbp 16 +
STACK CFI 5a656 $r15: .cfa -24 + ^
STACK CFI 5a667 $r12: .cfa -48 + ^ $r13: .cfa -40 + ^ $r14: .cfa -32 + ^ $rbx: .cfa -56 + ^
STACK CFI 5a781 .cfa: $rsp 8 +
STACK CFI 5a788 .cfa: $rbp 16 +
STACK CFI INIT 5a850 84 .cfa: $rsp 8 + .ra: .cfa -8 + ^
STACK CFI 5a851 $rbp: .cfa -16 + ^ .cfa: $rsp 16 +
STACK CFI 5a854 .cfa: $rbp 16 +
STACK CFI 5a85d $r12: .cfa -32 + ^ $r13: .cfa -24 + ^ $rbx: .cfa -40 + ^
STACK CFI 5a8b5 .cfa: $rsp 8 +
STACK CFI 5a8c0 .cfa: $rbp 16 +
STACK CFI 5a8d3 .cfa: $rsp 8 +
STACK CFI INIT 5a8e0 1ca .cfa: $rsp 8 + .ra: .cfa -8 + ^
STACK CFI 5a8e1 $rbp: .cfa -16 + ^ .cfa: $rsp 16 +
STACK CFI 5a8e4 .cfa: $rbp 16 +
STACK CFI 5a8f4 $r12: .cfa -48 + ^ $r13: .cfa -40 + ^ $r14: .cfa -32 + ^ $r15: .cfa -24 + ^ $rbx: .cfa -56 + ^
STACK CFI 5a96e .cfa: $rsp 8 +
STACK CFI 5a970 .cfa: $rbp 16 +
STACK CFI INIT 5aab0 1d8 .cfa: $rsp 8 + .ra: .cfa -8 + ^
STACK CFI 5aab1 $rbp: .cfa -16 + ^ .cfa: $rsp 16 +
STACK CFI 5aab4 .cfa: $rbp 16 +
STACK CFI 5aaba $r13: .cfa -40 + ^ $r14: .cfa -32 + ^ $r15: .cfa -24 + ^
STACK CFI 5aabf $r12: .cfa -48 + ^
STACK CFI 5aaca $rbx: .cfa -56 + ^
STACK CFI 5ab8a .cfa: $rsp 8 +
STACK CFI 5ab90 .cfa: $rbp 16 +
STACK CFI INIT 5ac90 8c .cfa: $rsp 8 + .ra: .cfa -8 + ^
STACK CFI 5ac91 $rbp: .cfa -16 + ^ .cfa: $rsp 16 +
STACK CFI 5ac94 .cfa: $rbp 16 +
STACK CFI 5ac9d $r12: .cfa -32 + ^ $r13: .cfa -24 + ^ $rbx: .cfa -40 + ^
STACK CFI 5acca .cfa: $rsp 8 +
STACK CFI 5acd0 .cfa: $rbp 16 +
STACK CFI 5ad01 .cfa: $rsp 8 +
STACK CFI 5ad08 .cfa: $rbp 16 +
STACK CFI 5ad1b .cfa: $rsp 8 +
STACK CFI INIT 5ad20 1dc .cfa: $rsp 8 + .ra: .cfa -8 + ^
STACK CFI 5ad21 $rbp: .cfa -16 + ^ .cfa: $rsp 16 +
STACK CFI 5ad24 .cfa: $rbp 16 +
STACK CFI 5ad34 $r12: .cfa -48 + ^ $r13: .cfa -40 + ^ $r14: .cfa -32 + ^ $r15: .cfa -24 + ^ $rbx: .cfa -56 + ^
STACK CFI 5adbe .cfa: $rsp 8 +
STACK CFI 5adc0 .cfa: $rbp 16 +
STACK CFI INIT 5af00 1e4 .cfa: $rsp 8 + .ra: .cfa -8 + ^
STACK CFI 5af01 $rbp: .cfa -16 + ^ .cfa: $rsp 16 +
STACK CFI 5af04 .cfa: $rbp 16 +
STACK CFI 5af14 $r12: .cfa -48 + ^ $r13: .cfa -40 + ^ $r14: .cfa -32 + ^ $r15: .cfa -24 + ^ $rbx: .cfa -56 + ^
STACK CFI 5b042 .cfa: $rsp 8 +
STACK CFI 5b048 .cfa: $rbp 16 +
STACK CFI INIT 5b0f0 216 .cfa: $rsp 8 + .ra: .cfa -8 + ^
STACK CFI 5b0f1 $rbp: .cfa -16 + ^ .cfa: $rsp 16 +
STACK CFI 5b0f4 .cfa: $rbp 16 +
STACK CFI 5b0fa $r13: .cfa -40 + ^ $r14: .cfa -32 + ^ $r15: .cfa -24 + ^
STACK CFI 5b107 $r12: .cfa -48 + ^ $rbx: .cfa -56 + ^
STACK CFI 5b143 .cfa: $rsp 8 +
STACK CFI 5b144 .cfa: $rbp 16 +
STACK CFI INIT 1cd6a 10 $r12: .cfa -48 + ^ $r13: .cfa -40 + ^ $r14: .cfa -32 + ^ $r15: .cfa -24 + ^ $rbp: .cfa -16 + ^ $rbx: .cfa -56 + ^ .cfa: $rbp 16 + .ra: .cfa -8 + ^
STACK CFI INIT 5b310 265 .cfa: $rsp 8 + .ra: .cfa -8 + ^
STACK CFI 5b311 $rbp: .cfa -16 + ^ .cfa: $rsp 16 +
STACK CFI 5b314 .cfa: $rbp 16 +
STACK CFI 5b316 $r12: .cfa -24 + ^
STACK CFI 5b34e .cfa: $rsp 8 +
STACK CFI 5b34f .cfa: $rbp 16 +
STACK CFI 5b363 .cfa: $rsp 8 +
STACK CFI 5b368 .cfa: $rbp 16 +
STACK CFI 5b37c .cfa: $rsp 8 +
STACK CFI 5b381 .cfa: $rbp 16 +
STACK CFI 5b395 .cfa: $rsp 8 +
STACK CFI 5b39a .cfa: $rbp 16 +
STACK CFI 5b3ae .cfa: $rsp 8 +
STACK CFI 5b3b3 .cfa: $rbp 16 +
STACK CFI 5b3c7 .cfa: $rsp 8 +
STACK CFI 5b3cc .cfa: $rbp 16 +
STACK CFI 5b3e0 .cfa: $rsp 8 +
STACK CFI 5b3e5 .cfa: $rbp 16 +
STACK CFI 5b3f9 .cfa: $rsp 8 +
STACK CFI 5b3fe .cfa: $rbp 16 +
STACK CFI 5b412 .cfa: $rsp 8 +
STACK CFI 5b417 .cfa: $rbp 16 +
STACK CFI 5b42b .cfa: $rsp 8 +
STACK CFI 5b430 .cfa: $rbp 16 +
STACK CFI 5b444 .cfa: $rsp 8 +
STACK CFI 5b449 .cfa: $rbp 16 +
STACK CFI 5b45d .cfa: $rsp 8 +
STACK CFI 5b462 .cfa: $rbp 16 +
STACK CFI 5b476 .cfa: $rsp 8 +
STACK CFI 5b47b .cfa: $rbp 16 +
STACK CFI 5b48f .cfa: $rsp 8 +
STACK CFI 5b494 .cfa: $rbp 16 +
STACK CFI 5b4a8 .cfa: $rsp 8 +
STACK CFI 5b4ad .cfa: $rbp 16 +
STACK CFI 5b4c1 .cfa: $rsp 8 +
STACK CFI 5b4c6 .cfa: $rbp 16 +
STACK CFI 5b4da .cfa: $rsp 8 +
STACK CFI 5b4df .cfa: $rbp 16 +
STACK CFI 5b4f3 .cfa: $rsp 8 +
STACK CFI 5b4f8 .cfa: $rbp 16 +
STACK CFI 5b50c .cfa: $rsp 8 +
STACK CFI 5b511 .cfa: $rbp 16 +
STACK CFI 5b525 .cfa: $rsp 8 +
STACK CFI 5b52a .cfa: $rbp 16 +
STACK CFI 5b53e .cfa: $rsp 8 +
STACK CFI 5b543 .cfa: $rbp 16 +
STACK CFI 5b557 .cfa: $rsp 8 +
STACK CFI 5b55c .cfa: $rbp 16 +
STACK CFI 5b570 .cfa: $rsp 8 +
STACK CFI INIT 5b580 9f .cfa: $rsp 8 + .ra: .cfa -8 + ^
STACK CFI 5b581 $rbp: .cfa -16 + ^ .cfa: $rsp 16 +
STACK CFI 5b584 .cfa: $rbp 16 +
STACK CFI 5b588 $r12: .cfa -32 + ^ $r13: .cfa -24 + ^
STACK CFI 5b590 $rbx: .cfa -40 + ^
STACK CFI 5b5bf .cfa: $rsp 8 +
STACK CFI 5b5c0 .cfa: $rbp 16 +
STACK CFI 5b5f6 .cfa: $rsp 8 +
STACK CFI 5b600 .cfa: $rbp 16 +
STACK CFI INIT 5b620 98 .cfa: $rsp 8 + .ra: .cfa -8 + ^
STACK CFI 5b626 $rbp: .cfa -16 + ^ .cfa: $rsp 16 +
STACK CFI 5b629 .cfa: $rbp 16 +
STACK CFI 5b62b $r12: .cfa -24 + ^
STACK CFI 5b62f $rbx: .cfa -32 + ^
STACK CFI 5b686 .cfa: $rsp 8 +
STACK CFI 5b690 $r12: $r12 $rbp: $rbp $rbx: $rbx
STACK CFI 5b698 $r12: .cfa -24 + ^ $rbp: .cfa -16 + ^ $rbx: .cfa -32 + ^ .cfa: $rbp 16 +
STACK CFI 5b699 $rbx: $rbx
STACK CFI 5b69e $r12: $r12
STACK CFI 5b69f $rbp: $rbp .cfa: $rsp 8 +
STACK CFI 5b6a8 $r12: .cfa -24 + ^ $rbp: .cfa -16 + ^ $rbx: .cfa -32 + ^ .cfa: $rbp 16 +
STACK CFI INIT 5b6c0 93 .cfa: $rsp 8 + .ra: .cfa -8 + ^
STACK CFI 5b6c1 $rbp: .cfa -16 + ^ .cfa: $rsp 16 +
STACK CFI 5b6c4 .cfa: $rbp 16 +
STACK CFI 5b6ce $r12: .cfa -40 + ^ $r13: .cfa -32 + ^ $r14: .cfa -24 + ^
STACK CFI 5b70e .cfa: $rsp 8 +
STACK CFI 5b718 .cfa: $rbp 16 +
STACK CFI 5b730 .cfa: $rsp 8 +
STACK CFI 5b738 .cfa: $rbp 16 +
STACK CFI 5b74e .cfa: $rsp 8 +
STACK CFI INIT 5b760 258 .cfa: $rsp 8 + .ra: .cfa -8 + ^
STACK CFI 5b761 $rbp: .cfa -16 + ^ .cfa: $rsp 16 +
STACK CFI 5b764 .cfa: $rbp 16 +
STACK CFI 5b768 $r14: .cfa -32 + ^ $r15: .cfa -24 + ^
STACK CFI 5b76d $r13: .cfa -40 + ^
STACK CFI 5b77a $r12: .cfa -48 + ^ $rbx: .cfa -56 + ^
STACK CFI 5b8fb .cfa: $rsp 8 +
STACK CFI 5b900 .cfa: $rbp 16 +
STACK CFI INIT 5b9c0 1e4 .cfa: $rsp 8 + .ra: .cfa -8 + ^
STACK CFI 5b9c1 $rbp: .cfa -16 + ^ .cfa: $rsp 16 +
STACK CFI 5b9c4 .cfa: $rbp 16 +
STACK CFI 5b9d4 $r12: .cfa -48 + ^ $r13: .cfa -40 + ^ $r14: .cfa -32 + ^ $r15: .cfa -24 + ^ $rbx: .cfa -56 + ^
STACK CFI 5bb02 .cfa: $rsp 8 +
STACK CFI 5bb08 .cfa: $rbp 16 +
STACK CFI INIT 5bbb0 226 .cfa: $rsp 8 + .ra: .cfa -8 + ^
STACK CFI 5bbb1 $rbp: .cfa -16 + ^ .cfa: $rsp 16 +
STACK CFI 5bbb4 .cfa: $rbp 16 +
STACK CFI 5bbba $r13: .cfa -40 + ^ $r14: .cfa -32 + ^ $r15: .cfa -24 + ^
STACK CFI 5bbc7 $r12: .cfa -48 + ^ $rbx: .cfa -56 + ^
STACK CFI 5bc03 .cfa: $rsp 8 +
STACK CFI 5bc04 .cfa: $rbp 16 +
STACK CFI INIT 1cd7a 10 $r12: .cfa -48 + ^ $r13: .cfa -40 + ^ $r14: .cfa -32 + ^ $r15: .cfa -24 + ^ $rbp: .cfa -16 + ^ $rbx: .cfa -56 + ^ .cfa: $rbp 16 + .ra: .cfa -8 + ^
STACK CFI INIT 5bde0 27e .cfa: $rsp 8 + .ra: .cfa -8 + ^
STACK CFI 5bde1 $rbp: .cfa -16 + ^ .cfa: $rsp 16 +
STACK CFI 5bde4 .cfa: $rbp 16 +
STACK CFI 5bde6 $r12: .cfa -24 + ^
STACK CFI 5be1e .cfa: $rsp 8 +
STACK CFI 5be1f .cfa: $rbp 16 +
STACK CFI 5be33 .cfa: $rsp 8 +
STACK CFI 5be38 .cfa: $rbp 16 +
STACK CFI 5be4c .cfa: $rsp 8 +
STACK CFI 5be51 .cfa: $rbp 16 +
STACK CFI 5be65 .cfa: $rsp 8 +
STACK CFI 5be6a .cfa: $rbp 16 +
STACK CFI 5be7e .cfa: $rsp 8 +
STACK CFI 5be83 .cfa: $rbp 16 +
STACK CFI 5be97 .cfa: $rsp 8 +
STACK CFI 5be9c .cfa: $rbp 16 +
STACK CFI 5beb0 .cfa: $rsp 8 +
STACK CFI 5beb5 .cfa: $rbp 16 +
STACK CFI 5bec9 .cfa: $rsp 8 +
STACK CFI 5bece .cfa: $rbp 16 +
STACK CFI 5bee2 .cfa: $rsp 8 +
STACK CFI 5bee7 .cfa: $rbp 16 +
STACK CFI 5befb .cfa: $rsp 8 +
STACK CFI 5bf00 .cfa: $rbp 16 +
STACK CFI 5bf14 .cfa: $rsp 8 +
STACK CFI 5bf19 .cfa: $rbp 16 +
STACK CFI 5bf2d .cfa: $rsp 8 +
STACK CFI 5bf32 .cfa: $rbp 16 +
STACK CFI 5bf46 .cfa: $rsp 8 +
STACK CFI 5bf4b .cfa: $rbp 16 +
STACK CFI 5bf5f .cfa: $rsp 8 +
STACK CFI 5bf64 .cfa: $rbp 16 +
STACK CFI 5bf78 .cfa: $rsp 8 +
STACK CFI 5bf7d .cfa: $rbp 16 +
STACK CFI 5bf91 .cfa: $rsp 8 +
STACK CFI 5bf96 .cfa: $rbp 16 +
STACK CFI 5bfaa .cfa: $rsp 8 +
STACK CFI 5bfaf .cfa: $rbp 16 +
STACK CFI 5bfc3 .cfa: $rsp 8 +
STACK CFI 5bfc8 .cfa: $rbp 16 +
STACK CFI 5bfdc .cfa: $rsp 8 +
STACK CFI 5bfe1 .cfa: $rbp 16 +
STACK CFI 5bff5 .cfa: $rsp 8 +
STACK CFI 5bffa .cfa: $rbp 16 +
STACK CFI 5c00e .cfa: $rsp 8 +
STACK CFI 5c013 .cfa: $rbp 16 +
STACK CFI 5c027 .cfa: $rsp 8 +
STACK CFI 5c02c .cfa: $rbp 16 +
STACK CFI 5c040 .cfa: $rsp 8 +
STACK CFI 5c045 .cfa: $rbp 16 +
STACK CFI 5c059 .cfa: $rsp 8 +
STACK CFI INIT 5c060 9f .cfa: $rsp 8 + .ra: .cfa -8 + ^
STACK CFI 5c061 $rbp: .cfa -16 + ^ .cfa: $rsp 16 +
STACK CFI 5c064 .cfa: $rbp 16 +
STACK CFI 5c068 $r12: .cfa -32 + ^ $r13: .cfa -24 + ^
STACK CFI 5c070 $rbx: .cfa -40 + ^
STACK CFI 5c09f .cfa: $rsp 8 +
STACK CFI 5c0a0 .cfa: $rbp 16 +
STACK CFI 5c0d6 .cfa: $rsp 8 +
STACK CFI 5c0e0 .cfa: $rbp 16 +
STACK CFI INIT 5c100 98 .cfa: $rsp 8 + .ra: .cfa -8 + ^
STACK CFI 5c106 $rbp: .cfa -16 + ^ .cfa: $rsp 16 +
STACK CFI 5c109 .cfa: $rbp 16 +
STACK CFI 5c10b $r12: .cfa -24 + ^
STACK CFI 5c10f $rbx: .cfa -32 + ^
STACK CFI 5c166 .cfa: $rsp 8 +
STACK CFI 5c170 $r12: $r12 $rbp: $rbp $rbx: $rbx
STACK CFI 5c178 $r12: .cfa -24 + ^ $rbp: .cfa -16 + ^ $rbx: .cfa -32 + ^ .cfa: $rbp 16 +
STACK CFI 5c179 $rbx: $rbx
STACK CFI 5c17e $r12: $r12
STACK CFI 5c17f $rbp: $rbp .cfa: $rsp 8 +
STACK CFI 5c188 $r12: .cfa -24 + ^ $rbp: .cfa -16 + ^ $rbx: .cfa -32 + ^ .cfa: $rbp 16 +
STACK CFI INIT 5c1a0 93 .cfa: $rsp 8 + .ra: .cfa -8 + ^
STACK CFI 5c1a1 $rbp: .cfa -16 + ^ .cfa: $rsp 16 +
STACK CFI 5c1a4 .cfa: $rbp 16 +
STACK CFI 5c1ae $r12: .cfa -40 + ^ $r13: .cfa -32 + ^ $r14: .cfa -24 + ^
STACK CFI 5c1ee .cfa: $rsp 8 +
STACK CFI 5c1f8 .cfa: $rbp 16 +
STACK CFI 5c210 .cfa: $rsp 8 +
STACK CFI 5c218 .cfa: $rbp 16 +
STACK CFI 5c22e .cfa: $rsp 8 +
STACK CFI INIT 5c240 258 .cfa: $rsp 8 + .ra: .cfa -8 + ^
STACK CFI 5c241 $rbp: .cfa -16 + ^ .cfa: $rsp 16 +
STACK CFI 5c244 .cfa: $rbp 16 +
STACK CFI 5c248 $r14: .cfa -32 + ^ $r15: .cfa -24 + ^
STACK CFI 5c24d $r13: .cfa -40 + ^
STACK CFI 5c25a $r12: .cfa -48 + ^ $rbx: .cfa -56 + ^
STACK CFI 5c3db .cfa: $rsp 8 +
STACK CFI 5c3e0 .cfa: $rbp 16 +
STACK CFI INIT 5c4a0 172 .cfa: $rsp 8 + .ra: .cfa -8 + ^
STACK CFI 5c4a1 $rbp: .cfa -16 + ^ .cfa: $rsp 16 +
STACK CFI 5c4a4 .cfa: $rbp 16 +
STACK CFI 5c4a6 $r15: .cfa -24 + ^
STACK CFI 5c4ad $r13: .cfa -40 + ^ $r14: .cfa -32 + ^
STACK CFI 5c4b2 $r12: .cfa -48 + ^
STACK CFI 5c4bd $rbx: .cfa -56 + ^
STACK CFI 5c556 .cfa: $rsp 8 +
STACK CFI 5c560 .cfa: $rbp 16 +
STACK CFI INIT 5c620 7c .cfa: $rsp 8 + .ra: .cfa -8 + ^
STACK CFI 5c621 $rbp: .cfa -16 + ^ .cfa: $rsp 16 +
STACK CFI 5c624 .cfa: $rbp 16 +
STACK CFI 5c62d $r12: .cfa -32 + ^ $r13: .cfa -24 + ^ $rbx: .cfa -40 + ^
STACK CFI 5c65b .cfa: $rsp 8 +
STACK CFI 5c660 .cfa: $rbp 16 +
STACK CFI 5c683 .cfa: $rsp 8 +
STACK CFI 5c688 .cfa: $rbp 16 +
STACK CFI 5c69b .cfa: $rsp 8 +
STACK CFI INIT 5c6a0 192 .cfa: $rsp 8 + .ra: .cfa -8 + ^
STACK CFI 5c6a1 $rbp: .cfa -16 + ^ .cfa: $rsp 16 +
STACK CFI 5c6a4 .cfa: $rbp 16 +
STACK CFI 5c6b4 $r12: .cfa -48 + ^ $r13: .cfa -40 + ^ $r14: .cfa -32 + ^ $r15: .cfa -24 + ^ $rbx: .cfa -56 + ^
STACK CFI 5c71e .cfa: $rsp 8 +
STACK CFI 5c720 .cfa: $rbp 16 +
STACK CFI INIT 5c840 4ec .cfa: $rsp 8 + .ra: .cfa -8 + ^
STACK CFI 5c841 $rbp: .cfa -16 + ^ .cfa: $rsp 16 +
STACK CFI 5c844 .cfa: $rbp 16 +
STACK CFI 5c846 $r15: .cfa -24 + ^
STACK CFI 5c857 $r12: .cfa -48 + ^ $r13: .cfa -40 + ^ $r14: .cfa -32 + ^ $rbx: .cfa -56 + ^
STACK CFI 5c9fa .cfa: $rsp 8 +
STACK CFI 5ca00 .cfa: $rbp 16 +
STACK CFI INIT 5cd30 18d .cfa: $rsp 8 + .ra: .cfa -8 + ^
STACK CFI 5cd31 $rbp: .cfa -16 + ^ .cfa: $rsp 16 +
STACK CFI 5cd34 .cfa: $rbp 16 +
STACK CFI 5cd41 $r12: .cfa -48 + ^ $r13: .cfa -40 + ^ $r14: .cfa -32 + ^ $r15: .cfa -24 + ^ $rbx: .cfa -56 + ^
STACK CFI 5ce06 .cfa: $rsp 8 +
STACK CFI 5ce10 .cfa: $rbp 16 +
STACK CFI INIT 5cec0 44c .cfa: $rsp 8 + .ra: .cfa -8 + ^
STACK CFI 5cec1 $rbp: .cfa -16 + ^ .cfa: $rsp 16 +
STACK CFI 5cec4 .cfa: $rbp 16 +
STACK CFI 5cecd $r12: .cfa -48 + ^ $r13: .cfa -40 + ^ $r14: .cfa -32 + ^ $r15: .cfa -24 + ^ $rbx: .cfa -56 + ^
STACK CFI 5cfd9 .cfa: $rsp 8 +
STACK CFI 5cfe0 .cfa: $rbp 16 +
STACK CFI INIT 5d310 1c5 .cfa: $rsp 8 + .ra: .cfa -8 + ^
STACK CFI 5d311 $rbp: .cfa -16 + ^ .cfa: $rsp 16 +
STACK CFI 5d314 .cfa: $rbp 16 +
STACK CFI 5d31a $r13: .cfa -40 + ^ $r14: .cfa -32 + ^ $r15: .cfa -24 + ^
STACK CFI 5d31f $r12: .cfa -48 + ^
STACK CFI 5d32a $rbx: .cfa -56 + ^
STACK CFI 5d427 .cfa: $rsp 8 +
STACK CFI 5d430 .cfa: $rbp 16 +
STACK CFI INIT 5d4e0 6e .cfa: $rsp 8 + .ra: .cfa -8 + ^
STACK CFI 5d4e1 $rbp: .cfa -16 + ^ .cfa: $rsp 16 +
STACK CFI 5d4e4 .cfa: $rbp 16 +
STACK CFI 5d4ed $r12: .cfa -32 + ^ $r13: .cfa -24 + ^ $rbx: .cfa -40 + ^
STACK CFI 5d533 .cfa: $rsp 8 +
STACK CFI 5d538 .cfa: $rbp 16 +
STACK CFI INIT 5d550 1c6 .cfa: $rsp 8 + .ra: .cfa -8 + ^
STACK CFI 5d551 $rbp: .cfa -16 + ^ .cfa: $rsp 16 +
STACK CFI 5d554 .cfa: $rbp 16 +
STACK CFI 5d564 $r12: .cfa -48 + ^ $r13: .cfa -40 + ^ $r14: .cfa -32 + ^ $r15: .cfa -24 + ^ $rbx: .cfa -56 + ^
STACK CFI 5d5cd .cfa: $rsp 8 +
STACK CFI 5d5d0 .cfa: $rbp 16 +
STACK CFI INIT 5d720 1c5 .cfa: $rsp 8 + .ra: .cfa -8 + ^
STACK CFI 5d721 $rbp: .cfa -16 + ^ .cfa: $rsp 16 +
STACK CFI 5d724 .cfa: $rbp 16 +
STACK CFI 5d72a $r13: .cfa -40 + ^ $r14: .cfa -32 + ^ $r15: .cfa -24 + ^
STACK CFI 5d72f $r12: .cfa -48 + ^
STACK CFI 5d73a $rbx: .cfa -56 + ^
STACK CFI 5d837 .cfa: $rsp 8 +
STACK CFI 5d840 .cfa: $rbp 16 +
STACK CFI INIT 5d8f0 6e .cfa: $rsp 8 + .ra: .cfa -8 + ^
STACK CFI 5d8f1 $rbp: .cfa -16 + ^ .cfa: $rsp 16 +
STACK CFI 5d8f4 .cfa: $rbp 16 +
STACK CFI 5d8fd $r12: .cfa -32 + ^ $r13: .cfa -24 + ^ $rbx: .cfa -40 + ^
STACK CFI 5d943 .cfa: $rsp 8 +
STACK CFI 5d948 .cfa: $rbp 16 +
STACK CFI INIT 5d960 1c6 .cfa: $rsp 8 + .ra: .cfa -8 + ^
STACK CFI 5d961 $rbp: .cfa -16 + ^ .cfa: $rsp 16 +
STACK CFI 5d964 .cfa: $rbp 16 +
STACK CFI 5d974 $r12: .cfa -48 + ^ $r13: .cfa -40 + ^ $r14: .cfa -32 + ^ $r15: .cfa -24 + ^ $rbx: .cfa -56 + ^
STACK CFI 5d9dd .cfa: $rsp 8 +
STACK CFI 5d9e0 .cfa: $rbp 16 +
STACK CFI INIT 5db30 13a .cfa: $rsp 8 + .ra: .cfa -8 + ^
STACK CFI 5db31 $rbp: .cfa -16 + ^ .cfa: $rsp 16 +
STACK CFI 5db34 .cfa: $rbp 16 +
STACK CFI 5db3b $r12: .cfa -24 + ^ $rbx: .cfa -32 + ^
STACK CFI 5dbf3 .cfa: $rsp 8 +
STACK CFI 5dc00 .cfa: $rbp 16 +
STACK CFI 5dc48 .cfa: $rsp 8 +
STACK CFI 5dc50 .cfa: $rbp 16 +
STACK CFI INIT 5dc70 51 .cfa: $rsp 8 + .ra: .cfa -8 + ^
STACK CFI 5dc76 $rbp: .cfa -16 + ^ .cfa: $rsp 16 +
STACK CFI 5dc79 .cfa: $rbp 16 +
STACK CFI 5dc7a $rbx: .cfa -24 + ^
STACK CFI 5dcb7 .cfa: $rsp 8 +
STACK CFI 5dcc0 $rbp: $rbp $rbx: $rbx
STACK CFI INIT 5dcd0 1f .cfa: $rsp 8 + .ra: .cfa -8 + ^
STACK CFI INIT 5dcf0 eb .cfa: $rsp 8 + .ra: .cfa -8 + ^
STACK CFI 5dcfa $rbp: .cfa -16 + ^ .cfa: $rsp 16 +
STACK CFI 5dcfd .cfa: $rbp 16 +
STACK CFI 5dd06 $r12: .cfa -48 + ^ $r13: .cfa -40 + ^ $r14: .cfa -32 + ^ $r15: .cfa -24 + ^ $rbx: .cfa -56 + ^
STACK CFI 5ddb9 .cfa: $rsp 8 +
STACK CFI 5ddc0 .cfa: $rbp 16 +
STACK CFI 5ddd0 .cfa: $rsp 8 +
STACK CFI 5ddd8 $r12: $r12 $r13: $r13 $r14: $r14 $r15: $r15 $rbp: $rbp $rbx: $rbx
STACK CFI INIT 5dde0 95 .cfa: $rsp 8 + .ra: .cfa -8 + ^
STACK CFI 5dde1 $rbp: .cfa -16 + ^ .cfa: $rsp 16 +
STACK CFI 5dde4 .cfa: $rbp 16 +
STACK CFI 5ddf1 $r12: .cfa -48 + ^ $r13: .cfa -40 + ^ $r14: .cfa -32 + ^ $r15: .cfa -24 + ^ $rbx: .cfa -56 + ^
STACK CFI 5de74 .cfa: $rsp 8 +
STACK CFI INIT 5de80 14f .cfa: $rsp 8 + .ra: .cfa -8 + ^
STACK CFI 5de81 $rbp: .cfa -16 + ^ .cfa: $rsp 16 +
STACK CFI 5de84 .cfa: $rbp 16 +
STACK CFI 5de91 $r12: .cfa -48 + ^ $r13: .cfa -40 + ^ $r14: .cfa -32 + ^ $r15: .cfa -24 + ^ $rbx: .cfa -56 + ^
STACK CFI 5dfaf .cfa: $rsp 8 +
STACK CFI 5dfb4 .cfa: $rbp 16 +
STACK CFI 5dfce .cfa: $rsp 8 +
STACK CFI INIT 5dfd0 eb .cfa: $rsp 8 + .ra: .cfa -8 + ^
STACK CFI 5dfda $rbp: .cfa -16 + ^ .cfa: $rsp 16 +
STACK CFI 5dfdd .cfa: $rbp 16 +
STACK CFI 5dfe5 $r12: .cfa -48 + ^ $r13: .cfa -40 + ^ $r14: .cfa -32 + ^ $r15: .cfa -24 + ^
STACK CFI 5dfed $rbx: .cfa -56 + ^
STACK CFI 5e062 .cfa: $rsp 8 +
STACK CFI 5e068 .cfa: $rbp 16 +
STACK CFI 5e0ac .cfa: $rsp 8 +
STACK CFI 5e0ad .cfa: $rbp 16 +
STACK CFI 5e0b8 $r12: $r12 $r13: $r13 $r14: $r14 $r15: $r15 $rbp: $rbp $rbx: $rbx .cfa: $rsp 8 +
STACK CFI INIT 5e0c0 143 .cfa: $rsp 8 + .ra: .cfa -8 + ^
STACK CFI 5e0ca $rbp: .cfa -16 + ^ .cfa: $rsp 16 +
STACK CFI 5e0cd .cfa: $rbp 16 +
STACK CFI 5e0d5 $r12: .cfa -48 + ^ $r13: .cfa -40 + ^ $r14: .cfa -32 + ^ $r15: .cfa -24 + ^
STACK CFI 5e0dd $rbx: .cfa -56 + ^
STACK CFI 5e1a3 .cfa: $rsp 8 +
STACK CFI 5e1a8 .cfa: $rbp 16 +
STACK CFI 5e1ec .cfa: $rsp 8 +
STACK CFI 5e1ed .cfa: $rbp 16 +
STACK CFI 5e200 $r12: $r12 $r13: $r13 $r14: $r14 $r15: $r15 $rbp: $rbp $rbx: $rbx .cfa: $rsp 8 +
STACK CFI INIT 5e210 54 .cfa: $rsp 8 + .ra: .cfa -8 + ^
STACK CFI 5e251 $rbp: .cfa -16 + ^ .cfa: $rsp 16 +
STACK CFI 5e254 .cfa: $rbp 16 +
STACK CFI 5e25c .cfa: $rsp 8 +
STACK CFI 5e260 $rbp: $rbp
STACK CFI INIT 5e270 43 .cfa: $rsp 8 + .ra: .cfa -8 + ^
STACK CFI 5e276 $rbp: .cfa -16 + ^ .cfa: $rsp 16 +
STACK CFI 5e279 .cfa: $rbp 16 +
STACK CFI 5e27a $rbx: .cfa -24 + ^
STACK CFI 5e2aa .cfa: $rsp 8 +
STACK CFI 5e2b0 $rbp: $rbp $rbx: $rbx
STACK CFI INIT 5e2c0 73 .cfa: $rsp 8 + .ra: .cfa -8 + ^
STACK CFI INIT 5e340 19 .cfa: $rsp 8 + .ra: .cfa -8 + ^
STACK CFI INIT 5e360 24 .cfa: $rsp 8 + .ra: .cfa -8 + ^
STACK CFI 5e361 $rbp: .cfa -16 + ^ .cfa: $rsp 16 +
STACK CFI 5e364 .cfa: $rbp 16 +
STACK CFI 5e366 $r12: .cfa -24 + ^
STACK CFI 5e37f .cfa: $rsp 8 +
STACK CFI INIT 5e390 24 .cfa: $rsp 8 + .ra: .cfa -8 + ^
STACK CFI 5e391 $rbp: .cfa -16 + ^ .cfa: $rsp 16 +
STACK CFI 5e394 .cfa: $rbp 16 +
STACK CFI 5e396 $r12: .cfa -24 + ^
STACK CFI 5e3af .cfa: $rsp 8 +
STACK CFI INIT 5e3c0 548 .cfa: $rsp 8 + .ra: .cfa -8 + ^
STACK CFI 5e3c1 $rbp: .cfa -16 + ^ .cfa: $rsp 16 +
STACK CFI 5e3c4 .cfa: $rbp 16 +
STACK CFI 5e3c6 $r13: .cfa -24 + ^
STACK CFI 5e3cb $r12: .cfa -32 + ^
STACK CFI 5e3cf $rbx: .cfa -40 + ^
STACK CFI 5e621 .cfa: $rsp 8 +
STACK CFI 5e6d0 .cfa: $rbp 16 +
STACK CFI INIT 5e910 11c .cfa: $rsp 8 + .ra: .cfa -8 + ^
STACK CFI 5e911 $rbp: .cfa -16 + ^ .cfa: $rsp 16 +
STACK CFI 5e914 .cfa: $rbp 16 +
STACK CFI 5e91c $rbx: .cfa -24 + ^
STACK CFI 5ea13 .cfa: $rsp 8 +
STACK CFI 5ea18 .cfa: $rbp 16 +
STACK CFI 5ea2b .cfa: $rsp 8 +
STACK CFI INIT 5ea30 e .cfa: $rsp 8 + .ra: .cfa -8 + ^
STACK CFI INIT 5ea40 64 .cfa: $rsp 8 + .ra: .cfa -8 + ^
STACK CFI 5ea62 $rbp: .cfa -16 + ^ .cfa: $rsp 16 +
STACK CFI 5ea6f .cfa: $rbp 16 +
STACK CFI 5ea7e .cfa: $rsp 8 +
STACK CFI 5ea90 $rbp: $rbp
STACK CFI INIT 5eab0 63 .cfa: $rsp 8 + .ra: .cfa -8 + ^
STACK CFI 5eae9 $rbp: .cfa -16 + ^ .cfa: $rsp 16 +
STACK CFI 5eaf9 .cfa: $rbp 16 +
STACK CFI 5eb08 .cfa: $rsp 8 +
STACK CFI INIT 5eb20 15 .cfa: $rsp 8 + .ra: .cfa -8 + ^
STACK CFI INIT 5eb40 7 .cfa: $rsp 8 + .ra: .cfa -8 + ^
STACK CFI INIT 5eb50 7 .cfa: $rsp 8 + .ra: .cfa -8 + ^
STACK CFI INIT 5eb60 59 .cfa: $rsp 8 + .ra: .cfa -8 + ^
STACK CFI 5eba0 $rbp: .cfa -16 + ^ .cfa: $rsp 16 +
STACK CFI 5eba6 .cfa: $rbp 16 +
STACK CFI 5ebb8 $rbp: $rbp .cfa: $rsp 8 +
STACK CFI INIT 5ebc0 6 .cfa: $rsp 8 + .ra: .cfa -8 + ^
STACK CFI INIT 5ebd0 105 .cfa: $rsp 8 + .ra: .cfa -8 + ^
STACK CFI 5ebd1 $rbp: .cfa -16 + ^ .cfa: $rsp 16 +
STACK CFI 5ebd4 .cfa: $rbp 16 +
STACK CFI 5ebdd $r12: .cfa -32 + ^ $r13: .cfa -24 + ^ $rbx: .cfa -40 + ^
STACK CFI 5ebfb .cfa: $rsp 8 +
STACK CFI 5ec00 .cfa: $rbp 16 +
STACK CFI 5ecac .cfa: $rsp 8 +
STACK CFI 5ecb0 .cfa: $rbp 16 +
STACK CFI INIT 5ece0 175 .cfa: $rsp 8 + .ra: .cfa -8 + ^
STACK CFI 5ece1 $rbp: .cfa -16 + ^ .cfa: $rsp 16 +
STACK CFI 5ece4 .cfa: $rbp 16 +
STACK CFI 5ecec $r12: .cfa -48 + ^ $r13: .cfa -40 + ^ $r14: .cfa -32 + ^ $r15: .cfa -24 + ^
STACK CFI 5ecf0 $rbx: .cfa -56 + ^
STACK CFI 5ed57 .cfa: $rsp 8 +
STACK CFI 5ed60 .cfa: $rbp 16 +
STACK CFI INIT 5ee60 3c3 .cfa: $rsp 8 + .ra: .cfa -8 + ^
STACK CFI 5ee61 $rbp: .cfa -16 + ^ .cfa: $rsp 16 +
STACK CFI 5ee64 .cfa: $rbp 16 +
STACK CFI 5ee68 $r14: .cfa -32 + ^ $r15: .cfa -24 + ^
STACK CFI 5ee6d $r13: .cfa -40 + ^
STACK CFI 5ee72 $r12: .cfa -48 + ^
STACK CFI 5ee76 $rbx: .cfa -56 + ^
STACK CFI 5eedf .cfa: $rsp 8 +
STACK CFI 5eee0 .cfa: $rbp 16 +
STACK CFI INIT 5f230 153 .cfa: $rsp 8 + .ra: .cfa -8 + ^
STACK CFI 5f231 $rbp: .cfa -16 + ^ .cfa: $rsp 16 +
STACK CFI 5f234 .cfa: $rbp 16 +
STACK CFI 5f238 $r14: .cfa -32 + ^ $r15: .cfa -24 + ^
STACK CFI 5f240 $r12: .cfa -48 + ^ $r13: .cfa -40 + ^ $rbx: .cfa -56 + ^
STACK CFI 5f357 .cfa: $rsp 8 +
STACK CFI 5f360 .cfa: $rbp 16 +
STACK CFI INIT 5f390 101 .cfa: $rsp 8 + .ra: .cfa -8 + ^
STACK CFI 5f391 $rbp: .cfa -16 + ^ .cfa: $rsp 16 +
STACK CFI 5f394 .cfa: $rbp 16 +
STACK CFI 5f396 $r15: .cfa -24 + ^
STACK CFI 5f39c $r14: .cfa -32 + ^
STACK CFI 5f3a1 $r13: .cfa -40 + ^
STACK CFI 5f3a6 $r12: .cfa -48 + ^
STACK CFI 5f3aa $rbx: .cfa -56 + ^
STACK CFI 5f451 .cfa: $rsp 8 +
STACK CFI 5f458 .cfa: $rbp 16 +
STACK CFI INIT 5f4a0 2cb .cfa: $rsp 8 + .ra: .cfa -8 + ^
STACK CFI 5f4a1 $rbp: .cfa -16 + ^ .cfa: $rsp 16 +
STACK CFI 5f4a4 .cfa: $rbp 16 +
STACK CFI 5f4a8 $r14: .cfa -32 + ^ $r15: .cfa -24 + ^
STACK CFI 5f4b1 $r13: .cfa -40 + ^
STACK CFI 5f4c3 $r12: .cfa -48 + ^ $rbx: .cfa -56 + ^
STACK CFI 5f650 .cfa: $rsp 8 +
STACK CFI 5f658 .cfa: $rbp 16 +
STACK CFI INIT 5f770 155 .cfa: $rsp 8 + .ra: .cfa -8 + ^
STACK CFI 5f771 $rbp: .cfa -16 + ^ .cfa: $rsp 16 +
STACK CFI 5f776 .cfa: $rbp 16 +
STACK CFI 5f783 $r12: .cfa -48 + ^ $r13: .cfa -40 + ^ $r14: .cfa -32 + ^ $r15: .cfa -24 + ^ $rbx: .cfa -56 + ^
STACK CFI 5f79d .cfa: $rsp 8 +
STACK CFI 5f7a0 .cfa: $rbp 16 +
STACK CFI 5f806 .cfa: $rsp 8 +
STACK CFI 5f810 .cfa: $rbp 16 +
STACK CFI 5f887 .cfa: $rsp 8 +
STACK CFI 5f890 .cfa: $rbp 16 +
STACK CFI INIT 5f8d0 ea .cfa: $rsp 8 + .ra: .cfa -8 + ^
STACK CFI 5f8d1 $rbp: .cfa -16 + ^ .cfa: $rsp 16 +
STACK CFI 5f8d7 .cfa: $rbp 16 +
STACK CFI 5f8db $r13: .cfa -32 + ^ $r14: .cfa -24 + ^
STACK CFI 5f8ea $r12: .cfa -40 + ^ $rbx: .cfa -48 + ^
STACK CFI 5f916 .cfa: $rsp 8 +
STACK CFI 5f920 .cfa: $rbp 16 +
STACK CFI 5f960 .cfa: $rsp 8 +
STACK CFI 5f968 .cfa: $rbp 16 +
STACK CFI INIT 5f9c0 10 .cfa: $rsp 8 + .ra: .cfa -8 + ^
STACK CFI INIT 5f9d0 13 .cfa: $rsp 8 + .ra: .cfa -8 + ^
STACK CFI INIT 5f9f0 230 .cfa: $rsp 8 + .ra: .cfa -8 + ^
STACK CFI 5f9f1 $rbp: .cfa -16 + ^ .cfa: $rsp 16 +
STACK CFI 5f9f4 .cfa: $rbp 16 +
STACK CFI 5fa04 $r12: .cfa -48 + ^ $r13: .cfa -40 + ^ $r14: .cfa -32 + ^ $r15: .cfa -24 + ^ $rbx: .cfa -56 + ^
STACK CFI 5fbb7 .cfa: $rsp 8 +
STACK CFI 5fbb8 .cfa: $rbp 16 +
STACK CFI INIT 5fc20 216 .cfa: $rsp 8 + .ra: .cfa -8 + ^
STACK CFI 5fc21 $rbp: .cfa -16 + ^ .cfa: $rsp 16 +
STACK CFI 5fc24 .cfa: $rbp 16 +
STACK CFI 5fc34 $r12: .cfa -48 + ^ $r13: .cfa -40 + ^ $r14: .cfa -32 + ^ $r15: .cfa -24 + ^ $rbx: .cfa -56 + ^
STACK CFI 5fd54 .cfa: $rsp 8 +
STACK CFI 5fd58 .cfa: $rbp 16 +
STACK CFI INIT 5fe40 f0 .cfa: $rsp 8 + .ra: .cfa -8 + ^
STACK CFI 5fe41 $rbp: .cfa -16 + ^ .cfa: $rsp 16 +
STACK CFI 5fe44 .cfa: $rbp 16 +
STACK CFI 5fe4f $r12: .cfa -32 + ^ $r13: .cfa -24 + ^
STACK CFI 5ff1d .cfa: $rsp 8 +
STACK CFI 5ff20 .cfa: $rbp 16 +
STACK CFI 5ff2f .cfa: $rsp 8 +
STACK CFI INIT 5ff30 155 .cfa: $rsp 8 + .ra: .cfa -8 + ^
STACK CFI 5ff31 $rbp: .cfa -16 + ^ .cfa: $rsp 16 +
STACK CFI 5ff34 .cfa: $rbp 16 +
STACK CFI 5ff36 $r13: .cfa -24 + ^
STACK CFI 5ff40 $r12: .cfa -32 + ^
STACK CFI 5ff4f $rbx: .cfa -40 + ^
STACK CFI 6005f .cfa: $rsp 8 +
STACK CFI 60060 .cfa: $rbp 16 +
STACK CFI 60070 .cfa: $rsp 8 +
STACK CFI 60078 .cfa: $rbp 16 +
STACK CFI INIT 60090 77 .cfa: $rsp 8 + .ra: .cfa -8 + ^
STACK CFI 60091 $rbp: .cfa -16 + ^ .cfa: $rsp 16 +
STACK CFI 60094 .cfa: $rbp 16 +
STACK CFI 600a0 .cfa: $rsp 8 +
STACK CFI 600a8 .cfa: $rbp 16 +
STACK CFI 600df .cfa: $rsp 8 +
STACK CFI 600e8 .cfa: $rbp 16 +
STACK CFI INIT 60110 c8 .cfa: $rsp 8 + .ra: .cfa -8 + ^
STACK CFI 60111 $rbp: .cfa -16 + ^ .cfa: $rsp 16 +
STACK CFI 60114 .cfa: $rbp 16 +
STACK CFI 6011a $r12: .cfa -24 + ^
STACK CFI 60130 .cfa: $rsp 8 +
STACK CFI 60138 .cfa: $rbp 16 +
STACK CFI 6018c .cfa: $rsp 8 +
STACK CFI 60190 .cfa: $rbp 16 +
STACK CFI INIT 601e0 b0 .cfa: $rsp 8 + .ra: .cfa -8 + ^
STACK CFI 601e1 $rbp: .cfa -16 + ^ .cfa: $rsp 16 +
STACK CFI 601e4 .cfa: $rbp 16 +
STACK CFI 601e6 $r12: .cfa -24 + ^
STACK CFI 601ea $rbx: .cfa -32 + ^
STACK CFI 601fc .cfa: $rsp 8 +
STACK CFI 60200 .cfa: $rbp 16 +
STACK CFI 60245 .cfa: $rsp 8 +
STACK CFI 60250 .cfa: $rbp 16 +
STACK CFI INIT 60290 186 .cfa: $rsp 8 + .ra: .cfa -8 + ^
STACK CFI 60291 $rbp: .cfa -16 + ^ .cfa: $rsp 16 +
STACK CFI 60294 .cfa: $rbp 16 +
STACK CFI 60298 $r12: .cfa -32 + ^ $r13: .cfa -24 + ^
STACK CFI 602a3 $rbx: .cfa -40 + ^
STACK CFI 602c2 .cfa: $rsp 8 +
STACK CFI 602c8 .cfa: $rbp 16 +
STACK CFI 60363 .cfa: $rsp 8 +
STACK CFI 60368 .cfa: $rbp 16 +
STACK CFI INIT 60420 150 .cfa: $rsp 8 + .ra: .cfa -8 + ^
STACK CFI 60421 $rbp: .cfa -16 + ^ .cfa: $rsp 16 +
STACK CFI 60424 .cfa: $rbp 16 +
STACK CFI 6042a $r13: .cfa -40 + ^ $r14: .cfa -32 + ^ $r15: .cfa -24 + ^
STACK CFI 6042f $r12: .cfa -48 + ^
STACK CFI 60433 $rbx: .cfa -56 + ^
STACK CFI 6045a .cfa: $rsp 8 +
STACK CFI 60460 .cfa: $rbp 16 +
STACK CFI INIT 60570 d0 .cfa: $rsp 8 + .ra: .cfa -8 + ^
STACK CFI 60571 $rbp: .cfa -16 + ^ .cfa: $rsp 16 +
STACK CFI 60574 .cfa: $rbp 16 +
STACK CFI 60576 $r12: .cfa -24 + ^
STACK CFI 60595 .cfa: $rsp 8 +
STACK CFI 605a0 .cfa: $rbp 16 +
STACK CFI 605f0 .cfa: $rsp 8 +
STACK CFI 605f8 .cfa: $rbp 16 +
STACK CFI INIT 60640 b0 .cfa: $rsp 8 + .ra: .cfa -8 + ^
STACK CFI 60641 $rbp: .cfa -16 + ^ .cfa: $rsp 16 +
STACK CFI 60644 .cfa: $rbp 16 +
STACK CFI 60646 $r14: .cfa -24 + ^
STACK CFI 6064b $r13: .cfa -32 + ^
STACK CFI 60650 $r12: .cfa -40 + ^
STACK CFI 6066d .cfa: $rsp 8 +
STACK CFI 60670 .cfa: $rbp 16 +
STACK CFI 606a6 .cfa: $rsp 8 +
STACK CFI 606b0 .cfa: $rbp 16 +
STACK CFI INIT 606f0 14c .cfa: $rsp 8 + .ra: .cfa -8 + ^
STACK CFI 606f1 $rbp: .cfa -16 + ^ .cfa: $rsp 16 +
STACK CFI 606f4 .cfa: $rbp 16 +
STACK CFI 606f8 $r13: .cfa -32 + ^ $r14: .cfa -24 + ^
STACK CFI 606fd $r12: .cfa -40 + ^
STACK CFI 60701 $rbx: .cfa -48 + ^
STACK CFI 60733 .cfa: $rsp 8 +
STACK CFI 60738 .cfa: $rbp 16 +
STACK CFI INIT 60840 2cf .cfa: $rsp 8 + .ra: .cfa -8 + ^
STACK CFI 60841 $rbp: .cfa -16 + ^ .cfa: $rsp 16 +
STACK CFI 60844 .cfa: $rbp 16 +
STACK CFI 6084d $r12: .cfa -48 + ^ $r13: .cfa -40 + ^ $r14: .cfa -32 + ^ $r15: .cfa -24 + ^ $rbx: .cfa -56 + ^
STACK CFI 608af .cfa: $rsp 8 +
STACK CFI 608b0 .cfa: $rbp 16 +
STACK CFI INIT 60b10 27 .cfa: $rsp 8 + .ra: .cfa -8 + ^
STACK CFI 60b11 $rbp: .cfa -16 + ^ .cfa: $rsp 16 +
STACK CFI 60b14 .cfa: $rbp 16 +
STACK CFI 60b29 .cfa: $rsp 8 +
STACK CFI 60b30 .cfa: $rbp 16 +
STACK CFI 60b31 .cfa: $rsp 8 +
STACK CFI INIT 60b40 2a .cfa: $rsp 8 + .ra: .cfa -8 + ^
STACK CFI 60b41 $rbp: .cfa -16 + ^ .cfa: $rsp 16 +
STACK CFI 60b46 .cfa: $rbp 16 +
STACK CFI 60b48 $r12: .cfa -24 + ^
STACK CFI 60b69 .cfa: $rsp 8 +
STACK CFI INIT 60b70 c6 .cfa: $rsp 8 + .ra: .cfa -8 + ^
STACK CFI 60b71 $rbp: .cfa -16 + ^ .cfa: $rsp 16 +
STACK CFI 60b74 .cfa: $rbp 16 +
STACK CFI 60b7d $r12: .cfa -48 + ^ $r13: .cfa -40 + ^ $r14: .cfa -32 + ^ $r15: .cfa -24 + ^ $rbx: .cfa -56 + ^
STACK CFI 60c1c .cfa: $rsp 8 +
STACK CFI 60c20 .cfa: $rbp 16 +
STACK CFI INIT 60c40 1 .cfa: $rsp 8 + .ra: .cfa -8 + ^
STACK CFI INIT 60c50 9 .cfa: $rsp 8 + .ra: .cfa -8 + ^
STACK CFI INIT 60c60 5b .cfa: $rsp 8 + .ra: .cfa -8 + ^
STACK CFI INIT 60cc0 3 .cfa: $rsp 8 + .ra: .cfa -8 + ^
STACK CFI INIT 60cd0 59 .cfa: $rsp 8 + .ra: .cfa -8 + ^
STACK CFI 60cd1 $rbp: .cfa -16 + ^ .cfa: $rsp 16 +
STACK CFI 60cd4 .cfa: $rbp 16 +
STACK CFI 60cd6 $r14: .cfa -24 + ^
STACK CFI 60cdb $r13: .cfa -32 + ^
STACK CFI 60ce0 $r12: .cfa -40 + ^
STACK CFI 60d0c .cfa: $rsp 8 +
STACK CFI 60d10 .cfa: $rbp 16 +
STACK CFI 60d24 .cfa: $rsp 8 +
STACK CFI INIT 60d30 fc .cfa: $rsp 8 + .ra: .cfa -8 + ^
STACK CFI 60d31 $rbp: .cfa -16 + ^ .cfa: $rsp 16 +
STACK CFI 60d34 .cfa: $rbp 16 +
STACK CFI 60d36 $r15: .cfa -24 + ^
STACK CFI 60d3b $r14: .cfa -32 + ^
STACK CFI 60d40 $r13: .cfa -40 + ^
STACK CFI 60d4a $r12: .cfa -48 + ^ $rbx: .cfa -56 + ^
STACK CFI 60dae .cfa: $rsp 8 +
STACK CFI 60db0 .cfa: $rbp 16 +
STACK CFI INIT 60e30 22e .cfa: $rsp 8 + .ra: .cfa -8 + ^
STACK CFI 60e31 $rbp: .cfa -16 + ^ .cfa: $rsp 16 +
STACK CFI 60e34 .cfa: $rbp 16 +
STACK CFI 60e3a $r13: .cfa -40 + ^ $r14: .cfa -32 + ^ $r15: .cfa -24 + ^
STACK CFI 60e3f $r12: .cfa -48 + ^
STACK CFI 60e4a $rbx: .cfa -56 + ^
STACK CFI 60f1e .cfa: $rsp 8 +
STACK CFI 60f20 .cfa: $rbp 16 +
STACK CFI INIT 61060 d4 .cfa: $rsp 8 + .ra: .cfa -8 + ^
STACK CFI 61061 $rbp: .cfa -16 + ^ .cfa: $rsp 16 +
STACK CFI 61064 .cfa: $rbp 16 +
STACK CFI 61066 $r13: .cfa -24 + ^
STACK CFI 61070 $r12: .cfa -32 + ^ $rbx: .cfa -40 + ^
STACK CFI 610e5 .cfa: $rsp 8 +
STACK CFI 610f0 .cfa: $rbp 16 +
STACK CFI 6110d .cfa: $rsp 8 +
STACK CFI 61110 .cfa: $rbp 16 +
STACK CFI INIT 61140 3a .cfa: $rsp 8 + .ra: .cfa -8 + ^
STACK CFI 61141 $rbp: .cfa -16 + ^ .cfa: $rsp 16 +
STACK CFI 61144 .cfa: $rbp 16 +
STACK CFI 61147 $r12: .cfa -24 + ^ $rbx: .cfa -32 + ^
STACK CFI 61179 .cfa: $rsp 8 +
STACK CFI INIT 61180 6e .cfa: $rsp 8 + .ra: .cfa -8 + ^
STACK CFI 61181 $rbp: .cfa -16 + ^ .cfa: $rsp 16 +
STACK CFI 61184 .cfa: $rbp 16 +
STACK CFI 61186 $r12: .cfa -24 + ^
STACK CFI 611b9 .cfa: $rsp 8 +
STACK CFI 611c0 .cfa: $rbp 16 +
STACK CFI 611d8 .cfa: $rsp 8 +
STACK CFI 611e0 .cfa: $rbp 16 +
STACK CFI 611ed .cfa: $rsp 8 +
STACK CFI INIT 611f0 30 .cfa: $rsp 8 + .ra: .cfa -8 + ^
STACK CFI 611f1 $rbp: .cfa -16 + ^ .cfa: $rsp 16 +
STACK CFI 611f9 .cfa: $rbp 16 +
STACK CFI 6120a .cfa: $rsp 8 +
STACK CFI 61210 .cfa: $rbp 16 +
STACK CFI 6121f .cfa: $rsp 8 +
STACK CFI INIT 61220 264 .cfa: $rsp 8 + .ra: .cfa -8 + ^
STACK CFI 61221 $rbp: .cfa -16 + ^ .cfa: $rsp 16 +
STACK CFI 61227 .cfa: $rbp 16 +
STACK CFI 61239 $r12: .cfa -32 + ^ $r13: .cfa -24 + ^
STACK CFI 612b2 .cfa: $rsp 8 +
STACK CFI 612b8 .cfa: $rbp 16 +
STACK CFI INIT 61490 3e .cfa: $rsp 8 + .ra: .cfa -8 + ^
STACK CFI 61491 $rbp: .cfa -16 + ^ .cfa: $rsp 16 +
STACK CFI 6149c .cfa: $rbp 16 +
STACK CFI 614cd .cfa: $rsp 8 +
STACK CFI INIT 614d0 29 .cfa: $rsp 8 + .ra: .cfa -8 + ^
STACK CFI 614d1 $rbp: .cfa -16 + ^ .cfa: $rsp 16 +
STACK CFI 614dc .cfa: $rbp 16 +
STACK CFI 614f0 .cfa: $rsp 8 +
STACK CFI INIT 61500 f1 .cfa: $rsp 8 + .ra: .cfa -8 + ^
STACK CFI 6150a $rbp: .cfa -16 + ^ .cfa: $rsp 16 +
STACK CFI 6150d .cfa: $rbp 16 +
STACK CFI 61513 $r12: .cfa -40 + ^ $r13: .cfa -32 + ^ $r14: .cfa -24 + ^
STACK CFI 6151e $rbx: .cfa -48 + ^
STACK CFI 615ef .cfa: $rsp 8 +
STACK CFI 615f0 $r12: $r12 $r13: $r13 $r14: $r14 $rbp: $rbp $rbx: $rbx
STACK CFI INIT 61600 2e0 .cfa: $rsp 8 + .ra: .cfa -8 + ^
STACK CFI 61601 $rbp: .cfa -16 + ^ .cfa: $rsp 16 +
STACK CFI 61607 .cfa: $rbp 16 +
STACK CFI 61610 $r12: .cfa -48 + ^ $r13: .cfa -40 + ^ $r14: .cfa -32 + ^ $r15: .cfa -24 + ^ $rbx: .cfa -56 + ^
STACK CFI 61733 .cfa: $rsp 8 +
STACK CFI 61738 .cfa: $rbp 16 +
STACK CFI INIT 618e0 f9 .cfa: $rsp 8 + .ra: .cfa -8 + ^
STACK CFI 618ea $rbp: .cfa -16 + ^ .cfa: $rsp 16 +
STACK CFI 618ed .cfa: $rbp 16 +
STACK CFI 618ef $r12: .cfa -24 + ^
STACK CFI 6190a .cfa: $rsp 8 +
STACK CFI 61910 .cfa: $rbp 16 +
STACK CFI 6196a .cfa: $rsp 8 +
STACK CFI 61970 $r12: $r12 $rbp: $rbp
STACK CFI 61978 $r12: .cfa -24 + ^ $rbp: .cfa -16 + ^ .cfa: $rbp 16 +
STACK CFI INIT 619e0 9 .cfa: $rsp 8 + .ra: .cfa -8 + ^
STACK CFI INIT 619f0 8 .cfa: $rsp 8 + .ra: .cfa -8 + ^
STACK CFI INIT 61a00 76 .cfa: $rsp 8 + .ra: .cfa -8 + ^
STACK CFI INIT 61a80 17f .cfa: $rsp 8 + .ra: .cfa -8 + ^
STACK CFI 61a81 $rbp: .cfa -16 + ^ .cfa: $rsp 16 +
STACK CFI 61a84 .cfa: $rbp 16 +
STACK CFI 61a8a $r12: .cfa -40 + ^ $r13: .cfa -32 + ^ $r14: .cfa -24 + ^
STACK CFI 61a95 $rbx: .cfa -48 + ^
STACK CFI 61b0e .cfa: $rsp 8 +
STACK CFI 61b10 .cfa: $rbp 16 +
STACK CFI 61bd3 .cfa: $rsp 8 +
STACK CFI 61bd8 .cfa: $rbp 16 +
STACK CFI INIT 61c00 6c8 .cfa: $rsp 8 + .ra: .cfa -8 + ^
STACK CFI 61c01 $rbp: .cfa -16 + ^ .cfa: $rsp 16 +
STACK CFI 61c08 .cfa: $rbp 16 +
STACK CFI 61c0a $r15: .cfa -24 + ^
STACK CFI 61c13 $r12: .cfa -48 + ^ $r13: .cfa -40 + ^ $r14: .cfa -32 + ^
STACK CFI 61c1e $rbx: .cfa -56 + ^
STACK CFI 61f85 .cfa: $rsp 8 +
STACK CFI 61f90 .cfa: $rbp 16 +
STACK CFI INIT 622d0 e6 .cfa: $rsp 8 + .ra: .cfa -8 + ^
STACK CFI 622d1 $rbp: .cfa -16 + ^ .cfa: $rsp 16 +
STACK CFI 622dd .cfa: $rbp 16 +
STACK CFI 622e1 $r14: .cfa -32 + ^ $r15: .cfa -24 + ^
STACK CFI 622e6 $r13: .cfa -40 + ^
STACK CFI 622eb $r12: .cfa -48 + ^
STACK CFI 622f3 $rbx: .cfa -56 + ^
STACK CFI 6237d .cfa: $rsp 8 +
STACK CFI 62380 .cfa: $rbp 16 +
STACK CFI INIT 623c0 19 .cfa: $rsp 8 + .ra: .cfa -8 + ^
STACK CFI 623c1 $rbp: .cfa -16 + ^ .cfa: $rsp 16 +
STACK CFI 623c9 .cfa: $rbp 16 +
STACK CFI 623cf .cfa: $rsp 8 +
STACK CFI INIT 623e0 1b .cfa: $rsp 8 + .ra: .cfa -8 + ^
STACK CFI 623e1 $rbp: .cfa -16 + ^ .cfa: $rsp 16 +
STACK CFI 623ec .cfa: $rbp 16 +
STACK CFI 623f2 .cfa: $rsp 8 +
STACK CFI INIT 62400 96 .cfa: $rsp 8 + .ra: .cfa -8 + ^
STACK CFI 62401 $rbp: .cfa -16 + ^ .cfa: $rsp 16 +
STACK CFI 62404 .cfa: $rbp 16 +
STACK CFI 62495 .cfa: $rsp 8 +
STACK CFI INIT 624a0 e0 .cfa: $rsp 8 + .ra: .cfa -8 + ^
STACK CFI 624a1 $rbp: .cfa -16 + ^ .cfa: $rsp 16 +
STACK CFI 624a7 .cfa: $rbp 16 +
STACK CFI 624ab $r12: .cfa -32 + ^ $r13: .cfa -24 + ^
STACK CFI 62504 .cfa: $rsp 8 +
STACK CFI 62508 .cfa: $rbp 16 +
STACK CFI INIT 62580 9 .cfa: $rsp 8 + .ra: .cfa -8 + ^
STACK CFI INIT 62590 b3 .cfa: $rsp 8 + .ra: .cfa -8 + ^
STACK CFI 62591 $rbp: .cfa -16 + ^ .cfa: $rsp 16 +
STACK CFI 62594 .cfa: $rbp 16 +
STACK CFI 62596 $r14: .cfa -24 + ^
STACK CFI 6259e $r13: .cfa -32 + ^
STACK CFI 625a3 $r12: .cfa -40 + ^
STACK CFI 625a7 $rbx: .cfa -48 + ^
STACK CFI 6261f .cfa: $rsp 8 +
STACK CFI 62620 .cfa: $rbp 16 +
STACK CFI INIT 62650 25c .cfa: $rsp 8 + .ra: .cfa -8 + ^
STACK CFI 62651 $rbp: .cfa -16 + ^ .cfa: $rsp 16 +
STACK CFI 62654 .cfa: $rbp 16 +
STACK CFI 62656 $r15: .cfa -24 + ^
STACK CFI 6265b $r14: .cfa -32 + ^
STACK CFI 62660 $r13: .cfa -40 + ^
STACK CFI 62665 $r12: .cfa -48 + ^
STACK CFI 6266d $rbx: .cfa -56 + ^
STACK CFI 627bd .cfa: $rsp 8 +
STACK CFI 627c0 .cfa: $rbp 16 +
STACK CFI INIT 628b0 e8 .cfa: $rsp 8 + .ra: .cfa -8 + ^
STACK CFI 628b1 $rbp: .cfa -16 + ^ .cfa: $rsp 16 +
STACK CFI 628b7 .cfa: $rbp 16 +
STACK CFI 628b9 $r13: .cfa -24 + ^
STACK CFI 628d2 $r12: .cfa -32 + ^ $rbx: .cfa -40 + ^
STACK CFI 6293a .cfa: $rsp 8 +
STACK CFI 62940 .cfa: $rbp 16 +
STACK CFI INIT 629a0 13e .cfa: $rsp 8 + .ra: .cfa -8 + ^
STACK CFI 629a1 $rbp: .cfa -16 + ^ .cfa: $rsp 16 +
STACK CFI 629a4 .cfa: $rbp 16 +
STACK CFI 629a8 $r13: .cfa -32 + ^ $r14: .cfa -24 + ^
STACK CFI 629ad $r12: .cfa -40 + ^
STACK CFI 629b1 $rbx: .cfa -48 + ^
STACK CFI 62a52 .cfa: $rsp 8 +
STACK CFI 62a58 .cfa: $rbp 16 +
STACK CFI 62a8d .cfa: $rsp 8 +
STACK CFI 62a90 .cfa: $rbp 16 +
STACK CFI 62aa1 .cfa: $rsp 8 +
STACK CFI 62aa8 .cfa: $rbp 16 +
STACK CFI 62add .cfa: $rsp 8 +
STACK CFI INIT 62ae0 83 .cfa: $rsp 8 + .ra: .cfa -8 + ^
STACK CFI 62ae1 $rbp: .cfa -16 + ^ .cfa: $rsp 16 +
STACK CFI 62ae4 .cfa: $rbp 16 +
STACK CFI 62aeb $r12: .cfa -40 + ^ $r13: .cfa -32 + ^ $r14: .cfa -24 + ^ $rbx: .cfa -48 + ^
STACK CFI 62b62 .cfa: $rsp 8 +
STACK CFI INIT 62b70 206 .cfa: $rsp 8 + .ra: .cfa -8 + ^
STACK CFI 62b71 $rbp: .cfa -16 + ^ .cfa: $rsp 16 +
STACK CFI 62b74 .cfa: $rbp 16 +
STACK CFI 62b78 $r14: .cfa -32 + ^ $r15: .cfa -24 + ^
STACK CFI 62b7d $r13: .cfa -40 + ^
STACK CFI 62b82 $r12: .cfa -48 + ^
STACK CFI 62b8a $rbx: .cfa -56 + ^
STACK CFI 62d05 .cfa: $rsp 8 +
STACK CFI 62d10 .cfa: $rbp 16 +
STACK CFI INIT 62d80 168 .cfa: $rsp 8 + .ra: .cfa -8 + ^
STACK CFI 62d81 $rbp: .cfa -16 + ^ .cfa: $rsp 16 +
STACK CFI 62d8b .cfa: $rbp 16 +
STACK CFI 62d91 $r13: .cfa -40 + ^ $r14: .cfa -32 + ^ $r15: .cfa -24 + ^
STACK CFI 62da2 $r12: .cfa -48 + ^ $rbx: .cfa -56 + ^
STACK CFI 62ed9 .cfa: $rsp 8 +
STACK CFI 62eda .cfa: $rbp 16 +
STACK CFI INIT 62ef0 ce .cfa: $rsp 8 + .ra: .cfa -8 + ^
STACK CFI 62ef1 $rbp: .cfa -16 + ^ .cfa: $rsp 16 +
STACK CFI 62ef4 .cfa: $rbp 16 +
STACK CFI 62efc $r12: .cfa -48 + ^ $r13: .cfa -40 + ^ $r14: .cfa -32 + ^ $r15: .cfa -24 + ^
STACK CFI 62f00 $rbx: .cfa -56 + ^
STACK CFI 62f42 .cfa: $rsp 8 +
STACK CFI 62f50 .cfa: $rbp 16 +
STACK CFI INIT 62fc0 576 .cfa: $rsp 8 + .ra: .cfa -8 + ^
STACK CFI 62fc1 $rbp: .cfa -16 + ^ .cfa: $rsp 16 +
STACK CFI 62fc4 .cfa: $rbp 16 +
STACK CFI 62fd4 $r12: .cfa -48 + ^ $r13: .cfa -40 + ^ $r14: .cfa -32 + ^ $r15: .cfa -24 + ^ $rbx: .cfa -56 + ^
STACK CFI 63018 .cfa: $rsp 8 +
STACK CFI 63020 .cfa: $rbp 16 +
STACK CFI INIT 63540 57 .cfa: $rsp 8 + .ra: .cfa -8 + ^
STACK CFI 63541 $rbp: .cfa -16 + ^ .cfa: $rsp 16 +
STACK CFI 63544 .cfa: $rbp 16 +
STACK CFI 63546 $r12: .cfa -24 + ^
STACK CFI 6357c .cfa: $rsp 8 +
STACK CFI 63580 .cfa: $rbp 16 +
STACK CFI 63596 .cfa: $rsp 8 +
STACK CFI INIT 635a0 1f9 .cfa: $rsp 8 + .ra: .cfa -8 + ^
STACK CFI 635a1 $rbp: .cfa -16 + ^ .cfa: $rsp 16 +
STACK CFI 635a4 .cfa: $rbp 16 +
STACK CFI 635a8 $r14: .cfa -32 + ^ $r15: .cfa -24 + ^
STACK CFI 635b0 $r12: .cfa -48 + ^ $r13: .cfa -40 + ^ $rbx: .cfa -56 + ^
STACK CFI 6376b .cfa: $rsp 8 +
STACK CFI 63770 .cfa: $rbp 16 +
STACK CFI INIT 637a0 f4 .cfa: $rsp 8 + .ra: .cfa -8 + ^
STACK CFI 637a1 $rbp: .cfa -16 + ^ .cfa: $rsp 16 +
STACK CFI 637a4 .cfa: $rbp 16 +
STACK CFI 637ac $r12: .cfa -48 + ^ $r13: .cfa -40 + ^ $r14: .cfa -32 + ^ $r15: .cfa -24 + ^
STACK CFI 637b4 $rbx: .cfa -56 + ^
STACK CFI 63859 .cfa: $rsp 8 +
STACK CFI 63860 .cfa: $rbp 16 +
STACK CFI INIT 638a0 176 .cfa: $rsp 8 + .ra: .cfa -8 + ^
STACK CFI 638a1 $rbp: .cfa -16 + ^ .cfa: $rsp 16 +
STACK CFI 638a4 .cfa: $rbp 16 +
STACK CFI 638a6 $r15: .cfa -24 + ^
STACK CFI 638ab $r14: .cfa -32 + ^
STACK CFI 638b0 $r13: .cfa -40 + ^
STACK CFI 638b5 $r12: .cfa -48 + ^
STACK CFI 638b9 $rbx: .cfa -56 + ^
STACK CFI 63977 .cfa: $rsp 8 +
STACK CFI 63980 .cfa: $rbp 16 +
STACK CFI 639f7 .cfa: $rsp 8 +
STACK CFI 63a00 .cfa: $rbp 16 +
STACK CFI INIT 63a20 14b .cfa: $rsp 8 + .ra: .cfa -8 + ^
STACK CFI 63a21 $rbp: .cfa -16 + ^ .cfa: $rsp 16 +
STACK CFI 63a24 .cfa: $rbp 16 +
STACK CFI 63a26 $r15: .cfa -24 + ^
STACK CFI 63a2e $r14: .cfa -32 + ^
STACK CFI 63a33 $r13: .cfa -40 + ^
STACK CFI 63a38 $r12: .cfa -48 + ^
STACK CFI 63a3c $rbx: .cfa -56 + ^
STACK CFI 63b20 .cfa: $rsp 8 +
STACK CFI 63b28 .cfa: $rbp 16 +
STACK CFI INIT 63b70 19e .cfa: $rsp 8 + .ra: .cfa -8 + ^
STACK CFI 63b71 $rbp: .cfa -16 + ^ .cfa: $rsp 16 +
STACK CFI 63b77 .cfa: $rbp 16 +
STACK CFI 63b79 $r15: .cfa -24 + ^
STACK CFI 63b7e $r14: .cfa -32 + ^
STACK CFI 63b83 $r13: .cfa -40 + ^
STACK CFI 63b88 $r12: .cfa -48 + ^
STACK CFI 63b8c $rbx: .cfa -56 + ^
STACK CFI 63c25 .cfa: $rsp 8 +
STACK CFI 63c30 .cfa: $rbp 16 +
STACK CFI 63cd3 .cfa: $rsp 8 +
STACK CFI 63cd8 .cfa: $rbp 16 +
STACK CFI INIT 63d10 94 .cfa: $rsp 8 + .ra: .cfa -8 + ^
STACK CFI 63d11 $rbp: .cfa -16 + ^ .cfa: $rsp 16 +
STACK CFI 63d14 .cfa: $rbp 16 +
STACK CFI 63d16 $r13: .cfa -24 + ^
STACK CFI 63d1b $r12: .cfa -32 + ^
STACK CFI 63d22 $rbx: .cfa -40 + ^
STACK CFI 63d58 .cfa: $rsp 8 +
STACK CFI 63d60 .cfa: $rbp 16 +
STACK CFI INIT 63db0 ea .cfa: $rsp 8 + .ra: .cfa -8 + ^
STACK CFI 63db1 $rbp: .cfa -16 + ^ .cfa: $rsp 16 +
STACK CFI 63db4 .cfa: $rbp 16 +
STACK CFI 63db6 $r15: .cfa -24 + ^
STACK CFI 63dbd $r13: .cfa -40 + ^ $r14: .cfa -32 + ^
STACK CFI 63dc2 $r12: .cfa -48 + ^
STACK CFI 63dc6 $rbx: .cfa -56 + ^
STACK CFI 63e51 .cfa: $rsp 8 +
STACK CFI 63e58 .cfa: $rbp 16 +
STACK CFI 63e6b .cfa: $rsp 8 +
STACK CFI 63e70 .cfa: $rbp 16 +
STACK CFI INIT 63ea0 209 .cfa: $rsp 8 + .ra: .cfa -8 + ^
STACK CFI 63ea1 $rbp: .cfa -16 + ^ .cfa: $rsp 16 +
STACK CFI 63ea4 .cfa: $rbp 16 +
STACK CFI 63ea6 $r15: .cfa -24 + ^
STACK CFI 63eaf $r12: .cfa -48 + ^ $r13: .cfa -40 + ^ $r14: .cfa -32 + ^
STACK CFI 63eba $rbx: .cfa -56 + ^
STACK CFI 63fe6 .cfa: $rsp 8 +
STACK CFI 63ff0 .cfa: $rbp 16 +
STACK CFI INIT 640b0 88 .cfa: $rsp 8 + .ra: .cfa -8 + ^
STACK CFI 640b1 $rbp: .cfa -16 + ^ .cfa: $rsp 16 +
STACK CFI 640bd .cfa: $rbp 16 +
STACK CFI 640f2 .cfa: $rsp 8 +
STACK CFI 640f8 .cfa: $rbp 16 +
STACK CFI 64137 .cfa: $rsp 8 +
STACK CFI INIT 64140 112 .cfa: $rsp 8 + .ra: .cfa -8 + ^
STACK CFI 64141 $rbp: .cfa -16 + ^ .cfa: $rsp 16 +
STACK CFI 64144 .cfa: $rbp 16 +
STACK CFI 6414c $r12: .cfa -48 + ^ $r13: .cfa -40 + ^ $r14: .cfa -32 + ^ $r15: .cfa -24 + ^
STACK CFI 64151 $rbx: .cfa -56 + ^
STACK CFI 641a1 .cfa: $rsp 8 +
STACK CFI 641a8 .cfa: $rbp 16 +
STACK CFI INIT 64260 15 .cfa: $rsp 8 + .ra: .cfa -8 + ^
STACK CFI INIT 64280 f .cfa: $rsp 8 + .ra: .cfa -8 + ^
STACK CFI INIT 64290 2b8 .cfa: $rsp 8 + .ra: .cfa -8 + ^
STACK CFI 64291 $rbp: .cfa -16 + ^ .cfa: $rsp 16 +
STACK CFI 64294 .cfa: $rbp 16 +
STACK CFI 64296 $r15: .cfa -24 + ^
STACK CFI 6429f $r12: .cfa -48 + ^ $r13: .cfa -40 + ^ $r14: .cfa -32 + ^
STACK CFI 642aa $rbx: .cfa -56 + ^
STACK CFI 643c4 .cfa: $rsp 8 +
STACK CFI 643c8 .cfa: $rbp 16 +
STACK CFI INIT 64550 d .cfa: $rsp 8 + .ra: .cfa -8 + ^
STACK CFI INIT 64560 115 .cfa: $rsp 8 + .ra: .cfa -8 + ^
STACK CFI 64561 $rbp: .cfa -16 + ^ .cfa: $rsp 16 +
STACK CFI 64564 .cfa: $rbp 16 +
STACK CFI 6456a $r13: .cfa -40 + ^ $r14: .cfa -32 + ^ $r15: .cfa -24 + ^
STACK CFI 6456f $r12: .cfa -48 + ^
STACK CFI 64573 $rbx: .cfa -56 + ^
STACK CFI 645f5 .cfa: $rsp 8 +
STACK CFI 64600 .cfa: $rbp 16 +
STACK CFI 6465c .cfa: $rsp 8 +
STACK CFI 64668 .cfa: $rbp 16 +
STACK CFI INIT 64680 788 .cfa: $rsp 8 + .ra: .cfa -8 + ^
STACK CFI 64681 $rbp: .cfa -16 + ^ .cfa: $rsp 16 +
STACK CFI 64684 .cfa: $rbp 16 +
STACK CFI 64688 $r14: .cfa -32 + ^ $r15: .cfa -24 + ^
STACK CFI 6468f $r12: .cfa -48 + ^ $r13: .cfa -40 + ^
STACK CFI 64697 $rbx: .cfa -56 + ^
STACK CFI 64973 .cfa: $rsp 8 +
STACK CFI 64974 .cfa: $rbp 16 +
STACK CFI 64a81 .cfa: $rsp 8 +
STACK CFI 64a82 .cfa: $rbp 16 +
STACK CFI 64c22 .cfa: $rsp 8 +
STACK CFI 64c27 .cfa: $rbp 16 +
STACK CFI INIT 64e10 1c6 .cfa: $rsp 8 + .ra: .cfa -8 + ^
STACK CFI 64e11 $rbp: .cfa -16 + ^ .cfa: $rsp 16 +
STACK CFI 64e14 .cfa: $rbp 16 +
STACK CFI 64e18 $r14: .cfa -32 + ^ $r15: .cfa -24 + ^
STACK CFI 64e20 $r12: .cfa -48 + ^ $r13: .cfa -40 + ^
STACK CFI 64e24 $rbx: .cfa -56 + ^
STACK CFI 64ec9 .cfa: $rsp 8 +
STACK CFI 64ed0 .cfa: $rbp 16 +
STACK CFI INIT 64fe0 8d .cfa: $rsp 8 + .ra: .cfa -8 + ^
STACK CFI 64fe1 $rbp: .cfa -16 + ^ .cfa: $rsp 16 +
STACK CFI 64fe4 .cfa: $rbp 16 +
STACK CFI 64fe6 $r13: .cfa -24 + ^
STACK CFI 64ff0 $r12: .cfa -32 + ^ $rbx: .cfa -40 + ^
STACK CFI 65052 .cfa: $rsp 8 +
STACK CFI 65058 .cfa: $rbp 16 +
STACK CFI 6506c .cfa: $rsp 8 +
STACK CFI INIT 65070 ad .cfa: $rsp 8 + .ra: .cfa -8 + ^
STACK CFI 65071 $rbp: .cfa -16 + ^ .cfa: $rsp 16 +
STACK CFI 65074 .cfa: $rbp 16 +
STACK CFI 65079 $r12: .cfa -32 + ^ $r13: .cfa -24 + ^ $rbx: .cfa -40 + ^
STACK CFI 650e7 .cfa: $rsp 8 +
STACK CFI 650f0 .cfa: $rbp 16 +
STACK CFI 6511c .cfa: $rsp 8 +
STACK CFI INIT 65120 ad .cfa: $rsp 8 + .ra: .cfa -8 + ^
STACK CFI 65121 $rbp: .cfa -16 + ^ .cfa: $rsp 16 +
STACK CFI 65124 .cfa: $rbp 16 +
STACK CFI 65129 $r12: .cfa -32 + ^ $r13: .cfa -24 + ^ $rbx: .cfa -40 + ^
STACK CFI 6519b .cfa: $rsp 8 +
STACK CFI 651a0 .cfa: $rbp 16 +
STACK CFI 651cc .cfa: $rsp 8 +
STACK CFI INIT 651d0 95 .cfa: $rsp 8 + .ra: .cfa -8 + ^
STACK CFI 651d1 $rbp: .cfa -16 + ^ .cfa: $rsp 16 +
STACK CFI 651d4 .cfa: $rbp 16 +
STACK CFI 651d6 $r13: .cfa -24 + ^
STACK CFI 651e0 $r12: .cfa -32 + ^ $rbx: .cfa -40 + ^
STACK CFI 65246 .cfa: $rsp 8 +
STACK CFI 65250 .cfa: $rbp 16 +
STACK CFI 65264 .cfa: $rsp 8 +
STACK CFI INIT 65270 1 .cfa: $rsp 8 + .ra: .cfa -8 + ^
STACK CFI INIT 65280 7d .cfa: $rsp 8 + .ra: .cfa -8 + ^
STACK CFI INIT 65300 f .cfa: $rsp 8 + .ra: .cfa -8 + ^
STACK CFI INIT 65310 6 .cfa: $rsp 8 + .ra: .cfa -8 + ^
STACK CFI INIT 65320 d .cfa: $rsp 8 + .ra: .cfa -8 + ^
STACK CFI INIT 65330 7 .cfa: $rsp 8 + .ra: .cfa -8 + ^
STACK CFI INIT 65340 1c .cfa: $rsp 8 + .ra: .cfa -8 + ^
STACK CFI INIT 65360 f .cfa: $rsp 8 + .ra: .cfa -8 + ^
STACK CFI INIT 65370 1a .cfa: $rsp 8 + .ra: .cfa -8 + ^
STACK CFI INIT 65390 19 .cfa: $rsp 8 + .ra: .cfa -8 + ^
STACK CFI INIT 653b0 18c .cfa: $rsp 8 + .ra: .cfa -8 + ^
STACK CFI 653b1 $rbp: .cfa -16 + ^ .cfa: $rsp 16 +
STACK CFI 653b4 .cfa: $rbp 16 +
STACK CFI 653b8 $r14: .cfa -32 + ^ $r15: .cfa -24 + ^
STACK CFI 653c2 $r13: .cfa -40 + ^
STACK CFI 653c8 $r12: .cfa -48 + ^ $rbx: .cfa -56 + ^
STACK CFI 6549a .cfa: $rsp 8 +
STACK CFI 654a0 .cfa: $rbp 16 +
STACK CFI INIT 65540 8a .cfa: $rsp 8 + .ra: .cfa -8 + ^
STACK CFI 6554d $rbp: .cfa -16 + ^ .cfa: $rsp 16 +
STACK CFI 65550 .cfa: $rbp 16 +
STACK CFI 65552 $r12: .cfa -24 + ^
STACK CFI 6557c .cfa: $rsp 8 +
STACK CFI 6557d .cfa: $rbp 16 +
STACK CFI 655b1 .cfa: $rsp 8 +
STACK CFI 655b8 .cfa: $rbp 16 +
STACK CFI 655c4 $r12: $r12 $rbp: $rbp .cfa: $rsp 8 +
STACK CFI INIT 655d0 1b .cfa: $rsp 8 + .ra: .cfa -8 + ^
STACK CFI INIT 655f0 d .cfa: $rsp 8 + .ra: .cfa -8 + ^
STACK CFI INIT 65600 a6 .cfa: $rsp 8 + .ra: .cfa -8 + ^
STACK CFI 65601 $rbp: .cfa -16 + ^ .cfa: $rsp 16 +
STACK CFI 65604 .cfa: $rbp 16 +
STACK CFI 65606 $r14: .cfa -24 + ^
STACK CFI 6560b $r13: .cfa -32 + ^
STACK CFI 65610 $r12: .cfa -40 + ^
STACK CFI 65614 $rbx: .cfa -48 + ^
STACK CFI 65666 .cfa: $rsp 8 +
STACK CFI 65670 .cfa: $rbp 16 +
STACK CFI INIT 656b0 b1 .cfa: $rsp 8 + .ra: .cfa -8 + ^
STACK CFI 656b1 $rbp: .cfa -16 + ^ .cfa: $rsp 16 +
STACK CFI 656b4 .cfa: $rbp 16 +
STACK CFI 656b6 $r14: .cfa -24 + ^
STACK CFI 656bb $r13: .cfa -32 + ^
STACK CFI 656c0 $r12: .cfa -40 + ^
STACK CFI 656c4 $rbx: .cfa -48 + ^
STACK CFI 65716 .cfa: $rsp 8 +
STACK CFI 65720 .cfa: $rbp 16 +
STACK CFI INIT 65770 9a .cfa: $rsp 8 + .ra: .cfa -8 + ^
STACK CFI 65771 $rbp: .cfa -16 + ^ .cfa: $rsp 16 +
STACK CFI 65774 .cfa: $rbp 16 +
STACK CFI 65776 $r14: .cfa -24 + ^
STACK CFI 6577b $r13: .cfa -32 + ^
STACK CFI 65780 $r12: .cfa -40 + ^
STACK CFI 65784 $rbx: .cfa -48 + ^
STACK CFI INIT 65810 7b .cfa: $rsp 8 + .ra: .cfa -8 + ^
STACK CFI 65811 $rbp: .cfa -16 + ^ .cfa: $rsp 16 +
STACK CFI 65814 .cfa: $rbp 16 +
STACK CFI 65816 $r14: .cfa -24 + ^
STACK CFI 6581b $r13: .cfa -32 + ^
STACK CFI 65822 $r12: .cfa -40 + ^
STACK CFI 65861 .cfa: $rsp 8 +
STACK CFI 65870 .cfa: $rbp 16 +
STACK CFI INIT 65890 64 .cfa: $rsp 8 + .ra: .cfa -8 + ^
STACK CFI 65891 $rbp: .cfa -16 + ^ .cfa: $rsp 16 +
STACK CFI 65894 .cfa: $rbp 16 +
STACK CFI 65896 $r14: .cfa -24 + ^
STACK CFI 6589b $r13: .cfa -32 + ^
STACK CFI 658a0 $r12: .cfa -40 + ^
STACK CFI 658c0 .cfa: $rsp 8 +
STACK CFI 658c8 .cfa: $rbp 16 +
STACK CFI 658dc .cfa: $rsp 8 +
STACK CFI 658e1 .cfa: $rbp 16 +
STACK CFI INIT 65900 d8 .cfa: $rsp 8 + .ra: .cfa -8 + ^
STACK CFI 65901 $rbp: .cfa -16 + ^ .cfa: $rsp 16 +
STACK CFI 65904 .cfa: $rbp 16 +
STACK CFI 65908 $r14: .cfa -32 + ^ $r15: .cfa -24 + ^
STACK CFI 6590d $r13: .cfa -40 + ^
STACK CFI 65913 $r12: .cfa -48 + ^ $rbx: .cfa -56 + ^
STACK CFI 65999 .cfa: $rsp 8 +
STACK CFI 659a0 .cfa: $rbp 16 +
STACK CFI INIT 659e0 9c8 .cfa: $rsp 8 + .ra: .cfa -8 + ^
STACK CFI 659e1 $rbp: .cfa -16 + ^ .cfa: $rsp 16 +
STACK CFI 659e4 .cfa: $rbp 16 +
STACK CFI 659e8 $r14: .cfa -32 + ^ $r15: .cfa -24 + ^
STACK CFI 659ed $r13: .cfa -40 + ^
STACK CFI 659f2 $r12: .cfa -48 + ^
STACK CFI 659f6 $rbx: .cfa -56 + ^
STACK CFI 65b1c .cfa: $rsp 8 +
STACK CFI 65b28 .cfa: $rbp 16 +
STACK CFI 65c90 .cfa: $rsp 8 +
STACK CFI 65c98 .cfa: $rbp 16 +
STACK CFI INIT 663b0 283 .cfa: $rsp 8 + .ra: .cfa -8 + ^
STACK CFI 663b1 $rbp: .cfa -16 + ^ .cfa: $rsp 16 +
STACK CFI 663b4 .cfa: $rbp 16 +
STACK CFI 663b8 $r14: .cfa -32 + ^ $r15: .cfa -24 + ^
STACK CFI 663bf $r12: .cfa -48 + ^ $r13: .cfa -40 + ^
STACK CFI 663c3 $rbx: .cfa -56 + ^
STACK CFI 6657b .cfa: $rsp 8 +
STACK CFI 66580 .cfa: $rbp 16 +
STACK CFI 665f4 .cfa: $rsp 8 +
STACK CFI 665f5 .cfa: $rbp 16 +
STACK CFI INIT 66640 287 .cfa: $rsp 8 + .ra: .cfa -8 + ^
STACK CFI 66641 $rbp: .cfa -16 + ^ .cfa: $rsp 16 +
STACK CFI 66644 .cfa: $rbp 16 +
STACK CFI 66646 $r15: .cfa -24 + ^
STACK CFI 6664b $r14: .cfa -32 + ^
STACK CFI 66650 $r13: .cfa -40 + ^
STACK CFI 66655 $r12: .cfa -48 + ^
STACK CFI 66659 $rbx: .cfa -56 + ^
STACK CFI 66819 .cfa: $rsp 8 +
STACK CFI 66820 .cfa: $rbp 16 +
STACK CFI INIT 668d0 f8 .cfa: $rsp 8 + .ra: .cfa -8 + ^
STACK CFI 668d1 $rbp: .cfa -16 + ^ .cfa: $rsp 16 +
STACK CFI 668d4 .cfa: $rbp 16 +
STACK CFI 668d8 $r12: .cfa -32 + ^ $r13: .cfa -24 + ^
STACK CFI 6697d .cfa: $rsp 8 +
STACK CFI 66980 .cfa: $rbp 16 +
STACK CFI INIT 669d0 1a4 .cfa: $rsp 8 + .ra: .cfa -8 + ^
STACK CFI 669d1 $rbp: .cfa -16 + ^ .cfa: $rsp 16 +
STACK CFI 669d4 .cfa: $rbp 16 +
STACK CFI 669d8 $r14: .cfa -32 + ^ $r15: .cfa -24 + ^
STACK CFI 669dd $r13: .cfa -40 + ^
STACK CFI 669e2 $r12: .cfa -48 + ^
STACK CFI 669e9 $rbx: .cfa -56 + ^
STACK CFI 66b21 .cfa: $rsp 8 +
STACK CFI 66b28 .cfa: $rbp 16 +
STACK CFI 66b5f .cfa: $rsp 8 +
STACK CFI 66b60 .cfa: $rbp 16 +
STACK CFI INIT 66b80 a73 .cfa: $rsp 8 + .ra: .cfa -8 + ^
STACK CFI 66b81 $rbp: .cfa -16 + ^ .cfa: $rsp 16 +
STACK CFI 66b84 .cfa: $rbp 16 +
STACK CFI 66b8b $r12: .cfa -40 + ^ $r13: .cfa -32 + ^ $r14: .cfa -24 + ^ $rbx: .cfa -48 + ^
STACK CFI 66bb6 .cfa: $rsp 8 +
STACK CFI 66bc0 .cfa: $rbp 16 +
STACK CFI 66db5 .cfa: $rsp 8 +
STACK CFI 66db6 .cfa: $rbp 16 +
STACK CFI INIT 67600 36b .cfa: $rsp 8 + .ra: .cfa -8 + ^
STACK CFI 67601 $rbp: .cfa -16 + ^ .cfa: $rsp 16 +
STACK CFI 67604 .cfa: $rbp 16 +
STACK CFI 67611 $r12: .cfa -48 + ^ $r13: .cfa -40 + ^ $r14: .cfa -32 + ^ $r15: .cfa -24 + ^ $rbx: .cfa -56 + ^
STACK CFI 67856 .cfa: $rsp 8 +
STACK CFI 67860 .cfa: $rbp 16 +
STACK CFI INIT 67970 a .cfa: $rsp 8 + .ra: .cfa -8 + ^
STACK CFI INIT 67980 49 .cfa: $rsp 8 + .ra: .cfa -8 + ^
STACK CFI 67987 $rbp: .cfa -16 + ^ .cfa: $rsp 16 +
STACK CFI 6798c .cfa: $rbp 16 +
STACK CFI 6798e $r13: .cfa -24 + ^
STACK CFI 67998 $r12: .cfa -32 + ^
STACK CFI 679c0 .cfa: $rsp 8 +
STACK CFI 679c8 $r12: $r12 $r13: $r13 $rbp: $rbp
STACK CFI INIT 679d0 a7 .cfa: $rsp 8 + .ra: .cfa -8 + ^
STACK CFI 679da $rbp: .cfa -16 + ^ .cfa: $rsp 16 +
STACK CFI 679dd .cfa: $rbp 16 +
STACK CFI 679e3 $r12: .cfa -40 + ^ $r13: .cfa -32 + ^ $r14: .cfa -24 + ^
STACK CFI 67a0f $r12: $r12
STACK CFI 67a11 $r13: $r13
STACK CFI 67a13 $r14: $r14
STACK CFI 67a14 $rbp: $rbp .cfa: $rsp 8 +
STACK CFI 67a20 $r12: .cfa -40 + ^ $r13: .cfa -32 + ^ $r14: .cfa -24 + ^ $rbp: .cfa -16 + ^ .cfa: $rbp 16 +
STACK CFI 67a70 .cfa: $rsp 8 +
STACK CFI 67a71 $r12: $r12 $r13: $r13 $r14: $r14 $rbp: $rbp
STACK CFI INIT 67a80 890 .cfa: $rsp 8 + .ra: .cfa -8 + ^
STACK CFI 67a8a $rbp: .cfa -16 + ^ .cfa: $rsp 16 +
STACK CFI 67a8d .cfa: $rbp 16 +
STACK CFI 67a96 $r12: .cfa -48 + ^ $r13: .cfa -40 + ^ $r14: .cfa -32 + ^ $r15: .cfa -24 + ^ $rbx: .cfa -56 + ^
STACK CFI 67b11 .cfa: $rsp 8 +
STACK CFI 67b18 .cfa: $rbp 16 +
STACK CFI 681d3 $r12: $r12 $r13: $r13 $r14: $r14 $r15: $r15 $rbp: $rbp $rbx: $rbx .cfa: $rsp 8 +
STACK CFI 681dd $r12: .cfa -48 + ^ $r13: .cfa -40 + ^ $r14: .cfa -32 + ^ $r15: .cfa -24 + ^ $rbp: .cfa -16 + ^ $rbx: .cfa -56 + ^ .cfa: $rbp 16 +
STACK CFI INIT 68310 8b8 .cfa: $rsp 8 + .ra: .cfa -8 + ^
STACK CFI 6831a $rbp: .cfa -16 + ^ .cfa: $rsp 16 +
STACK CFI 6831d .cfa: $rbp 16 +
STACK CFI 68326 $r12: .cfa -48 + ^ $r13: .cfa -40 + ^ $r14: .cfa -32 + ^ $r15: .cfa -24 + ^ $rbx: .cfa -56 + ^
STACK CFI 683f2 .cfa: $rsp 8 +
STACK CFI 683f8 .cfa: $rbp 16 +
STACK CFI 68802 .cfa: $rsp 8 +
STACK CFI 68808 .cfa: $rbp 16 +
STACK CFI 6881d .cfa: $rsp 8 +
STACK CFI 68820 .cfa: $rbp 16 +
STACK CFI 68b1e $r12: $r12 $r13: $r13 $r14: $r14 $r15: $r15 $rbp: $rbp $rbx: $rbx .cfa: $rsp 8 +
STACK CFI 68b24 $r12: .cfa -48 + ^ $r13: .cfa -40 + ^ $r14: .cfa -32 + ^ $r15: .cfa -24 + ^ $rbp: .cfa -16 + ^ $rbx: .cfa -56 + ^ .cfa: $rbp 16 +
STACK CFI INIT 68bd0 56 .cfa: $rsp 8 + .ra: .cfa -8 + ^
STACK CFI INIT 68c30 9a8 .cfa: $rsp 8 + .ra: .cfa -8 + ^
STACK CFI 68c31 $rbp: .cfa -16 + ^ .cfa: $rsp 16 +
STACK CFI 68c34 .cfa: $rbp 16 +
STACK CFI 68c41 $r12: .cfa -48 + ^ $r13: .cfa -40 + ^ $r14: .cfa -32 + ^ $r15: .cfa -24 + ^ $rbx: .cfa -56 + ^
STACK CFI 68f6f .cfa: $rsp 8 +
STACK CFI 68f70 .cfa: $rbp 16 +
STACK CFI 69440 .cfa: $rsp 8 +
STACK CFI 69448 .cfa: $rbp 16 +
STACK CFI 6945d .cfa: $rsp 8 +
STACK CFI 69460 .cfa: $rbp 16 +
STACK CFI INIT 695e0 10e .cfa: $rsp 8 + .ra: .cfa -8 + ^
STACK CFI 695ea $rbp: .cfa -16 + ^ .cfa: $rsp 16 +
STACK CFI 695ed .cfa: $rbp 16 +
STACK CFI 695f2 $r12: .cfa -32 + ^ $r13: .cfa -24 + ^ $rbx: .cfa -40 + ^
STACK CFI 696d3 .cfa: $rsp 8 +
STACK CFI 696d8 .cfa: $rbp 16 +
STACK CFI 696e8 $r12: $r12 $r13: $r13 $rbp: $rbp $rbx: $rbx .cfa: $rsp 8 +
STACK CFI INIT 696f0 1c7 .cfa: $rsp 8 + .ra: .cfa -8 + ^
STACK CFI 696f1 $rbp: .cfa -16 + ^ .cfa: $rsp 16 +
STACK CFI 696f7 .cfa: $rbp 16 +
STACK CFI 696fa $r12: .cfa -24 + ^ $rbx: .cfa -32 + ^
STACK CFI 6989f .cfa: $rsp 8 +
STACK CFI 698a0 .cfa: $rbp 16 +
STACK CFI INIT 698c0 117 .cfa: $rsp 8 + .ra: .cfa -8 + ^
STACK CFI 698c1 $rbp: .cfa -16 + ^ .cfa: $rsp 16 +
STACK CFI 698c4 .cfa: $rbp 16 +
STACK CFI 698cb $r12: .cfa -24 + ^ $rbx: .cfa -32 + ^
STACK CFI 699b7 .cfa: $rsp 8 +
STACK CFI 699c0 .cfa: $rbp 16 +
STACK CFI INIT 699e0 117 .cfa: $rsp 8 + .ra: .cfa -8 + ^
STACK CFI 699e1 $rbp: .cfa -16 + ^ .cfa: $rsp 16 +
STACK CFI 699e4 .cfa: $rbp 16 +
STACK CFI 699e6 $r13: .cfa -24 + ^
STACK CFI 699ec $r12: .cfa -32 + ^ $rbx: .cfa -40 + ^
STACK CFI 69adb .cfa: $rsp 8 +
STACK CFI 69ae0 .cfa: $rbp 16 +
STACK CFI INIT 69b00 60 .cfa: $rsp 8 + .ra: .cfa -8 + ^
STACK CFI 69b01 $rbp: .cfa -16 + ^ .cfa: $rsp 16 +
STACK CFI 69b04 .cfa: $rbp 16 +
STACK CFI 69b07 $r12: .cfa -24 + ^ $rbx: .cfa -32 + ^
STACK CFI 69b32 .cfa: $rsp 8 +
STACK CFI 69b38 .cfa: $rbp 16 +
STACK CFI 69b52 .cfa: $rsp 8 +
STACK CFI 69b58 .cfa: $rbp 16 +
STACK CFI INIT 69b60 40a .cfa: $rsp 8 + .ra: .cfa -8 + ^
STACK CFI 69b73 $rbp: .cfa -16 + ^ .cfa: $rsp 16 +
STACK CFI 69b76 .cfa: $rbp 16 +
STACK CFI 69b7f $r12: .cfa -48 + ^ $r13: .cfa -40 + ^ $r14: .cfa -32 + ^ $r15: .cfa -24 + ^ $rbx: .cfa -56 + ^
STACK CFI 69bf1 .cfa: $rsp 8 +
STACK CFI 69bf8 .cfa: $rbp 16 +
STACK CFI 69c5a .cfa: $rsp 8 +
STACK CFI 69c60 .cfa: $rbp 16 +
STACK CFI 69d0c .cfa: $rsp 8 +
STACK CFI 69d10 .cfa: $rbp 16 +
STACK CFI 69e95 .cfa: $rsp 8 +
STACK CFI 69ea0 .cfa: $rbp 16 +
STACK CFI 69f62 $r12: $r12 $r13: $r13 $r14: $r14 $r15: $r15 $rbp: $rbp $rbx: $rbx .cfa: $rsp 8 +
STACK CFI INIT 69f70 a0 .cfa: $rsp 8 + .ra: .cfa -8 + ^
STACK CFI 69f7a $rbp: .cfa -16 + ^ .cfa: $rsp 16 +
STACK CFI 69f7d .cfa: $rbp 16 +
STACK CFI 69f7e $rbx: .cfa -24 + ^
STACK CFI 69fea $rbx: $rbx
STACK CFI 69feb $rbp: $rbp .cfa: $rsp 8 +
STACK CFI 69ff0 $rbp: .cfa -16 + ^ $rbx: .cfa -24 + ^ .cfa: $rbp 16 +
STACK CFI 6a00b .cfa: $rsp 8 +
STACK CFI 6a00c $rbp: $rbp $rbx: $rbx
STACK CFI INIT 6a010 c .cfa: $rsp 8 + .ra: .cfa -8 + ^
STACK CFI INIT 6a020 31 .cfa: $rsp 8 + .ra: .cfa -8 + ^
STACK CFI INIT 6a060 1f .cfa: $rsp 8 + .ra: .cfa -8 + ^
STACK CFI INIT 6a080 a9 .cfa: $rsp 8 + .ra: .cfa -8 + ^
STACK CFI 6a08a $rbp: .cfa -16 + ^ .cfa: $rsp 16 +
STACK CFI 6a08d .cfa: $rbp 16 +
STACK CFI 6a093 $r12: .cfa -40 + ^ $r13: .cfa -32 + ^ $r14: .cfa -24 + ^
STACK CFI 6a097 $rbx: .cfa -48 + ^
STACK CFI 6a0a1 $rbx: $rbx
STACK CFI 6a0a6 $r12: $r12
STACK CFI 6a0a8 $r13: $r13
STACK CFI 6a0aa $r14: $r14
STACK CFI 6a0ab $rbp: $rbp .cfa: $rsp 8 +
STACK CFI 6a0b0 $r12: .cfa -40 + ^ $r13: .cfa -32 + ^ $r14: .cfa -24 + ^ $rbp: .cfa -16 + ^ $rbx: .cfa -48 + ^ .cfa: $rbp 16 +
STACK CFI 6a114 $rbx: $rbx
STACK CFI 6a119 $r12: $r12
STACK CFI 6a11b $r13: $r13
STACK CFI 6a11d $r14: $r14
STACK CFI 6a11e $rbp: $rbp .cfa: $rsp 8 +
STACK CFI INIT 6a130 10a .cfa: $rsp 8 + .ra: .cfa -8 + ^
STACK CFI 6a131 $rbp: .cfa -16 + ^ .cfa: $rsp 16 +
STACK CFI 6a134 .cfa: $rbp 16 +
STACK CFI 6a13b $r12: .cfa -40 + ^ $r13: .cfa -32 + ^ $r14: .cfa -24 + ^ $rbx: .cfa -48 + ^
STACK CFI 6a1dd .cfa: $rsp 8 +
STACK CFI 6a1e0 .cfa: $rbp 16 +
STACK CFI 6a230 .cfa: $rsp 8 +
STACK CFI 6a231 .cfa: $rbp 16 +
STACK CFI INIT 6a240 29 .cfa: $rsp 8 + .ra: .cfa -8 + ^
STACK CFI INIT 6a270 132 .cfa: $rsp 8 + .ra: .cfa -8 + ^
STACK CFI 6a271 $rbp: .cfa -16 + ^ .cfa: $rsp 16 +
STACK CFI 6a274 .cfa: $rbp 16 +
STACK CFI 6a276 $r14: .cfa -24 + ^
STACK CFI 6a27d $r12: .cfa -40 + ^ $r13: .cfa -32 + ^
STACK CFI 6a281 $rbx: .cfa -48 + ^
STACK CFI 6a2e0 .cfa: $rsp 8 +
STACK CFI 6a2e8 .cfa: $rbp 16 +
STACK CFI 6a338 .cfa: $rsp 8 +
STACK CFI 6a340 .cfa: $rbp 16 +
STACK CFI 6a3a1 .cfa: $rsp 8 +
STACK CFI INIT 6a3b0 9d .cfa: $rsp 8 + .ra: .cfa -8 + ^
STACK CFI INIT 6a450 46 .cfa: $rsp 8 + .ra: .cfa -8 + ^
STACK CFI INIT 6a4a0 1a7 .cfa: $rsp 8 + .ra: .cfa -8 + ^
STACK CFI 6a4bc $rbp: .cfa -16 + ^ .cfa: $rsp 16 +
STACK CFI 6a4bf .cfa: $rbp 16 +
STACK CFI 6a4c2 $r12: .cfa -24 + ^ $rbx: .cfa -32 + ^
STACK CFI 6a5cf .cfa: $rsp 8 +
STACK CFI 6a5d0 .cfa: $rbp 16 +
STACK CFI 6a610 $r12: $r12 $rbp: $rbp $rbx: $rbx .cfa: $rsp 8 +
STACK CFI 6a620 $r12: .cfa -24 + ^ $rbp: .cfa -16 + ^ $rbx: .cfa -32 + ^ .cfa: $rbp 16 +
STACK CFI INIT 6a650 154 .cfa: $rsp 8 + .ra: .cfa -8 + ^
STACK CFI 6a66c $rbp: .cfa -16 + ^ .cfa: $rsp 16 +
STACK CFI 6a66f .cfa: $rbp 16 +
STACK CFI 6a670 $rbx: .cfa -24 + ^
STACK CFI 6a759 .cfa: $rsp 8 +
STACK CFI 6a760 .cfa: $rbp 16 +
STACK CFI 6a790 $rbp: $rbp $rbx: $rbx .cfa: $rsp 8 +
STACK CFI 6a796 $rbp: .cfa -16 + ^ $rbx: .cfa -24 + ^ .cfa: $rbp 16 +
STACK CFI INIT 6a7b0 202b .cfa: $rsp 8 + .ra: .cfa -8 + ^
STACK CFI 6a7b1 $rbp: .cfa -16 + ^ .cfa: $rsp 16 +
STACK CFI 6a7b4 .cfa: $rbp 16 +
STACK CFI 6a7c1 $r12: .cfa -48 + ^ $r13: .cfa -40 + ^ $r14: .cfa -32 + ^ $r15: .cfa -24 + ^ $rbx: .cfa -56 + ^
STACK CFI 6b37c .cfa: $rsp 8 +
STACK CFI 6b380 .cfa: $rbp 16 +
STACK CFI INIT 6c7e0 61 .cfa: $rsp 8 + .ra: .cfa -8 + ^
STACK CFI 6c7e6 $rbp: .cfa -16 + ^ .cfa: $rsp 16 +
STACK CFI 6c7e9 .cfa: $rbp 16 +
STACK CFI 6c7ea $rbx: .cfa -24 + ^
STACK CFI 6c833 .cfa: $rsp 8 +
STACK CFI 6c834 .cfa: $rbp 16 +
STACK CFI 6c83b $rbp: $rbp $rbx: $rbx .cfa: $rsp 8 +
STACK CFI INIT 6c850 f1 .cfa: $rsp 8 + .ra: .cfa -8 + ^
STACK CFI 6c851 $rbp: .cfa -16 + ^ .cfa: $rsp 16 +
STACK CFI 6c854 .cfa: $rbp 16 +
STACK CFI 6c85b $r12: .cfa -40 + ^ $r13: .cfa -32 + ^ $r14: .cfa -24 + ^ $rbx: .cfa -48 + ^
STACK CFI 6c8d4 .cfa: $rsp 8 +
STACK CFI 6c8d8 .cfa: $rbp 16 +
STACK CFI INIT 6c950 2e .cfa: $rsp 8 + .ra: .cfa -8 + ^
STACK CFI INIT 6c980 2dc .cfa: $rsp 8 + .ra: .cfa -8 + ^
STACK CFI 6c997 $rbp: .cfa -16 + ^ .cfa: $rsp 16 +
STACK CFI 6c99a .cfa: $rbp 16 +
STACK CFI 6c99b $rbx: .cfa -24 + ^
STACK CFI 6cbf1 .cfa: $rsp 8 +
STACK CFI 6cbf8 .cfa: $rbp 16 +
STACK CFI 6cc46 $rbp: $rbp $rbx: $rbx .cfa: $rsp 8 +
STACK CFI 6cc4c $rbp: .cfa -16 + ^ $rbx: .cfa -24 + ^ .cfa: $rbp 16 +
STACK CFI INIT 6cc60 2e .cfa: $rsp 8 + .ra: .cfa -8 + ^
STACK CFI INIT 6cc90 25e .cfa: $rsp 8 + .ra: .cfa -8 + ^
STACK CFI 6cc9a $rbp: .cfa -16 + ^ .cfa: $rsp 16 +
STACK CFI 6cc9d .cfa: $rbp 16 +
STACK CFI 6cca6 $r12: .cfa -48 + ^ $r13: .cfa -40 + ^ $r14: .cfa -32 + ^ $r15: .cfa -24 + ^ $rbx: .cfa -56 + ^
STACK CFI 6cdf2 .cfa: $rsp 8 +
STACK CFI 6cdf8 .cfa: $rbp 16 +
STACK CFI 6cee8 $r12: $r12 $r13: $r13 $r14: $r14 $r15: $r15 $rbp: $rbp $rbx: $rbx .cfa: $rsp 8 +
STACK CFI INIT 6cef0 af0 .cfa: $rsp 8 + .ra: .cfa -8 + ^
STACK CFI 6cef1 $rbp: .cfa -16 + ^ .cfa: $rsp 16 +
STACK CFI 6cef8 .cfa: $rbp 16 +
STACK CFI 6cf05 $r12: .cfa -48 + ^ $r13: .cfa -40 + ^ $r14: .cfa -32 + ^ $r15: .cfa -24 + ^ $rbx: .cfa -56 + ^
STACK CFI 6d030 .cfa: $rsp 8 +
STACK CFI 6d031 .cfa: $rbp 16 +
STACK CFI INIT 6d9e0 6 .cfa: $rsp 8 + .ra: .cfa -8 + ^
STACK CFI INIT 6d9f0 6 .cfa: $rsp 8 + .ra: .cfa -8 + ^
STACK CFI INIT 6da00 12 .cfa: $rsp 8 + .ra: .cfa -8 + ^
STACK CFI INIT 6da20 a .cfa: $rsp 8 + .ra: .cfa -8 + ^
STACK CFI INIT 6da30 8 .cfa: $rsp 8 + .ra: .cfa -8 + ^
STACK CFI INIT 6da40 67b .cfa: $rsp 8 + .ra: .cfa -8 + ^
STACK CFI 6da41 $rbp: .cfa -16 + ^ .cfa: $rsp 16 +
STACK CFI 6da51 .cfa: $rbp 16 +
STACK CFI 6da53 $r15: .cfa -24 + ^
STACK CFI 6da5e $r12: .cfa -48 + ^ $r13: .cfa -40 + ^ $r14: .cfa -32 + ^ $rbx: .cfa -56 + ^
STACK CFI 6dc12 .cfa: $rsp 8 +
STACK CFI 6dc13 .cfa: $rbp 16 +
STACK CFI 6ddb7 .cfa: $rsp 8 +
STACK CFI 6ddb8 .cfa: $rbp 16 +
STACK CFI 6ddf2 .cfa: $rsp 8 +
STACK CFI 6ddfa .cfa: $rbp 16 +
STACK CFI 6e0a9 .cfa: $rsp 8 +
STACK CFI 6e0aa .cfa: $rbp 16 +
STACK CFI INIT 6e0c0 d1 .cfa: $rsp 8 + .ra: .cfa -8 + ^
STACK CFI INIT 6e1a0 6 .cfa: $rsp 8 + .ra: .cfa -8 + ^
STACK CFI INIT 6e1b0 475 .cfa: $rsp 8 + .ra: .cfa -8 + ^
STACK CFI 6e1f6 $rbp: .cfa -16 + ^ .cfa: $rsp 16 +
STACK CFI 6e1f9 .cfa: $rbp 16 +
STACK CFI 6e1fa $rbx: .cfa -24 + ^
STACK CFI 6e61b .cfa: $rsp 8 +
STACK CFI 6e620 $rbp: $rbp $rbx: $rbx
STACK CFI INIT 6e630 1fe .cfa: $rsp 8 + .ra: .cfa -8 + ^
STACK CFI 6e63a $rbp: .cfa -16 + ^ .cfa: $rsp 16 +
STACK CFI 6e64d .cfa: $rbp 16 +
STACK CFI 6e7dc .cfa: $rsp 8 +
STACK CFI 6e7dd .cfa: $rbp 16 +
STACK CFI 6e82a $rbp: $rbp .cfa: $rsp 8 +
STACK CFI INIT 6e830 224 .cfa: $rsp 8 + .ra: .cfa -8 + ^
STACK CFI 6e831 $rbp: .cfa -16 + ^ .cfa: $rsp 16 +
STACK CFI 6e839 .cfa: $rbp 16 +
STACK CFI 6e841 $r12: .cfa -48 + ^ $r13: .cfa -40 + ^ $r14: .cfa -32 + ^ $r15: .cfa -24 + ^
STACK CFI 6e845 $rbx: .cfa -56 + ^
STACK CFI 6ea0a .cfa: $rsp 8 +
STACK CFI 6ea0b .cfa: $rbp 16 +
STACK CFI INIT 6ea60 159 .cfa: $rsp 8 + .ra: .cfa -8 + ^
STACK CFI INIT 6ebc0 270 .cfa: $rsp 8 + .ra: .cfa -8 + ^
STACK CFI 6ebc1 $rbp: .cfa -16 + ^ .cfa: $rsp 16 +
STACK CFI 6ebc4 .cfa: $rbp 16 +
STACK CFI 6ebcd $r12: .cfa -48 + ^ $r13: .cfa -40 + ^ $r14: .cfa -32 + ^ $r15: .cfa -24 + ^ $rbx: .cfa -56 + ^
STACK CFI 6eda8 .cfa: $rsp 8 +
STACK CFI 6edb0 .cfa: $rbp 16 +
STACK CFI INIT 6ee30 2f6 .cfa: $rsp 8 + .ra: .cfa -8 + ^
STACK CFI 6ee31 $rbp: .cfa -16 + ^ .cfa: $rsp 16 +
STACK CFI 6ee34 .cfa: $rbp 16 +
STACK CFI 6ee3d $r12: .cfa -48 + ^ $r13: .cfa -40 + ^ $r14: .cfa -32 + ^ $r15: .cfa -24 + ^ $rbx: .cfa -56 + ^
STACK CFI 6f006 .cfa: $rsp 8 +
STACK CFI 6f010 .cfa: $rbp 16 +
STACK CFI 6f078 .cfa: $rsp 8 +
STACK CFI 6f080 .cfa: $rbp 16 +
STACK CFI INIT 6f130 4d8 .cfa: $rsp 8 + .ra: .cfa -8 + ^
STACK CFI 6f131 $rbp: .cfa -16 + ^ .cfa: $rsp 16 +
STACK CFI 6f134 .cfa: $rbp 16 +
STACK CFI 6f13c $r12: .cfa -48 + ^ $r13: .cfa -40 + ^ $r14: .cfa -32 + ^ $r15: .cfa -24 + ^
STACK CFI 6f140 $rbx: .cfa -56 + ^
STACK CFI 6f520 .cfa: $rsp 8 +
STACK CFI 6f528 .cfa: $rbp 16 +
STACK CFI 6f5a6 .cfa: $rsp 8 +
STACK CFI 6f5a7 .cfa: $rbp 16 +
STACK CFI INIT 6f610 65f .cfa: $rsp 8 + .ra: .cfa -8 + ^
STACK CFI 6f611 $rbp: .cfa -16 + ^ .cfa: $rsp 16 +
STACK CFI 6f614 .cfa: $rbp 16 +
STACK CFI 6f61a $r13: .cfa -40 + ^ $r14: .cfa -32 + ^ $r15: .cfa -24 + ^
STACK CFI 6f61f $r12: .cfa -48 + ^
STACK CFI 6f623 $rbx: .cfa -56 + ^
STACK CFI 6f791 .cfa: $rsp 8 +
STACK CFI 6f798 .cfa: $rbp 16 +
STACK CFI 6fc00 .cfa: $rsp 8 +
STACK CFI 6fc01 .cfa: $rbp 16 +
STACK CFI INIT 6fc70 150 .cfa: $rsp 8 + .ra: .cfa -8 + ^
STACK CFI 6fc7a $rbp: .cfa -16 + ^ .cfa: $rsp 16 +
STACK CFI 6fc7d .cfa: $rbp 16 +
STACK CFI 6fc81 $r13: .cfa -32 + ^ $r14: .cfa -24 + ^
STACK CFI 6fc8b $r12: .cfa -40 + ^ $rbx: .cfa -48 + ^
STACK CFI 6fd70 .cfa: $rsp 8 +
STACK CFI 6fd78 .cfa: $rbp 16 +
STACK CFI 6fdba $r12: $r12 $r13: $r13 $r14: $r14 $rbp: $rbp $rbx: $rbx .cfa: $rsp 8 +
STACK CFI INIT 6fdc0 175 .cfa: $rsp 8 + .ra: .cfa -8 + ^
STACK CFI 6fdca $rbp: .cfa -16 + ^ .cfa: $rsp 16 +
STACK CFI 6fdcd .cfa: $rbp 16 +
STACK CFI 6fdcf $r12: .cfa -24 + ^
STACK CFI 6fdd3 $rbx: .cfa -32 + ^
STACK CFI 6fefd .cfa: $rsp 8 +
STACK CFI 6ff00 .cfa: $rbp 16 +
STACK CFI 6ff2f $r12: $r12 $rbp: $rbp $rbx: $rbx .cfa: $rsp 8 +
STACK CFI INIT 6ff40 26 .cfa: $rsp 8 + .ra: .cfa -8 + ^
STACK CFI INIT 6ff70 34 .cfa: $rsp 8 + .ra: .cfa -8 + ^
STACK CFI INIT 6ffb0 30 .cfa: $rsp 8 + .ra: .cfa -8 + ^
STACK CFI INIT 6ffe0 3e .cfa: $rsp 8 + .ra: .cfa -8 + ^
STACK CFI INIT 70020 f36 .cfa: $rsp 8 + .ra: .cfa -8 + ^
STACK CFI 7002a $rbp: .cfa -16 + ^ .cfa: $rsp 16 +
STACK CFI 7002d .cfa: $rbp 16 +
STACK CFI 70035 $r12: .cfa -48 + ^ $r13: .cfa -40 + ^ $r14: .cfa -32 + ^ $r15: .cfa -24 + ^
STACK CFI 7003d $rbx: .cfa -56 + ^
STACK CFI 702bd .cfa: $rsp 8 +
STACK CFI 702c0 .cfa: $rbp 16 +
STACK CFI 70339 .cfa: $rsp 8 +
STACK CFI 70340 .cfa: $rbp 16 +
STACK CFI 70f50 $r12: $r12 $r13: $r13 $r14: $r14 $r15: $r15 $rbp: $rbp $rbx: $rbx .cfa: $rsp 8 +
STACK CFI INIT 70f60 115 .cfa: $rsp 8 + .ra: .cfa -8 + ^
STACK CFI 70f6a $rbp: .cfa -16 + ^ .cfa: $rsp 16 +
STACK CFI 70f6d .cfa: $rbp 16 +
STACK CFI 70f73 $r12: .cfa -40 + ^ $r13: .cfa -32 + ^ $r14: .cfa -24 + ^
STACK CFI 70f78 $rbx: .cfa -48 + ^
STACK CFI 71038 .cfa: $rsp 8 +
STACK CFI 71040 .cfa: $rbp 16 +
STACK CFI 7106f $r12: $r12 $r13: $r13 $r14: $r14 $rbp: $rbp $rbx: $rbx .cfa: $rsp 8 +
STACK CFI INIT 71080 fc .cfa: $rsp 8 + .ra: .cfa -8 + ^
STACK CFI 7108a $rbp: .cfa -16 + ^ .cfa: $rsp 16 +
STACK CFI 7108d .cfa: $rbp 16 +
STACK CFI 71090 $r12: .cfa -24 + ^ $rbx: .cfa -32 + ^
STACK CFI 71150 .cfa: $rsp 8 +
STACK CFI 71158 .cfa: $rbp 16 +
STACK CFI 71175 .cfa: $rsp 8 +
STACK CFI 71176 $r12: $r12 $rbp: $rbp $rbx: $rbx
STACK CFI INIT 71180 2d9 .cfa: $rsp 8 + .ra: .cfa -8 + ^
STACK CFI 71181 $rbp: .cfa -16 + ^ .cfa: $rsp 16 +
STACK CFI 71184 .cfa: $rbp 16 +
STACK CFI 71186 $r15: .cfa -24 + ^
STACK CFI 71194 $r12: .cfa -48 + ^ $r13: .cfa -40 + ^ $r14: .cfa -32 + ^ $rbx: .cfa -56 + ^
STACK CFI 713b4 .cfa: $rsp 8 +
STACK CFI 713c0 .cfa: $rbp 16 +
STACK CFI 71423 .cfa: $rsp 8 +
STACK CFI 71428 .cfa: $rbp 16 +
STACK CFI INIT 71460 239 .cfa: $rsp 8 + .ra: .cfa -8 + ^
STACK CFI 7147c $rbp: .cfa -16 + ^ .cfa: $rsp 16 +
STACK CFI 7147f .cfa: $rbp 16 +
STACK CFI 71483 $r12: .cfa -32 + ^ $r13: .cfa -24 + ^
STACK CFI 7148b $rbx: .cfa -40 + ^
STACK CFI 715fe $rbx: $rbx
STACK CFI 71600 $r12: $r12
STACK CFI 71602 $r13: $r13
STACK CFI 71603 $rbp: $rbp .cfa: $rsp 8 +
STACK CFI 71610 $r12: .cfa -32 + ^ $r13: .cfa -24 + ^ $rbp: .cfa -16 + ^ $rbx: .cfa -40 + ^ .cfa: $rbp 16 +
STACK CFI 71650 $r12: $r12 $r13: $r13 $rbp: $rbp $rbx: $rbx .cfa: $rsp 8 +
STACK CFI 71660 $r12: .cfa -32 + ^ $r13: .cfa -24 + ^ $rbp: .cfa -16 + ^ $rbx: .cfa -40 + ^ .cfa: $rbp 16 +
STACK CFI 7166f .cfa: $rsp 8 +
STACK CFI 71670 .cfa: $rbp 16 +
STACK CFI INIT 716a0 224 .cfa: $rsp 8 + .ra: .cfa -8 + ^
STACK CFI 716aa $rbp: .cfa -16 + ^ .cfa: $rsp 16 +
STACK CFI 716ad .cfa: $rbp 16 +
STACK CFI 716b3 $r12: .cfa -40 + ^ $r13: .cfa -32 + ^ $r14: .cfa -24 + ^
STACK CFI 716b7 $rbx: .cfa -48 + ^
STACK CFI 7189f .cfa: $rsp 8 +
STACK CFI 718a0 .cfa: $rbp 16 +
STACK CFI 718be $r12: $r12 $r13: $r13 $r14: $r14 $rbp: $rbp $rbx: $rbx .cfa: $rsp 8 +
STACK CFI INIT 718d0 dfa .cfa: $rsp 8 + .ra: .cfa -8 + ^
STACK CFI 718d1 $rbp: .cfa -16 + ^ .cfa: $rsp 16 +
STACK CFI 718dc .cfa: $rbp 16 +
STACK CFI 718e0 $r14: .cfa -32 + ^ $r15: .cfa -24 + ^
STACK CFI 718ec $r12: .cfa -48 + ^ $r13: .cfa -40 + ^ $rbx: .cfa -56 + ^
STACK CFI 71b31 .cfa: $rsp 8 +
STACK CFI 71b38 .cfa: $rbp 16 +
STACK CFI INIT 726d0 115 .cfa: $rsp 8 + .ra: .cfa -8 + ^
STACK CFI INIT 727f0 6c6 .cfa: $rsp 8 + .ra: .cfa -8 + ^
STACK CFI 727f1 $rbp: .cfa -16 + ^ .cfa: $rsp 16 +
STACK CFI 727f4 .cfa: $rbp 16 +
STACK CFI 727fd $r12: .cfa -48 + ^ $r13: .cfa -40 + ^ $r14: .cfa -32 + ^ $r15: .cfa -24 + ^ $rbx: .cfa -56 + ^
STACK CFI 72b5c .cfa: $rsp 8 +
STACK CFI 72b60 .cfa: $rbp 16 +
STACK CFI INIT 72ec0 478 .cfa: $rsp 8 + .ra: .cfa -8 + ^
STACK CFI 72ecd $rbp: .cfa -16 + ^ .cfa: $rsp 16 +
STACK CFI 72ed8 .cfa: $rbp 16 +
STACK CFI 72ee1 $r12: .cfa -48 + ^ $r13: .cfa -40 + ^ $r14: .cfa -32 + ^ $r15: .cfa -24 + ^ $rbx: .cfa -56 + ^
STACK CFI 7329a .cfa: $rsp 8 +
STACK CFI 732a0 .cfa: $rbp 16 +
STACK CFI INIT 73340 f1 .cfa: $rsp 8 + .ra: .cfa -8 + ^
STACK CFI 73341 $rbp: .cfa -16 + ^ .cfa: $rsp 16 +
STACK CFI 73344 .cfa: $rbp 16 +
STACK CFI 7334d $r12: .cfa -48 + ^ $r13: .cfa -40 + ^ $r14: .cfa -32 + ^ $r15: .cfa -24 + ^ $rbx: .cfa -56 + ^
STACK CFI 73401 .cfa: $rsp 8 +
STACK CFI 73408 .cfa: $rbp 16 +
STACK CFI INIT 73440 997 .cfa: $rsp 8 + .ra: .cfa -8 + ^
STACK CFI 73441 $rbp: .cfa -16 + ^ .cfa: $rsp 16 +
STACK CFI 73444 .cfa: $rbp 16 +
STACK CFI 7344d $r12: .cfa -48 + ^ $r13: .cfa -40 + ^ $r14: .cfa -32 + ^ $r15: .cfa -24 + ^ $rbx: .cfa -56 + ^
STACK CFI 73bb3 .cfa: $rsp 8 +
STACK CFI 73bb8 .cfa: $rbp 16 +
STACK CFI INIT 73de0 f3 .cfa: $rsp 8 + .ra: .cfa -8 + ^
STACK CFI INIT 73ee0 19e .cfa: $rsp 8 + .ra: .cfa -8 + ^
STACK CFI INIT 74080 2d6 .cfa: $rsp 8 + .ra: .cfa -8 + ^
STACK CFI INIT 74360 821 .cfa: $rsp 8 + .ra: .cfa -8 + ^
STACK CFI 74361 $rbp: .cfa -16 + ^ .cfa: $rsp 16 +
STACK CFI 74367 .cfa: $rbp 16 +
STACK CFI 74369 $r15: .cfa -24 + ^
STACK CFI 7436e $r14: .cfa -32 + ^
STACK CFI 74377 $r13: .cfa -40 + ^
STACK CFI 74381 $r12: .cfa -48 + ^ $rbx: .cfa -56 + ^
STACK CFI 749d1 .cfa: $rsp 8 +
STACK CFI 749d2 .cfa: $rbp 16 +
STACK CFI 74a35 .cfa: $rsp 8 +
STACK CFI 74a36 .cfa: $rbp 16 +
STACK CFI INIT 74b90 ab .cfa: $rsp 8 + .ra: .cfa -8 + ^
STACK CFI INIT 74c40 bf .cfa: $rsp 8 + .ra: .cfa -8 + ^
STACK CFI 74c41 $rbp: .cfa -16 + ^ .cfa: $rsp 16 +
STACK CFI 74c44 .cfa: $rbp 16 +
STACK CFI 74c47 $r12: .cfa -24 + ^ $rbx: .cfa -32 + ^
STACK CFI 74c9e .cfa: $rsp 8 +
STACK CFI 74ca0 .cfa: $rbp 16 +
STACK CFI 74cd5 .cfa: $rsp 8 +
STACK CFI 74ce0 .cfa: $rbp 16 +
STACK CFI 74cfe .cfa: $rsp 8 +
STACK CFI INIT 74d00 bf .cfa: $rsp 8 + .ra: .cfa -8 + ^
STACK CFI 74d01 $rbp: .cfa -16 + ^ .cfa: $rsp 16 +
STACK CFI 74d04 .cfa: $rbp 16 +
STACK CFI 74d0b $r12: .cfa -24 + ^ $rbx: .cfa -32 + ^
STACK CFI 74d60 .cfa: $rsp 8 +
STACK CFI 74d68 .cfa: $rbp 16 +
STACK CFI 74d9d .cfa: $rsp 8 +
STACK CFI 74da0 .cfa: $rbp 16 +
STACK CFI 74dbe .cfa: $rsp 8 +
STACK CFI INIT 74dc0 14 .cfa: $rsp 8 + .ra: .cfa -8 + ^
STACK CFI INIT 74de0 79 .cfa: $rsp 8 + .ra: .cfa -8 + ^
STACK CFI 74de2 $r13: .cfa -16 + ^ .cfa: $rsp 16 +
STACK CFI 74de7 $r12: .cfa -24 + ^ .cfa: $rsp 24 +
STACK CFI 74de8 $rbp: .cfa -32 + ^ .cfa: $rsp 32 +
STACK CFI 74dec $rbx: .cfa -40 + ^ .cfa: $rsp 40 +
STACK CFI 74df3 .cfa: $rsp 48 +
STACK CFI 74e36 .cfa: $rsp 40 +
STACK CFI 74e3a .cfa: $rsp 32 +
STACK CFI 74e3b .cfa: $rsp 24 +
STACK CFI 74e3d .cfa: $rsp 16 +
STACK CFI 74e3f .cfa: $rsp 8 +
STACK CFI 74e40 .cfa: $rsp 48 +
STACK CFI INIT 74e60 b .cfa: $rsp 8 + .ra: .cfa -8 + ^
STACK CFI INIT 74e70 f .cfa: $rsp 8 + .ra: .cfa -8 + ^
STACK CFI INIT 74e80 1d .cfa: $rsp 8 + .ra: .cfa -8 + ^
STACK CFI 74e81 $rbp: .cfa -16 + ^ .cfa: $rsp 16 +
STACK CFI 74e9b .cfa: $rsp 8 +
STACK CFI INIT 74ea0 99 .cfa: $rsp 8 + .ra: .cfa -8 + ^
STACK CFI 74ea2 $r14: .cfa -16 + ^ .cfa: $rsp 16 +
STACK CFI 74ea4 $r13: .cfa -24 + ^ .cfa: $rsp 24 +
STACK CFI 74ea6 $r12: .cfa -32 + ^ .cfa: $rsp 32 +
STACK CFI 74eaa $rbp: .cfa -40 + ^ .cfa: $rsp 40 +
STACK CFI 74eab $rbx: .cfa -48 + ^ .cfa: $rsp 48 +
STACK CFI 74ee6 .cfa: $rsp 40 +
STACK CFI 74eea .cfa: $rsp 32 +
STACK CFI 74eec .cfa: $rsp 24 +
STACK CFI 74eee .cfa: $rsp 16 +
STACK CFI 74ef0 .cfa: $rsp 8 +
STACK CFI 74ef8 .cfa: $rsp 48 +
STACK CFI INIT 74f40 ad .cfa: $rsp 8 + .ra: .cfa -8 + ^
STACK CFI 74f42 $r15: .cfa -16 + ^ .cfa: $rsp 16 +
STACK CFI 74f44 $r14: .cfa -24 + ^ .cfa: $rsp 24 +
STACK CFI 74f46 $r13: .cfa -32 + ^ .cfa: $rsp 32 +
STACK CFI 74f48 $r12: .cfa -40 + ^ .cfa: $rsp 40 +
STACK CFI 74f4c $rbp: .cfa -48 + ^ .cfa: $rsp 48 +
STACK CFI 74f4d $rbx: .cfa -56 + ^ .cfa: $rsp 56 +
STACK CFI 74f51 .cfa: $rsp 64 +
STACK CFI 74fa0 .cfa: $rsp 56 +
STACK CFI 74fa4 .cfa: $rsp 48 +
STACK CFI 74fa5 .cfa: $rsp 40 +
STACK CFI 74fa7 .cfa: $rsp 32 +
STACK CFI 74fa9 .cfa: $rsp 24 +
STACK CFI 74fab .cfa: $rsp 16 +
STACK CFI 74fad .cfa: $rsp 8 +
STACK CFI 74fb0 .cfa: $rsp 64 +
STACK CFI INIT 74ff0 c .cfa: $rsp 8 + .ra: .cfa -8 + ^
STACK CFI INIT 75000 5 .cfa: $rsp 8 + .ra: .cfa -8 + ^
STACK CFI INIT 75010 3e .cfa: $rsp 8 + .ra: .cfa -8 + ^
STACK CFI 75012 $r12: .cfa -16 + ^ .cfa: $rsp 16 +
STACK CFI 7502e .cfa: $rsp 8 +
STACK CFI 7502f .cfa: $rsp 16 +
STACK CFI INIT 75050 b .cfa: $rsp 8 + .ra: .cfa -8 + ^
STACK CFI INIT 75060 8a .cfa: $rsp 8 + .ra: .cfa -8 + ^
STACK CFI 75062 $r13: .cfa -16 + ^ .cfa: $rsp 16 +
STACK CFI 75064 $r12: .cfa -24 + ^ .cfa: $rsp 24 +
STACK CFI 75065 $rbp: .cfa -32 + ^ .cfa: $rsp 32 +
STACK CFI 75068 $rbx: .cfa -40 + ^ .cfa: $rsp 40 +
STACK CFI 7506f .cfa: $rsp 48 +
STACK CFI 750c7 .cfa: $rsp 40 +
STACK CFI 750cb .cfa: $rsp 32 +
STACK CFI 750cc .cfa: $rsp 24 +
STACK CFI 750ce .cfa: $rsp 16 +
STACK CFI 750d0 .cfa: $rsp 8 +
STACK CFI 750d1 .cfa: $rsp 48 +
STACK CFI 750dd .cfa: $rsp 40 +
STACK CFI 750e1 .cfa: $rsp 32 +
STACK CFI 750e5 .cfa: $rsp 24 +
STACK CFI 750e7 .cfa: $rsp 16 +
STACK CFI 750e9 .cfa: $rsp 8 +
STACK CFI INIT 750f0 23 .cfa: $rsp 8 + .ra: .cfa -8 + ^
STACK CFI INIT 75120 d7 .cfa: $rsp 8 + .ra: .cfa -8 + ^
STACK CFI 75122 $r14: .cfa -16 + ^ .cfa: $rsp 16 +
STACK CFI 75124 $r13: .cfa -24 + ^ .cfa: $rsp 24 +
STACK CFI 75126 $r12: .cfa -32 + ^ .cfa: $rsp 32 +
STACK CFI 75127 $rbp: .cfa -40 + ^ .cfa: $rsp 40 +
STACK CFI 7512b $rbx: .cfa -48 + ^ .cfa: $rsp 48 +
STACK CFI 75152 .cfa: $rsp 40 +
STACK CFI 75153 .cfa: $rsp 32 +
STACK CFI 75155 .cfa: $rsp 24 +
STACK CFI 75157 .cfa: $rsp 16 +
STACK CFI 75159 .cfa: $rsp 8 +
STACK CFI 75160 .cfa: $rsp 48 +
STACK CFI INIT 75200 4 .cfa: $rsp 8 + .ra: .cfa -8 + ^
STACK CFI INIT 75210 4 .cfa: $rsp 8 + .ra: .cfa -8 + ^
STACK CFI INIT 75220 4 .cfa: $rsp 8 + .ra: .cfa -8 + ^
STACK CFI INIT 75230 1d .cfa: $rsp 8 + .ra: .cfa -8 + ^
STACK CFI INIT 75250 21 .cfa: $rsp 8 + .ra: .cfa -8 + ^
STACK CFI 75256 $rbp: .cfa -16 + ^ .cfa: $rsp 16 +
STACK CFI 7526a $rbp: $rbp .cfa: $rsp 8 +
STACK CFI INIT 75280 23 .cfa: $rsp 8 + .ra: .cfa -8 + ^
STACK CFI INIT 752b0 5 .cfa: $rsp 8 + .ra: .cfa -8 + ^
STACK CFI INIT 752c0 9 .cfa: $rsp 8 + .ra: .cfa -8 + ^
STACK CFI INIT 752d0 17 .cfa: $rsp 8 + .ra: .cfa -8 + ^
STACK CFI 752d4 .cfa: $rsp 16 +
STACK CFI 752e3 .cfa: $rsp 8 +
STACK CFI INIT 752f0 c8 .cfa: $rsp 8 + .ra: .cfa -8 + ^
STACK CFI 752f2 $r15: .cfa -16 + ^ .cfa: $rsp 16 +
STACK CFI 752f4 $r14: .cfa -24 + ^ .cfa: $rsp 24 +
STACK CFI 752f6 $r13: .cfa -32 + ^ .cfa: $rsp 32 +
STACK CFI 752f8 $r12: .cfa -40 + ^ .cfa: $rsp 40 +
STACK CFI 752f9 $rbp: .cfa -48 + ^ .cfa: $rsp 48 +
STACK CFI 752fa $rbx: .cfa -56 + ^ .cfa: $rsp 56 +
STACK CFI 752fe .cfa: $rsp 64 +
STACK CFI 75384 .cfa: $rsp 56 +
STACK CFI 75385 .cfa: $rsp 48 +
STACK CFI 75386 .cfa: $rsp 40 +
STACK CFI 75388 .cfa: $rsp 32 +
STACK CFI 7538a .cfa: $rsp 24 +
STACK CFI 7538c .cfa: $rsp 16 +
STACK CFI 7538e .cfa: $rsp 8 +
STACK CFI 75390 .cfa: $rsp 64 +
STACK CFI INIT 753c0 e .cfa: $rsp 8 + .ra: .cfa -8 + ^
STACK CFI INIT 753d0 63 .cfa: $rsp 8 + .ra: .cfa -8 + ^
STACK CFI 753d2 $r12: .cfa -16 + ^ .cfa: $rsp 16 +
STACK CFI 753d3 $rbp: .cfa -24 + ^ .cfa: $rsp 24 +
STACK CFI 753d7 $rbx: .cfa -32 + ^ .cfa: $rsp 32 +
STACK CFI 753e5 .cfa: $rsp 24 +
STACK CFI 753e6 .cfa: $rsp 16 +
STACK CFI 753e8 .cfa: $rsp 8 +
STACK CFI 753f0 .cfa: $rsp 32 +
STACK CFI 7542f .cfa: $rsp 24 +
STACK CFI 75430 .cfa: $rsp 16 +
STACK CFI 75432 .cfa: $rsp 8 +
STACK CFI INIT 75440 8e .cfa: $rsp 8 + .ra: .cfa -8 + ^
STACK CFI 75442 $r13: .cfa -16 + ^ .cfa: $rsp 16 +
STACK CFI 75444 $r12: .cfa -24 + ^ .cfa: $rsp 24 +
STACK CFI 75445 $rbp: .cfa -32 + ^ .cfa: $rsp 32 +
STACK CFI 75449 $rbx: .cfa -40 + ^ .cfa: $rsp 40 +
STACK CFI 75450 .cfa: $rsp 48 +
STACK CFI 7547b .cfa: $rsp 40 +
STACK CFI 7547c .cfa: $rsp 32 +
STACK CFI 7547d .cfa: $rsp 24 +
STACK CFI 7547f .cfa: $rsp 16 +
STACK CFI 75481 .cfa: $rsp 8 +
STACK CFI 75488 .cfa: $rsp 48 +
STACK CFI INIT 754d0 44 .cfa: $rsp 8 + .ra: .cfa -8 + ^
STACK CFI 754d1 $rbp: .cfa -16 + ^ .cfa: $rsp 16 +
STACK CFI 754d5 $rbx: .cfa -24 + ^ .cfa: $rsp 24 +
STACK CFI 754dc .cfa: $rsp 32 +
STACK CFI 754f2 .cfa: $rsp 24 +
STACK CFI 754f3 .cfa: $rsp 16 +
STACK CFI 754f4 .cfa: $rsp 8 +
STACK CFI 754f5 .cfa: $rsp 32 +
STACK CFI INIT 75520 46 .cfa: $rsp 8 + .ra: .cfa -8 + ^
STACK CFI 75521 $rbp: .cfa -16 + ^ .cfa: $rsp 16 +
STACK CFI 75525 $rbx: .cfa -24 + ^ .cfa: $rsp 24 +
STACK CFI 7552b .cfa: $rsp 32 +
STACK CFI 75563 .cfa: $rsp 24 +
STACK CFI 75564 .cfa: $rsp 16 +
STACK CFI 75565 .cfa: $rsp 8 +
STACK CFI INIT 75570 c .cfa: $rsp 8 + .ra: .cfa -8 + ^
STACK CFI INIT 75580 42 .cfa: $rsp 8 + .ra: .cfa -8 + ^
STACK CFI 75582 $r12: .cfa -16 + ^ .cfa: $rsp 16 +
STACK CFI 75586 $rbp: .cfa -24 + ^ .cfa: $rsp 24 +
STACK CFI 7558a $rbx: .cfa -32 + ^ .cfa: $rsp 32 +
STACK CFI 755af .cfa: $rsp 24 +
STACK CFI 755b2 .cfa: $rsp 16 +
STACK CFI 755b4 .cfa: $rsp 8 +
STACK CFI 755b8 .cfa: $rsp 32 +
STACK CFI 755b9 .cfa: $rsp 24 +
STACK CFI 755bf .cfa: $rsp 16 +
STACK CFI 755c1 .cfa: $rsp 8 +
STACK CFI INIT 755d0 43 .cfa: $rsp 8 + .ra: .cfa -8 + ^
STACK CFI 755d2 $r12: .cfa -16 + ^ .cfa: $rsp 16 +
STACK CFI 755d6 $rbp: .cfa -24 + ^ .cfa: $rsp 24 +
STACK CFI 755da $rbx: .cfa -32 + ^ .cfa: $rsp 32 +
STACK CFI 755f0 .cfa: $rsp 24 +
STACK CFI 755f1 .cfa: $rsp 16 +
STACK CFI 755f3 .cfa: $rsp 8 +
STACK CFI 755f4 .cfa: $rsp 32 +
STACK CFI INIT 75620 c9 .cfa: $rsp 8 + .ra: .cfa -8 + ^
STACK CFI 75622 $r13: .cfa -16 + ^ .cfa: $rsp 16 +
STACK CFI 75624 $r12: .cfa -24 + ^ .cfa: $rsp 24 +
STACK CFI 75625 $rbp: .cfa -32 + ^ .cfa: $rsp 32 +
STACK CFI 75629 $rbx: .cfa -40 + ^ .cfa: $rsp 40 +
STACK CFI 75630 .cfa: $rsp 48 +
STACK CFI 75689 .cfa: $rsp 40 +
STACK CFI 75690 .cfa: $rsp 32 +
STACK CFI 75691 .cfa: $rsp 24 +
STACK CFI 75693 .cfa: $rsp 16 +
STACK CFI 75695 .cfa: $rsp 8 +
STACK CFI 756a0 .cfa: $rsp 48 +
STACK CFI 756a4 .cfa: $rsp 40 +
STACK CFI 756a5 .cfa: $rsp 32 +
STACK CFI 756a6 .cfa: $rsp 24 +
STACK CFI 756a8 .cfa: $rsp 16 +
STACK CFI 756aa .cfa: $rsp 8 +
STACK CFI 756ab .cfa: $rsp 48 +
STACK CFI INIT 756f0 59 .cfa: $rsp 8 + .ra: .cfa -8 + ^
STACK CFI 756f1 $rbx: .cfa -16 + ^ .cfa: $rsp 16 +
STACK CFI 75720 .cfa: $rsp 8 +
STACK CFI 75728 .cfa: $rsp 16 +
STACK CFI 75729 .cfa: $rsp 8 +
STACK CFI 7572a .cfa: $rsp 16 +
STACK CFI INIT 75750 51 .cfa: $rsp 8 + .ra: .cfa -8 + ^
STACK CFI 75757 $r12: .cfa -16 + ^ .cfa: $rsp 16 +
STACK CFI 75758 $rbp: .cfa -24 + ^ .cfa: $rsp 24 +
STACK CFI 7575c $rbx: .cfa -32 + ^ .cfa: $rsp 32 +
STACK CFI 7579b $rbx: $rbx .cfa: $rsp 24 +
STACK CFI 7579c $rbp: $rbp .cfa: $rsp 16 +
STACK CFI 7579e $r12: $r12 .cfa: $rsp 8 +
STACK CFI INIT 757b0 f1 .cfa: $rsp 8 + .ra: .cfa -8 + ^
STACK CFI 757b2 $r13: .cfa -16 + ^ .cfa: $rsp 16 +
STACK CFI 757b7 $r12: .cfa -24 + ^ .cfa: $rsp 24 +
STACK CFI 757bb $rbp: .cfa -32 + ^ .cfa: $rsp 32 +
STACK CFI 757bf $rbx: .cfa -40 + ^ .cfa: $rsp 40 +
STACK CFI 757c3 .cfa: $rsp 48 +
STACK CFI 75814 .cfa: $rsp 40 +
STACK CFI 75815 .cfa: $rsp 32 +
STACK CFI 75816 .cfa: $rsp 24 +
STACK CFI 75818 .cfa: $rsp 16 +
STACK CFI 7581a .cfa: $rsp 8 +
STACK CFI 75820 .cfa: $rsp 48 +
STACK CFI 7589a .cfa: $rsp 40 +
STACK CFI 7589b .cfa: $rsp 32 +
STACK CFI 7589c .cfa: $rsp 24 +
STACK CFI 7589e .cfa: $rsp 16 +
STACK CFI 758a0 .cfa: $rsp 8 +
STACK CFI INIT 758b0 108 .cfa: $rsp 8 + .ra: .cfa -8 + ^
STACK CFI 758b2 $r14: .cfa -16 + ^ .cfa: $rsp 16 +
STACK CFI 758b4 $r13: .cfa -24 + ^ .cfa: $rsp 24 +
STACK CFI 758b6 $r12: .cfa -32 + ^ .cfa: $rsp 32 +
STACK CFI 758ba $rbp: .cfa -40 + ^ .cfa: $rsp 40 +
STACK CFI 758be $rbx: .cfa -48 + ^ .cfa: $rsp 48 +
STACK CFI 75907 .cfa: $rsp 40 +
STACK CFI 75908 .cfa: $rsp 32 +
STACK CFI 7590a .cfa: $rsp 24 +
STACK CFI 7590c .cfa: $rsp 16 +
STACK CFI 7590e .cfa: $rsp 8 +
STACK CFI 75910 .cfa: $rsp 48 +
STACK CFI 75947 .cfa: $rsp 40 +
STACK CFI 75948 .cfa: $rsp 32 +
STACK CFI 7594a .cfa: $rsp 24 +
STACK CFI 7594c .cfa: $rsp 16 +
STACK CFI 7594e .cfa: $rsp 8 +
STACK CFI 75950 .cfa: $rsp 48 +
STACK CFI INIT 759c0 3a .cfa: $rsp 8 + .ra: .cfa -8 + ^
STACK CFI 759c2 $r12: .cfa -16 + ^ .cfa: $rsp 16 +
STACK CFI 759c6 $rbx: .cfa -24 + ^ .cfa: $rsp 24 +
STACK CFI 759cd .cfa: $rsp 32 +
STACK CFI 759db .cfa: $rsp 24 +
STACK CFI 759dc .cfa: $rsp 16 +
STACK CFI 759de .cfa: $rsp 8 +
STACK CFI 759e0 .cfa: $rsp 32 +
STACK CFI 759e7 .cfa: $rsp 24 +
STACK CFI 759f0 .cfa: $rsp 16 +
STACK CFI 759f5 .cfa: $rsp 8 +
STACK CFI INIT 75a00 6c .cfa: $rsp 8 + .ra: .cfa -8 + ^
STACK CFI 75a02 $r14: .cfa -16 + ^ .cfa: $rsp 16 +
STACK CFI 75a04 $r13: .cfa -24 + ^ .cfa: $rsp 24 +
STACK CFI 75a09 $r12: .cfa -32 + ^ .cfa: $rsp 32 +
STACK CFI 75a0d $rbp: .cfa -40 + ^ .cfa: $rsp 40 +
STACK CFI 75a11 $rbx: .cfa -48 + ^ .cfa: $rsp 48 +
STACK CFI 75a31 .cfa: $rsp 40 +
STACK CFI 75a35 .cfa: $rsp 32 +
STACK CFI 75a37 .cfa: $rsp 24 +
STACK CFI 75a39 .cfa: $rsp 16 +
STACK CFI 75a3b .cfa: $rsp 8 +
STACK CFI 75a40 .cfa: $rsp 48 +
STACK CFI 75a59 .cfa: $rsp 40 +
STACK CFI 75a5d .cfa: $rsp 32 +
STACK CFI 75a5f .cfa: $rsp 24 +
STACK CFI 75a61 .cfa: $rsp 16 +
STACK CFI 75a63 .cfa: $rsp 8 +
STACK CFI 75a64 .cfa: $rsp 48 +
STACK CFI INIT 75a70 59 .cfa: $rsp 8 + .ra: .cfa -8 + ^
STACK CFI 75a74 .cfa: $rsp 16 +
STACK CFI 75a8a .cfa: $rsp 8 +
STACK CFI 75a8b .cfa: $rsp 16 +
STACK CFI INIT 75ad0 2d .cfa: $rsp 8 + .ra: .cfa -8 + ^
STACK CFI 75ade .cfa: $rsp 16 +
STACK CFI INIT 75b00 11b .cfa: $rsp 8 + .ra: .cfa -8 + ^
STACK CFI 75b02 $r12: .cfa -16 + ^ .cfa: $rsp 16 +
STACK CFI 75b03 $rbp: .cfa -24 + ^ .cfa: $rsp 24 +
STACK CFI 75b0a .cfa: $rsp 304 +
STACK CFI 75b74 .cfa: $rsp 24 +
STACK CFI 75b75 .cfa: $rsp 16 +
STACK CFI 75b77 .cfa: $rsp 8 +
STACK CFI 75b80 .cfa: $rsp 304 +
STACK CFI 75bac .cfa: $rsp 24 +
STACK CFI 75bad .cfa: $rsp 16 +
STACK CFI 75baf .cfa: $rsp 8 +
STACK CFI 75bb0 .cfa: $rsp 304 +
STACK CFI 75bde .cfa: $rsp 24 +
STACK CFI 75bdf .cfa: $rsp 16 +
STACK CFI 75be1 .cfa: $rsp 8 +
STACK CFI 75be8 .cfa: $rsp 304 +
STACK CFI INIT 75c20 e8 .cfa: $rsp 8 + .ra: .cfa -8 + ^
STACK CFI 75c22 $r13: .cfa -16 + ^ .cfa: $rsp 16 +
STACK CFI 75c2f $r12: .cfa -24 + ^ .cfa: $rsp 24 +
STACK CFI 75c3a $rbp: .cfa -32 + ^ .cfa: $rsp 32 +
STACK CFI 75c41 .cfa: $rsp 304 +
STACK CFI 75cc0 .cfa: $rsp 32 +
STACK CFI 75cc1 .cfa: $rsp 24 +
STACK CFI 75cc3 .cfa: $rsp 16 +
STACK CFI 75cc5 .cfa: $rsp 8 +
STACK CFI 75cd0 .cfa: $rsp 304 +
STACK CFI 75cdb .cfa: $rsp 32 +
STACK CFI 75cdc .cfa: $rsp 24 +
STACK CFI 75cde .cfa: $rsp 16 +
STACK CFI 75ce0 .cfa: $rsp 8 +
STACK CFI 75ce8 .cfa: $rsp 304 +
STACK CFI 75d00 .cfa: $rsp 32 +
STACK CFI 75d03 .cfa: $rsp 24 +
STACK CFI 75d05 .cfa: $rsp 16 +
STACK CFI 75d07 .cfa: $rsp 8 +
STACK CFI INIT 75d10 9 .cfa: $rsp 8 + .ra: .cfa -8 + ^
STACK CFI INIT 75d20 2b .cfa: $rsp 8 + .ra: .cfa -8 + ^
STACK CFI INIT 75d50 35c .cfa: $rsp 8 + .ra: .cfa -8 + ^
STACK CFI 75d52 $r14: .cfa -16 + ^ .cfa: $rsp 16 +
STACK CFI 75d54 $r13: .cfa -24 + ^ .cfa: $rsp 24 +
STACK CFI 75d56 $r12: .cfa -32 + ^ .cfa: $rsp 32 +
STACK CFI 75d5d $rbp: .cfa -40 + ^ .cfa: $rsp 40 +
STACK CFI 75d5e $rbx: .cfa -48 + ^ .cfa: $rsp 48 +
STACK CFI 75d6d .cfa: $rsp 464 +
STACK CFI 75d84 .cfa: $rsp 472 +
STACK CFI 75d95 .cfa: $rsp 480 +
STACK CFI 75db7 .cfa: $rsp 472 +
STACK CFI 75db8 .cfa: $rsp 464 +
STACK CFI 75f29 .cfa: $rsp 48 +
STACK CFI 75f2a .cfa: $rsp 40 +
STACK CFI 75f2b .cfa: $rsp 32 +
STACK CFI 75f2d .cfa: $rsp 24 +
STACK CFI 75f2f .cfa: $rsp 16 +
STACK CFI 75f31 .cfa: $rsp 8 +
STACK CFI 75f38 .cfa: $rsp 464 +
STACK CFI INIT 760b0 128 .cfa: $rsp 8 + .ra: .cfa -8 + ^
STACK CFI 760bd $r13: .cfa -16 + ^ .cfa: $rsp 16 +
STACK CFI 760bf $r12: .cfa -24 + ^ .cfa: $rsp 24 +
STACK CFI 760c0 $rbp: .cfa -32 + ^ .cfa: $rsp 32 +
STACK CFI 760ce $rbx: .cfa -40 + ^ .cfa: $rsp 40 +
STACK CFI 760d2 .cfa: $rsp 48 +
STACK CFI 760dc .cfa: $rsp 40 +
STACK CFI 760dd .cfa: $rsp 32 +
STACK CFI 760de .cfa: $rsp 24 +
STACK CFI 760e0 .cfa: $rsp 16 +
STACK CFI 760e2 .cfa: $rsp 8 +
STACK CFI 760e3 .cfa: $rsp 48 +
STACK CFI 76156 .cfa: $rsp 40 +
STACK CFI 76157 .cfa: $rsp 32 +
STACK CFI 76158 .cfa: $rsp 24 +
STACK CFI 7615a .cfa: $rsp 16 +
STACK CFI 7615c .cfa: $rsp 8 +
STACK CFI 76160 $r12: $r12 $r13: $r13 $rbp: $rbp $rbx: $rbx
STACK CFI 76168 $r12: .cfa -24 + ^ $r13: .cfa -16 + ^ $rbp: .cfa -32 + ^ $rbx: .cfa -40 + ^ .cfa: $rsp 48 +
STACK CFI INIT 761e0 f1 .cfa: $rsp 8 + .ra: .cfa -8 + ^
STACK CFI 761e2 $r13: .cfa -16 + ^ .cfa: $rsp 16 +
STACK CFI 761e7 $r12: .cfa -24 + ^ .cfa: $rsp 24 +
STACK CFI 761eb $rbp: .cfa -32 + ^ .cfa: $rsp 32 +
STACK CFI 761ef $rbx: .cfa -40 + ^ .cfa: $rsp 40 +
STACK CFI 761f8 .cfa: $rsp 48 +
STACK CFI 7629e .cfa: $rsp 40 +
STACK CFI 7629f .cfa: $rsp 32 +
STACK CFI 762a0 .cfa: $rsp 24 +
STACK CFI 762a2 .cfa: $rsp 16 +
STACK CFI 762a4 .cfa: $rsp 8 +
STACK CFI 762a8 .cfa: $rsp 48 +
STACK CFI INIT 762e0 10d .cfa: $rsp 8 + .ra: .cfa -8 + ^
STACK CFI 762e2 $r13: .cfa -16 + ^ .cfa: $rsp 16 +
STACK CFI 762e4 $r12: .cfa -24 + ^ .cfa: $rsp 24 +
STACK CFI 762e8 $rbp: .cfa -32 + ^ .cfa: $rsp 32 +
STACK CFI 762e9 $rbx: .cfa -40 + ^ .cfa: $rsp 40 +
STACK CFI 762ed .cfa: $rsp 48 +
STACK CFI 763ac .cfa: $rsp 40 +
STACK CFI 763af .cfa: $rsp 32 +
STACK CFI 763b0 .cfa: $rsp 24 +
STACK CFI 763b2 .cfa: $rsp 16 +
STACK CFI 763b4 .cfa: $rsp 8 +
STACK CFI 763b8 .cfa: $rsp 48 +
STACK CFI 763bc .cfa: $rsp 40 +
STACK CFI 763c2 .cfa: $rsp 32 +
STACK CFI 763c3 .cfa: $rsp 24 +
STACK CFI 763c5 .cfa: $rsp 16 +
STACK CFI 763c7 .cfa: $rsp 8 +
STACK CFI 763d0 .cfa: $rsp 48 +
STACK CFI INIT 763f0 a0 .cfa: $rsp 8 + .ra: .cfa -8 + ^
STACK CFI 763f2 $r14: .cfa -16 + ^ .cfa: $rsp 16 +
STACK CFI 763f7 $r13: .cfa -24 + ^ .cfa: $rsp 24 +
STACK CFI 763fc $r12: .cfa -32 + ^ .cfa: $rsp 32 +
STACK CFI 763fd $rbp: .cfa -40 + ^ .cfa: $rsp 40 +
STACK CFI 76407 .cfa: $rsp 4144 +
STACK CFI 7646b .cfa: $rsp 40 +
STACK CFI 7646f .cfa: $rsp 32 +
STACK CFI 76471 .cfa: $rsp 24 +
STACK CFI 76473 .cfa: $rsp 16 +
STACK CFI 76475 .cfa: $rsp 8 +
STACK CFI 76480 .cfa: $rsp 4144 +
STACK CFI INIT 76490 13 .cfa: $rsp 8 + .ra: .cfa -8 + ^
STACK CFI INIT 764b0 b .cfa: $rsp 8 + .ra: .cfa -8 + ^
STACK CFI INIT 764c0 82 .cfa: $rsp 8 + .ra: .cfa -8 + ^
STACK CFI 764c2 $r12: .cfa -16 + ^ .cfa: $rsp 16 +
STACK CFI 764ce .cfa: $rsp 2064 +
STACK CFI 764e2 .cfa: $rsp 16 +
STACK CFI 764e7 .cfa: $rsp 8 +
STACK CFI 764f0 .cfa: $rsp 2064 +
STACK CFI 7650c .cfa: $rsp 16 +
STACK CFI 76511 .cfa: $rsp 8 +
STACK CFI 76518 .cfa: $rsp 2064 +
STACK CFI INIT 76550 b .cfa: $rsp 8 + .ra: .cfa -8 + ^
STACK CFI INIT 76560 1b .cfa: $rsp 8 + .ra: .cfa -8 + ^
STACK CFI INIT 76580 14e .cfa: $rsp 8 + .ra: .cfa -8 + ^
STACK CFI 76582 $r15: .cfa -16 + ^ .cfa: $rsp 16 +
STACK CFI 76584 $r14: .cfa -24 + ^ .cfa: $rsp 24 +
STACK CFI 76586 $r13: .cfa -32 + ^ .cfa: $rsp 32 +
STACK CFI 76588 $r12: .cfa -40 + ^ .cfa: $rsp 40 +
STACK CFI 76589 $rbp: .cfa -48 + ^ .cfa: $rsp 48 +
STACK CFI 7658a $rbx: .cfa -56 + ^ .cfa: $rsp 56 +
STACK CFI 7658e .cfa: $rsp 64 +
STACK CFI 765de .cfa: $rsp 56 +
STACK CFI 765e2 .cfa: $rsp 48 +
STACK CFI 765e3 .cfa: $rsp 40 +
STACK CFI 765e5 .cfa: $rsp 32 +
STACK CFI 765e7 .cfa: $rsp 24 +
STACK CFI 765e9 .cfa: $rsp 16 +
STACK CFI 765eb .cfa: $rsp 8 +
STACK CFI 765f0 .cfa: $rsp 64 +
STACK CFI INIT 766d0 198 .cfa: $rsp 8 + .ra: .cfa -8 + ^
STACK CFI 766d2 $r13: .cfa -16 + ^ .cfa: $rsp 16 +
STACK CFI 766d4 $r12: .cfa -24 + ^ .cfa: $rsp 24 +
STACK CFI 766d5 $rbp: .cfa -32 + ^ .cfa: $rsp 32 +
STACK CFI 766d6 $rbx: .cfa -40 + ^ .cfa: $rsp 40 +
STACK CFI 766da .cfa: $rsp 64 +
STACK CFI 76754 .cfa: $rsp 40 +
STACK CFI 76755 .cfa: $rsp 32 +
STACK CFI 76756 .cfa: $rsp 24 +
STACK CFI 76758 .cfa: $rsp 16 +
STACK CFI 7675a .cfa: $rsp 8 +
STACK CFI 76760 .cfa: $rsp 64 +
STACK CFI 76799 .cfa: $rsp 40 +
STACK CFI 7679f .cfa: $rsp 32 +
STACK CFI 767a0 .cfa: $rsp 24 +
STACK CFI 767a2 .cfa: $rsp 16 +
STACK CFI 767a4 .cfa: $rsp 8 +
STACK CFI 767a8 .cfa: $rsp 64 +
STACK CFI 767c1 .cfa: $rsp 40 +
STACK CFI 767c7 .cfa: $rsp 32 +
STACK CFI 767c8 .cfa: $rsp 24 +
STACK CFI 767ca .cfa: $rsp 16 +
STACK CFI 767cc .cfa: $rsp 8 +
STACK CFI 767d0 .cfa: $rsp 64 +
STACK CFI 767e4 .cfa: $rsp 40 +
STACK CFI 767e5 .cfa: $rsp 32 +
STACK CFI 767e6 .cfa: $rsp 24 +
STACK CFI 767e8 .cfa: $rsp 16 +
STACK CFI 767ea .cfa: $rsp 8 +
STACK CFI 767f0 .cfa: $rsp 64 +
STACK CFI INIT 76870 1b8 .cfa: $rsp 8 + .ra: .cfa -8 + ^
STACK CFI 76872 $r15: .cfa -16 + ^ .cfa: $rsp 16 +
STACK CFI 76877 $r14: .cfa -24 + ^ .cfa: $rsp 24 +
STACK CFI 7687c $r13: .cfa -32 + ^ .cfa: $rsp 32 +
STACK CFI 76881 $r12: .cfa -40 + ^ .cfa: $rsp 40 +
STACK CFI 76882 $rbp: .cfa -48 + ^ .cfa: $rsp 48 +
STACK CFI 76886 $rbx: .cfa -56 + ^ .cfa: $rsp 56 +
STACK CFI 76890 .cfa: $rsp 240 +
STACK CFI 768e9 .cfa: $rsp 56 +
STACK CFI 768ed .cfa: $rsp 48 +
STACK CFI 768ee .cfa: $rsp 40 +
STACK CFI 768f0 .cfa: $rsp 32 +
STACK CFI 768f2 .cfa: $rsp 24 +
STACK CFI 768f4 .cfa: $rsp 16 +
STACK CFI 768f6 .cfa: $rsp 8 +
STACK CFI 76900 .cfa: $rsp 240 +
STACK CFI INIT 76a30 1e1 .cfa: $rsp 8 + .ra: .cfa -8 + ^
STACK CFI 76a32 $r13: .cfa -16 + ^ .cfa: $rsp 16 +
STACK CFI 76a34 $r12: .cfa -24 + ^ .cfa: $rsp 24 +
STACK CFI 76a35 $rbp: .cfa -32 + ^ .cfa: $rsp 32 +
STACK CFI 76a36 $rbx: .cfa -40 + ^ .cfa: $rsp 40 +
STACK CFI 76a3d .cfa: $rsp 5376 +
STACK CFI 76a53 .cfa: $rsp 40 +
STACK CFI 76a54 .cfa: $rsp 32 +
STACK CFI 76a55 .cfa: $rsp 24 +
STACK CFI 76a57 .cfa: $rsp 16 +
STACK CFI 76a59 .cfa: $rsp 8 +
STACK CFI 76a60 .cfa: $rsp 5376 +
STACK CFI INIT 76c20 cf .cfa: $rsp 8 + .ra: .cfa -8 + ^
STACK CFI 76c22 $r13: .cfa -16 + ^ .cfa: $rsp 16 +
STACK CFI 76c27 $r12: .cfa -24 + ^ .cfa: $rsp 24 +
STACK CFI 76c2b $rbp: .cfa -32 + ^ .cfa: $rsp 32 +
STACK CFI 76c2f $rbx: .cfa -40 + ^ .cfa: $rsp 40 +
STACK CFI 76c39 .cfa: $rsp 224 +
STACK CFI 76c7d .cfa: $rsp 40 +
STACK CFI 76c7e .cfa: $rsp 32 +
STACK CFI 76c7f .cfa: $rsp 24 +
STACK CFI 76c81 .cfa: $rsp 16 +
STACK CFI 76c83 .cfa: $rsp 8 +
STACK CFI 76c88 .cfa: $rsp 224 +
STACK CFI 76cd8 .cfa: $rsp 40 +
STACK CFI 76cdb .cfa: $rsp 32 +
STACK CFI 76cdc .cfa: $rsp 24 +
STACK CFI 76cde .cfa: $rsp 16 +
STACK CFI 76ce0 .cfa: $rsp 8 +
STACK CFI 76ce8 .cfa: $rsp 224 +
STACK CFI INIT 76cf0 77 .cfa: $rsp 8 + .ra: .cfa -8 + ^
STACK CFI 76cf4 .cfa: $rsp 64 +
STACK CFI 76d2d .cfa: $rsp 8 +
STACK CFI 76d30 .cfa: $rsp 64 +
STACK CFI 76d48 .cfa: $rsp 8 +
STACK CFI 76d50 .cfa: $rsp 64 +
STACK CFI 76d66 .cfa: $rsp 8 +
STACK CFI INIT 76d70 4 .cfa: $rsp 8 + .ra: .cfa -8 + ^
STACK CFI INIT 76d80 34d .cfa: $rsp 8 + .ra: .cfa -8 + ^
STACK CFI 76d82 $r15: .cfa -16 + ^ .cfa: $rsp 16 +
STACK CFI 76d87 $r14: .cfa -24 + ^ .cfa: $rsp 24 +
STACK CFI 76d8c $r13: .cfa -32 + ^ .cfa: $rsp 32 +
STACK CFI 76d8e $r12: .cfa -40 + ^ .cfa: $rsp 40 +
STACK CFI 76d92 $rbp: .cfa -48 + ^ .cfa: $rsp 48 +
STACK CFI 76d96 $rbx: .cfa -56 + ^ .cfa: $rsp 56 +
STACK CFI 76da5 .cfa: $rsp 9296 +
STACK CFI 76e4b .cfa: $rsp 9304 +
STACK CFI 76e58 .cfa: $rsp 9312 +
STACK CFI 76e63 .cfa: $rsp 9320 +
STACK CFI 76e64 .cfa: $rsp 9328 +
STACK CFI 76e65 .cfa: $rsp 9336 +
STACK CFI 76e66 .cfa: $rsp 9344 +
STACK CFI 76e77 .cfa: $rsp 9296 +
STACK CFI 76e84 .cfa: $rsp 9304 +
STACK CFI 76e91 .cfa: $rsp 9312 +
STACK CFI 76ea0 .cfa: $rsp 9320 +
STACK CFI 76ea1 .cfa: $rsp 9328 +
STACK CFI 76ea2 .cfa: $rsp 9336 +
STACK CFI 76ea7 .cfa: $rsp 9344 +
STACK CFI 76ea8 .cfa: $rsp 9352 +
STACK CFI 76ead .cfa: $rsp 9360 +
STACK CFI 76eae .cfa: $rsp 9368 +
STACK CFI 76eb3 .cfa: $rsp 9376 +
STACK CFI 76eb4 .cfa: $rsp 9384 +
STACK CFI 76eb5 .cfa: $rsp 9392 +
STACK CFI 76eba .cfa: $rsp 9400 +
STACK CFI 76ebb .cfa: $rsp 9408 +
STACK CFI 76ec0 .cfa: $rsp 9416 +
STACK CFI 76ec5 .cfa: $rsp 9424 +
STACK CFI 76ec6 .cfa: $rsp 9432 +
STACK CFI 76ec7 .cfa: $rsp 9440 +
STACK CFI 76ecc .cfa: $rsp 9448 +
STACK CFI 76ecd .cfa: $rsp 9456 +
STACK CFI 76ece .cfa: $rsp 9464 +
STACK CFI 76ed3 .cfa: $rsp 9472 +
STACK CFI 76ee7 .cfa: $rsp 9296 +
STACK CFI 76f5f .cfa: $rsp 56 +
STACK CFI 76f63 .cfa: $rsp 48 +
STACK CFI 76f64 .cfa: $rsp 40 +
STACK CFI 76f66 .cfa: $rsp 32 +
STACK CFI 76f68 .cfa: $rsp 24 +
STACK CFI 76f6a .cfa: $rsp 16 +
STACK CFI 76f6c .cfa: $rsp 8 +
STACK CFI 76f70 .cfa: $rsp 9296 +
STACK CFI 76f74 .cfa: $rsp 9304 +
STACK CFI 76f81 .cfa: $rsp 9312 +
STACK CFI 76f90 .cfa: $rsp 9320 +
STACK CFI 76f91 .cfa: $rsp 9328 +
STACK CFI 76f92 .cfa: $rsp 9336 +
STACK CFI 76f97 .cfa: $rsp 9344 +
STACK CFI 76f98 .cfa: $rsp 9352 +
STACK CFI 76f9d .cfa: $rsp 9360 +
STACK CFI 76fae .cfa: $rsp 9296 +
STACK CFI INIT 770d0 1ee .cfa: $rsp 8 + .ra: .cfa -8 + ^
STACK CFI 770d2 $r13: .cfa -16 + ^ .cfa: $rsp 16 +
STACK CFI 770d7 $r12: .cfa -24 + ^ .cfa: $rsp 24 +
STACK CFI 770db $rbp: .cfa -32 + ^ .cfa: $rsp 32 +
STACK CFI 770dc $rbx: .cfa -40 + ^ .cfa: $rsp 40 +
STACK CFI 770e6 .cfa: $rsp 5184 +
STACK CFI 77130 .cfa: $rsp 5192 +
STACK CFI 77141 .cfa: $rsp 5200 +
STACK CFI 77156 .cfa: $rsp 5192 +
STACK CFI 77157 .cfa: $rsp 5184 +
STACK CFI 7718f .cfa: $rsp 40 +
STACK CFI 77193 .cfa: $rsp 32 +
STACK CFI 77194 .cfa: $rsp 24 +
STACK CFI 77196 .cfa: $rsp 16 +
STACK CFI 77198 .cfa: $rsp 8 +
STACK CFI 771a0 .cfa: $rsp 5184 +
STACK CFI 7723c .cfa: $rsp 5192 +
STACK CFI 77249 .cfa: $rsp 5200 +
STACK CFI 77260 .cfa: $rsp 5192 +
STACK CFI 77261 .cfa: $rsp 5184 +
STACK CFI INIT 772c0 25 .cfa: $rsp 8 + .ra: .cfa -8 + ^
STACK CFI 772d4 .cfa: $rsp 16 +
STACK CFI 772e4 .cfa: $rsp 8 +
STACK CFI INIT 772f0 8 .cfa: $rsp 8 + .ra: .cfa -8 + ^
STACK CFI INIT 77300 117 .cfa: $rsp 8 + .ra: .cfa -8 + ^
STACK CFI 77302 $r14: .cfa -16 + ^ .cfa: $rsp 16 +
STACK CFI 77303 $rbx: .cfa -24 + ^ .cfa: $rsp 24 +
STACK CFI 77307 .cfa: $rsp 64 +
STACK CFI 77365 .cfa: $rsp 24 +
STACK CFI 77366 .cfa: $rsp 16 +
STACK CFI 77368 .cfa: $rsp 8 +
STACK CFI 77370 .cfa: $rsp 64 +
STACK CFI 773cf .cfa: $rsp 24 +
STACK CFI 773d0 .cfa: $rsp 16 +
STACK CFI 773d2 .cfa: $rsp 8 +
STACK CFI 773d8 .cfa: $rsp 64 +
STACK CFI 773e8 .cfa: $rsp 24 +
STACK CFI 773e9 .cfa: $rsp 16 +
STACK CFI 773eb .cfa: $rsp 8 +
STACK CFI 773f0 .cfa: $rsp 64 +
STACK CFI INIT 77420 2a1 .cfa: $rsp 8 + .ra: .cfa -8 + ^
STACK CFI 7743a $r15: .cfa -16 + ^ .cfa: $rsp 16 +
STACK CFI 7743c $r14: .cfa -24 + ^ .cfa: $rsp 24 +
STACK CFI 7743e $r13: .cfa -32 + ^ .cfa: $rsp 32 +
STACK CFI 77440 $r12: .cfa -40 + ^ .cfa: $rsp 40 +
STACK CFI 77441 $rbp: .cfa -48 + ^ .cfa: $rsp 48 +
STACK CFI 77442 $rbx: .cfa -56 + ^ .cfa: $rsp 56 +
STACK CFI 77446 .cfa: $rsp 96 +
STACK CFI 7765a .cfa: $rsp 56 +
STACK CFI 7765b .cfa: $rsp 48 +
STACK CFI 7765c .cfa: $rsp 40 +
STACK CFI 7765e .cfa: $rsp 32 +
STACK CFI 77660 .cfa: $rsp 24 +
STACK CFI 77662 .cfa: $rsp 16 +
STACK CFI 77664 .cfa: $rsp 8 +
STACK CFI 77668 .cfa: $rsp 96 +
STACK CFI INIT 776d0 312 .cfa: $rsp 8 + .ra: .cfa -8 + ^
STACK CFI 776d2 $r14: .cfa -16 + ^ .cfa: $rsp 16 +
STACK CFI 776d4 $r13: .cfa -24 + ^ .cfa: $rsp 24 +
STACK CFI 776d9 $r12: .cfa -32 + ^ .cfa: $rsp 32 +
STACK CFI 776da $rbp: .cfa -40 + ^ .cfa: $rsp 40 +
STACK CFI 776de $rbx: .cfa -48 + ^ .cfa: $rsp 48 +
STACK CFI 776ea .cfa: $rsp 112 +
STACK CFI 7786d .cfa: $rsp 48 +
STACK CFI 77871 .cfa: $rsp 40 +
STACK CFI 77872 .cfa: $rsp 32 +
STACK CFI 77874 .cfa: $rsp 24 +
STACK CFI 77876 .cfa: $rsp 16 +
STACK CFI 77878 .cfa: $rsp 8 +
STACK CFI 77880 .cfa: $rsp 112 +
STACK CFI 778b4 .cfa: $rsp 48 +
STACK CFI 778bd .cfa: $rsp 40 +
STACK CFI 778be .cfa: $rsp 32 +
STACK CFI 778c0 .cfa: $rsp 24 +
STACK CFI 778c2 .cfa: $rsp 16 +
STACK CFI 778c4 .cfa: $rsp 8 +
STACK CFI 778d0 .cfa: $rsp 112 +
STACK CFI 778d4 .cfa: $rsp 48 +
STACK CFI 778d5 .cfa: $rsp 40 +
STACK CFI 778d6 .cfa: $rsp 32 +
STACK CFI 778d8 .cfa: $rsp 24 +
STACK CFI 778da .cfa: $rsp 16 +
STACK CFI 778dc .cfa: $rsp 8 +
STACK CFI 778dd .cfa: $rsp 112 +
STACK CFI INIT 779f0 233 .cfa: $rsp 8 + .ra: .cfa -8 + ^
STACK CFI 779f2 $r14: .cfa -16 + ^ .cfa: $rsp 16 +
STACK CFI 779f7 $r13: .cfa -24 + ^ .cfa: $rsp 24 +
STACK CFI 779fc $r12: .cfa -32 + ^ .cfa: $rsp 32 +
STACK CFI 779fd $rbp: .cfa -40 + ^ .cfa: $rsp 40 +
STACK CFI 77a01 $rbx: .cfa -48 + ^ .cfa: $rsp 48 +
STACK CFI 77a08 .cfa: $rsp 272 +
STACK CFI 77a37 .cfa: $rsp 48 +
STACK CFI 77a3b .cfa: $rsp 40 +
STACK CFI 77a3c .cfa: $rsp 32 +
STACK CFI 77a3e .cfa: $rsp 24 +
STACK CFI 77a40 .cfa: $rsp 16 +
STACK CFI 77a42 .cfa: $rsp 8 +
STACK CFI 77a48 .cfa: $rsp 272 +
STACK CFI INIT 77c30 1ad .cfa: $rsp 8 + .ra: .cfa -8 + ^
STACK CFI 77c82 $r12: .cfa -16 + ^ .cfa: $rsp 16 +
STACK CFI 77c83 $rbp: .cfa -24 + ^ .cfa: $rsp 24 +
STACK CFI 77c8b $rbx: .cfa -32 + ^ .cfa: $rsp 32 +
STACK CFI 77d4c .cfa: $rsp 24 +
STACK CFI 77d4d .cfa: $rsp 16 +
STACK CFI 77d4f .cfa: $rsp 8 +
STACK CFI 77d50 .cfa: $rsp 32 +
STACK CFI 77d96 .cfa: $rsp 24 +
STACK CFI 77d99 .cfa: $rsp 16 +
STACK CFI 77d9b .cfa: $rsp 8 +
STACK CFI 77da0 .cfa: $rsp 32 +
STACK CFI 77dd0 $r12: $r12 $rbp: $rbp $rbx: $rbx .cfa: $rsp 8 +
STACK CFI 77dd3 $r12: .cfa -16 + ^ $rbp: .cfa -24 + ^ $rbx: .cfa -32 + ^ .cfa: $rsp 32 +
STACK CFI INIT 77de0 43c .cfa: $rsp 8 + .ra: .cfa -8 + ^
STACK CFI 77de2 $r15: .cfa -16 + ^ .cfa: $rsp 16 +
STACK CFI 77de4 $r14: .cfa -24 + ^ .cfa: $rsp 24 +
STACK CFI 77de6 $r13: .cfa -32 + ^ .cfa: $rsp 32 +
STACK CFI 77de8 $r12: .cfa -40 + ^ .cfa: $rsp 40 +
STACK CFI 77de9 $rbp: .cfa -48 + ^ .cfa: $rsp 48 +
STACK CFI 77dea $rbx: .cfa -56 + ^ .cfa: $rsp 56 +
STACK CFI 77df1 .cfa: $rsp 1216 +
STACK CFI 77fa1 .cfa: $rsp 56 +
STACK CFI 77fa2 .cfa: $rsp 48 +
STACK CFI 77fa3 .cfa: $rsp 40 +
STACK CFI 77fa5 .cfa: $rsp 32 +
STACK CFI 77fa7 .cfa: $rsp 24 +
STACK CFI 77fa9 .cfa: $rsp 16 +
STACK CFI 77fab .cfa: $rsp 8 +
STACK CFI 77fb0 .cfa: $rsp 1216 +
STACK CFI INIT 78220 577 .cfa: $rsp 8 + .ra: .cfa -8 + ^
STACK CFI 78222 $r15: .cfa -16 + ^ .cfa: $rsp 16 +
STACK CFI 7822c $r14: .cfa -24 + ^ .cfa: $rsp 24 +
STACK CFI 7822e $r13: .cfa -32 + ^ .cfa: $rsp 32 +
STACK CFI 78230 $r12: .cfa -40 + ^ .cfa: $rsp 40 +
STACK CFI 78231 $rbp: .cfa -48 + ^ .cfa: $rsp 48 +
STACK CFI 78235 $rbx: .cfa -56 + ^ .cfa: $rsp 56 +
STACK CFI 7823c .cfa: $rsp 10160 +
STACK CFI 784b1 .cfa: $rsp 56 +
STACK CFI 784b2 .cfa: $rsp 48 +
STACK CFI 784b3 .cfa: $rsp 40 +
STACK CFI 784b5 .cfa: $rsp 32 +
STACK CFI 784b7 .cfa: $rsp 24 +
STACK CFI 784b9 .cfa: $rsp 16 +
STACK CFI 784bb .cfa: $rsp 8 +
STACK CFI 784c0 .cfa: $rsp 10160 +
STACK CFI INIT 787a0 527 .cfa: $rsp 8 + .ra: .cfa -8 + ^
STACK CFI 787a2 $r13: .cfa -16 + ^ .cfa: $rsp 16 +
STACK CFI 787ae $r12: .cfa -24 + ^ .cfa: $rsp 24 +
STACK CFI 787b9 $rbp: .cfa -32 + ^ .cfa: $rsp 32 +
STACK CFI 787c3 $rbx: .cfa -40 + ^ .cfa: $rsp 40 +
STACK CFI 787c7 .cfa: $rsp 48 +
STACK CFI 78825 .cfa: $rsp 40 +
STACK CFI 7882e .cfa: $rsp 32 +
STACK CFI 7882f .cfa: $rsp 24 +
STACK CFI 78831 .cfa: $rsp 16 +
STACK CFI 78833 .cfa: $rsp 8 +
STACK CFI 78840 .cfa: $rsp 48 +
STACK CFI 789dd .cfa: $rsp 40 +
STACK CFI 789de .cfa: $rsp 32 +
STACK CFI 789df .cfa: $rsp 24 +
STACK CFI 789e1 .cfa: $rsp 16 +
STACK CFI 789e3 .cfa: $rsp 8 +
STACK CFI 789e8 .cfa: $rsp 48 +
STACK CFI INIT 78cd0 8d .cfa: $rsp 8 + .ra: .cfa -8 + ^
STACK CFI 78cd2 $r12: .cfa -16 + ^ .cfa: $rsp 16 +
STACK CFI 78ce0 $rbp: .cfa -24 + ^ .cfa: $rsp 24 +
STACK CFI 78ce9 $rbx: .cfa -32 + ^ .cfa: $rsp 32 +
STACK CFI 78d59 .cfa: $rsp 24 +
STACK CFI 78d5a .cfa: $rsp 16 +
STACK CFI 78d5c .cfa: $rsp 8 +
STACK CFI INIT 78d60 88 .cfa: $rsp 8 + .ra: .cfa -8 + ^
STACK CFI 78d6b $rbp: .cfa -16 + ^ .cfa: $rsp 16 +
STACK CFI 78d6f $rbx: .cfa -24 + ^ .cfa: $rsp 24 +
STACK CFI 78d73 .cfa: $rsp 32 +
STACK CFI 78dc4 .cfa: $rsp 24 +
STACK CFI 78dc5 .cfa: $rsp 16 +
STACK CFI 78dc6 .cfa: $rsp 8 +
STACK CFI 78dd0 $rbp: $rbp $rbx: $rbx
STACK CFI 78dd8 $rbp: .cfa -16 + ^ $rbx: .cfa -24 + ^ .cfa: $rsp 32 +
STACK CFI INIT 78df0 43f .cfa: $rsp 8 + .ra: .cfa -8 + ^
STACK CFI 78df2 $r15: .cfa -16 + ^ .cfa: $rsp 16 +
STACK CFI 78dfc $r14: .cfa -24 + ^ .cfa: $rsp 24 +
STACK CFI 78e06 $r13: .cfa -32 + ^ .cfa: $rsp 32 +
STACK CFI 78e08 $r12: .cfa -40 + ^ .cfa: $rsp 40 +
STACK CFI 78e0c $rbp: .cfa -48 + ^ .cfa: $rsp 48 +
STACK CFI 78e13 $rbx: .cfa -56 + ^ .cfa: $rsp 56 +
STACK CFI 78e22 .cfa: $rsp 304 +
STACK CFI 791af .cfa: $rsp 56 +
STACK CFI 791b0 .cfa: $rsp 48 +
STACK CFI 791b1 .cfa: $rsp 40 +
STACK CFI 791b3 .cfa: $rsp 32 +
STACK CFI 791b5 .cfa: $rsp 24 +
STACK CFI 791b7 .cfa: $rsp 16 +
STACK CFI 791b9 .cfa: $rsp 8 +
STACK CFI 791c0 .cfa: $rsp 304 +
STACK CFI INIT 79230 1fe .cfa: $rsp 8 + .ra: .cfa -8 + ^
STACK CFI 79232 $r15: .cfa -16 + ^ .cfa: $rsp 16 +
STACK CFI 79237 $r14: .cfa -24 + ^ .cfa: $rsp 24 +
STACK CFI 7923c $r13: .cfa -32 + ^ .cfa: $rsp 32 +
STACK CFI 79241 $r12: .cfa -40 + ^ .cfa: $rsp 40 +
STACK CFI 79245 $rbp: .cfa -48 + ^ .cfa: $rsp 48 +
STACK CFI 79249 $rbx: .cfa -56 + ^ .cfa: $rsp 56 +
STACK CFI 79250 .cfa: $rsp 8288 +
STACK CFI 79393 .cfa: $rsp 56 +
STACK CFI 79394 .cfa: $rsp 48 +
STACK CFI 79395 .cfa: $rsp 40 +
STACK CFI 79397 .cfa: $rsp 32 +
STACK CFI 79399 .cfa: $rsp 24 +
STACK CFI 7939b .cfa: $rsp 16 +
STACK CFI 7939d .cfa: $rsp 8 +
STACK CFI 793a0 .cfa: $rsp 8288 +
STACK CFI INIT 79430 14e .cfa: $rsp 8 + .ra: .cfa -8 + ^
STACK CFI 7943a $r14: .cfa -16 + ^ .cfa: $rsp 16 +
STACK CFI 7943c $r13: .cfa -24 + ^ .cfa: $rsp 24 +
STACK CFI 7943e $r12: .cfa -32 + ^ .cfa: $rsp 32 +
STACK CFI 7943f $rbp: .cfa -40 + ^ .cfa: $rsp 40 +
STACK CFI 79440 $rbx: .cfa -48 + ^ .cfa: $rsp 48 +
STACK CFI 7951f .cfa: $rsp 40 +
STACK CFI 79520 .cfa: $rsp 32 +
STACK CFI 79522 .cfa: $rsp 24 +
STACK CFI 79524 .cfa: $rsp 16 +
STACK CFI 79526 .cfa: $rsp 8 +
STACK CFI 79530 .cfa: $rsp 48 +
STACK CFI 79555 .cfa: $rsp 56 +
STACK CFI 79562 .cfa: $rsp 64 +
STACK CFI 79578 .cfa: $rsp 56 +
STACK CFI 79579 .cfa: $rsp 48 +
STACK CFI INIT 79580 2b5 .cfa: $rsp 8 + .ra: .cfa -8 + ^
STACK CFI 7958b $r13: .cfa -16 + ^ .cfa: $rsp 16 +
STACK CFI 79592 $r12: .cfa -24 + ^ .cfa: $rsp 24 +
STACK CFI 79593 $rbp: .cfa -32 + ^ .cfa: $rsp 32 +
STACK CFI 79594 $rbx: .cfa -40 + ^ .cfa: $rsp 40 +
STACK CFI 7959e .cfa: $rsp 10080 +
STACK CFI 795ea .cfa: $rsp 40 +
STACK CFI 795eb .cfa: $rsp 32 +
STACK CFI 795ec .cfa: $rsp 24 +
STACK CFI 795ee .cfa: $rsp 16 +
STACK CFI 795f0 .cfa: $rsp 8 +
STACK CFI 795f8 .cfa: $rsp 10080 +
STACK CFI 7964a .cfa: $rsp 40 +
STACK CFI 7964b .cfa: $rsp 32 +
STACK CFI 7964c .cfa: $rsp 24 +
STACK CFI 7964e .cfa: $rsp 16 +
STACK CFI 79650 .cfa: $rsp 8 +
STACK CFI 79658 .cfa: $rsp 10080 +
STACK CFI 79820 $r12: $r12 $r13: $r13 $rbp: $rbp $rbx: $rbx .cfa: $rsp 8 +
STACK CFI 79828 $r12: .cfa -24 + ^ $r13: .cfa -16 + ^ $rbp: .cfa -32 + ^ $rbx: .cfa -40 + ^ .cfa: $rsp 10080 +
STACK CFI INIT 79840 503 .cfa: $rsp 8 + .ra: .cfa -8 + ^
STACK CFI 79842 $r15: .cfa -16 + ^ .cfa: $rsp 16 +
STACK CFI 79847 $r14: .cfa -24 + ^ .cfa: $rsp 24 +
STACK CFI 79850 $r13: .cfa -32 + ^ .cfa: $rsp 32 +
STACK CFI 79855 $r12: .cfa -40 + ^ .cfa: $rsp 40 +
STACK CFI 7985a $rbp: .cfa -48 + ^ .cfa: $rsp 48 +
STACK CFI 79861 $rbx: .cfa -56 + ^ .cfa: $rsp 56 +
STACK CFI 79882 .cfa: $rsp 4192 +
STACK CFI 798ab .cfa: $rsp 56 +
STACK CFI 798af .cfa: $rsp 48 +
STACK CFI 798b0 .cfa: $rsp 40 +
STACK CFI 798b2 .cfa: $rsp 32 +
STACK CFI 798b4 .cfa: $rsp 24 +
STACK CFI 798b6 .cfa: $rsp 16 +
STACK CFI 798b8 .cfa: $rsp 8 +
STACK CFI 798c0 .cfa: $rsp 4192 +
STACK CFI INIT 79d50 3ed .cfa: $rsp 8 + .ra: .cfa -8 + ^
STACK CFI 79d52 $r15: .cfa -16 + ^ .cfa: $rsp 16 +
STACK CFI 79d54 $r14: .cfa -24 + ^ .cfa: $rsp 24 +
STACK CFI 79d59 $r13: .cfa -32 + ^ .cfa: $rsp 32 +
STACK CFI 79d5e $r12: .cfa -40 + ^ .cfa: $rsp 40 +
STACK CFI 79d62 $rbp: .cfa -48 + ^ .cfa: $rsp 48 +
STACK CFI 79d66 $rbx: .cfa -56 + ^ .cfa: $rsp 56 +
STACK CFI 79d6a .cfa: $rsp 112 +
STACK CFI 79fac .cfa: $rsp 56 +
STACK CFI 79fb0 .cfa: $rsp 48 +
STACK CFI 79fb1 .cfa: $rsp 40 +
STACK CFI 79fb3 .cfa: $rsp 32 +
STACK CFI 79fb5 .cfa: $rsp 24 +
STACK CFI 79fb7 .cfa: $rsp 16 +
STACK CFI 79fb9 .cfa: $rsp 8 +
STACK CFI 79fc0 .cfa: $rsp 112 +
STACK CFI INIT 7a140 5 .cfa: $rsp 8 + .ra: .cfa -8 + ^
STACK CFI INIT 7a150 1cf .cfa: $rsp 8 + .ra: .cfa -8 + ^
STACK CFI 7a152 $r13: .cfa -16 + ^ .cfa: $rsp 16 +
STACK CFI 7a15e $r12: .cfa -24 + ^ .cfa: $rsp 24 +
STACK CFI 7a15f $rbp: .cfa -32 + ^ .cfa: $rsp 32 +
STACK CFI 7a165 $rbx: .cfa -40 + ^ .cfa: $rsp 40 +
STACK CFI 7a16c .cfa: $rsp 624 +
STACK CFI 7a1ca .cfa: $rsp 40 +
STACK CFI 7a1ce .cfa: $rsp 32 +
STACK CFI 7a1cf .cfa: $rsp 24 +
STACK CFI 7a1d1 .cfa: $rsp 16 +
STACK CFI 7a1d3 .cfa: $rsp 8 +
STACK CFI 7a1d8 .cfa: $rsp 624 +
STACK CFI INIT 7a320 5 .cfa: $rsp 8 + .ra: .cfa -8 + ^
STACK CFI INIT 7a330 ce .cfa: $rsp 8 + .ra: .cfa -8 + ^
STACK CFI 7a332 $r12: .cfa -16 + ^ .cfa: $rsp 16 +
STACK CFI 7a336 $rbx: .cfa -24 + ^ .cfa: $rsp 24 +
STACK CFI 7a33d .cfa: $rsp 64 +
STACK CFI 7a3d9 .cfa: $rsp 24 +
STACK CFI 7a3da .cfa: $rsp 16 +
STACK CFI 7a3dc .cfa: $rsp 8 +
STACK CFI 7a3e0 .cfa: $rsp 64 +
STACK CFI INIT 7a400 157 .cfa: $rsp 8 + .ra: .cfa -8 + ^
STACK CFI 7a402 $r13: .cfa -16 + ^ .cfa: $rsp 16 +
STACK CFI 7a407 $r12: .cfa -24 + ^ .cfa: $rsp 24 +
STACK CFI 7a408 $rbp: .cfa -32 + ^ .cfa: $rsp 32 +
STACK CFI 7a40c $rbx: .cfa -40 + ^ .cfa: $rsp 40 +
STACK CFI 7a417 .cfa: $rsp 64 +
STACK CFI 7a484 .cfa: $rsp 40 +
STACK CFI 7a488 .cfa: $rsp 32 +
STACK CFI 7a489 .cfa: $rsp 24 +
STACK CFI 7a48b .cfa: $rsp 16 +
STACK CFI 7a48d .cfa: $rsp 8 +
STACK CFI 7a490 .cfa: $rsp 64 +
STACK CFI 7a4d2 .cfa: $rsp 40 +
STACK CFI 7a4d6 .cfa: $rsp 32 +
STACK CFI 7a4d7 .cfa: $rsp 24 +
STACK CFI 7a4d9 .cfa: $rsp 16 +
STACK CFI 7a4db .cfa: $rsp 8 +
STACK CFI 7a4e0 .cfa: $rsp 64 +
STACK CFI INIT 7a560 d8 .cfa: $rsp 8 + .ra: .cfa -8 + ^
STACK CFI 7a562 $r12: .cfa -16 + ^ .cfa: $rsp 16 +
STACK CFI 7a566 $rbx: .cfa -24 + ^ .cfa: $rsp 24 +
STACK CFI 7a56a .cfa: $rsp 32 +
STACK CFI 7a5e4 .cfa: $rsp 24 +
STACK CFI 7a5e8 .cfa: $rsp 16 +
STACK CFI 7a5ea .cfa: $rsp 8 +
STACK CFI 7a5f0 .cfa: $rsp 32 +
STACK CFI INIT 7a640 7 .cfa: $rsp 8 + .ra: .cfa -8 + ^
STACK CFI INIT 7a650 19 .cfa: $rsp 8 + .ra: .cfa -8 + ^
STACK CFI INIT 7a670 24 .cfa: $rsp 8 + .ra: .cfa -8 + ^
STACK CFI 7a671 $rbx: .cfa -16 + ^ .cfa: $rsp 16 +
STACK CFI 7a67e .cfa: $rsp 8 +
STACK CFI 7a680 .cfa: $rsp 16 +
STACK CFI 7a693 .cfa: $rsp 8 +
STACK CFI INIT 7a6a0 3c .cfa: $rsp 8 + .ra: .cfa -8 + ^
STACK CFI 7a6a1 $rbp: .cfa -16 + ^ .cfa: $rsp 16 +
STACK CFI 7a6a4 $rbx: .cfa -24 + ^ .cfa: $rsp 24 +
STACK CFI 7a6ab .cfa: $rsp 32 +
STACK CFI 7a6d9 .cfa: $rsp 24 +
STACK CFI 7a6da .cfa: $rsp 16 +
STACK CFI 7a6db .cfa: $rsp 8 +
STACK CFI INIT 7a6e0 21 .cfa: $rsp 8 + .ra: .cfa -8 + ^
STACK CFI INIT 7a710 21 .cfa: $rsp 8 + .ra: .cfa -8 + ^
STACK CFI INIT 7a740 eb .cfa: $rsp 8 + .ra: .cfa -8 + ^
STACK CFI 7a747 $r12: .cfa -16 + ^ .cfa: $rsp 16 +
STACK CFI 7a755 $rbp: .cfa -24 + ^ .cfa: $rsp 24 +
STACK CFI 7a758 $rbx: .cfa -32 + ^ .cfa: $rsp 32 +
STACK CFI 7a79e .cfa: $rsp 24 +
STACK CFI 7a79f .cfa: $rsp 16 +
STACK CFI 7a7a1 .cfa: $rsp 8 +
STACK CFI 7a7a8 .cfa: $rsp 32 +
STACK CFI 7a800 .cfa: $rsp 24 +
STACK CFI 7a801 .cfa: $rsp 16 +
STACK CFI 7a80d .cfa: $rsp 8 +
STACK CFI 7a810 .cfa: $rsp 32 +
STACK CFI 7a824 .cfa: $rsp 24 +
STACK CFI 7a825 .cfa: $rsp 16 +
STACK CFI 7a82a .cfa: $rsp 8 +
STACK CFI INIT 7a830 5b .cfa: $rsp 8 + .ra: .cfa -8 + ^
STACK CFI 7a832 $r12: .cfa -16 + ^ .cfa: $rsp 16 +
STACK CFI 7a836 $rbp: .cfa -24 + ^ .cfa: $rsp 24 +
STACK CFI 7a83c .cfa: $rsp 32 +
STACK CFI 7a884 .cfa: $rsp 24 +
STACK CFI 7a888 .cfa: $rsp 16 +
STACK CFI 7a88a .cfa: $rsp 8 +
STACK CFI INIT 7a890 c1 .cfa: $rsp 8 + .ra: .cfa -8 + ^
STACK CFI 7a8a1 .cfa: $rsp 16 +
STACK CFI 7a949 .cfa: $rsp 8 +
STACK CFI INIT 7a960 80 .cfa: $rsp 8 + .ra: .cfa -8 + ^
STACK CFI 7a961 $rbx: .cfa -16 + ^ .cfa: $rsp 16 +
STACK CFI 7a9a4 .cfa: $rsp 8 +
STACK CFI 7a9a8 .cfa: $rsp 16 +
STACK CFI 7a9ad .cfa: $rsp 8 +
STACK CFI 7a9b8 .cfa: $rsp 16 +
STACK CFI 7a9c9 .cfa: $rsp 8 +
STACK CFI 7a9d0 .cfa: $rsp 16 +
STACK CFI INIT 7a9e0 ac .cfa: $rsp 8 + .ra: .cfa -8 + ^
STACK CFI 7a9e2 $r12: .cfa -16 + ^ .cfa: $rsp 16 +
STACK CFI 7a9e3 $rbp: .cfa -24 + ^ .cfa: $rsp 24 +
STACK CFI 7a9eb $rbx: .cfa -32 + ^ .cfa: $rsp 32 +
STACK CFI 7aa81 .cfa: $rsp 24 +
STACK CFI 7aa82 .cfa: $rsp 16 +
STACK CFI 7aa84 .cfa: $rsp 8 +
STACK CFI 7aa88 .cfa: $rsp 32 +
STACK CFI INIT 7aa90 77 .cfa: $rsp 8 + .ra: .cfa -8 + ^
STACK CFI 7aa91 $rbp: .cfa -16 + ^ .cfa: $rsp 16 +
STACK CFI 7aa95 $rbx: .cfa -24 + ^ .cfa: $rsp 24 +
STACK CFI 7aa9c .cfa: $rsp 32 +
STACK CFI 7aaf2 .cfa: $rsp 24 +
STACK CFI 7aaf7 .cfa: $rsp 16 +
STACK CFI 7aaf8 .cfa: $rsp 8 +
STACK CFI 7ab00 .cfa: $rsp 32 +
STACK CFI 7ab04 .cfa: $rsp 24 +
STACK CFI 7ab05 .cfa: $rsp 16 +
STACK CFI 7ab06 .cfa: $rsp 8 +
STACK CFI INIT 7ab10 b7 .cfa: $rsp 8 + .ra: .cfa -8 + ^
STACK CFI 7ab11 $rbp: .cfa -16 + ^ .cfa: $rsp 16 +
STACK CFI 7ab15 $rbx: .cfa -24 + ^ .cfa: $rsp 24 +
STACK CFI 7ab1c .cfa: $rsp 32 +
STACK CFI 7ab95 .cfa: $rsp 24 +
STACK CFI 7ab9a .cfa: $rsp 16 +
STACK CFI 7ab9b .cfa: $rsp 8 +
STACK CFI 7aba0 .cfa: $rsp 32 +
STACK CFI 7abb4 .cfa: $rsp 24 +
STACK CFI 7abb5 .cfa: $rsp 16 +
STACK CFI 7abb6 .cfa: $rsp 8 +
STACK CFI 7abc0 .cfa: $rsp 32 +
STACK CFI 7abc4 .cfa: $rsp 24 +
STACK CFI 7abc5 .cfa: $rsp 16 +
STACK CFI 7abc6 .cfa: $rsp 8 +
STACK CFI INIT 7abd0 119 .cfa: $rsp 8 + .ra: .cfa -8 + ^
STACK CFI 7abd2 $r13: .cfa -16 + ^ .cfa: $rsp 16 +
STACK CFI 7abd7 $r12: .cfa -24 + ^ .cfa: $rsp 24 +
STACK CFI 7abd8 $rbp: .cfa -32 + ^ .cfa: $rsp 32 +
STACK CFI 7abdc $rbx: .cfa -40 + ^ .cfa: $rsp 40 +
STACK CFI 7abe3 .cfa: $rsp 48 +
STACK CFI 7ac5e .cfa: $rsp 40 +
STACK CFI 7ac5f .cfa: $rsp 32 +
STACK CFI 7ac60 .cfa: $rsp 24 +
STACK CFI 7ac62 .cfa: $rsp 16 +
STACK CFI 7ac64 .cfa: $rsp 8 +
STACK CFI 7ac68 .cfa: $rsp 48 +
STACK CFI 7ac93 .cfa: $rsp 40 +
STACK CFI 7ac94 .cfa: $rsp 32 +
STACK CFI 7ac95 .cfa: $rsp 24 +
STACK CFI 7ac97 .cfa: $rsp 16 +
STACK CFI 7ac99 .cfa: $rsp 8 +
STACK CFI 7aca0 .cfa: $rsp 48 +
STACK CFI 7acb0 .cfa: $rsp 40 +
STACK CFI 7acb1 .cfa: $rsp 32 +
STACK CFI 7acb2 .cfa: $rsp 24 +
STACK CFI 7acb4 .cfa: $rsp 16 +
STACK CFI 7acb6 .cfa: $rsp 8 +
STACK CFI 7acc0 .cfa: $rsp 48 +
STACK CFI 7acd4 .cfa: $rsp 40 +
STACK CFI 7acd5 .cfa: $rsp 32 +
STACK CFI 7acd6 .cfa: $rsp 24 +
STACK CFI 7acd8 .cfa: $rsp 16 +
STACK CFI 7acda .cfa: $rsp 8 +
STACK CFI 7ace0 .cfa: $rsp 48 +
STACK CFI INIT 7acf0 129 .cfa: $rsp 8 + .ra: .cfa -8 + ^
STACK CFI 7acf2 $r13: .cfa -16 + ^ .cfa: $rsp 16 +
STACK CFI 7acf7 $r12: .cfa -24 + ^ .cfa: $rsp 24 +
STACK CFI 7acf8 $rbp: .cfa -32 + ^ .cfa: $rsp 32 +
STACK CFI 7acfc $rbx: .cfa -40 + ^ .cfa: $rsp 40 +
STACK CFI 7ad03 .cfa: $rsp 48 +
STACK CFI 7adb4 .cfa: $rsp 40 +
STACK CFI 7adb8 .cfa: $rsp 32 +
STACK CFI 7adb9 .cfa: $rsp 24 +
STACK CFI 7adbb .cfa: $rsp 16 +
STACK CFI 7adbd .cfa: $rsp 8 +
STACK CFI 7adc0 .cfa: $rsp 48 +
STACK CFI INIT 7ae20 51 .cfa: $rsp 8 + .ra: .cfa -8 + ^
STACK CFI 7ae28 $rbx: .cfa -16 + ^ .cfa: $rsp 16 +
STACK CFI 7ae5f .cfa: $rsp 8 +
STACK CFI 7ae68 .cfa: $rsp 16 +
STACK CFI 7ae70 .cfa: $rsp 8 +
STACK CFI INIT 7ae80 87 .cfa: $rsp 8 + .ra: .cfa -8 + ^
STACK CFI 7ae81 $rbp: .cfa -16 + ^ .cfa: $rsp 16 +
STACK CFI 7ae82 $rbx: .cfa -24 + ^ .cfa: $rsp 24 +
STACK CFI 7ae89 .cfa: $rsp 32 +
STACK CFI 7aef1 .cfa: $rsp 24 +
STACK CFI 7aef6 .cfa: $rsp 16 +
STACK CFI 7aef7 .cfa: $rsp 8 +
STACK CFI 7af00 .cfa: $rsp 32 +
STACK CFI 7af04 .cfa: $rsp 24 +
STACK CFI 7af05 .cfa: $rsp 16 +
STACK CFI 7af06 .cfa: $rsp 8 +
STACK CFI INIT 7af10 c7 .cfa: $rsp 8 + .ra: .cfa -8 + ^
STACK CFI 7af19 $r12: .cfa -16 + ^ .cfa: $rsp 16 +
STACK CFI 7af1d $rbp: .cfa -24 + ^ .cfa: $rsp 24 +
STACK CFI 7af25 $rbx: .cfa -32 + ^ .cfa: $rsp 32 +
STACK CFI 7af9b .cfa: $rsp 24 +
STACK CFI 7afa7 .cfa: $rsp 16 +
STACK CFI 7afa9 .cfa: $rsp 8 +
STACK CFI 7afb0 .cfa: $rsp 32 +
STACK CFI 7afc1 .cfa: $rsp 24 +
STACK CFI 7afc2 .cfa: $rsp 16 +
STACK CFI 7afc4 .cfa: $rsp 8 +
STACK CFI 7afc8 .cfa: $rsp 32 +
STACK CFI INIT 7afe0 d .cfa: $rsp 8 + .ra: .cfa -8 + ^
STACK CFI INIT 7aff0 f2 .cfa: $rsp 8 + .ra: .cfa -8 + ^
STACK CFI 7aff1 $rbp: .cfa -16 + ^ .cfa: $rsp 16 +
STACK CFI 7b09a .cfa: $rsp 8 +
STACK CFI 7b0a0 .cfa: $rsp 16 +
STACK CFI INIT 7b0f0 4d .cfa: $rsp 8 + .ra: .cfa -8 + ^
STACK CFI 7b0f9 $r12: .cfa -16 + ^ .cfa: $rsp 16 +
STACK CFI 7b13c .cfa: $rsp 8 +
STACK CFI INIT 7b140 1a8 .cfa: $rsp 8 + .ra: .cfa -8 + ^
STACK CFI 7b142 $r12: .cfa -16 + ^ .cfa: $rsp 16 +
STACK CFI 7b143 $rbp: .cfa -24 + ^ .cfa: $rsp 24 +
STACK CFI 7b14a .cfa: $rsp 32 +
STACK CFI 7b272 .cfa: $rsp 24 +
STACK CFI 7b275 .cfa: $rsp 16 +
STACK CFI 7b277 .cfa: $rsp 8 +
STACK CFI 7b280 .cfa: $rsp 32 +
STACK CFI INIT 7b2f0 1b5 .cfa: $rsp 8 + .ra: .cfa -8 + ^
STACK CFI 7b2f2 $r13: .cfa -16 + ^ .cfa: $rsp 16 +
STACK CFI 7b2f4 $r12: .cfa -24 + ^ .cfa: $rsp 24 +
STACK CFI 7b2f5 $rbp: .cfa -32 + ^ .cfa: $rsp 32 +
STACK CFI 7b2f9 $rbx: .cfa -40 + ^ .cfa: $rsp 40 +
STACK CFI 7b300 .cfa: $rsp 48 +
STACK CFI 7b49e .cfa: $rsp 40 +
STACK CFI 7b49f .cfa: $rsp 32 +
STACK CFI 7b4a0 .cfa: $rsp 24 +
STACK CFI 7b4a2 .cfa: $rsp 16 +
STACK CFI 7b4a4 .cfa: $rsp 8 +
STACK CFI INIT 7b4b0 66 .cfa: $rsp 8 + .ra: .cfa -8 + ^
STACK CFI 7b4b9 $r13: .cfa -16 + ^ .cfa: $rsp 16 +
STACK CFI 7b4be $r12: .cfa -24 + ^ .cfa: $rsp 24 +
STACK CFI 7b4c2 $rbp: .cfa -32 + ^ .cfa: $rsp 32 +
STACK CFI 7b4f7 .cfa: $rsp 24 +
STACK CFI 7b504 .cfa: $rsp 16 +
STACK CFI 7b506 .cfa: $rsp 8 +
STACK CFI 7b510 .cfa: $rsp 32 +
STACK CFI 7b511 .cfa: $rsp 24 +
STACK CFI 7b513 .cfa: $rsp 16 +
STACK CFI 7b515 .cfa: $rsp 8 +
STACK CFI INIT 7b520 31c .cfa: $rsp 8 + .ra: .cfa -8 + ^
STACK CFI 7b522 $r13: .cfa -16 + ^ .cfa: $rsp 16 +
STACK CFI 7b529 $r12: .cfa -24 + ^ .cfa: $rsp 24 +
STACK CFI 7b52d $rbp: .cfa -32 + ^ .cfa: $rsp 32 +
STACK CFI 7b530 $rbx: .cfa -40 + ^ .cfa: $rsp 40 +
STACK CFI 7b534 .cfa: $rsp 48 +
STACK CFI 7b596 .cfa: $rsp 40 +
STACK CFI 7b59a .cfa: $rsp 32 +
STACK CFI 7b59b .cfa: $rsp 24 +
STACK CFI 7b59d .cfa: $rsp 16 +
STACK CFI 7b59f .cfa: $rsp 8 +
STACK CFI 7b5a0 .cfa: $rsp 48 +
STACK CFI 7b678 .cfa: $rsp 40 +
STACK CFI 7b67c .cfa: $rsp 32 +
STACK CFI 7b67d .cfa: $rsp 24 +
STACK CFI 7b67f .cfa: $rsp 16 +
STACK CFI 7b681 .cfa: $rsp 8 +
STACK CFI 7b688 .cfa: $rsp 48 +
STACK CFI 7b6a1 .cfa: $rsp 40 +
STACK CFI 7b6a9 .cfa: $rsp 32 +
STACK CFI 7b6ac .cfa: $rsp 24 +
STACK CFI 7b6ae .cfa: $rsp 16 +
STACK CFI 7b6b0 .cfa: $rsp 8 +
STACK CFI 7b6b8 .cfa: $rsp 48 +
STACK CFI 7b7cb .cfa: $rsp 40 +
STACK CFI 7b7cf .cfa: $rsp 32 +
STACK CFI 7b7d0 .cfa: $rsp 24 +
STACK CFI 7b7d2 .cfa: $rsp 16 +
STACK CFI 7b7d4 .cfa: $rsp 8 +
STACK CFI 7b7d8 .cfa: $rsp 48 +
STACK CFI INIT 7b840 5d .cfa: $rsp 8 + .ra: .cfa -8 + ^
STACK CFI 7b842 $r12: .cfa -16 + ^ .cfa: $rsp 16 +
STACK CFI 7b846 $rbp: .cfa -24 + ^ .cfa: $rsp 24 +
STACK CFI 7b84d .cfa: $rsp 32 +
STACK CFI 7b896 .cfa: $rsp 24 +
STACK CFI 7b89a .cfa: $rsp 16 +
STACK CFI 7b89c .cfa: $rsp 8 +
STACK CFI INIT 7b8a0 4d .cfa: $rsp 8 + .ra: .cfa -8 + ^
STACK CFI 7b8a9 $r12: .cfa -16 + ^ .cfa: $rsp 16 +
STACK CFI 7b8ec .cfa: $rsp 8 +
STACK CFI INIT 7b8f0 13 .cfa: $rsp 8 + .ra: .cfa -8 + ^
STACK CFI INIT 7b910 44 .cfa: $rsp 8 + .ra: .cfa -8 + ^
STACK CFI 7b912 $r12: .cfa -16 + ^ .cfa: $rsp 16 +
STACK CFI 7b916 $rbp: .cfa -24 + ^ .cfa: $rsp 24 +
STACK CFI 7b91a $rbx: .cfa -32 + ^ .cfa: $rsp 32 +
STACK CFI 7b950 .cfa: $rsp 24 +
STACK CFI 7b951 .cfa: $rsp 16 +
STACK CFI 7b953 .cfa: $rsp 8 +
STACK CFI INIT 7b960 b .cfa: $rsp 8 + .ra: .cfa -8 + ^
STACK CFI INIT 7b970 8 .cfa: $rsp 8 + .ra: .cfa -8 + ^
STACK CFI INIT 7b980 c .cfa: $rsp 8 + .ra: .cfa -8 + ^
STACK CFI INIT 7b990 a8 .cfa: $rsp 8 + .ra: .cfa -8 + ^
STACK CFI 7b999 $r12: .cfa -16 + ^ .cfa: $rsp 16 +
STACK CFI 7b99d $rbp: .cfa -24 + ^ .cfa: $rsp 24 +
STACK CFI 7b9a1 $rbx: .cfa -32 + ^ .cfa: $rsp 32 +
STACK CFI 7b9f1 .cfa: $rsp 24 +
STACK CFI 7b9f2 .cfa: $rsp 16 +
STACK CFI 7b9f4 .cfa: $rsp 8 +
STACK CFI 7b9f8 .cfa: $rsp 32 +
STACK CFI 7ba28 .cfa: $rsp 24 +
STACK CFI 7ba34 .cfa: $rsp 16 +
STACK CFI 7ba36 .cfa: $rsp 8 +
STACK CFI INIT 7ba40 1e6 .cfa: $rsp 8 + .ra: .cfa -8 + ^
STACK CFI 7ba42 $r14: .cfa -16 + ^ .cfa: $rsp 16 +
STACK CFI 7ba46 $r13: .cfa -24 + ^ .cfa: $rsp 24 +
STACK CFI 7ba50 $r12: .cfa -32 + ^ .cfa: $rsp 32 +
STACK CFI 7ba59 $rbp: .cfa -40 + ^ .cfa: $rsp 40 +
STACK CFI 7ba60 $rbx: .cfa -48 + ^ .cfa: $rsp 48 +
STACK CFI 7bbc8 .cfa: $rsp 40 +
STACK CFI 7bbcc .cfa: $rsp 32 +
STACK CFI 7bbce .cfa: $rsp 24 +
STACK CFI 7bbd0 .cfa: $rsp 16 +
STACK CFI 7bbd2 .cfa: $rsp 8 +
STACK CFI 7bbd3 .cfa: $rsp 48 +
STACK CFI 7bbd7 .cfa: $rsp 40 +
STACK CFI 7bbd8 .cfa: $rsp 32 +
STACK CFI 7bbdd .cfa: $rsp 24 +
STACK CFI 7bbdf .cfa: $rsp 16 +
STACK CFI 7bbe1 .cfa: $rsp 8 +
STACK CFI 7bbe2 .cfa: $rsp 48 +
STACK CFI 7bbfa .cfa: $rsp 40 +
STACK CFI 7bbfe .cfa: $rsp 32 +
STACK CFI 7bc00 .cfa: $rsp 24 +
STACK CFI 7bc02 .cfa: $rsp 16 +
STACK CFI 7bc04 .cfa: $rsp 8 +
STACK CFI 7bc05 .cfa: $rsp 48 +
STACK CFI INIT 7bc30 c1 .cfa: $rsp 8 + .ra: .cfa -8 + ^
STACK CFI 7bc48 $r12: .cfa -16 + ^ .cfa: $rsp 16 +
STACK CFI 7bc53 $rbp: .cfa -24 + ^ .cfa: $rsp 24 +
STACK CFI 7bc5a $rbx: .cfa -32 + ^ .cfa: $rsp 32 +
STACK CFI 7bcce .cfa: $rsp 24 +
STACK CFI 7bccf .cfa: $rsp 16 +
STACK CFI 7bcd1 .cfa: $rsp 8 +
STACK CFI 7bcd8 .cfa: $rsp 32 +
STACK CFI 7bce3 .cfa: $rsp 24 +
STACK CFI 7bce9 .cfa: $rsp 16 +
STACK CFI 7bceb .cfa: $rsp 8 +
STACK CFI 7bcf0 $r12: $r12 $rbp: $rbp $rbx: $rbx
STACK CFI INIT 7bd00 1ee .cfa: $rsp 8 + .ra: .cfa -8 + ^
STACK CFI 7bd02 $r14: .cfa -16 + ^ .cfa: $rsp 16 +
STACK CFI 7bd04 $r13: .cfa -24 + ^ .cfa: $rsp 24 +
STACK CFI 7bd06 $r12: .cfa -32 + ^ .cfa: $rsp 32 +
STACK CFI 7bd0a $rbp: .cfa -40 + ^ .cfa: $rsp 40 +
STACK CFI 7bd0b $rbx: .cfa -48 + ^ .cfa: $rsp 48 +
STACK CFI 7be9f .cfa: $rsp 40 +
STACK CFI 7bea3 .cfa: $rsp 32 +
STACK CFI 7bea5 .cfa: $rsp 24 +
STACK CFI 7bea7 .cfa: $rsp 16 +
STACK CFI 7bea9 .cfa: $rsp 8 +
STACK CFI 7beb0 .cfa: $rsp 48 +
STACK CFI 7bec6 .cfa: $rsp 40 +
STACK CFI 7bec7 .cfa: $rsp 32 +
STACK CFI 7becc .cfa: $rsp 24 +
STACK CFI 7bece .cfa: $rsp 16 +
STACK CFI 7bed0 .cfa: $rsp 8 +
STACK CFI 7bed8 .cfa: $rsp 48 +
STACK CFI 7bee3 .cfa: $rsp 40 +
STACK CFI 7bee7 .cfa: $rsp 32 +
STACK CFI 7bee9 .cfa: $rsp 24 +
STACK CFI 7beeb .cfa: $rsp 16 +
STACK CFI 7beed .cfa: $rsp 8 +
STACK CFI INIT 7bef0 5d .cfa: $rsp 8 + .ra: .cfa -8 + ^
STACK CFI 7bef2 $r12: .cfa -16 + ^ .cfa: $rsp 16 +
STACK CFI 7bef3 $rbp: .cfa -24 + ^ .cfa: $rsp 24 +
STACK CFI 7bef4 $rbx: .cfa -32 + ^ .cfa: $rsp 32 +
STACK CFI 7bf3c .cfa: $rsp 24 +
STACK CFI 7bf3d .cfa: $rsp 16 +
STACK CFI 7bf3f .cfa: $rsp 8 +
STACK CFI 7bf48 .cfa: $rsp 32 +
STACK CFI 7bf49 .cfa: $rsp 24 +
STACK CFI 7bf4a .cfa: $rsp 16 +
STACK CFI 7bf4c .cfa: $rsp 8 +
STACK CFI INIT 7bf50 9d .cfa: $rsp 8 + .ra: .cfa -8 + ^
STACK CFI 7bf59 $r12: .cfa -16 + ^ .cfa: $rsp 16 +
STACK CFI 7bf5a $rbp: .cfa -24 + ^ .cfa: $rsp 24 +
STACK CFI 7bf5e $rbx: .cfa -32 + ^ .cfa: $rsp 32 +
STACK CFI 7bfd5 .cfa: $rsp 24 +
STACK CFI 7bfe1 .cfa: $rsp 16 +
STACK CFI 7bfe3 .cfa: $rsp 8 +
STACK CFI 7bfe8 .cfa: $rsp 32 +
STACK CFI 7bfe9 .cfa: $rsp 24 +
STACK CFI 7bfea .cfa: $rsp 16 +
STACK CFI 7bfec .cfa: $rsp 8 +
STACK CFI INIT 7bff0 ee .cfa: $rsp 8 + .ra: .cfa -8 + ^
STACK CFI 7bff1 $rbp: .cfa -16 + ^ .cfa: $rsp 16 +
STACK CFI 7bff2 $rbx: .cfa -24 + ^ .cfa: $rsp 24 +
STACK CFI 7bff6 .cfa: $rsp 32 +
STACK CFI 7c0d9 .cfa: $rsp 24 +
STACK CFI 7c0dc .cfa: $rsp 16 +
STACK CFI 7c0dd .cfa: $rsp 8 +
STACK CFI INIT 7c0e0 66 .cfa: $rsp 8 + .ra: .cfa -8 + ^
STACK CFI 7c0e2 $r12: .cfa -16 + ^ .cfa: $rsp 16 +
STACK CFI 7c0e3 $rbx: .cfa -24 + ^ .cfa: $rsp 24 +
STACK CFI 7c0e7 .cfa: $rsp 32 +
STACK CFI 7c12b .cfa: $rsp 24 +
STACK CFI 7c12f .cfa: $rsp 16 +
STACK CFI 7c131 .cfa: $rsp 8 +
STACK CFI 7c138 .cfa: $rsp 32 +
STACK CFI 7c13f .cfa: $rsp 24 +
STACK CFI 7c143 .cfa: $rsp 16 +
STACK CFI 7c145 .cfa: $rsp 8 +
STACK CFI INIT 7c150 95 .cfa: $rsp 8 + .ra: .cfa -8 + ^
STACK CFI 7c152 $r12: .cfa -16 + ^ .cfa: $rsp 16 +
STACK CFI 7c156 $rbx: .cfa -24 + ^ .cfa: $rsp 24 +
STACK CFI 7c15a .cfa: $rsp 32 +
STACK CFI 7c1d4 .cfa: $rsp 24 +
STACK CFI 7c1d8 .cfa: $rsp 16 +
STACK CFI 7c1da .cfa: $rsp 8 +
STACK CFI 7c1e0 .cfa: $rsp 32 +
STACK CFI INIT 7c1f0 128 .cfa: $rsp 8 + .ra: .cfa -8 + ^
STACK CFI 7c1f2 $r12: .cfa -16 + ^ .cfa: $rsp 16 +
STACK CFI 7c1fa $rbp: .cfa -24 + ^ .cfa: $rsp 24 +
STACK CFI 7c1fe $rbx: .cfa -32 + ^ .cfa: $rsp 32 +
STACK CFI 7c281 .cfa: $rsp 24 +
STACK CFI 7c282 .cfa: $rsp 16 +
STACK CFI 7c284 .cfa: $rsp 8 +
STACK CFI 7c288 .cfa: $rsp 32 +
STACK CFI 7c307 .cfa: $rsp 24 +
STACK CFI 7c308 .cfa: $rsp 16 +
STACK CFI 7c317 .cfa: $rsp 8 +
STACK CFI INIT 7c320 1db .cfa: $rsp 8 + .ra: .cfa -8 + ^
STACK CFI 7c322 $r13: .cfa -16 + ^ .cfa: $rsp 16 +
STACK CFI 7c324 $r12: .cfa -24 + ^ .cfa: $rsp 24 +
STACK CFI 7c325 $rbp: .cfa -32 + ^ .cfa: $rsp 32 +
STACK CFI 7c326 $rbx: .cfa -40 + ^ .cfa: $rsp 40 +
STACK CFI 7c32a .cfa: $rsp 48 +
STACK CFI 7c349 .cfa: $rsp 40 +
STACK CFI 7c34d .cfa: $rsp 32 +
STACK CFI 7c34e .cfa: $rsp 24 +
STACK CFI 7c350 .cfa: $rsp 16 +
STACK CFI 7c352 .cfa: $rsp 8 +
STACK CFI 7c358 .cfa: $rsp 48 +
STACK CFI 7c45c .cfa: $rsp 40 +
STACK CFI 7c463 .cfa: $rsp 32 +
STACK CFI 7c467 .cfa: $rsp 24 +
STACK CFI 7c469 .cfa: $rsp 16 +
STACK CFI 7c46b .cfa: $rsp 8 +
STACK CFI 7c470 .cfa: $rsp 48 +
STACK CFI 7c4f1 .cfa: $rsp 40 +
STACK CFI 7c4f2 .cfa: $rsp 32 +
STACK CFI 7c4f6 .cfa: $rsp 24 +
STACK CFI 7c4f8 .cfa: $rsp 16 +
STACK CFI 7c4fa .cfa: $rsp 8 +
STACK CFI INIT 7c500 165 .cfa: $rsp 8 + .ra: .cfa -8 + ^
STACK CFI 7c509 $r12: .cfa -16 + ^ .cfa: $rsp 16 +
STACK CFI 7c50a $rbp: .cfa -24 + ^ .cfa: $rsp 24 +
STACK CFI 7c50e $rbx: .cfa -32 + ^ .cfa: $rsp 32 +
STACK CFI 7c5c6 .cfa: $rsp 24 +
STACK CFI 7c5c7 .cfa: $rsp 16 +
STACK CFI 7c5c9 .cfa: $rsp 8 +
STACK CFI 7c5d0 .cfa: $rsp 32 +
STACK CFI INIT 7c670 2fd .cfa: $rsp 8 + .ra: .cfa -8 + ^
STACK CFI 7c672 $r15: .cfa -16 + ^ .cfa: $rsp 16 +
STACK CFI 7c67f $r14: .cfa -24 + ^ .cfa: $rsp 24 +
STACK CFI 7c681 $r13: .cfa -32 + ^ .cfa: $rsp 32 +
STACK CFI 7c686 $r12: .cfa -40 + ^ .cfa: $rsp 40 +
STACK CFI 7c687 $rbp: .cfa -48 + ^ .cfa: $rsp 48 +
STACK CFI 7c688 $rbx: .cfa -56 + ^ .cfa: $rsp 56 +
STACK CFI 7c68f .cfa: $rsp 16448 +
STACK CFI 7c842 .cfa: $rsp 56 +
STACK CFI 7c843 .cfa: $rsp 48 +
STACK CFI 7c844 .cfa: $rsp 40 +
STACK CFI 7c846 .cfa: $rsp 32 +
STACK CFI 7c848 .cfa: $rsp 24 +
STACK CFI 7c84a .cfa: $rsp 16 +
STACK CFI 7c84c .cfa: $rsp 8 +
STACK CFI 7c850 .cfa: $rsp 16448 +
STACK CFI INIT 7c970 830 .cfa: $rsp 8 + .ra: .cfa -8 + ^
STACK CFI 7c972 $r15: .cfa -16 + ^ .cfa: $rsp 16 +
STACK CFI 7c974 $r14: .cfa -24 + ^ .cfa: $rsp 24 +
STACK CFI 7c976 $r13: .cfa -32 + ^ .cfa: $rsp 32 +
STACK CFI 7c978 $r12: .cfa -40 + ^ .cfa: $rsp 40 +
STACK CFI 7c979 $rbp: .cfa -48 + ^ .cfa: $rsp 48 +
STACK CFI 7c97a $rbx: .cfa -56 + ^ .cfa: $rsp 56 +
STACK CFI 7c981 .cfa: $rsp 1120 +
STACK CFI 7ca84 .cfa: $rsp 56 +
STACK CFI 7ca85 .cfa: $rsp 48 +
STACK CFI 7ca86 .cfa: $rsp 40 +
STACK CFI 7ca88 .cfa: $rsp 32 +
STACK CFI 7ca8a .cfa: $rsp 24 +
STACK CFI 7ca8c .cfa: $rsp 16 +
STACK CFI 7ca8e .cfa: $rsp 8 +
STACK CFI 7ca90 .cfa: $rsp 1120 +
STACK CFI INIT 7d1a0 5d .cfa: $rsp 8 + .ra: .cfa -8 + ^
STACK CFI 7d1a9 $r13: .cfa -16 + ^ .cfa: $rsp 16 +
STACK CFI 7d1ae $r12: .cfa -24 + ^ .cfa: $rsp 24 +
STACK CFI 7d1b2 $rbp: .cfa -32 + ^ .cfa: $rsp 32 +
STACK CFI 7d1f8 .cfa: $rsp 24 +
STACK CFI 7d1fa .cfa: $rsp 16 +
STACK CFI 7d1fc .cfa: $rsp 8 +
STACK CFI INIT 7d200 63 .cfa: $rsp 8 + .ra: .cfa -8 + ^
STACK CFI 7d202 $r12: .cfa -16 + ^ .cfa: $rsp 16 +
STACK CFI 7d206 $rbp: .cfa -24 + ^ .cfa: $rsp 24 +
STACK CFI 7d20a .cfa: $rsp 32 +
STACK CFI 7d25c .cfa: $rsp 24 +
STACK CFI 7d260 .cfa: $rsp 16 +
STACK CFI 7d262 .cfa: $rsp 8 +
STACK CFI INIT 7d270 63 .cfa: $rsp 8 + .ra: .cfa -8 + ^
STACK CFI 7d272 $r12: .cfa -16 + ^ .cfa: $rsp 16 +
STACK CFI 7d276 $rbp: .cfa -24 + ^ .cfa: $rsp 24 +
STACK CFI 7d27a .cfa: $rsp 32 +
STACK CFI 7d2cc .cfa: $rsp 24 +
STACK CFI 7d2d0 .cfa: $rsp 16 +
STACK CFI 7d2d2 .cfa: $rsp 8 +
STACK CFI INIT 7d2e0 ee .cfa: $rsp 8 + .ra: .cfa -8 + ^
STACK CFI 7d2e2 $r12: .cfa -16 + ^ .cfa: $rsp 16 +
STACK CFI 7d2e3 $rbp: .cfa -24 + ^ .cfa: $rsp 24 +
STACK CFI 7d2ea .cfa: $rsp 240 +
STACK CFI 7d3c7 .cfa: $rsp 24 +
STACK CFI 7d3cb .cfa: $rsp 16 +
STACK CFI 7d3cd .cfa: $rsp 8 +
STACK CFI INIT 7d3d0 6a .cfa: $rsp 8 + .ra: .cfa -8 + ^
STACK CFI 7d3d2 $r12: .cfa -16 + ^ .cfa: $rsp 16 +
STACK CFI 7d3d6 .cfa: $rsp 32 +
STACK CFI 7d434 .cfa: $rsp 16 +
STACK CFI 7d439 .cfa: $rsp 8 +
STACK CFI INIT 7d440 68 .cfa: $rsp 8 + .ra: .cfa -8 + ^
STACK CFI 7d442 $r12: .cfa -16 + ^ .cfa: $rsp 16 +
STACK CFI 7d443 $rbp: .cfa -24 + ^ .cfa: $rsp 24 +
STACK CFI 7d447 .cfa: $rsp 32 +
STACK CFI 7d4a1 .cfa: $rsp 24 +
STACK CFI 7d4a5 .cfa: $rsp 16 +
STACK CFI 7d4a7 .cfa: $rsp 8 +
STACK CFI INIT 7d4b0 80 .cfa: $rsp 8 + .ra: .cfa -8 + ^
STACK CFI 7d4b2 $r12: .cfa -16 + ^ .cfa: $rsp 16 +
STACK CFI 7d4b3 $rbp: .cfa -24 + ^ .cfa: $rsp 24 +
STACK CFI 7d4b7 .cfa: $rsp 32 +
STACK CFI 7d51b .cfa: $rsp 24 +
STACK CFI 7d51f .cfa: $rsp 16 +
STACK CFI 7d521 .cfa: $rsp 8 +
STACK CFI 7d528 .cfa: $rsp 32 +
STACK CFI INIT 7d530 80 .cfa: $rsp 8 + .ra: .cfa -8 + ^
STACK CFI 7d532 $r12: .cfa -16 + ^ .cfa: $rsp 16 +
STACK CFI 7d533 $rbp: .cfa -24 + ^ .cfa: $rsp 24 +
STACK CFI 7d537 .cfa: $rsp 32 +
STACK CFI 7d59b .cfa: $rsp 24 +
STACK CFI 7d59f .cfa: $rsp 16 +
STACK CFI 7d5a1 .cfa: $rsp 8 +
STACK CFI 7d5a8 .cfa: $rsp 32 +
STACK CFI INIT 7d5b0 118 .cfa: $rsp 8 + .ra: .cfa -8 + ^
STACK CFI 7d5b2 $r12: .cfa -16 + ^ .cfa: $rsp 16 +
STACK CFI 7d5b3 $rbp: .cfa -24 + ^ .cfa: $rsp 24 +
STACK CFI 7d5ba .cfa: $rsp 240 +
STACK CFI 7d6b3 .cfa: $rsp 24 +
STACK CFI 7d6b7 .cfa: $rsp 16 +
STACK CFI 7d6b9 .cfa: $rsp 8 +
STACK CFI 7d6c0 .cfa: $rsp 240 +
STACK CFI INIT 7d6d0 16c .cfa: $rsp 8 + .ra: .cfa -8 + ^
STACK CFI 7d6d2 $r12: .cfa -16 + ^ .cfa: $rsp 16 +
STACK CFI 7d6d6 $rbp: .cfa -24 + ^ .cfa: $rsp 24 +
STACK CFI 7d6d7 $rbx: .cfa -32 + ^ .cfa: $rsp 32 +
STACK CFI 7d6de .cfa: $rsp 240 +
STACK CFI 7d815 .cfa: $rsp 32 +
STACK CFI 7d819 .cfa: $rsp 24 +
STACK CFI 7d81a .cfa: $rsp 16 +
STACK CFI 7d81c .cfa: $rsp 8 +
STACK CFI 7d820 .cfa: $rsp 240 +
STACK CFI 7d834 .cfa: $rsp 32 +
STACK CFI 7d838 .cfa: $rsp 24 +
STACK CFI 7d839 .cfa: $rsp 16 +
STACK CFI 7d83b .cfa: $rsp 8 +
STACK CFI INIT 7d840 102 .cfa: $rsp 8 + .ra: .cfa -8 + ^
STACK CFI 7d849 $r12: .cfa -16 + ^ .cfa: $rsp 16 +
STACK CFI 7d84a $rbp: .cfa -24 + ^ .cfa: $rsp 24 +
STACK CFI 7d84b $rbx: .cfa -32 + ^ .cfa: $rsp 32 +
STACK CFI 7d900 .cfa: $rsp 24 +
STACK CFI 7d901 .cfa: $rsp 16 +
STACK CFI 7d903 .cfa: $rsp 8 +
STACK CFI 7d908 .cfa: $rsp 32 +
STACK CFI 7d90c .cfa: $rsp 24 +
STACK CFI 7d90d .cfa: $rsp 16 +
STACK CFI 7d912 .cfa: $rsp 8 +
STACK CFI 7d918 .cfa: $rsp 32 +
STACK CFI 7d93e .cfa: $rsp 24 +
STACK CFI 7d93f .cfa: $rsp 16 +
STACK CFI 7d941 .cfa: $rsp 8 +
STACK CFI INIT 7d950 66 .cfa: $rsp 8 + .ra: .cfa -8 + ^
STACK CFI 7d952 $r12: .cfa -16 + ^ .cfa: $rsp 16 +
STACK CFI 7d956 $rbp: .cfa -24 + ^ .cfa: $rsp 24 +
STACK CFI 7d95a .cfa: $rsp 32 +
STACK CFI 7d9af .cfa: $rsp 24 +
STACK CFI 7d9b3 .cfa: $rsp 16 +
STACK CFI 7d9b5 .cfa: $rsp 8 +
STACK CFI INIT 7d9c0 68 .cfa: $rsp 8 + .ra: .cfa -8 + ^
STACK CFI 7d9c2 $r13: .cfa -16 + ^ .cfa: $rsp 16 +
STACK CFI 7d9c4 $r12: .cfa -24 + ^ .cfa: $rsp 24 +
STACK CFI 7d9cb $rbp: .cfa -32 + ^ .cfa: $rsp 32 +
STACK CFI 7da23 .cfa: $rsp 24 +
STACK CFI 7da25 .cfa: $rsp 16 +
STACK CFI 7da27 .cfa: $rsp 8 +
STACK CFI INIT 7da30 e9 .cfa: $rsp 8 + .ra: .cfa -8 + ^
STACK CFI 7da32 $r13: .cfa -16 + ^ .cfa: $rsp 16 +
STACK CFI 7da34 $r12: .cfa -24 + ^ .cfa: $rsp 24 +
STACK CFI 7da3b $rbp: .cfa -32 + ^ .cfa: $rsp 32 +
STACK CFI 7da44 .cfa: $rsp 240 +
STACK CFI 7db10 .cfa: $rsp 32 +
STACK CFI 7db14 .cfa: $rsp 24 +
STACK CFI 7db16 .cfa: $rsp 16 +
STACK CFI 7db18 .cfa: $rsp 8 +
STACK CFI INIT 7db20 274 .cfa: $rsp 8 + .ra: .cfa -8 + ^
STACK CFI 7db22 $r15: .cfa -16 + ^ .cfa: $rsp 16 +
STACK CFI 7db28 $r14: .cfa -24 + ^ .cfa: $rsp 24 +
STACK CFI 7db2d $r13: .cfa -32 + ^ .cfa: $rsp 32 +
STACK CFI 7db2f $r12: .cfa -40 + ^ .cfa: $rsp 40 +
STACK CFI 7db33 $rbp: .cfa -48 + ^ .cfa: $rsp 48 +
STACK CFI 7db37 $rbx: .cfa -56 + ^ .cfa: $rsp 56 +
STACK CFI 7db41 .cfa: $rsp 1104 +
STACK CFI 7dcd2 .cfa: $rsp 56 +
STACK CFI 7dcd3 .cfa: $rsp 48 +
STACK CFI 7dcd4 .cfa: $rsp 40 +
STACK CFI 7dcd6 .cfa: $rsp 32 +
STACK CFI 7dcd8 .cfa: $rsp 24 +
STACK CFI 7dcda .cfa: $rsp 16 +
STACK CFI 7dcdc .cfa: $rsp 8 +
STACK CFI 7dce0 .cfa: $rsp 1104 +
STACK CFI INIT 7dda0 79 .cfa: $rsp 8 + .ra: .cfa -8 + ^
STACK CFI 7dda9 $r14: .cfa -16 + ^ .cfa: $rsp 16 +
STACK CFI 7ddae $r13: .cfa -24 + ^ .cfa: $rsp 24 +
STACK CFI 7ddb3 $r12: .cfa -32 + ^ .cfa: $rsp 32 +
STACK CFI 7ddb7 $rbp: .cfa -40 + ^ .cfa: $rsp 40 +
STACK CFI 7ddbb $rbx: .cfa -48 + ^ .cfa: $rsp 48 +
STACK CFI 7ddf4 .cfa: $rsp 40 +
STACK CFI 7de00 .cfa: $rsp 32 +
STACK CFI 7de02 .cfa: $rsp 24 +
STACK CFI 7de04 .cfa: $rsp 16 +
STACK CFI 7de06 .cfa: $rsp 8 +
STACK CFI 7de10 .cfa: $rsp 48 +
STACK CFI 7de11 .cfa: $rsp 40 +
STACK CFI 7de12 .cfa: $rsp 32 +
STACK CFI 7de14 .cfa: $rsp 24 +
STACK CFI 7de16 .cfa: $rsp 16 +
STACK CFI 7de18 .cfa: $rsp 8 +
STACK CFI INIT 7de20 67c .cfa: $rsp 8 + .ra: .cfa -8 + ^
STACK CFI 7de22 $r15: .cfa -16 + ^ .cfa: $rsp 16 +
STACK CFI 7de24 $r14: .cfa -24 + ^ .cfa: $rsp 24 +
STACK CFI 7de26 $r13: .cfa -32 + ^ .cfa: $rsp 32 +
STACK CFI 7de2b $r12: .cfa -40 + ^ .cfa: $rsp 40 +
STACK CFI 7de2c $rbp: .cfa -48 + ^ .cfa: $rsp 48 +
STACK CFI 7de30 $rbx: .cfa -56 + ^ .cfa: $rsp 56 +
STACK CFI 7de37 .cfa: $rsp 64 +
STACK CFI 7def6 .cfa: $rsp 56 +
STACK CFI 7def7 .cfa: $rsp 48 +
STACK CFI 7def8 .cfa: $rsp 40 +
STACK CFI 7defa .cfa: $rsp 32 +
STACK CFI 7defc .cfa: $rsp 24 +
STACK CFI 7defe .cfa: $rsp 16 +
STACK CFI 7df00 .cfa: $rsp 8 +
STACK CFI 7df08 .cfa: $rsp 64 +
STACK CFI 7e004 .cfa: $rsp 56 +
STACK CFI 7e008 .cfa: $rsp 48 +
STACK CFI 7e009 .cfa: $rsp 40 +
STACK CFI 7e00b .cfa: $rsp 32 +
STACK CFI 7e00d .cfa: $rsp 24 +
STACK CFI 7e00f .cfa: $rsp 16 +
STACK CFI 7e011 .cfa: $rsp 8 +
STACK CFI 7e016 .cfa: $rsp 64 +
STACK CFI 7e01e .cfa: $rsp 56 +
STACK CFI 7e026 .cfa: $rsp 48 +
STACK CFI 7e027 .cfa: $rsp 40 +
STACK CFI 7e029 .cfa: $rsp 32 +
STACK CFI 7e02b .cfa: $rsp 24 +
STACK CFI 7e02d .cfa: $rsp 16 +
STACK CFI 7e02f .cfa: $rsp 8 +
STACK CFI 7e030 .cfa: $rsp 64 +
STACK CFI INIT 7e4a0 5f .cfa: $rsp 8 + .ra: .cfa -8 + ^
STACK CFI 7e4a9 $r13: .cfa -16 + ^ .cfa: $rsp 16 +
STACK CFI 7e4ae $r12: .cfa -24 + ^ .cfa: $rsp 24 +
STACK CFI 7e4b2 $rbp: .cfa -32 + ^ .cfa: $rsp 32 +
STACK CFI 7e4fa .cfa: $rsp 24 +
STACK CFI 7e4fc .cfa: $rsp 16 +
STACK CFI 7e4fe .cfa: $rsp 8 +
STACK CFI INIT 7e500 20e .cfa: $rsp 8 + .ra: .cfa -8 + ^
STACK CFI 7e502 $r14: .cfa -16 + ^ .cfa: $rsp 16 +
STACK CFI 7e504 $r13: .cfa -24 + ^ .cfa: $rsp 24 +
STACK CFI 7e509 $r12: .cfa -32 + ^ .cfa: $rsp 32 +
STACK CFI 7e50a $rbp: .cfa -40 + ^ .cfa: $rsp 40 +
STACK CFI 7e50b $rbx: .cfa -48 + ^ .cfa: $rsp 48 +
STACK CFI 7e515 .cfa: $rsp 4144 +
STACK CFI 7e605 .cfa: $rsp 48 +
STACK CFI 7e609 .cfa: $rsp 40 +
STACK CFI 7e60a .cfa: $rsp 32 +
STACK CFI 7e60c .cfa: $rsp 24 +
STACK CFI 7e60e .cfa: $rsp 16 +
STACK CFI 7e610 .cfa: $rsp 8 +
STACK CFI 7e618 .cfa: $rsp 4144 +
STACK CFI INIT 7e710 5d .cfa: $rsp 8 + .ra: .cfa -8 + ^
STACK CFI 7e712 $r12: .cfa -16 + ^ .cfa: $rsp 16 +
STACK CFI 7e716 $rbp: .cfa -24 + ^ .cfa: $rsp 24 +
STACK CFI 7e71d .cfa: $rsp 32 +
STACK CFI 7e766 .cfa: $rsp 24 +
STACK CFI 7e76a .cfa: $rsp 16 +
STACK CFI 7e76c .cfa: $rsp 8 +
STACK CFI INIT 7e770 253 .cfa: $rsp 8 + .ra: .cfa -8 + ^
STACK CFI 7e772 $r13: .cfa -16 + ^ .cfa: $rsp 16 +
STACK CFI 7e774 $r12: .cfa -24 + ^ .cfa: $rsp 24 +
STACK CFI 7e775 $rbp: .cfa -32 + ^ .cfa: $rsp 32 +
STACK CFI 7e779 $rbx: .cfa -40 + ^ .cfa: $rsp 40 +
STACK CFI 7e77f .cfa: $rsp 48 +
STACK CFI 7e7d1 .cfa: $rsp 40 +
STACK CFI 7e7d5 .cfa: $rsp 32 +
STACK CFI 7e7d6 .cfa: $rsp 24 +
STACK CFI 7e7d8 .cfa: $rsp 16 +
STACK CFI 7e7da .cfa: $rsp 8 +
STACK CFI 7e7e0 .cfa: $rsp 48 +
STACK CFI INIT 7e9d0 5a .cfa: $rsp 8 + .ra: .cfa -8 + ^
STACK CFI 7e9d8 $rbp: .cfa -16 + ^ .cfa: $rsp 16 +
STACK CFI 7ea20 .cfa: $rsp 8 +
STACK CFI 7ea28 .cfa: $rsp 16 +
STACK CFI 7ea29 .cfa: $rsp 8 +
STACK CFI INIT 7ea30 20 .cfa: $rsp 8 + .ra: .cfa -8 + ^
STACK CFI INIT 7ea50 79 .cfa: $rsp 8 + .ra: .cfa -8 + ^
STACK CFI 7ea52 $r12: .cfa -16 + ^ .cfa: $rsp 16 +
STACK CFI 7ea53 $rbx: .cfa -24 + ^ .cfa: $rsp 24 +
STACK CFI 7ea5a .cfa: $rsp 32 +
STACK CFI 7eaa1 .cfa: $rsp 24 +
STACK CFI 7eaa5 .cfa: $rsp 16 +
STACK CFI 7eaa7 .cfa: $rsp 8 +
STACK CFI 7eab0 .cfa: $rsp 32 +
STACK CFI 7eac2 .cfa: $rsp 24 +
STACK CFI 7eac3 .cfa: $rsp 16 +
STACK CFI 7eac8 .cfa: $rsp 8 +
STACK CFI INIT 7ead0 300 .cfa: $rsp 8 + .ra: .cfa -8 + ^
STACK CFI 7ead2 $r14: .cfa -16 + ^ .cfa: $rsp 16 +
STACK CFI 7ead4 $r13: .cfa -24 + ^ .cfa: $rsp 24 +
STACK CFI 7ead6 $r12: .cfa -32 + ^ .cfa: $rsp 32 +
STACK CFI 7eada $rbp: .cfa -40 + ^ .cfa: $rsp 40 +
STACK CFI 7eadb $rbx: .cfa -48 + ^ .cfa: $rsp 48 +
STACK CFI 7eadf .cfa: $rsp 64 +
STACK CFI 7ebf5 .cfa: $rsp 48 +
STACK CFI 7ebf6 .cfa: $rsp 40 +
STACK CFI 7ebf7 .cfa: $rsp 32 +
STACK CFI 7ebf9 .cfa: $rsp 24 +
STACK CFI 7ebfb .cfa: $rsp 16 +
STACK CFI 7ebfd .cfa: $rsp 8 +
STACK CFI 7ec00 .cfa: $rsp 64 +
STACK CFI 7ed19 .cfa: $rsp 48 +
STACK CFI 7ed1a .cfa: $rsp 40 +
STACK CFI 7ed1b .cfa: $rsp 32 +
STACK CFI 7ed1d .cfa: $rsp 24 +
STACK CFI 7ed1f .cfa: $rsp 16 +
STACK CFI 7ed21 .cfa: $rsp 8 +
STACK CFI 7ed28 .cfa: $rsp 64 +
STACK CFI INIT 7edd0 4a .cfa: $rsp 8 + .ra: .cfa -8 + ^
STACK CFI 7edd8 $rbp: .cfa -16 + ^ .cfa: $rsp 16 +
STACK CFI 7ee10 .cfa: $rsp 8 +
STACK CFI 7ee18 .cfa: $rsp 16 +
STACK CFI 7ee19 .cfa: $rsp 8 +
STACK CFI INIT 7ee20 110 .cfa: $rsp 8 + .ra: .cfa -8 + ^
STACK CFI 7ee22 $r12: .cfa -16 + ^ .cfa: $rsp 16 +
STACK CFI 7ee23 $rbp: .cfa -24 + ^ .cfa: $rsp 24 +
STACK CFI 7ee2a .cfa: $rsp 240 +
STACK CFI 7ef16 .cfa: $rsp 24 +
STACK CFI 7ef1a .cfa: $rsp 16 +
STACK CFI 7ef1c .cfa: $rsp 8 +
STACK CFI 7ef20 .cfa: $rsp 240 +
STACK CFI INIT 7ef30 120 .cfa: $rsp 8 + .ra: .cfa -8 + ^
STACK CFI 7ef3b $r13: .cfa -16 + ^ .cfa: $rsp 16 +
STACK CFI 7ef3d $r12: .cfa -24 + ^ .cfa: $rsp 24 +
STACK CFI 7ef3e $rbp: .cfa -32 + ^ .cfa: $rsp 32 +
STACK CFI 7ef42 $rbx: .cfa -40 + ^ .cfa: $rsp 40 +
STACK CFI 7ef49 .cfa: $rsp 4288 +
STACK CFI 7ef55 .cfa: $rsp 40 +
STACK CFI 7ef56 .cfa: $rsp 32 +
STACK CFI 7ef57 .cfa: $rsp 24 +
STACK CFI 7ef59 .cfa: $rsp 16 +
STACK CFI 7ef5b .cfa: $rsp 8 +
STACK CFI 7ef60 .cfa: $rsp 4288 +
STACK CFI 7f009 .cfa: $rsp 40 +
STACK CFI 7f00a .cfa: $rsp 32 +
STACK CFI 7f00b .cfa: $rsp 24 +
STACK CFI 7f00d .cfa: $rsp 16 +
STACK CFI 7f00f .cfa: $rsp 8 +
STACK CFI 7f010 $r12: $r12 $r13: $r13 $rbp: $rbp $rbx: $rbx
STACK CFI 7f018 $r12: .cfa -24 + ^ $r13: .cfa -16 + ^ $rbp: .cfa -32 + ^ $rbx: .cfa -40 + ^ .cfa: $rsp 4288 +
STACK CFI INIT 7f050 34 .cfa: $rsp 8 + .ra: .cfa -8 + ^
STACK CFI INIT 7f090 133 .cfa: $rsp 8 + .ra: .cfa -8 + ^
STACK CFI 7f09b $r12: .cfa -16 + ^ .cfa: $rsp 16 +
STACK CFI 7f09f $rbp: .cfa -24 + ^ .cfa: $rsp 24 +
STACK CFI 7f0a0 $rbx: .cfa -32 + ^ .cfa: $rsp 32 +
STACK CFI 7f0a7 .cfa: $rsp 4272 +
STACK CFI 7f134 .cfa: $rsp 32 +
STACK CFI 7f135 .cfa: $rsp 24 +
STACK CFI 7f136 .cfa: $rsp 16 +
STACK CFI 7f138 .cfa: $rsp 8 +
STACK CFI 7f140 .cfa: $rsp 4272 +
STACK CFI 7f147 .cfa: $rsp 32 +
STACK CFI 7f14a .cfa: $rsp 24 +
STACK CFI 7f14b .cfa: $rsp 16 +
STACK CFI 7f14d .cfa: $rsp 8 +
STACK CFI 7f150 .cfa: $rsp 4272 +
STACK CFI 7f190 $r12: $r12 $rbp: $rbp $rbx: $rbx .cfa: $rsp 8 +
STACK CFI 7f193 $r12: .cfa -16 + ^ $rbp: .cfa -24 + ^ $rbx: .cfa -32 + ^ .cfa: $rsp 4272 +
STACK CFI INIT 7f1d0 78 .cfa: $rsp 8 + .ra: .cfa -8 + ^
STACK CFI INIT 7f250 e1 .cfa: $rsp 8 + .ra: .cfa -8 + ^
STACK CFI 7f252 $r15: .cfa -16 + ^ .cfa: $rsp 16 +
STACK CFI 7f257 $r14: .cfa -24 + ^ .cfa: $rsp 24 +
STACK CFI 7f25c $r13: .cfa -32 + ^ .cfa: $rsp 32 +
STACK CFI 7f261 $r12: .cfa -40 + ^ .cfa: $rsp 40 +
STACK CFI 7f262 $rbp: .cfa -48 + ^ .cfa: $rsp 48 +
STACK CFI 7f263 $rbx: .cfa -56 + ^ .cfa: $rsp 56 +
STACK CFI 7f26a .cfa: $rsp 96 +
STACK CFI 7f2f1 .cfa: $rsp 56 +
STACK CFI 7f2f2 .cfa: $rsp 48 +
STACK CFI 7f2f3 .cfa: $rsp 40 +
STACK CFI 7f2f5 .cfa: $rsp 32 +
STACK CFI 7f2f7 .cfa: $rsp 24 +
STACK CFI 7f2f9 .cfa: $rsp 16 +
STACK CFI 7f2fb .cfa: $rsp 8 +
STACK CFI 7f300 .cfa: $rsp 96 +
STACK CFI INIT 7f340 136 .cfa: $rsp 8 + .ra: .cfa -8 + ^
STACK CFI 7f342 $r15: .cfa -16 + ^ .cfa: $rsp 16 +
STACK CFI 7f347 $r14: .cfa -24 + ^ .cfa: $rsp 24 +
STACK CFI 7f34c $r13: .cfa -32 + ^ .cfa: $rsp 32 +
STACK CFI 7f34e $r12: .cfa -40 + ^ .cfa: $rsp 40 +
STACK CFI 7f34f $rbp: .cfa -48 + ^ .cfa: $rsp 48 +
STACK CFI 7f350 $rbx: .cfa -56 + ^ .cfa: $rsp 56 +
STACK CFI 7f357 .cfa: $rsp 112 +
STACK CFI 7f425 .cfa: $rsp 56 +
STACK CFI 7f426 .cfa: $rsp 48 +
STACK CFI 7f427 .cfa: $rsp 40 +
STACK CFI 7f429 .cfa: $rsp 32 +
STACK CFI 7f42b .cfa: $rsp 24 +
STACK CFI 7f42d .cfa: $rsp 16 +
STACK CFI 7f42f .cfa: $rsp 8 +
STACK CFI 7f430 .cfa: $rsp 112 +
STACK CFI INIT 7f480 71 .cfa: $rsp 8 + .ra: .cfa -8 + ^
STACK CFI 7f482 $r12: .cfa -16 + ^ .cfa: $rsp 16 +
STACK CFI 7f48a $rbp: .cfa -24 + ^ .cfa: $rsp 24 +
STACK CFI 7f48b $rbx: .cfa -32 + ^ .cfa: $rsp 32 +
STACK CFI 7f49b .cfa: $rsp 24 +
STACK CFI 7f4a6 .cfa: $rsp 16 +
STACK CFI 7f4aa .cfa: $rsp 8 +
STACK CFI 7f4b0 .cfa: $rsp 32 +
STACK CFI 7f4bd .cfa: $rsp 24 +
STACK CFI 7f4cb .cfa: $rsp 16 +
STACK CFI 7f4cf .cfa: $rsp 8 +
STACK CFI 7f4d8 .cfa: $rsp 32 +
STACK CFI INIT 7f500 2dc .cfa: $rsp 8 + .ra: .cfa -8 + ^
STACK CFI 7f502 $r14: .cfa -16 + ^ .cfa: $rsp 16 +
STACK CFI 7f504 $r13: .cfa -24 + ^ .cfa: $rsp 24 +
STACK CFI 7f506 $r12: .cfa -32 + ^ .cfa: $rsp 32 +
STACK CFI 7f507 $rbp: .cfa -40 + ^ .cfa: $rsp 40 +
STACK CFI 7f508 $rbx: .cfa -48 + ^ .cfa: $rsp 48 +
STACK CFI 7f59c .cfa: $rsp 56 +
STACK CFI 7f5a8 .cfa: $rsp 64 +
STACK CFI 7f5d2 .cfa: $rsp 56 +
STACK CFI 7f5d3 .cfa: $rsp 48 +
STACK CFI 7f648 .cfa: $rsp 40 +
STACK CFI 7f649 .cfa: $rsp 32 +
STACK CFI 7f64b .cfa: $rsp 24 +
STACK CFI 7f64d .cfa: $rsp 16 +
STACK CFI 7f64f .cfa: $rsp 8 +
STACK CFI 7f650 .cfa: $rsp 48 +
STACK CFI 7f734 .cfa: $rsp 40 +
STACK CFI 7f735 .cfa: $rsp 32 +
STACK CFI 7f73a .cfa: $rsp 24 +
STACK CFI 7f73c .cfa: $rsp 16 +
STACK CFI 7f73e .cfa: $rsp 8 +
STACK CFI 7f740 .cfa: $rsp 48 +
STACK CFI INIT 7f7e0 112 .cfa: $rsp 8 + .ra: .cfa -8 + ^
STACK CFI 7f7ed $rbp: .cfa -16 + ^ .cfa: $rsp 16 +
STACK CFI 7f7ee $rbx: .cfa -24 + ^ .cfa: $rsp 24 +
STACK CFI 7f7f5 .cfa: $rsp 48 +
STACK CFI 7f87f .cfa: $rsp 24 +
STACK CFI 7f882 .cfa: $rsp 16 +
STACK CFI 7f883 .cfa: $rsp 8 +
STACK CFI 7f888 .cfa: $rsp 48 +
STACK CFI 7f8c8 .cfa: $rsp 24 +
STACK CFI 7f8c9 .cfa: $rsp 16 +
STACK CFI 7f8ca .cfa: $rsp 8 +
STACK CFI 7f8d0 .cfa: $rsp 48 +
STACK CFI 7f8ee $rbp: $rbp $rbx: $rbx .cfa: $rsp 8 +
STACK CFI INIT 7f900 3d .cfa: $rsp 8 + .ra: .cfa -8 + ^
STACK CFI 7f906 $rbp: .cfa -16 + ^ .cfa: $rsp 16 +
STACK CFI 7f907 $rbx: .cfa -24 + ^ .cfa: $rsp 24 +
STACK CFI 7f90e .cfa: $rsp 32 +
STACK CFI 7f926 .cfa: $rsp 24 +
STACK CFI 7f927 .cfa: $rsp 16 +
STACK CFI 7f928 .cfa: $rsp 8 +
STACK CFI 7f930 .cfa: $rsp 32 +
STACK CFI 7f937 $rbp: $rbp $rbx: $rbx .cfa: $rsp 8 +
STACK CFI INIT 7f940 27 .cfa: $rsp 8 + .ra: .cfa -8 + ^
STACK CFI 7f941 $rbx: .cfa -16 + ^ .cfa: $rsp 16 +
STACK CFI 7f952 .cfa: $rsp 8 +
STACK CFI 7f960 .cfa: $rsp 16 +
STACK CFI 7f966 .cfa: $rsp 8 +
STACK CFI INIT 7f970 78 .cfa: $rsp 8 + .ra: .cfa -8 + ^
STACK CFI 7f979 $rbp: .cfa -16 + ^ .cfa: $rsp 16 +
STACK CFI 7f97a $rbx: .cfa -24 + ^ .cfa: $rsp 24 +
STACK CFI 7f981 .cfa: $rsp 32 +
STACK CFI 7f99c .cfa: $rsp 24 +
STACK CFI 7f99d .cfa: $rsp 16 +
STACK CFI 7f9a1 .cfa: $rsp 8 +
STACK CFI 7f9a8 .cfa: $rsp 32 +
STACK CFI 7f9d4 .cfa: $rsp 24 +
STACK CFI 7f9d8 .cfa: $rsp 16 +
STACK CFI 7f9d9 .cfa: $rsp 8 +
STACK CFI 7f9e0 $rbp: $rbp $rbx: $rbx
STACK CFI INIT 7f9f0 1e9 .cfa: $rsp 8 + .ra: .cfa -8 + ^
STACK CFI 7f9fb $r13: .cfa -16 + ^ .cfa: $rsp 16 +
STACK CFI 7f9fd $r12: .cfa -24 + ^ .cfa: $rsp 24 +
STACK CFI 7f9fe $rbp: .cfa -32 + ^ .cfa: $rsp 32 +
STACK CFI 7f9ff $rbx: .cfa -40 + ^ .cfa: $rsp 40 +
STACK CFI 7fa06 .cfa: $rsp 48 +
STACK CFI 7fa9e .cfa: $rsp 40 +
STACK CFI 7fa9f .cfa: $rsp 32 +
STACK CFI 7faa0 .cfa: $rsp 24 +
STACK CFI 7faa2 .cfa: $rsp 16 +
STACK CFI 7faa4 .cfa: $rsp 8 +
STACK CFI 7faa8 .cfa: $rsp 48 +
STACK CFI 7fbd4 $r12: $r12 $r13: $r13 $rbp: $rbp $rbx: $rbx .cfa: $rsp 8 +
STACK CFI INIT 7fbe0 4b .cfa: $rsp 8 + .ra: .cfa -8 + ^
STACK CFI 7fbe7 $rbp: .cfa -16 + ^ .cfa: $rsp 16 +
STACK CFI 7fbeb $rbx: .cfa -24 + ^ .cfa: $rsp 24 +
STACK CFI 7fbf5 .cfa: $rsp 32 +
STACK CFI 7fc17 .cfa: $rsp 24 +
STACK CFI 7fc18 .cfa: $rsp 16 +
STACK CFI 7fc19 .cfa: $rsp 8 +
STACK CFI 7fc20 .cfa: $rsp 32 +
STACK CFI 7fc27 $rbp: $rbp $rbx: $rbx .cfa: $rsp 8 +
STACK CFI INIT 7fc30 2f .cfa: $rsp 8 + .ra: .cfa -8 + ^
STACK CFI 7fc3a .cfa: $rsp 128 +
STACK CFI 7fc54 .cfa: $rsp 8 +
STACK CFI 7fc58 .cfa: $rsp 128 +
STACK CFI 7fc5c .cfa: $rsp 8 +
STACK CFI INIT 7fc60 34 .cfa: $rsp 8 + .ra: .cfa -8 + ^
STACK CFI 7fc67 .cfa: $rsp 160 +
STACK CFI 7fc90 .cfa: $rsp 8 +
STACK CFI INIT 7fca0 480 .cfa: $rsp 8 + .ra: .cfa -8 + ^
STACK CFI 7fcae $r15: .cfa -16 + ^ .cfa: $rsp 16 +
STACK CFI 7fcb0 $r14: .cfa -24 + ^ .cfa: $rsp 24 +
STACK CFI 7fcb2 $r13: .cfa -32 + ^ .cfa: $rsp 32 +
STACK CFI 7fcb4 $r12: .cfa -40 + ^ .cfa: $rsp 40 +
STACK CFI 7fcbb $rbp: .cfa -48 + ^ .cfa: $rsp 48 +
STACK CFI 7fcc2 $rbx: .cfa -56 + ^ .cfa: $rsp 56 +
STACK CFI 7fcc9 .cfa: $rsp 80 +
STACK CFI 7fd8c .cfa: $rsp 56 +
STACK CFI 7fd8d .cfa: $rsp 48 +
STACK CFI 7fd8e .cfa: $rsp 40 +
STACK CFI 7fd90 .cfa: $rsp 32 +
STACK CFI 7fd92 .cfa: $rsp 24 +
STACK CFI 7fd94 .cfa: $rsp 16 +
STACK CFI 7fd96 .cfa: $rsp 8 +
STACK CFI 7fda0 .cfa: $rsp 80 +
STACK CFI 7fee4 .cfa: $rsp 56 +
STACK CFI 7fee9 .cfa: $rsp 48 +
STACK CFI 7feea .cfa: $rsp 40 +
STACK CFI 7feec .cfa: $rsp 32 +
STACK CFI 7feee .cfa: $rsp 24 +
STACK CFI 7fef0 .cfa: $rsp 16 +
STACK CFI 7fef2 .cfa: $rsp 8 +
STACK CFI 7fef8 .cfa: $rsp 80 +
STACK CFI 80030 $r12: $r12 $r13: $r13 $r14: $r14 $r15: $r15 $rbp: $rbp $rbx: $rbx .cfa: $rsp 8 +
STACK CFI 80038 $r12: .cfa -40 + ^ $r13: .cfa -32 + ^ $r14: .cfa -24 + ^ $r15: .cfa -16 + ^ $rbp: .cfa -48 + ^ $rbx: .cfa -56 + ^ .cfa: $rsp 80 +
STACK CFI INIT 80120 78 .cfa: $rsp 8 + .ra: .cfa -8 + ^
STACK CFI 80124 .cfa: $rsp 48 +
STACK CFI 80160 .cfa: $rsp 8 +
STACK CFI 80168 .cfa: $rsp 48 +
STACK CFI 80190 .cfa: $rsp 8 +
STACK CFI 80191 .cfa: $rsp 48 +
STACK CFI INIT 801a0 8e .cfa: $rsp 8 + .ra: .cfa -8 + ^
STACK CFI 801a2 $r13: .cfa -16 + ^ .cfa: $rsp 16 +
STACK CFI 801a7 $r12: .cfa -24 + ^ .cfa: $rsp 24 +
STACK CFI 801a8 $rbp: .cfa -32 + ^ .cfa: $rsp 32 +
STACK CFI 801a9 $rbx: .cfa -40 + ^ .cfa: $rsp 40 +
STACK CFI 801ad .cfa: $rsp 48 +
STACK CFI 801f7 .cfa: $rsp 40 +
STACK CFI 801fb .cfa: $rsp 32 +
STACK CFI 801fc .cfa: $rsp 24 +
STACK CFI 801fe .cfa: $rsp 16 +
STACK CFI 80200 .cfa: $rsp 8 +
STACK CFI 80201 .cfa: $rsp 48 +
STACK CFI 8020d .cfa: $rsp 40 +
STACK CFI 80211 .cfa: $rsp 32 +
STACK CFI 80212 .cfa: $rsp 24 +
STACK CFI 80214 .cfa: $rsp 16 +
STACK CFI 80216 .cfa: $rsp 8 +
STACK CFI 80220 .cfa: $rsp 48 +
STACK CFI INIT 80230 8e .cfa: $rsp 8 + .ra: .cfa -8 + ^
STACK CFI 80232 $r14: .cfa -16 + ^ .cfa: $rsp 16 +
STACK CFI 80234 $r13: .cfa -24 + ^ .cfa: $rsp 24 +
STACK CFI 80239 $r12: .cfa -32 + ^ .cfa: $rsp 32 +
STACK CFI 8023a $rbp: .cfa -40 + ^ .cfa: $rsp 40 +
STACK CFI 8023b $rbx: .cfa -48 + ^ .cfa: $rsp 48 +
STACK CFI 8028f .cfa: $rsp 40 +
STACK CFI 80293 .cfa: $rsp 32 +
STACK CFI 80295 .cfa: $rsp 24 +
STACK CFI 80297 .cfa: $rsp 16 +
STACK CFI 80299 .cfa: $rsp 8 +
STACK CFI 8029a .cfa: $rsp 48 +
STACK CFI 802a6 .cfa: $rsp 40 +
STACK CFI 802a7 .cfa: $rsp 32 +
STACK CFI 802a9 .cfa: $rsp 24 +
STACK CFI 802ab .cfa: $rsp 16 +
STACK CFI 802ad .cfa: $rsp 8 +
STACK CFI 802b0 .cfa: $rsp 48 +
STACK CFI INIT 802c0 699 .cfa: $rsp 8 + .ra: .cfa -8 + ^
STACK CFI 802cb $r15: .cfa -16 + ^ .cfa: $rsp 16 +
STACK CFI 802cd $r14: .cfa -24 + ^ .cfa: $rsp 24 +
STACK CFI 802cf $r13: .cfa -32 + ^ .cfa: $rsp 32 +
STACK CFI 802d1 $r12: .cfa -40 + ^ .cfa: $rsp 40 +
STACK CFI 802d2 $rbp: .cfa -48 + ^ .cfa: $rsp 48 +
STACK CFI 802d3 $rbx: .cfa -56 + ^ .cfa: $rsp 56 +
STACK CFI 802da .cfa: $rsp 96 +
STACK CFI 8054c .cfa: $rsp 56 +
STACK CFI 8054d .cfa: $rsp 48 +
STACK CFI 8054e .cfa: $rsp 40 +
STACK CFI 80550 .cfa: $rsp 32 +
STACK CFI 80552 .cfa: $rsp 24 +
STACK CFI 80554 .cfa: $rsp 16 +
STACK CFI 80556 .cfa: $rsp 8 +
STACK CFI 80560 .cfa: $rsp 96 +
STACK CFI 805e0 .cfa: $rsp 56 +
STACK CFI 805e1 .cfa: $rsp 48 +
STACK CFI 805e2 .cfa: $rsp 40 +
STACK CFI 805e4 .cfa: $rsp 32 +
STACK CFI 805e6 .cfa: $rsp 24 +
STACK CFI 805e8 .cfa: $rsp 16 +
STACK CFI 805ea .cfa: $rsp 8 +
STACK CFI 805f0 .cfa: $rsp 96 +
STACK CFI 80700 $r12: $r12 $r13: $r13 $r14: $r14 $r15: $r15 $rbp: $rbp $rbx: $rbx .cfa: $rsp 8 +
STACK CFI 80708 $r12: .cfa -40 + ^ $r13: .cfa -32 + ^ $r14: .cfa -24 + ^ $r15: .cfa -16 + ^ $rbp: .cfa -48 + ^ $rbx: .cfa -56 + ^ .cfa: $rsp 96 +
STACK CFI INIT 80960 6d .cfa: $rsp 8 + .ra: .cfa -8 + ^
STACK CFI 80964 .cfa: $rsp 32 +
STACK CFI 809a8 .cfa: $rsp 8 +
STACK CFI 809b0 .cfa: $rsp 32 +
STACK CFI 809c5 .cfa: $rsp 8 +
STACK CFI 809c6 .cfa: $rsp 32 +
STACK CFI INIT 809d0 32 .cfa: $rsp 8 + .ra: .cfa -8 + ^
STACK CFI 809d1 $rbp: .cfa -16 + ^ .cfa: $rsp 16 +
STACK CFI 809d5 $rbx: .cfa -24 + ^ .cfa: $rsp 24 +
STACK CFI 809dc .cfa: $rsp 32 +
STACK CFI 809ff .cfa: $rsp 24 +
STACK CFI 80a00 .cfa: $rsp 16 +
STACK CFI 80a01 .cfa: $rsp 8 +
STACK CFI INIT 80a10 3f .cfa: $rsp 8 + .ra: .cfa -8 + ^
STACK CFI 80a12 $r12: .cfa -16 + ^ .cfa: $rsp 16 +
STACK CFI 80a16 $rbp: .cfa -24 + ^ .cfa: $rsp 24 +
STACK CFI 80a1a $rbx: .cfa -32 + ^ .cfa: $rsp 32 +
STACK CFI 80a4b .cfa: $rsp 24 +
STACK CFI 80a4c .cfa: $rsp 16 +
STACK CFI 80a4e .cfa: $rsp 8 +
STACK CFI INIT 80a50 26 .cfa: $rsp 8 + .ra: .cfa -8 + ^
STACK CFI INIT 80a80 86 .cfa: $rsp 8 + .ra: .cfa -8 + ^
STACK CFI 80a87 $rbp: .cfa -16 + ^ .cfa: $rsp 16 +
STACK CFI 80a88 $rbx: .cfa -24 + ^ .cfa: $rsp 24 +
STACK CFI 80a92 .cfa: $rsp 176 +
STACK CFI 80ae9 .cfa: $rsp 24 +
STACK CFI 80aea .cfa: $rsp 16 +
STACK CFI 80aeb .cfa: $rsp 8 +
STACK CFI 80af0 .cfa: $rsp 176 +
STACK CFI 80b00 $rbp: $rbp $rbx: $rbx .cfa: $rsp 8 +
STACK CFI INIT 80b10 38 .cfa: $rsp 8 + .ra: .cfa -8 + ^
STACK CFI INIT 80b50 4db .cfa: $rsp 8 + .ra: .cfa -8 + ^
STACK CFI 80b52 $r15: .cfa -16 + ^ .cfa: $rsp 16 +
STACK CFI 80b54 $r14: .cfa -24 + ^ .cfa: $rsp 24 +
STACK CFI 80b56 $r13: .cfa -32 + ^ .cfa: $rsp 32 +
STACK CFI 80b58 $r12: .cfa -40 + ^ .cfa: $rsp 40 +
STACK CFI 80b59 $rbp: .cfa -48 + ^ .cfa: $rsp 48 +
STACK CFI 80b5c $rbx: .cfa -56 + ^ .cfa: $rsp 56 +
STACK CFI 80b63 .cfa: $rsp 112 +
STACK CFI 80caa .cfa: $rsp 120 +
STACK CFI 80cb6 .cfa: $rsp 128 +
STACK CFI 80cdc .cfa: $rsp 120 +
STACK CFI 80ce0 .cfa: $rsp 112 +
STACK CFI 80d5c .cfa: $rsp 56 +
STACK CFI 80d5d .cfa: $rsp 48 +
STACK CFI 80d5e .cfa: $rsp 40 +
STACK CFI 80d60 .cfa: $rsp 32 +
STACK CFI 80d62 .cfa: $rsp 24 +
STACK CFI 80d64 .cfa: $rsp 16 +
STACK CFI 80d66 .cfa: $rsp 8 +
STACK CFI 80d70 .cfa: $rsp 112 +
STACK CFI 80e06 .cfa: $rsp 56 +
STACK CFI 80e0c .cfa: $rsp 48 +
STACK CFI 80e0d .cfa: $rsp 40 +
STACK CFI 80e0f .cfa: $rsp 32 +
STACK CFI 80e11 .cfa: $rsp 24 +
STACK CFI 80e13 .cfa: $rsp 16 +
STACK CFI 80e15 .cfa: $rsp 8 +
STACK CFI 80e20 .cfa: $rsp 112 +
STACK CFI 80e85 .cfa: $rsp 56 +
STACK CFI 80e89 .cfa: $rsp 48 +
STACK CFI 80e8a .cfa: $rsp 40 +
STACK CFI 80e8e .cfa: $rsp 32 +
STACK CFI 80e90 .cfa: $rsp 24 +
STACK CFI 80e92 .cfa: $rsp 16 +
STACK CFI 80e94 .cfa: $rsp 8 +
STACK CFI 80e98 .cfa: $rsp 112 +
STACK CFI INIT 81030 2cb .cfa: $rsp 8 + .ra: .cfa -8 + ^
STACK CFI 81032 $r13: .cfa -16 + ^ .cfa: $rsp 16 +
STACK CFI 81034 $r12: .cfa -24 + ^ .cfa: $rsp 24 +
STACK CFI 81035 $rbp: .cfa -32 + ^ .cfa: $rsp 32 +
STACK CFI 81036 $rbx: .cfa -40 + ^ .cfa: $rsp 40 +
STACK CFI 8103a .cfa: $rsp 48 +
STACK CFI 81144 .cfa: $rsp 40 +
STACK CFI 81148 .cfa: $rsp 32 +
STACK CFI 81149 .cfa: $rsp 24 +
STACK CFI 8114b .cfa: $rsp 16 +
STACK CFI 8114d .cfa: $rsp 8 +
STACK CFI 81150 .cfa: $rsp 48 +
STACK CFI 811cb .cfa: $rsp 40 +
STACK CFI 811cf .cfa: $rsp 32 +
STACK CFI 811d0 .cfa: $rsp 24 +
STACK CFI 811d2 .cfa: $rsp 16 +
STACK CFI 811d4 .cfa: $rsp 8 +
STACK CFI 811d8 .cfa: $rsp 48 +
STACK CFI INIT 81300 12 .cfa: $rsp 8 + .ra: .cfa -8 + ^
STACK CFI INIT 81320 2a6 .cfa: $rsp 8 + .ra: .cfa -8 + ^
STACK CFI 81322 $r15: .cfa -16 + ^ .cfa: $rsp 16 +
STACK CFI 81324 $r14: .cfa -24 + ^ .cfa: $rsp 24 +
STACK CFI 81326 $r13: .cfa -32 + ^ .cfa: $rsp 32 +
STACK CFI 81328 $r12: .cfa -40 + ^ .cfa: $rsp 40 +
STACK CFI 81329 $rbp: .cfa -48 + ^ .cfa: $rsp 48 +
STACK CFI 8132a $rbx: .cfa -56 + ^ .cfa: $rsp 56 +
STACK CFI 8132e .cfa: $rsp 112 +
STACK CFI 81480 .cfa: $rsp 56 +
STACK CFI 81486 .cfa: $rsp 48 +
STACK CFI 81487 .cfa: $rsp 40 +
STACK CFI 81489 .cfa: $rsp 32 +
STACK CFI 8148b .cfa: $rsp 24 +
STACK CFI 8148d .cfa: $rsp 16 +
STACK CFI 8148f .cfa: $rsp 8 +
STACK CFI 81490 .cfa: $rsp 112 +
STACK CFI 81496 .cfa: $rsp 56 +
STACK CFI 81497 .cfa: $rsp 48 +
STACK CFI 81498 .cfa: $rsp 40 +
STACK CFI 8149a .cfa: $rsp 32 +
STACK CFI 8149c .cfa: $rsp 24 +
STACK CFI 8149e .cfa: $rsp 16 +
STACK CFI 814a0 .cfa: $rsp 8 +
STACK CFI 814a8 .cfa: $rsp 112 +
STACK CFI INIT 815d0 222 .cfa: $rsp 8 + .ra: .cfa -8 + ^
STACK CFI 815db $r15: .cfa -16 + ^ .cfa: $rsp 16 +
STACK CFI 815dd $r14: .cfa -24 + ^ .cfa: $rsp 24 +
STACK CFI 815e2 $r13: .cfa -32 + ^ .cfa: $rsp 32 +
STACK CFI 815e4 $r12: .cfa -40 + ^ .cfa: $rsp 40 +
STACK CFI 815e5 $rbp: .cfa -48 + ^ .cfa: $rsp 48 +
STACK CFI 815e6 $rbx: .cfa -56 + ^ .cfa: $rsp 56 +
STACK CFI 815ea .cfa: $rsp 80 +
STACK CFI 81784 .cfa: $rsp 56 +
STACK CFI 81787 .cfa: $rsp 48 +
STACK CFI 81788 .cfa: $rsp 40 +
STACK CFI 8178a .cfa: $rsp 32 +
STACK CFI 8178c .cfa: $rsp 24 +
STACK CFI 8178e .cfa: $rsp 16 +
STACK CFI 81790 .cfa: $rsp 8 +
STACK CFI 81798 .cfa: $rsp 80 +
STACK CFI 817c6 .cfa: $rsp 56 +
STACK CFI 817cc .cfa: $rsp 48 +
STACK CFI 817cd .cfa: $rsp 40 +
STACK CFI 817cf .cfa: $rsp 32 +
STACK CFI 817d1 .cfa: $rsp 24 +
STACK CFI 817d3 .cfa: $rsp 16 +
STACK CFI 817d5 .cfa: $rsp 8 +
STACK CFI 817d6 .cfa: $rsp 80 +
STACK CFI 817ec $r12: $r12 $r13: $r13 $r14: $r14 $r15: $r15 $rbp: $rbp $rbx: $rbx .cfa: $rsp 8 +
STACK CFI INIT 81800 5 .cfa: $rsp 8 + .ra: .cfa -8 + ^
STACK CFI INIT 81810 26 .cfa: $rsp 8 + .ra: .cfa -8 + ^
STACK CFI 81819 .cfa: $rsp 16 +
STACK CFI 81827 .cfa: $rsp 8 +
STACK CFI INIT 81840 1b .cfa: $rsp 8 + .ra: .cfa -8 + ^
STACK CFI INIT 81860 23 .cfa: $rsp 8 + .ra: .cfa -8 + ^
STACK CFI 81861 $rbx: .cfa -16 + ^ .cfa: $rsp 16 +
STACK CFI 81882 .cfa: $rsp 8 +
STACK CFI INIT 81890 e .cfa: $rsp 8 + .ra: .cfa -8 + ^
STACK CFI INIT 818a0 237 .cfa: $rsp 8 + .ra: .cfa -8 + ^
STACK CFI 818a1 $rbp: .cfa -16 + ^ .cfa: $rsp 16 +
STACK CFI 818a4 .cfa: $rbp 16 +
STACK CFI 818a6 $r15: .cfa -24 + ^
STACK CFI 818b7 $r12: .cfa -48 + ^ $r13: .cfa -40 + ^ $r14: .cfa -32 + ^ $rbx: .cfa -56 + ^
STACK CFI 81975 .cfa: $rsp 8 +
STACK CFI 81980 .cfa: $rbp 16 +
STACK CFI 819a0 .cfa: $rsp 8 +
STACK CFI 819a8 .cfa: $rbp 16 +
STACK CFI 81aba .cfa: $rsp 8 +
STACK CFI 81ac0 .cfa: $rbp 16 +
STACK CFI INIT 1cd8a 1d $r12: .cfa -48 + ^ $r13: .cfa -40 + ^ $r14: .cfa -32 + ^ $r15: .cfa -24 + ^ $rbp: .cfa -16 + ^ $rbx: .cfa -56 + ^ .cfa: $rbp 16 + .ra: .cfa -8 + ^
STACK CFI INIT 81ae0 34a .cfa: $rsp 8 + .ra: .cfa -8 + ^
STACK CFI 81ae1 $rbp: .cfa -16 + ^ .cfa: $rsp 16 +
STACK CFI 81ae4 .cfa: $rbp 16 +
STACK CFI 81af4 $r12: .cfa -48 + ^ $r13: .cfa -40 + ^ $r14: .cfa -32 + ^ $r15: .cfa -24 + ^ $rbx: .cfa -56 + ^
STACK CFI 81c82 .cfa: $rsp 8 +
STACK CFI 81c88 .cfa: $rbp 16 +
STACK CFI INIT 1cda7 21 $r12: .cfa -48 + ^ $r13: .cfa -40 + ^ $r14: .cfa -32 + ^ $r15: .cfa -24 + ^ $rbp: .cfa -16 + ^ $rbx: .cfa -56 + ^ .cfa: $rbp 16 + .ra: .cfa -8 + ^
STACK CFI INIT 81e30 1c7 .cfa: $rsp 8 + .ra: .cfa -8 + ^
STACK CFI 81e31 $rbp: .cfa -16 + ^ .cfa: $rsp 16 +
STACK CFI 81e34 .cfa: $rbp 16 +
STACK CFI 81e36 $r14: .cfa -24 + ^
STACK CFI 81e42 $r12: .cfa -40 + ^ $r13: .cfa -32 + ^ $rbx: .cfa -48 + ^
STACK CFI 81ed9 .cfa: $rsp 8 +
STACK CFI 81ee0 .cfa: $rbp 16 +
STACK CFI 81ef9 .cfa: $rsp 8 +
STACK CFI 81f00 .cfa: $rbp 16 +
STACK CFI INIT 1cdc8 1d $r12: .cfa -40 + ^ $r13: .cfa -32 + ^ $r14: .cfa -24 + ^ $rbp: .cfa -16 + ^ $rbx: .cfa -48 + ^ .cfa: $rbp 16 + .ra: .cfa -8 + ^
STACK CFI INIT 82000 62 .cfa: $rsp 8 + .ra: .cfa -8 + ^
STACK CFI 82001 $rbp: .cfa -16 + ^ .cfa: $rsp 16 +
STACK CFI 82002 $rbx: .cfa -24 + ^ .cfa: $rsp 24 +
STACK CFI 82006 .cfa: $rsp 32 +
STACK CFI 8205f .cfa: $rsp 24 +
STACK CFI 82060 .cfa: $rsp 16 +
STACK CFI 82061 .cfa: $rsp 8 +
STACK CFI INIT 82070 1 .cfa: $rsp 8 + .ra: .cfa -8 + ^
STACK CFI INIT 82080 1a .cfa: $rsp 8 + .ra: .cfa -8 + ^
STACK CFI 82082 $r12: .cfa -16 + ^ .cfa: $rsp 16 +
STACK CFI 82099 .cfa: $rsp 8 +
STACK CFI INIT 820a0 26 .cfa: $rsp 8 + .ra: .cfa -8 + ^
STACK CFI 820a9 .cfa: $rsp 16 +
STACK CFI 820b7 .cfa: $rsp 8 +
STACK CFI INIT 820d0 6a .cfa: $rsp 8 + .ra: .cfa -8 + ^
STACK CFI 820d2 $r12: .cfa -16 + ^ .cfa: $rsp 16 +
STACK CFI 820d8 $rbp: .cfa -24 + ^ .cfa: $rsp 24 +
STACK CFI 820dc $rbx: .cfa -32 + ^ .cfa: $rsp 32 +
STACK CFI 820e0 .cfa: $rsp 48 +
STACK CFI 82107 .cfa: $rsp 32 +
STACK CFI 82108 .cfa: $rsp 24 +
STACK CFI 82109 .cfa: $rsp 16 +
STACK CFI 8210b .cfa: $rsp 8 +
STACK CFI 82110 .cfa: $rsp 48 +
STACK CFI 82129 .cfa: $rsp 32 +
STACK CFI 8212a .cfa: $rsp 24 +
STACK CFI 8212b .cfa: $rsp 16 +
STACK CFI 8212d .cfa: $rsp 8 +
STACK CFI 82130 .cfa: $rsp 48 +
STACK CFI INIT 82140 33 .cfa: $rsp 8 + .ra: .cfa -8 + ^
STACK CFI 82147 $r12: .cfa -16 + ^ .cfa: $rsp 16 +
STACK CFI 8214e $rbp: .cfa -24 + ^ .cfa: $rsp 24 +
STACK CFI 82155 .cfa: $rsp 32 +
STACK CFI 8215e .cfa: $rsp 24 +
STACK CFI 82165 $rbp: $rbp .cfa: $rsp 16 +
STACK CFI 8216a $r12: $r12 .cfa: $rsp 8 +
STACK CFI INIT 82180 9 .cfa: $rsp 8 + .ra: .cfa -8 + ^
STACK CFI INIT 82190 33 .cfa: $rsp 8 + .ra: .cfa -8 + ^
STACK CFI 82197 $r12: .cfa -16 + ^ .cfa: $rsp 16 +
STACK CFI 8219e $rbp: .cfa -24 + ^ .cfa: $rsp 24 +
STACK CFI 821a5 .cfa: $rsp 32 +
STACK CFI 821ae .cfa: $rsp 24 +
STACK CFI 821b5 $rbp: $rbp .cfa: $rsp 16 +
STACK CFI 821ba $r12: $r12 .cfa: $rsp 8 +
STACK CFI INIT 821d0 ba .cfa: $rsp 8 + .ra: .cfa -8 + ^
STACK CFI 821d1 $rbp: .cfa -16 + ^ .cfa: $rsp 16 +
STACK CFI 821d2 $rbx: .cfa -24 + ^ .cfa: $rsp 24 +
STACK CFI 821d6 .cfa: $rsp 144 +
STACK CFI 82222 .cfa: $rsp 152 +
STACK CFI 82230 .cfa: $rsp 160 +
STACK CFI 82234 .cfa: $rsp 168 +
STACK CFI 82238 .cfa: $rsp 176 +
STACK CFI 8223c .cfa: $rsp 184 +
STACK CFI 82240 .cfa: $rsp 192 +
STACK CFI 82244 .cfa: $rsp 200 +
STACK CFI 82248 .cfa: $rsp 208 +
STACK CFI 8224c .cfa: $rsp 216 +
STACK CFI 82250 .cfa: $rsp 224 +
STACK CFI 82254 .cfa: $rsp 232 +
STACK CFI 82258 .cfa: $rsp 240 +
STACK CFI 82268 .cfa: $rsp 24 +
STACK CFI 82269 .cfa: $rsp 16 +
STACK CFI 8226a .cfa: $rsp 8 +
STACK CFI 8226b .cfa: $rsp 144 +
STACK CFI INIT 82290 80 .cfa: $rsp 8 + .ra: .cfa -8 + ^
STACK CFI 82291 $rbp: .cfa -16 + ^ .cfa: $rsp 16 +
STACK CFI 8229e $rbx: .cfa -24 + ^ .cfa: $rsp 24 +
STACK CFI 822a5 .cfa: $rsp 128 +
STACK CFI 822c0 .cfa: $rsp 136 +
STACK CFI 822d5 .cfa: $rsp 144 +
STACK CFI 822d9 .cfa: $rsp 152 +
STACK CFI 822dd .cfa: $rsp 160 +
STACK CFI 822e1 .cfa: $rsp 168 +
STACK CFI 822e5 .cfa: $rsp 176 +
STACK CFI 822e9 .cfa: $rsp 184 +
STACK CFI 822ed .cfa: $rsp 192 +
STACK CFI 822f1 .cfa: $rsp 200 +
STACK CFI 822f5 .cfa: $rsp 208 +
STACK CFI 822f9 .cfa: $rsp 216 +
STACK CFI 822fd .cfa: $rsp 224 +
STACK CFI 8230d .cfa: $rsp 24 +
STACK CFI 8230e .cfa: $rsp 16 +
STACK CFI 8230f .cfa: $rsp 8 +
STACK CFI INIT 82310 22 .cfa: $rsp 8 + .ra: .cfa -8 + ^
STACK CFI 82324 .cfa: $rsp 16 +
STACK CFI 82331 .cfa: $rsp 8 +
STACK CFI INIT 82340 222 .cfa: $rsp 8 + .ra: .cfa -8 + ^
STACK CFI INIT 82570 10 .cfa: $rsp 8 + .ra: .cfa -8 + ^
STACK CFI INIT 82580 1d .cfa: $rsp 8 + .ra: .cfa -8 + ^
STACK CFI INIT 825a0 22 .cfa: $rsp 8 + .ra: .cfa -8 + ^
STACK CFI INIT 825d0 5 .cfa: $rsp 8 + .ra: .cfa -8 + ^
STACK CFI INIT 825e0 9 .cfa: $rsp 8 + .ra: .cfa -8 + ^
STACK CFI INIT 825f0 62 .cfa: $rsp 8 + .ra: .cfa -8 + ^
STACK CFI 825f8 $rbp: .cfa -16 + ^ .cfa: $rsp 16 +
STACK CFI 8263d .cfa: $rsp 8 +
STACK CFI 82640 .cfa: $rsp 16 +
STACK CFI INIT 82660 f1 .cfa: $rsp 8 + .ra: .cfa -8 + ^
STACK CFI 82662 $r14: .cfa -16 + ^ .cfa: $rsp 16 +
STACK CFI 82664 $r13: .cfa -24 + ^ .cfa: $rsp 24 +
STACK CFI 82666 $r12: .cfa -32 + ^ .cfa: $rsp 32 +
STACK CFI 82667 $rbp: .cfa -40 + ^ .cfa: $rsp 40 +
STACK CFI 8266b $rbx: .cfa -48 + ^ .cfa: $rsp 48 +
STACK CFI 8268d .cfa: $rsp 40 +
STACK CFI 82691 .cfa: $rsp 32 +
STACK CFI 82693 .cfa: $rsp 24 +
STACK CFI 82695 .cfa: $rsp 16 +
STACK CFI 82697 .cfa: $rsp 8 +
STACK CFI 826a0 .cfa: $rsp 48 +
STACK CFI 82726 .cfa: $rsp 56 +
STACK CFI 82738 .cfa: $rsp 64 +
STACK CFI 82743 .cfa: $rsp 56 +
STACK CFI 82744 .cfa: $rsp 48 +
STACK CFI INIT 82760 42 .cfa: $rsp 8 + .ra: .cfa -8 + ^
STACK CFI 82768 $rbp: .cfa -16 + ^ .cfa: $rsp 16 +
STACK CFI 82785 .cfa: $rsp 8 +
STACK CFI 82790 .cfa: $rsp 16 +
STACK CFI INIT 827b0 11 .cfa: $rsp 8 + .ra: .cfa -8 + ^
STACK CFI INIT 827d0 2a .cfa: $rsp 8 + .ra: .cfa -8 + ^
STACK CFI 827d2 $r13: .cfa -16 + ^ .cfa: $rsp 16 +
STACK CFI 827d7 $r12: .cfa -24 + ^ .cfa: $rsp 24 +
STACK CFI 827d8 $rbp: .cfa -32 + ^ .cfa: $rsp 32 +
STACK CFI 827f5 .cfa: $rsp 24 +
STACK CFI 827f7 .cfa: $rsp 16 +
STACK CFI 827f9 .cfa: $rsp 8 +
STACK CFI INIT 82800 12 .cfa: $rsp 8 + .ra: .cfa -8 + ^
STACK CFI 82801 $rbp: .cfa -16 + ^ .cfa: $rsp 16 +
STACK CFI 8280d .cfa: $rsp 8 +
STACK CFI INIT 82820 1f .cfa: $rsp 8 + .ra: .cfa -8 + ^
STACK CFI 82821 $rbp: .cfa -16 + ^ .cfa: $rsp 16 +
STACK CFI 8283e .cfa: $rsp 8 +
STACK CFI INIT 82840 68 .cfa: $rsp 8 + .ra: .cfa -8 + ^
STACK CFI 82848 $rbp: .cfa -16 + ^ .cfa: $rsp 16 +
STACK CFI 82874 .cfa: $rsp 8 +
STACK CFI 82878 .cfa: $rsp 16 +
STACK CFI 8287c .cfa: $rsp 8 +
STACK CFI 82888 .cfa: $rsp 16 +
STACK CFI INIT 828b0 26 .cfa: $rsp 8 + .ra: .cfa -8 + ^
STACK CFI 828b2 $r13: .cfa -16 + ^ .cfa: $rsp 16 +
STACK CFI 828b7 $r12: .cfa -24 + ^ .cfa: $rsp 24 +
STACK CFI 828bb $rbp: .cfa -32 + ^ .cfa: $rsp 32 +
STACK CFI 828cd .cfa: $rsp 24 +
STACK CFI 828cf .cfa: $rsp 16 +
STACK CFI 828d1 .cfa: $rsp 8 +
STACK CFI INIT 828e0 fd .cfa: $rsp 8 + .ra: .cfa -8 + ^
STACK CFI 828e2 $r12: .cfa -16 + ^ .cfa: $rsp 16 +
STACK CFI 828e3 $rbp: .cfa -24 + ^ .cfa: $rsp 24 +
STACK CFI 828e4 $rbx: .cfa -32 + ^ .cfa: $rsp 32 +
STACK CFI 829d0 .cfa: $rsp 24 +
STACK CFI 829d1 .cfa: $rsp 16 +
STACK CFI 829d3 .cfa: $rsp 8 +
STACK CFI 829d8 .cfa: $rsp 32 +
STACK CFI INIT 829e0 3b .cfa: $rsp 8 + .ra: .cfa -8 + ^
STACK CFI INIT 82a20 143 .cfa: $rsp 8 + .ra: .cfa -8 + ^
STACK CFI 82a22 $r13: .cfa -16 + ^ .cfa: $rsp 16 +
STACK CFI 82a27 $r12: .cfa -24 + ^ .cfa: $rsp 24 +
STACK CFI 82a2b $rbp: .cfa -32 + ^ .cfa: $rsp 32 +
STACK CFI 82a2c $rbx: .cfa -40 + ^ .cfa: $rsp 40 +
STACK CFI 82a30 .cfa: $rsp 48 +
STACK CFI 82b04 .cfa: $rsp 40 +
STACK CFI 82b05 .cfa: $rsp 32 +
STACK CFI 82b06 .cfa: $rsp 24 +
STACK CFI 82b08 .cfa: $rsp 16 +
STACK CFI 82b0a .cfa: $rsp 8 +
STACK CFI 82b10 .cfa: $rsp 48 +
STACK CFI 82b55 .cfa: $rsp 40 +
STACK CFI 82b59 .cfa: $rsp 32 +
STACK CFI 82b5a .cfa: $rsp 24 +
STACK CFI 82b5c .cfa: $rsp 16 +
STACK CFI 82b5e .cfa: $rsp 8 +
STACK CFI INIT 82b70 129 .cfa: $rsp 8 + .ra: .cfa -8 + ^
STACK CFI 82b72 $r12: .cfa -16 + ^ .cfa: $rsp 16 +
STACK CFI 82b7d $rbp: .cfa -24 + ^ .cfa: $rsp 24 +
STACK CFI 82b7e $rbx: .cfa -32 + ^ .cfa: $rsp 32 +
STACK CFI 82c09 .cfa: $rsp 24 +
STACK CFI 82c0a .cfa: $rsp 16 +
STACK CFI 82c14 .cfa: $rsp 8 +
STACK CFI 82c18 .cfa: $rsp 32 +
STACK CFI 82c8d .cfa: $rsp 24 +
STACK CFI 82c96 .cfa: $rsp 16 +
STACK CFI 82c98 .cfa: $rsp 8 +
STACK CFI INIT 82ca0 111 .cfa: $rsp 8 + .ra: .cfa -8 + ^
STACK CFI 82ca2 $r12: .cfa -16 + ^ .cfa: $rsp 16 +
STACK CFI 82cad $rbp: .cfa -24 + ^ .cfa: $rsp 24 +
STACK CFI 82cae $rbx: .cfa -32 + ^ .cfa: $rsp 32 +
STACK CFI 82d35 .cfa: $rsp 24 +
STACK CFI 82d36 .cfa: $rsp 16 +
STACK CFI 82d40 .cfa: $rsp 8 +
STACK CFI 82d48 .cfa: $rsp 32 +
STACK CFI 82da5 .cfa: $rsp 24 +
STACK CFI 82dae .cfa: $rsp 16 +
STACK CFI 82db0 .cfa: $rsp 8 +
STACK CFI INIT 82dc0 2f .cfa: $rsp 8 + .ra: .cfa -8 + ^
STACK CFI INIT 82df0 67 .cfa: $rsp 8 + .ra: .cfa -8 + ^
STACK CFI INIT 82e60 249 .cfa: $rsp 8 + .ra: .cfa -8 + ^
STACK CFI 82e69 $r14: .cfa -16 + ^ .cfa: $rsp 16 +
STACK CFI 82e6b $r13: .cfa -24 + ^ .cfa: $rsp 24 +
STACK CFI 82e70 $r12: .cfa -32 + ^ .cfa: $rsp 32 +
STACK CFI 82e74 $rbp: .cfa -40 + ^ .cfa: $rsp 40 +
STACK CFI 82e77 $rbx: .cfa -48 + ^ .cfa: $rsp 48 +
STACK CFI 82f87 .cfa: $rsp 40 +
STACK CFI 82f88 .cfa: $rsp 32 +
STACK CFI 82f8a .cfa: $rsp 24 +
STACK CFI 82f8c .cfa: $rsp 16 +
STACK CFI 82f8e .cfa: $rsp 8 +
STACK CFI 82f98 .cfa: $rsp 48 +
STACK CFI 82fa1 .cfa: $rsp 40 +
STACK CFI 82fa2 .cfa: $rsp 32 +
STACK CFI 82fac .cfa: $rsp 24 +
STACK CFI 82fae .cfa: $rsp 16 +
STACK CFI 82fb0 .cfa: $rsp 8 +
STACK CFI 82fb8 .cfa: $rsp 48 +
STACK CFI INIT 830b0 26 .cfa: $rsp 8 + .ra: .cfa -8 + ^
STACK CFI 830b2 $r13: .cfa -16 + ^ .cfa: $rsp 16 +
STACK CFI 830b7 $r12: .cfa -24 + ^ .cfa: $rsp 24 +
STACK CFI 830bb $rbp: .cfa -32 + ^ .cfa: $rsp 32 +
STACK CFI 830cd .cfa: $rsp 24 +
STACK CFI 830cf .cfa: $rsp 16 +
STACK CFI 830d1 .cfa: $rsp 8 +
STACK CFI INIT 830e0 26d .cfa: $rsp 8 + .ra: .cfa -8 + ^
STACK CFI 830e2 $r14: .cfa -16 + ^ .cfa: $rsp 16 +
STACK CFI 830e7 $r13: .cfa -24 + ^ .cfa: $rsp 24 +
STACK CFI 830ec $r12: .cfa -32 + ^ .cfa: $rsp 32 +
STACK CFI 830ed $rbp: .cfa -40 + ^ .cfa: $rsp 40 +
STACK CFI 830f6 $rbx: .cfa -48 + ^ .cfa: $rsp 48 +
STACK CFI 830fc .cfa: $rsp 64 +
STACK CFI 8322b .cfa: $rsp 48 +
STACK CFI 8322c .cfa: $rsp 40 +
STACK CFI 8322d .cfa: $rsp 32 +
STACK CFI 8322f .cfa: $rsp 24 +
STACK CFI 83231 .cfa: $rsp 16 +
STACK CFI 83233 .cfa: $rsp 8 +
STACK CFI 83240 .cfa: $rsp 64 +
STACK CFI 83255 .cfa: $rsp 48 +
STACK CFI 83256 .cfa: $rsp 40 +
STACK CFI 83257 .cfa: $rsp 32 +
STACK CFI 83259 .cfa: $rsp 24 +
STACK CFI 8325b .cfa: $rsp 16 +
STACK CFI 8325d .cfa: $rsp 8 +
STACK CFI 83260 .cfa: $rsp 64 +
STACK CFI INIT 83350 26 .cfa: $rsp 8 + .ra: .cfa -8 + ^
STACK CFI 83352 $r13: .cfa -16 + ^ .cfa: $rsp 16 +
STACK CFI 83357 $r12: .cfa -24 + ^ .cfa: $rsp 24 +
STACK CFI 8335b $rbp: .cfa -32 + ^ .cfa: $rsp 32 +
STACK CFI 8336d .cfa: $rsp 24 +
STACK CFI 8336f .cfa: $rsp 16 +
STACK CFI 83371 .cfa: $rsp 8 +
STACK CFI INIT 83380 205 .cfa: $rsp 8 + .ra: .cfa -8 + ^
STACK CFI 83382 $r15: .cfa -16 + ^ .cfa: $rsp 16 +
STACK CFI 8338a $r14: .cfa -24 + ^ .cfa: $rsp 24 +
STACK CFI 8338f $r13: .cfa -32 + ^ .cfa: $rsp 32 +
STACK CFI 83394 $r12: .cfa -40 + ^ .cfa: $rsp 40 +
STACK CFI 83398 $rbp: .cfa -48 + ^ .cfa: $rsp 48 +
STACK CFI 83399 $rbx: .cfa -56 + ^ .cfa: $rsp 56 +
STACK CFI 833a0 .cfa: $rsp 80 +
STACK CFI 8345f .cfa: $rsp 56 +
STACK CFI 83460 .cfa: $rsp 48 +
STACK CFI 83461 .cfa: $rsp 40 +
STACK CFI 83463 .cfa: $rsp 32 +
STACK CFI 83465 .cfa: $rsp 24 +
STACK CFI 83467 .cfa: $rsp 16 +
STACK CFI 83469 .cfa: $rsp 8 +
STACK CFI 83470 .cfa: $rsp 80 +
STACK CFI 83553 .cfa: $rsp 56 +
STACK CFI 83554 .cfa: $rsp 48 +
STACK CFI 83555 .cfa: $rsp 40 +
STACK CFI 83557 .cfa: $rsp 32 +
STACK CFI 83559 .cfa: $rsp 24 +
STACK CFI 8355b .cfa: $rsp 16 +
STACK CFI 8355d .cfa: $rsp 8 +
STACK CFI 83568 .cfa: $rsp 80 +
STACK CFI INIT 83590 15a .cfa: $rsp 8 + .ra: .cfa -8 + ^
STACK CFI 83592 $r14: .cfa -16 + ^ .cfa: $rsp 16 +
STACK CFI 83594 $r13: .cfa -24 + ^ .cfa: $rsp 24 +
STACK CFI 83596 $r12: .cfa -32 + ^ .cfa: $rsp 32 +
STACK CFI 83597 $rbp: .cfa -40 + ^ .cfa: $rsp 40 +
STACK CFI 8359b .cfa: $rsp 48 +
STACK CFI 83606 .cfa: $rsp 40 +
STACK CFI 83607 .cfa: $rsp 32 +
STACK CFI 83609 .cfa: $rsp 24 +
STACK CFI 8360b .cfa: $rsp 16 +
STACK CFI 8360d .cfa: $rsp 8 +
STACK CFI 83610 .cfa: $rsp 48 +
STACK CFI 8369f .cfa: $rsp 40 +
STACK CFI 836af .cfa: $rsp 32 +
STACK CFI 836b4 .cfa: $rsp 24 +
STACK CFI 836b6 .cfa: $rsp 16 +
STACK CFI 836b8 .cfa: $rsp 8 +
STACK CFI 836c0 .cfa: $rsp 48 +
STACK CFI INIT 836f0 1fc .cfa: $rsp 8 + .ra: .cfa -8 + ^
STACK CFI 836fb $r14: .cfa -16 + ^ .cfa: $rsp 16 +
STACK CFI 836ff $r13: .cfa -24 + ^ .cfa: $rsp 24 +
STACK CFI 83701 $r12: .cfa -32 + ^ .cfa: $rsp 32 +
STACK CFI 83702 $rbp: .cfa -40 + ^ .cfa: $rsp 40 +
STACK CFI 83703 $rbx: .cfa -48 + ^ .cfa: $rsp 48 +
STACK CFI 8370a .cfa: $rsp 64 +
STACK CFI 83718 .cfa: $rsp 48 +
STACK CFI 83719 .cfa: $rsp 40 +
STACK CFI 8371a .cfa: $rsp 32 +
STACK CFI 8371c .cfa: $rsp 24 +
STACK CFI 8371e .cfa: $rsp 16 +
STACK CFI 83720 .cfa: $rsp 8 +
STACK CFI 83728 .cfa: $rsp 64 +
STACK CFI 83808 .cfa: $rsp 48 +
STACK CFI 8380e .cfa: $rsp 40 +
STACK CFI 8380f .cfa: $rsp 32 +
STACK CFI 83811 .cfa: $rsp 24 +
STACK CFI 83813 .cfa: $rsp 16 +
STACK CFI 83815 .cfa: $rsp 8 +
STACK CFI 83820 .cfa: $rsp 64 +
STACK CFI 83848 $r12: $r12 $r13: $r13 $r14: $r14 $rbp: $rbp $rbx: $rbx .cfa: $rsp 8 +
STACK CFI 83850 $r12: .cfa -32 + ^ $r13: .cfa -24 + ^ $r14: .cfa -16 + ^ $rbp: .cfa -40 + ^ $rbx: .cfa -48 + ^ .cfa: $rsp 64 +
STACK CFI INIT 838f0 92 .cfa: $rsp 8 + .ra: .cfa -8 + ^
STACK CFI 838f1 $rbp: .cfa -16 + ^ .cfa: $rsp 16 +
STACK CFI 838f2 $rbx: .cfa -24 + ^ .cfa: $rsp 24 +
STACK CFI 838f6 .cfa: $rsp 32 +
STACK CFI 83961 .cfa: $rsp 24 +
STACK CFI 83962 .cfa: $rsp 16 +
STACK CFI 83963 .cfa: $rsp 8 +
STACK CFI 83968 .cfa: $rsp 32 +
STACK CFI INIT 83990 c5 .cfa: $rsp 8 + .ra: .cfa -8 + ^
STACK CFI 83991 $rbp: .cfa -16 + ^ .cfa: $rsp 16 +
STACK CFI 83992 $rbx: .cfa -24 + ^ .cfa: $rsp 24 +
STACK CFI 83996 .cfa: $rsp 32 +
STACK CFI 83a21 .cfa: $rsp 24 +
STACK CFI 83a25 .cfa: $rsp 16 +
STACK CFI 83a26 .cfa: $rsp 8 +
STACK CFI 83a30 .cfa: $rsp 32 +
STACK CFI 83a34 .cfa: $rsp 24 +
STACK CFI 83a3b .cfa: $rsp 16 +
STACK CFI 83a3c .cfa: $rsp 8 +
STACK CFI 83a40 .cfa: $rsp 32 +
STACK CFI INIT 83a60 80a .cfa: $rsp 8 + .ra: .cfa -8 + ^
STACK CFI 83a62 $r15: .cfa -16 + ^ .cfa: $rsp 16 +
STACK CFI 83a64 $r14: .cfa -24 + ^ .cfa: $rsp 24 +
STACK CFI 83a66 $r13: .cfa -32 + ^ .cfa: $rsp 32 +
STACK CFI 83a6b $r12: .cfa -40 + ^ .cfa: $rsp 40 +
STACK CFI 83a6c $rbp: .cfa -48 + ^ .cfa: $rsp 48 +
STACK CFI 83a70 $rbx: .cfa -56 + ^ .cfa: $rsp 56 +
STACK CFI 83a74 .cfa: $rsp 80 +
STACK CFI 83d9c .cfa: $rsp 56 +
STACK CFI 83da0 .cfa: $rsp 48 +
STACK CFI 83da1 .cfa: $rsp 40 +
STACK CFI 83da3 .cfa: $rsp 32 +
STACK CFI 83da5 .cfa: $rsp 24 +
STACK CFI 83da7 .cfa: $rsp 16 +
STACK CFI 83da9 .cfa: $rsp 8 +
STACK CFI 83db0 .cfa: $rsp 80 +
STACK CFI INIT 84270 aa .cfa: $rsp 8 + .ra: .cfa -8 + ^
STACK CFI 84272 $r13: .cfa -16 + ^ .cfa: $rsp 16 +
STACK CFI 84277 $r12: .cfa -24 + ^ .cfa: $rsp 24 +
STACK CFI 8427b $rbp: .cfa -32 + ^ .cfa: $rsp 32 +
STACK CFI 8427c $rbx: .cfa -40 + ^ .cfa: $rsp 40 +
STACK CFI 84280 .cfa: $rsp 48 +
STACK CFI 842dd .cfa: $rsp 40 +
STACK CFI 842de .cfa: $rsp 32 +
STACK CFI 842df .cfa: $rsp 24 +
STACK CFI 842e1 .cfa: $rsp 16 +
STACK CFI 842e3 .cfa: $rsp 8 +
STACK CFI 842e8 .cfa: $rsp 48 +
STACK CFI INIT 84320 92 .cfa: $rsp 8 + .ra: .cfa -8 + ^
STACK CFI 84322 $r12: .cfa -16 + ^ .cfa: $rsp 16 +
STACK CFI 84326 $rbp: .cfa -24 + ^ .cfa: $rsp 24 +
STACK CFI 8432a $rbx: .cfa -32 + ^ .cfa: $rsp 32 +
STACK CFI 843a1 .cfa: $rsp 24 +
STACK CFI 843a2 .cfa: $rsp 16 +
STACK CFI 843a4 .cfa: $rsp 8 +
STACK CFI 843a8 .cfa: $rsp 32 +
STACK CFI INIT 843c0 36a .cfa: $rsp 8 + .ra: .cfa -8 + ^
STACK CFI 843c2 $r14: .cfa -16 + ^ .cfa: $rsp 16 +
STACK CFI 843c4 $r13: .cfa -24 + ^ .cfa: $rsp 24 +
STACK CFI 843c6 $r12: .cfa -32 + ^ .cfa: $rsp 32 +
STACK CFI 843c7 $rbp: .cfa -40 + ^ .cfa: $rsp 40 +
STACK CFI 843cb $rbx: .cfa -48 + ^ .cfa: $rsp 48 +
STACK CFI 843d1 .cfa: $rsp 64 +
STACK CFI 8454a .cfa: $rsp 48 +
STACK CFI 8454b .cfa: $rsp 40 +
STACK CFI 8454c .cfa: $rsp 32 +
STACK CFI 8454e .cfa: $rsp 24 +
STACK CFI 84550 .cfa: $rsp 16 +
STACK CFI 84552 .cfa: $rsp 8 +
STACK CFI 84558 .cfa: $rsp 64 +
STACK CFI 84562 .cfa: $rsp 48 +
STACK CFI 84566 .cfa: $rsp 40 +
STACK CFI 84567 .cfa: $rsp 32 +
STACK CFI 84569 .cfa: $rsp 24 +
STACK CFI 8456b .cfa: $rsp 16 +
STACK CFI 8456d .cfa: $rsp 8 +
STACK CFI 84578 .cfa: $rsp 64 +
STACK CFI INIT 84730 784 .cfa: $rsp 8 + .ra: .cfa -8 + ^
STACK CFI 84732 $r15: .cfa -16 + ^ .cfa: $rsp 16 +
STACK CFI 84734 $r14: .cfa -24 + ^ .cfa: $rsp 24 +
STACK CFI 84736 $r13: .cfa -32 + ^ .cfa: $rsp 32 +
STACK CFI 84738 $r12: .cfa -40 + ^ .cfa: $rsp 40 +
STACK CFI 8473c $rbp: .cfa -48 + ^ .cfa: $rsp 48 +
STACK CFI 8473d $rbx: .cfa -56 + ^ .cfa: $rsp 56 +
STACK CFI 84744 .cfa: $rsp 80 +
STACK CFI 8488c .cfa: $rsp 56 +
STACK CFI 8488d .cfa: $rsp 48 +
STACK CFI 8488e .cfa: $rsp 40 +
STACK CFI 84890 .cfa: $rsp 32 +
STACK CFI 84892 .cfa: $rsp 24 +
STACK CFI 84894 .cfa: $rsp 16 +
STACK CFI 84896 .cfa: $rsp 8 +
STACK CFI 848a0 .cfa: $rsp 80 +
STACK CFI 84c84 .cfa: $rsp 56 +
STACK CFI 84c8b .cfa: $rsp 48 +
STACK CFI 84c8c .cfa: $rsp 40 +
STACK CFI 84c8e .cfa: $rsp 32 +
STACK CFI 84c90 .cfa: $rsp 24 +
STACK CFI 84c92 .cfa: $rsp 16 +
STACK CFI 84c94 .cfa: $rsp 8 +
STACK CFI 84ca0 .cfa: $rsp 80 +
STACK CFI INIT 84ec0 758 .cfa: $rsp 8 + .ra: .cfa -8 + ^
STACK CFI 84ec2 $r15: .cfa -16 + ^ .cfa: $rsp 16 +
STACK CFI 84ec4 $r14: .cfa -24 + ^ .cfa: $rsp 24 +
STACK CFI 84ec6 $r13: .cfa -32 + ^ .cfa: $rsp 32 +
STACK CFI 84ec8 $r12: .cfa -40 + ^ .cfa: $rsp 40 +
STACK CFI 84ecc $rbp: .cfa -48 + ^ .cfa: $rsp 48 +
STACK CFI 84ecd $rbx: .cfa -56 + ^ .cfa: $rsp 56 +
STACK CFI 84ed4 .cfa: $rsp 80 +
STACK CFI 85039 .cfa: $rsp 56 +
STACK CFI 8503a .cfa: $rsp 48 +
STACK CFI 8503b .cfa: $rsp 40 +
STACK CFI 8503d .cfa: $rsp 32 +
STACK CFI 8503f .cfa: $rsp 24 +
STACK CFI 85041 .cfa: $rsp 16 +
STACK CFI 85043 .cfa: $rsp 8 +
STACK CFI 85048 .cfa: $rsp 80 +
STACK CFI 85557 .cfa: $rsp 56 +
STACK CFI 8555b .cfa: $rsp 48 +
STACK CFI 8555c .cfa: $rsp 40 +
STACK CFI 8555e .cfa: $rsp 32 +
STACK CFI 85560 .cfa: $rsp 24 +
STACK CFI 85562 .cfa: $rsp 16 +
STACK CFI 85564 .cfa: $rsp 8 +
STACK CFI 85570 .cfa: $rsp 80 +
STACK CFI INIT 85620 a2 .cfa: $rsp 8 + .ra: .cfa -8 + ^
STACK CFI 85621 $rbp: .cfa -16 + ^ .cfa: $rsp 16 +
STACK CFI 85622 $rbx: .cfa -24 + ^ .cfa: $rsp 24 +
STACK CFI 85626 .cfa: $rsp 32 +
STACK CFI 85693 .cfa: $rsp 24 +
STACK CFI 85694 .cfa: $rsp 16 +
STACK CFI 85695 .cfa: $rsp 8 +
STACK CFI 856a0 .cfa: $rsp 32 +
STACK CFI 856a4 .cfa: $rsp 24 +
STACK CFI 856ac .cfa: $rsp 16 +
STACK CFI 856ad .cfa: $rsp 8 +
STACK CFI 856b0 .cfa: $rsp 32 +
STACK CFI INIT 856d0 4b .cfa: $rsp 8 + .ra: .cfa -8 + ^
STACK CFI INIT 85720 51 .cfa: $rsp 8 + .ra: .cfa -8 + ^
STACK CFI INIT 85780 2d0 .cfa: $rsp 8 + .ra: .cfa -8 + ^
STACK CFI 85782 $r15: .cfa -16 + ^ .cfa: $rsp 16 +
STACK CFI 85787 $r14: .cfa -24 + ^ .cfa: $rsp 24 +
STACK CFI 8578c $r13: .cfa -32 + ^ .cfa: $rsp 32 +
STACK CFI 8578e $r12: .cfa -40 + ^ .cfa: $rsp 40 +
STACK CFI 85792 $rbp: .cfa -48 + ^ .cfa: $rsp 48 +
STACK CFI 85796 $rbx: .cfa -56 + ^ .cfa: $rsp 56 +
STACK CFI 8579d .cfa: $rsp 80 +
STACK CFI 8592d .cfa: $rsp 56 +
STACK CFI 8592e .cfa: $rsp 48 +
STACK CFI 8592f .cfa: $rsp 40 +
STACK CFI 85931 .cfa: $rsp 32 +
STACK CFI 85933 .cfa: $rsp 24 +
STACK CFI 85935 .cfa: $rsp 16 +
STACK CFI 85937 .cfa: $rsp 8 +
STACK CFI 85940 .cfa: $rsp 80 +
STACK CFI 85967 .cfa: $rsp 56 +
STACK CFI 85974 .cfa: $rsp 48 +
STACK CFI 85977 .cfa: $rsp 40 +
STACK CFI 85979 .cfa: $rsp 32 +
STACK CFI 8597b .cfa: $rsp 24 +
STACK CFI 8597d .cfa: $rsp 16 +
STACK CFI 8597f .cfa: $rsp 8 +
STACK CFI 85988 .cfa: $rsp 80 +
STACK CFI INIT 85a50 6d .cfa: $rsp 8 + .ra: .cfa -8 + ^
STACK CFI INIT 85ac0 34 .cfa: $rsp 8 + .ra: .cfa -8 + ^
STACK CFI 85ac2 $r12: .cfa -16 + ^ .cfa: $rsp 16 +
STACK CFI 85ac9 $rbp: .cfa -24 + ^ .cfa: $rsp 24 +
STACK CFI 85ad0 .cfa: $rsp 32 +
STACK CFI 85af0 .cfa: $rsp 24 +
STACK CFI 85af1 .cfa: $rsp 16 +
STACK CFI 85af3 .cfa: $rsp 8 +
STACK CFI INIT 85b00 f1 .cfa: $rsp 8 + .ra: .cfa -8 + ^
STACK CFI 85b02 $r13: .cfa -16 + ^ .cfa: $rsp 16 +
STACK CFI 85b04 $r12: .cfa -24 + ^ .cfa: $rsp 24 +
STACK CFI 85b05 $rbp: .cfa -32 + ^ .cfa: $rsp 32 +
STACK CFI 85b06 $rbx: .cfa -40 + ^ .cfa: $rsp 40 +
STACK CFI 85b0a .cfa: $rsp 48 +
STACK CFI 85bb8 .cfa: $rsp 40 +
STACK CFI 85bbc .cfa: $rsp 32 +
STACK CFI 85bbd .cfa: $rsp 24 +
STACK CFI 85bbf .cfa: $rsp 16 +
STACK CFI 85bc1 .cfa: $rsp 8 +
STACK CFI 85bc8 .cfa: $rsp 48 +
STACK CFI INIT 85c00 bb .cfa: $rsp 8 + .ra: .cfa -8 + ^
STACK CFI 85c02 $r12: .cfa -16 + ^ .cfa: $rsp 16 +
STACK CFI 85c03 $rbp: .cfa -24 + ^ .cfa: $rsp 24 +
STACK CFI 85c04 $rbx: .cfa -32 + ^ .cfa: $rsp 32 +
STACK CFI 85c84 .cfa: $rsp 24 +
STACK CFI 85c85 .cfa: $rsp 16 +
STACK CFI 85c87 .cfa: $rsp 8 +
STACK CFI 85c90 .cfa: $rsp 32 +
STACK CFI 85cac .cfa: $rsp 24 +
STACK CFI 85cad .cfa: $rsp 16 +
STACK CFI 85cb2 .cfa: $rsp 8 +
STACK CFI 85cb3 .cfa: $rsp 32 +
STACK CFI INIT 85cc0 f .cfa: $rsp 8 + .ra: .cfa -8 + ^
STACK CFI INIT 85cd0 5 .cfa: $rsp 8 + .ra: .cfa -8 + ^
STACK CFI INIT 85ce0 22 .cfa: $rsp 8 + .ra: .cfa -8 + ^
STACK CFI 85ce1 $rbp: .cfa -16 + ^ .cfa: $rsp 16 +
STACK CFI 85cfd .cfa: $rsp 8 +
STACK CFI INIT 85d10 22 .cfa: $rsp 8 + .ra: .cfa -8 + ^
STACK CFI 85d11 $rbp: .cfa -16 + ^ .cfa: $rsp 16 +
STACK CFI 85d2d .cfa: $rsp 8 +
STACK CFI INIT 85d40 22 .cfa: $rsp 8 + .ra: .cfa -8 + ^
STACK CFI 85d41 $rbp: .cfa -16 + ^ .cfa: $rsp 16 +
STACK CFI 85d5d .cfa: $rsp 8 +
STACK CFI INIT 85d70 15 .cfa: $rsp 8 + .ra: .cfa -8 + ^
STACK CFI 85d74 .cfa: $rsp 16 +
STACK CFI INIT 85d90 6f .cfa: $rsp 8 + .ra: .cfa -8 + ^
STACK CFI 85d91 $rbp: .cfa -16 + ^ .cfa: $rsp 16 +
STACK CFI 85d92 $rbx: .cfa -24 + ^ .cfa: $rsp 24 +
STACK CFI 85d96 .cfa: $rsp 32 +
STACK CFI 85deb .cfa: $rsp 24 +
STACK CFI 85dee .cfa: $rsp 16 +
STACK CFI 85def .cfa: $rsp 8 +
STACK CFI 85df8 .cfa: $rsp 32 +
STACK CFI 85dfc .cfa: $rsp 24 +
STACK CFI 85dfd .cfa: $rsp 16 +
STACK CFI 85dfe .cfa: $rsp 8 +
STACK CFI INIT 85e00 81 .cfa: $rsp 8 + .ra: .cfa -8 + ^
STACK CFI 85e09 $r12: .cfa -16 + ^ .cfa: $rsp 16 +
STACK CFI 85e0d $rbp: .cfa -24 + ^ .cfa: $rsp 24 +
STACK CFI 85e0e $rbx: .cfa -32 + ^ .cfa: $rsp 32 +
STACK CFI 85e7d .cfa: $rsp 24 +
STACK CFI 85e7e .cfa: $rsp 16 +
STACK CFI 85e80 .cfa: $rsp 8 +
STACK CFI INIT 85e90 b6 .cfa: $rsp 8 + .ra: .cfa -8 + ^
STACK CFI 85e99 $r12: .cfa -16 + ^ .cfa: $rsp 16 +
STACK CFI 85ea1 $rbp: .cfa -24 + ^ .cfa: $rsp 24 +
STACK CFI 85ea4 $rbx: .cfa -32 + ^ .cfa: $rsp 32 +
STACK CFI 85f20 .cfa: $rsp 24 +
STACK CFI 85f21 .cfa: $rsp 16 +
STACK CFI 85f23 .cfa: $rsp 8 +
STACK CFI 85f28 .cfa: $rsp 32 +
STACK CFI INIT 85f50 9a .cfa: $rsp 8 + .ra: .cfa -8 + ^
STACK CFI 85f59 $r14: .cfa -16 + ^ .cfa: $rsp 16 +
STACK CFI 85f5e $r13: .cfa -24 + ^ .cfa: $rsp 24 +
STACK CFI 85f63 $r12: .cfa -32 + ^ .cfa: $rsp 32 +
STACK CFI 85f67 $rbp: .cfa -40 + ^ .cfa: $rsp 40 +
STACK CFI 85f68 $rbx: .cfa -48 + ^ .cfa: $rsp 48 +
STACK CFI 85fcb .cfa: $rsp 40 +
STACK CFI 85fcc .cfa: $rsp 32 +
STACK CFI 85fce .cfa: $rsp 24 +
STACK CFI 85fd0 .cfa: $rsp 16 +
STACK CFI 85fd2 .cfa: $rsp 8 +
STACK CFI 85fd8 .cfa: $rsp 48 +
STACK CFI INIT 85ff0 a .cfa: $rsp 8 + .ra: .cfa -8 + ^
STACK CFI INIT 86000 a .cfa: $rsp 8 + .ra: .cfa -8 + ^
STACK CFI INIT 86010 38 .cfa: $rsp 8 + .ra: .cfa -8 + ^
STACK CFI 86014 .cfa: $rsp 16 +
STACK CFI 86030 .cfa: $rsp 8 +
STACK CFI 86038 .cfa: $rsp 16 +
STACK CFI 86043 .cfa: $rsp 8 +
STACK CFI INIT 86050 14 .cfa: $rsp 8 + .ra: .cfa -8 + ^
STACK CFI 86054 .cfa: $rsp 16 +
STACK CFI 86063 .cfa: $rsp 8 +
STACK CFI INIT 86070 8f .cfa: $rsp 8 + .ra: .cfa -8 + ^
STACK CFI 86072 $r12: .cfa -16 + ^ .cfa: $rsp 16 +
STACK CFI 8607a $rbp: .cfa -24 + ^ .cfa: $rsp 24 +
STACK CFI 8607b $rbx: .cfa -32 + ^ .cfa: $rsp 32 +
STACK CFI 8609d .cfa: $rsp 24 +
STACK CFI 8609e .cfa: $rsp 16 +
STACK CFI 860a0 .cfa: $rsp 8 +
STACK CFI 860a8 .cfa: $rsp 32 +
STACK CFI 860f1 .cfa: $rsp 24 +
STACK CFI 860f6 .cfa: $rsp 16 +
STACK CFI 860fa .cfa: $rsp 8 +
STACK CFI INIT 86100 1b8 .cfa: $rsp 8 + .ra: .cfa -8 + ^
STACK CFI 86109 $r12: .cfa -16 + ^ .cfa: $rsp 16 +
STACK CFI 8610d $rbp: .cfa -24 + ^ .cfa: $rsp 24 +
STACK CFI 8610e $rbx: .cfa -32 + ^ .cfa: $rsp 32 +
STACK CFI 86289 .cfa: $rsp 24 +
STACK CFI 8628a .cfa: $rsp 16 +
STACK CFI 8628c .cfa: $rsp 8 +
STACK CFI 86290 .cfa: $rsp 32 +
STACK CFI INIT 862c0 59 .cfa: $rsp 8 + .ra: .cfa -8 + ^
STACK CFI 862c2 $r12: .cfa -16 + ^ .cfa: $rsp 16 +
STACK CFI 862c6 $rbp: .cfa -24 + ^ .cfa: $rsp 24 +
STACK CFI 862c7 $rbx: .cfa -32 + ^ .cfa: $rsp 32 +
STACK CFI 862ce .cfa: $rsp 24 +
STACK CFI 862cf .cfa: $rsp 16 +
STACK CFI 862d1 .cfa: $rsp 8 +
STACK CFI 862d8 .cfa: $rsp 32 +
STACK CFI 86315 .cfa: $rsp 24 +
STACK CFI 86316 .cfa: $rsp 16 +
STACK CFI 86318 .cfa: $rsp 8 +
STACK CFI INIT 86320 2ca .cfa: $rsp 8 + .ra: .cfa -8 + ^
STACK CFI 86322 $r13: .cfa -16 + ^ .cfa: $rsp 16 +
STACK CFI 86324 $r12: .cfa -24 + ^ .cfa: $rsp 24 +
STACK CFI 86328 $rbp: .cfa -32 + ^ .cfa: $rsp 32 +
STACK CFI 8632c $rbx: .cfa -40 + ^ .cfa: $rsp 40 +
STACK CFI 86330 .cfa: $rsp 48 +
STACK CFI 86512 .cfa: $rsp 40 +
STACK CFI 86513 .cfa: $rsp 32 +
STACK CFI 86514 .cfa: $rsp 24 +
STACK CFI 86516 .cfa: $rsp 16 +
STACK CFI 86518 .cfa: $rsp 8 +
STACK CFI 86520 .cfa: $rsp 48 +
STACK CFI INIT 865f0 1de .cfa: $rsp 8 + .ra: .cfa -8 + ^
STACK CFI 865f2 $r15: .cfa -16 + ^ .cfa: $rsp 16 +
STACK CFI 865fc $r14: .cfa -24 + ^ .cfa: $rsp 24 +
STACK CFI 865fe $r13: .cfa -32 + ^ .cfa: $rsp 32 +
STACK CFI 86600 $r12: .cfa -40 + ^ .cfa: $rsp 40 +
STACK CFI 86607 $rbp: .cfa -48 + ^ .cfa: $rsp 48 +
STACK CFI 8660a $rbx: .cfa -56 + ^ .cfa: $rsp 56 +
STACK CFI 86611 .cfa: $rsp 112 +
STACK CFI 86753 .cfa: $rsp 56 +
STACK CFI 86754 .cfa: $rsp 48 +
STACK CFI 86755 .cfa: $rsp 40 +
STACK CFI 86757 .cfa: $rsp 32 +
STACK CFI 86759 .cfa: $rsp 24 +
STACK CFI 8675b .cfa: $rsp 16 +
STACK CFI 8675d .cfa: $rsp 8 +
STACK CFI 86760 .cfa: $rsp 112 +
STACK CFI INIT 867d0 c3a .cfa: $rsp 8 + .ra: .cfa -8 + ^
STACK CFI 867d2 $r15: .cfa -16 + ^ .cfa: $rsp 16 +
STACK CFI 867d4 $r14: .cfa -24 + ^ .cfa: $rsp 24 +
STACK CFI 867d6 $r13: .cfa -32 + ^ .cfa: $rsp 32 +
STACK CFI 867d8 $r12: .cfa -40 + ^ .cfa: $rsp 40 +
STACK CFI 867dc $rbp: .cfa -48 + ^ .cfa: $rsp 48 +
STACK CFI 867dd $rbx: .cfa -56 + ^ .cfa: $rsp 56 +
STACK CFI 867e4 .cfa: $rsp 1376 +
STACK CFI 86f35 .cfa: $rsp 56 +
STACK CFI 86f39 .cfa: $rsp 48 +
STACK CFI 86f3a .cfa: $rsp 40 +
STACK CFI 86f3c .cfa: $rsp 32 +
STACK CFI 86f3e .cfa: $rsp 24 +
STACK CFI 86f40 .cfa: $rsp 16 +
STACK CFI 86f42 .cfa: $rsp 8 +
STACK CFI 86f48 .cfa: $rsp 1376 +
STACK CFI INIT 87410 a .cfa: $rsp 8 + .ra: .cfa -8 + ^
STACK CFI INIT 87420 21 .cfa: $rsp 8 + .ra: .cfa -8 + ^
STACK CFI 87424 .cfa: $rsp 16 +
STACK CFI 87440 .cfa: $rsp 8 +
STACK CFI INIT 87450 481 .cfa: $rsp 8 + .ra: .cfa -8 + ^
STACK CFI 87452 $r15: .cfa -16 + ^ .cfa: $rsp 16 +
STACK CFI 87456 $r14: .cfa -24 + ^ .cfa: $rsp 24 +
STACK CFI 87458 $r13: .cfa -32 + ^ .cfa: $rsp 32 +
STACK CFI 8745a $r12: .cfa -40 + ^ .cfa: $rsp 40 +
STACK CFI 8745b $rbp: .cfa -48 + ^ .cfa: $rsp 48 +
STACK CFI 8745c $rbx: .cfa -56 + ^ .cfa: $rsp 56 +
STACK CFI 87462 .cfa: $rsp 64 +
STACK CFI 8779a .cfa: $rsp 56 +
STACK CFI 8779e .cfa: $rsp 48 +
STACK CFI 8779f .cfa: $rsp 40 +
STACK CFI 877a1 .cfa: $rsp 32 +
STACK CFI 877a3 .cfa: $rsp 24 +
STACK CFI 877a5 .cfa: $rsp 16 +
STACK CFI 877a7 .cfa: $rsp 8 +
STACK CFI 877b0 .cfa: $rsp 64 +
STACK CFI 877d4 .cfa: $rsp 56 +
STACK CFI 877d5 .cfa: $rsp 48 +
STACK CFI 877d6 .cfa: $rsp 40 +
STACK CFI 877d8 .cfa: $rsp 32 +
STACK CFI 877da .cfa: $rsp 24 +
STACK CFI 877dc .cfa: $rsp 16 +
STACK CFI 877de .cfa: $rsp 8 +
STACK CFI 877df .cfa: $rsp 64 +
STACK CFI INIT 878e0 125 .cfa: $rsp 8 + .ra: .cfa -8 + ^
STACK CFI 878e1 $rbp: .cfa -16 + ^ .cfa: $rsp 16 +
STACK CFI 878f2 .cfa: $rsp 1104 +
STACK CFI 879c3 .cfa: $rsp 16 +
STACK CFI 879c4 .cfa: $rsp 8 +
STACK CFI 879c8 .cfa: $rsp 1104 +
STACK CFI INIT 87a10 7 .cfa: $rsp 8 + .ra: .cfa -8 + ^
STACK CFI INIT 87a20 7 .cfa: $rsp 8 + .ra: .cfa -8 + ^
STACK CFI INIT 87a30 b7 .cfa: $rsp 8 + .ra: .cfa -8 + ^
STACK CFI 87a34 .cfa: $rsp 16 +
STACK CFI 87a61 .cfa: $rsp 8 +
STACK CFI 87a68 .cfa: $rsp 16 +
STACK CFI 87a97 .cfa: $rsp 8 +
STACK CFI 87aa0 .cfa: $rsp 16 +
STACK CFI INIT 87af0 124 .cfa: $rsp 8 + .ra: .cfa -8 + ^
STACK CFI 87af1 $rbp: .cfa -16 + ^ .cfa: $rsp 16 +
STACK CFI 87b75 .cfa: $rsp 8 +
STACK CFI 87b90 .cfa: $rsp 16 +
STACK CFI 87bf2 .cfa: $rsp 8 +
STACK CFI 87c08 .cfa: $rsp 16 +
STACK CFI INIT 87c20 7 .cfa: $rsp 8 + .ra: .cfa -8 + ^
STACK CFI INIT 87c30 7 .cfa: $rsp 8 + .ra: .cfa -8 + ^
STACK CFI INIT 87c40 af .cfa: $rsp 8 + .ra: .cfa -8 + ^
STACK CFI 87c42 $r12: .cfa -16 + ^ .cfa: $rsp 16 +
STACK CFI 87c43 $rbp: .cfa -24 + ^ .cfa: $rsp 24 +
STACK CFI 87c47 .cfa: $rsp 96 +
STACK CFI 87cb2 .cfa: $rsp 24 +
STACK CFI 87cb3 .cfa: $rsp 16 +
STACK CFI 87cb5 .cfa: $rsp 8 +
STACK CFI 87cc0 .cfa: $rsp 96 +
STACK CFI INIT 87cf0 b .cfa: $rsp 8 + .ra: .cfa -8 + ^
STACK CFI INIT 87d00 54 .cfa: $rsp 8 + .ra: .cfa -8 + ^
STACK CFI 87d02 $r13: .cfa -16 + ^ .cfa: $rsp 16 +
STACK CFI 87d0c $r12: .cfa -24 + ^ .cfa: $rsp 24 +
STACK CFI 87d0d $rbp: .cfa -32 + ^ .cfa: $rsp 32 +
STACK CFI 87d4f .cfa: $rsp 24 +
STACK CFI 87d51 .cfa: $rsp 16 +
STACK CFI 87d53 .cfa: $rsp 8 +
STACK CFI INIT 87d60 1d8 .cfa: $rsp 8 + .ra: .cfa -8 + ^
STACK CFI 87d69 $rbx: .cfa -16 + ^ .cfa: $rsp 16 +
STACK CFI 87dba .cfa: $rsp 24 +
STACK CFI 87dc4 .cfa: $rsp 32 +
STACK CFI 87dda .cfa: $rsp 24 +
STACK CFI 87ddb .cfa: $rsp 16 +
STACK CFI 87ee3 .cfa: $rsp 8 +
STACK CFI 87ee8 .cfa: $rsp 16 +
STACK CFI INIT 87f40 f3 .cfa: $rsp 8 + .ra: .cfa -8 + ^
STACK CFI 87f4a $rbx: .cfa -16 + ^ .cfa: $rsp 16 +
STACK CFI 87f82 $rbx: $rbx .cfa: $rsp 8 +
STACK CFI 87f90 $rbx: .cfa -16 + ^ .cfa: $rsp 16 +
STACK CFI 87fec .cfa: $rsp 8 +
STACK CFI 87ff0 .cfa: $rsp 16 +
STACK CFI 88030 $rbx: $rbx .cfa: $rsp 8 +
STACK CFI INIT 88040 155 .cfa: $rsp 8 + .ra: .cfa -8 + ^
STACK CFI 88042 $r15: .cfa -16 + ^ .cfa: $rsp 16 +
STACK CFI 88044 $r14: .cfa -24 + ^ .cfa: $rsp 24 +
STACK CFI 88049 $r13: .cfa -32 + ^ .cfa: $rsp 32 +
STACK CFI 8804e $r12: .cfa -40 + ^ .cfa: $rsp 40 +
STACK CFI 8804f $rbp: .cfa -48 + ^ .cfa: $rsp 48 +
STACK CFI 88050 $rbx: .cfa -56 + ^ .cfa: $rsp 56 +
STACK CFI 88057 .cfa: $rsp 208 +
STACK CFI 880eb .cfa: $rsp 56 +
STACK CFI 880ec .cfa: $rsp 48 +
STACK CFI 880ed .cfa: $rsp 40 +
STACK CFI 880ef .cfa: $rsp 32 +
STACK CFI 880f1 .cfa: $rsp 24 +
STACK CFI 880f3 .cfa: $rsp 16 +
STACK CFI 880f5 .cfa: $rsp 8 +
STACK CFI 88100 .cfa: $rsp 208 +
STACK CFI INIT 881a0 178 .cfa: $rsp 8 + .ra: .cfa -8 + ^
STACK CFI 881a2 $r14: .cfa -16 + ^ .cfa: $rsp 16 +
STACK CFI 881a4 $r13: .cfa -24 + ^ .cfa: $rsp 24 +
STACK CFI 881a9 $r12: .cfa -32 + ^ .cfa: $rsp 32 +
STACK CFI 881aa $rbp: .cfa -40 + ^ .cfa: $rsp 40 +
STACK CFI 881bb .cfa: $rsp 192 +
STACK CFI 881de .cfa: $rsp 40 +
STACK CFI 881e2 .cfa: $rsp 32 +
STACK CFI 881e4 .cfa: $rsp 24 +
STACK CFI 881e6 .cfa: $rsp 16 +
STACK CFI 881e8 .cfa: $rsp 8 +
STACK CFI 881f0 .cfa: $rsp 192 +
STACK CFI INIT 88320 2e .cfa: $rsp 8 + .ra: .cfa -8 + ^
STACK CFI 88334 .cfa: $rsp 16 +
STACK CFI 8834d .cfa: $rsp 8 +
STACK CFI INIT 88350 2e .cfa: $rsp 8 + .ra: .cfa -8 + ^
STACK CFI 88364 .cfa: $rsp 16 +
STACK CFI 8837d .cfa: $rsp 8 +
STACK CFI INIT 88380 11f .cfa: $rsp 8 + .ra: .cfa -8 + ^
STACK CFI 88382 $r14: .cfa -16 + ^ .cfa: $rsp 16 +
STACK CFI 88384 $r13: .cfa -24 + ^ .cfa: $rsp 24 +
STACK CFI 88386 $r12: .cfa -32 + ^ .cfa: $rsp 32 +
STACK CFI 8838a $rbp: .cfa -40 + ^ .cfa: $rsp 40 +
STACK CFI 8838b $rbx: .cfa -48 + ^ .cfa: $rsp 48 +
STACK CFI 88422 .cfa: $rsp 40 +
STACK CFI 88426 .cfa: $rsp 32 +
STACK CFI 88428 .cfa: $rsp 24 +
STACK CFI 8842a .cfa: $rsp 16 +
STACK CFI 8842c .cfa: $rsp 8 +
STACK CFI 88438 .cfa: $rsp 48 +
STACK CFI INIT 884a0 1a7 .cfa: $rsp 8 + .ra: .cfa -8 + ^
STACK CFI 884a2 $r12: .cfa -16 + ^ .cfa: $rsp 16 +
STACK CFI 884a6 $rbp: .cfa -24 + ^ .cfa: $rsp 24 +
STACK CFI 884aa $rbx: .cfa -32 + ^ .cfa: $rsp 32 +
STACK CFI 88595 .cfa: $rsp 24 +
STACK CFI 88596 .cfa: $rsp 16 +
STACK CFI 88598 .cfa: $rsp 8 +
STACK CFI 88599 .cfa: $rsp 32 +
STACK CFI 88640 .cfa: $rsp 24 +
STACK CFI 88644 .cfa: $rsp 16 +
STACK CFI 88646 .cfa: $rsp 8 +
STACK CFI INIT 88650 14b .cfa: $rsp 8 + .ra: .cfa -8 + ^
STACK CFI 8865b $r15: .cfa -16 + ^ .cfa: $rsp 16 +
STACK CFI 8865d $r14: .cfa -24 + ^ .cfa: $rsp 24 +
STACK CFI 8865f $r13: .cfa -32 + ^ .cfa: $rsp 32 +
STACK CFI 88661 $r12: .cfa -40 + ^ .cfa: $rsp 40 +
STACK CFI 88665 $rbp: .cfa -48 + ^ .cfa: $rsp 48 +
STACK CFI 88666 $rbx: .cfa -56 + ^ .cfa: $rsp 56 +
STACK CFI 8866a .cfa: $rsp 96 +
STACK CFI 88732 .cfa: $rsp 56 +
STACK CFI 88733 $rbx: $rbx .cfa: $rsp 48 +
STACK CFI 88734 $rbp: $rbp .cfa: $rsp 40 +
STACK CFI 88736 $r12: $r12 .cfa: $rsp 32 +
STACK CFI 88738 $r13: $r13 .cfa: $rsp 24 +
STACK CFI 8873a $r14: $r14 .cfa: $rsp 16 +
STACK CFI 8873c $r15: $r15 .cfa: $rsp 8 +
STACK CFI 88748 $r12: .cfa -40 + ^ $r13: .cfa -32 + ^ $r14: .cfa -24 + ^ $r15: .cfa -16 + ^ $rbp: .cfa -48 + ^ $rbx: .cfa -56 + ^ .cfa: $rsp 96 +
STACK CFI 8874c .cfa: $rsp 56 +
STACK CFI 8874f .cfa: $rsp 48 +
STACK CFI 88750 .cfa: $rsp 40 +
STACK CFI 88752 .cfa: $rsp 32 +
STACK CFI 88754 .cfa: $rsp 24 +
STACK CFI 88756 .cfa: $rsp 16 +
STACK CFI 88758 .cfa: $rsp 8 +
STACK CFI 88760 .cfa: $rsp 96 +
STACK CFI 88784 .cfa: $rsp 56 +
STACK CFI 88788 .cfa: $rsp 48 +
STACK CFI 88789 .cfa: $rsp 40 +
STACK CFI 8878b .cfa: $rsp 32 +
STACK CFI 8878d .cfa: $rsp 24 +
STACK CFI 8878f .cfa: $rsp 16 +
STACK CFI 88791 .cfa: $rsp 8 +
STACK CFI 88798 $r12: $r12 $r13: $r13 $r14: $r14 $r15: $r15 $rbp: $rbp $rbx: $rbx
STACK CFI INIT 887a0 2d4 .cfa: $rsp 8 + .ra: .cfa -8 + ^
STACK CFI 887a2 $r12: .cfa -16 + ^ .cfa: $rsp 16 +
STACK CFI 887a8 $rbp: .cfa -24 + ^ .cfa: $rsp 24 +
STACK CFI 887a9 $rbx: .cfa -32 + ^ .cfa: $rsp 32 +
STACK CFI 887b0 .cfa: $rsp 2080 +
STACK CFI 888b6 .cfa: $rsp 32 +
STACK CFI 888b7 .cfa: $rsp 24 +
STACK CFI 888b8 .cfa: $rsp 16 +
STACK CFI 888ba .cfa: $rsp 8 +
STACK CFI 888c0 .cfa: $rsp 2080 +
STACK CFI INIT 88a80 d4 .cfa: $rsp 8 + .ra: .cfa -8 + ^
STACK CFI 88a82 $r12: .cfa -16 + ^ .cfa: $rsp 16 +
STACK CFI 88a86 $rbp: .cfa -24 + ^ .cfa: $rsp 24 +
STACK CFI 88a95 .cfa: $rsp 176 +
STACK CFI 88ab5 .cfa: $rsp 24 +
STACK CFI 88abb .cfa: $rsp 16 +
STACK CFI 88abd .cfa: $rsp 8 +
STACK CFI 88ac0 .cfa: $rsp 176 +
STACK CFI 88b37 .cfa: $rsp 24 +
STACK CFI 88b38 .cfa: $rsp 16 +
STACK CFI 88b3a .cfa: $rsp 8 +
STACK CFI 88b40 .cfa: $rsp 176 +
STACK CFI 88b4e .cfa: $rsp 24 +
STACK CFI 88b51 .cfa: $rsp 16 +
STACK CFI 88b53 .cfa: $rsp 8 +
STACK CFI INIT 88b60 193 .cfa: $rsp 8 + .ra: .cfa -8 + ^
STACK CFI 88b62 $r15: .cfa -16 + ^ .cfa: $rsp 16 +
STACK CFI 88b67 $r14: .cfa -24 + ^ .cfa: $rsp 24 +
STACK CFI 88b69 $r13: .cfa -32 + ^ .cfa: $rsp 32 +
STACK CFI 88b6b $r12: .cfa -40 + ^ .cfa: $rsp 40 +
STACK CFI 88b6c $rbp: .cfa -48 + ^ .cfa: $rsp 48 +
STACK CFI 88b6d $rbx: .cfa -56 + ^ .cfa: $rsp 56 +
STACK CFI 88b7c .cfa: $rsp 1552 +
STACK CFI 88ba8 .cfa: $rsp 56 +
STACK CFI 88ba9 .cfa: $rsp 48 +
STACK CFI 88baa .cfa: $rsp 40 +
STACK CFI 88bac .cfa: $rsp 32 +
STACK CFI 88bae .cfa: $rsp 24 +
STACK CFI 88bb0 .cfa: $rsp 16 +
STACK CFI 88bb2 .cfa: $rsp 8 +
STACK CFI 88bb8 .cfa: $rsp 1552 +
STACK CFI INIT 88d00 d4 .cfa: $rsp 8 + .ra: .cfa -8 + ^
STACK CFI 88d02 $r12: .cfa -16 + ^ .cfa: $rsp 16 +
STACK CFI 88d06 $rbp: .cfa -24 + ^ .cfa: $rsp 24 +
STACK CFI 88d15 .cfa: $rsp 176 +
STACK CFI 88d35 .cfa: $rsp 24 +
STACK CFI 88d3b .cfa: $rsp 16 +
STACK CFI 88d3d .cfa: $rsp 8 +
STACK CFI 88d40 .cfa: $rsp 176 +
STACK CFI 88db7 .cfa: $rsp 24 +
STACK CFI 88db8 .cfa: $rsp 16 +
STACK CFI 88dba .cfa: $rsp 8 +
STACK CFI 88dc0 .cfa: $rsp 176 +
STACK CFI 88dce .cfa: $rsp 24 +
STACK CFI 88dd1 .cfa: $rsp 16 +
STACK CFI 88dd3 .cfa: $rsp 8 +
STACK CFI INIT 88de0 16d .cfa: $rsp 8 + .ra: .cfa -8 + ^
STACK CFI 88de2 $r14: .cfa -16 + ^ .cfa: $rsp 16 +
STACK CFI 88de7 $r13: .cfa -24 + ^ .cfa: $rsp 24 +
STACK CFI 88de9 $r12: .cfa -32 + ^ .cfa: $rsp 32 +
STACK CFI 88dea $rbp: .cfa -40 + ^ .cfa: $rsp 40 +
STACK CFI 88df3 $rbx: .cfa -48 + ^ .cfa: $rsp 48 +
STACK CFI 88dfa .cfa: $rsp 1216 +
STACK CFI 88e2d .cfa: $rsp 48 +
STACK CFI 88e31 .cfa: $rsp 40 +
STACK CFI 88e32 .cfa: $rsp 32 +
STACK CFI 88e34 .cfa: $rsp 24 +
STACK CFI 88e36 .cfa: $rsp 16 +
STACK CFI 88e38 .cfa: $rsp 8 +
STACK CFI 88e40 .cfa: $rsp 1216 +
STACK CFI INIT 88f50 12c .cfa: $rsp 8 + .ra: .cfa -8 + ^
STACK CFI 88f52 $r14: .cfa -16 + ^ .cfa: $rsp 16 +
STACK CFI 88f57 $r13: .cfa -24 + ^ .cfa: $rsp 24 +
STACK CFI 88f59 $r12: .cfa -32 + ^ .cfa: $rsp 32 +
STACK CFI 88f5a $rbp: .cfa -40 + ^ .cfa: $rsp 40 +
STACK CFI 88f5b $rbx: .cfa -48 + ^ .cfa: $rsp 48 +
STACK CFI 88f6a .cfa: $rsp 1216 +
STACK CFI 88f9d .cfa: $rsp 48 +
STACK CFI 88fa1 .cfa: $rsp 40 +
STACK CFI 88fa2 .cfa: $rsp 32 +
STACK CFI 88fa4 .cfa: $rsp 24 +
STACK CFI 88fa6 .cfa: $rsp 16 +
STACK CFI 88fa8 .cfa: $rsp 8 +
STACK CFI 88fb0 .cfa: $rsp 1216 +
STACK CFI INIT 89080 a .cfa: $rsp 8 + .ra: .cfa -8 + ^
STACK CFI INIT 89090 1a4 .cfa: $rsp 8 + .ra: .cfa -8 + ^
STACK CFI 89092 $r12: .cfa -16 + ^ .cfa: $rsp 16 +
STACK CFI 89093 $rbp: .cfa -24 + ^ .cfa: $rsp 24 +
STACK CFI 8909a .cfa: $rsp 4128 +
STACK CFI 890cd .cfa: $rsp 24 +
STACK CFI 890ce .cfa: $rsp 16 +
STACK CFI 890d0 .cfa: $rsp 8 +
STACK CFI 890d8 .cfa: $rsp 4128 +
STACK CFI 891fd .cfa: $rsp 24 +
STACK CFI 89203 .cfa: $rsp 16 +
STACK CFI 89205 .cfa: $rsp 8 +
STACK CFI 89210 .cfa: $rsp 4128 +
STACK CFI INIT 89240 4 .cfa: $rsp 8 + .ra: .cfa -8 + ^
STACK CFI INIT 89250 146 .cfa: $rsp 8 + .ra: .cfa -8 + ^
STACK CFI 89252 $r12: .cfa -16 + ^ .cfa: $rsp 16 +
STACK CFI 89253 $rbp: .cfa -24 + ^ .cfa: $rsp 24 +
STACK CFI 8925a .cfa: $rsp 32 +
STACK CFI 892f4 .cfa: $rsp 24 +
STACK CFI 892f8 .cfa: $rsp 16 +
STACK CFI 892fa .cfa: $rsp 8 +
STACK CFI 89300 .cfa: $rsp 32 +
STACK CFI INIT 893a0 327 .cfa: $rsp 8 + .ra: .cfa -8 + ^
STACK CFI 893a2 $r15: .cfa -16 + ^ .cfa: $rsp 16 +
STACK CFI 893a4 $r14: .cfa -24 + ^ .cfa: $rsp 24 +
STACK CFI 893a6 $r13: .cfa -32 + ^ .cfa: $rsp 32 +
STACK CFI 893a8 $r12: .cfa -40 + ^ .cfa: $rsp 40 +
STACK CFI 893a9 $rbp: .cfa -48 + ^ .cfa: $rsp 48 +
STACK CFI 893aa $rbx: .cfa -56 + ^ .cfa: $rsp 56 +
STACK CFI 893b1 .cfa: $rsp 224 +
STACK CFI 89484 .cfa: $rsp 56 +
STACK CFI 89488 .cfa: $rsp 48 +
STACK CFI 89489 .cfa: $rsp 40 +
STACK CFI 8948b .cfa: $rsp 32 +
STACK CFI 8948d .cfa: $rsp 24 +
STACK CFI 8948f .cfa: $rsp 16 +
STACK CFI 89491 .cfa: $rsp 8 +
STACK CFI 89498 .cfa: $rsp 224 +
STACK CFI INIT 896d0 180 .cfa: $rsp 8 + .ra: .cfa -8 + ^
STACK CFI 896d2 $r12: .cfa -16 + ^ .cfa: $rsp 16 +
STACK CFI 896d3 $rbp: .cfa -24 + ^ .cfa: $rsp 24 +
STACK CFI 896da .cfa: $rsp 32 +
STACK CFI 8979d .cfa: $rsp 24 +
STACK CFI 897a1 .cfa: $rsp 16 +
STACK CFI 897a3 .cfa: $rsp 8 +
STACK CFI 897b0 .cfa: $rsp 32 +
STACK CFI 89837 .cfa: $rsp 24 +
STACK CFI 8983f .cfa: $rsp 16 +
STACK CFI 89841 .cfa: $rsp 8 +
STACK CFI 89846 .cfa: $rsp 32 +
STACK CFI INIT 89850 26 .cfa: $rsp 8 + .ra: .cfa -8 + ^
STACK CFI 89852 $r12: .cfa -16 + ^ .cfa: $rsp 16 +
STACK CFI 89856 $rbp: .cfa -24 + ^ .cfa: $rsp 24 +
STACK CFI 8985a $rbx: .cfa -32 + ^ .cfa: $rsp 32 +
STACK CFI 89872 .cfa: $rsp 24 +
STACK CFI 89873 .cfa: $rsp 16 +
STACK CFI 89875 .cfa: $rsp 8 +
STACK CFI INIT 89880 11 .cfa: $rsp 8 + .ra: .cfa -8 + ^
STACK CFI 89884 .cfa: $rsp 16 +
STACK CFI 89890 .cfa: $rsp 8 +
STACK CFI INIT 898a0 9 .cfa: $rsp 8 + .ra: .cfa -8 + ^
STACK CFI INIT 898b0 399 .cfa: $rsp 8 + .ra: .cfa -8 + ^
STACK CFI 898b2 $r15: .cfa -16 + ^ .cfa: $rsp 16 +
STACK CFI 898b4 $r14: .cfa -24 + ^ .cfa: $rsp 24 +
STACK CFI 898b6 $r13: .cfa -32 + ^ .cfa: $rsp 32 +
STACK CFI 898b8 $r12: .cfa -40 + ^ .cfa: $rsp 40 +
STACK CFI 898b9 $rbp: .cfa -48 + ^ .cfa: $rsp 48 +
STACK CFI 898bd $rbx: .cfa -56 + ^ .cfa: $rsp 56 +
STACK CFI 898c4 .cfa: $rsp 2272 +
STACK CFI 89983 .cfa: $rsp 56 +
STACK CFI 89984 .cfa: $rsp 48 +
STACK CFI 89985 .cfa: $rsp 40 +
STACK CFI 89987 .cfa: $rsp 32 +
STACK CFI 89989 .cfa: $rsp 24 +
STACK CFI 8998b .cfa: $rsp 16 +
STACK CFI 8998d .cfa: $rsp 8 +
STACK CFI 89990 .cfa: $rsp 2272 +
STACK CFI INIT 89c50 2f3 .cfa: $rsp 8 + .ra: .cfa -8 + ^
STACK CFI 89c52 $r15: .cfa -16 + ^ .cfa: $rsp 16 +
STACK CFI 89c54 $r14: .cfa -24 + ^ .cfa: $rsp 24 +
STACK CFI 89c56 $r13: .cfa -32 + ^ .cfa: $rsp 32 +
STACK CFI 89c58 $r12: .cfa -40 + ^ .cfa: $rsp 40 +
STACK CFI 89c5c $rbp: .cfa -48 + ^ .cfa: $rsp 48 +
STACK CFI 89c60 $rbx: .cfa -56 + ^ .cfa: $rsp 56 +
STACK CFI 89c67 .cfa: $rsp 2128 +
STACK CFI 89dd7 .cfa: $rsp 56 +
STACK CFI 89dd8 .cfa: $rsp 48 +
STACK CFI 89dd9 .cfa: $rsp 40 +
STACK CFI 89ddb .cfa: $rsp 32 +
STACK CFI 89ddd .cfa: $rsp 24 +
STACK CFI 89ddf .cfa: $rsp 16 +
STACK CFI 89de1 .cfa: $rsp 8 +
STACK CFI 89de8 .cfa: $rsp 2128 +
STACK CFI INIT 89f50 240 .cfa: $rsp 8 + .ra: .cfa -8 + ^
STACK CFI 89f52 $r14: .cfa -16 + ^ .cfa: $rsp 16 +
STACK CFI 89f54 $r13: .cfa -24 + ^ .cfa: $rsp 24 +
STACK CFI 89f59 $r12: .cfa -32 + ^ .cfa: $rsp 32 +
STACK CFI 89f5a $rbp: .cfa -40 + ^ .cfa: $rsp 40 +
STACK CFI 89f61 .cfa: $rsp 192 +
STACK CFI 89fbf .cfa: $rsp 40 +
STACK CFI 89fc3 .cfa: $rsp 32 +
STACK CFI 89fc5 .cfa: $rsp 24 +
STACK CFI 89fc7 .cfa: $rsp 16 +
STACK CFI 89fc9 .cfa: $rsp 8 +
STACK CFI 89fd0 .cfa: $rsp 192 +
STACK CFI INIT 8a190 34a .cfa: $rsp 8 + .ra: .cfa -8 + ^
STACK CFI 8a192 $r15: .cfa -16 + ^ .cfa: $rsp 16 +
STACK CFI 8a194 $r14: .cfa -24 + ^ .cfa: $rsp 24 +
STACK CFI 8a196 $r13: .cfa -32 + ^ .cfa: $rsp 32 +
STACK CFI 8a198 $r12: .cfa -40 + ^ .cfa: $rsp 40 +
STACK CFI 8a199 $rbp: .cfa -48 + ^ .cfa: $rsp 48 +
STACK CFI 8a19d $rbx: .cfa -56 + ^ .cfa: $rsp 56 +
STACK CFI 8a1a4 .cfa: $rsp 1232 +
STACK CFI 8a253 .cfa: $rsp 56 +
STACK CFI 8a254 .cfa: $rsp 48 +
STACK CFI 8a255 .cfa: $rsp 40 +
STACK CFI 8a257 .cfa: $rsp 32 +
STACK CFI 8a259 .cfa: $rsp 24 +
STACK CFI 8a25b .cfa: $rsp 16 +
STACK CFI 8a25d .cfa: $rsp 8 +
STACK CFI 8a260 .cfa: $rsp 1232 +
STACK CFI INIT 8a4e0 2cc .cfa: $rsp 8 + .ra: .cfa -8 + ^
STACK CFI 8a4e2 $r15: .cfa -16 + ^ .cfa: $rsp 16 +
STACK CFI 8a4e4 $r14: .cfa -24 + ^ .cfa: $rsp 24 +
STACK CFI 8a4e6 $r13: .cfa -32 + ^ .cfa: $rsp 32 +
STACK CFI 8a4e8 $r12: .cfa -40 + ^ .cfa: $rsp 40 +
STACK CFI 8a4e9 $rbp: .cfa -48 + ^ .cfa: $rsp 48 +
STACK CFI 8a4ed $rbx: .cfa -56 + ^ .cfa: $rsp 56 +
STACK CFI 8a4f4 .cfa: $rsp 208 +
STACK CFI 8a5b3 .cfa: $rsp 56 +
STACK CFI 8a5b4 .cfa: $rsp 48 +
STACK CFI 8a5b5 .cfa: $rsp 40 +
STACK CFI 8a5b7 .cfa: $rsp 32 +
STACK CFI 8a5b9 .cfa: $rsp 24 +
STACK CFI 8a5bb .cfa: $rsp 16 +
STACK CFI 8a5bd .cfa: $rsp 8 +
STACK CFI 8a5c0 .cfa: $rsp 208 +
STACK CFI INIT 8a7b0 7d .cfa: $rsp 8 + .ra: .cfa -8 + ^
STACK CFI 8a7b2 $r12: .cfa -16 + ^ .cfa: $rsp 16 +
STACK CFI 8a7b3 $rbp: .cfa -24 + ^ .cfa: $rsp 24 +
STACK CFI 8a7ba .cfa: $rsp 32 +
STACK CFI 8a7e6 .cfa: $rsp 24 +
STACK CFI 8a7ea .cfa: $rsp 16 +
STACK CFI 8a7ec .cfa: $rsp 8 +
STACK CFI 8a7f8 .cfa: $rsp 32 +
STACK CFI 8a827 .cfa: $rsp 24 +
STACK CFI 8a82a .cfa: $rsp 16 +
STACK CFI 8a82c .cfa: $rsp 8 +
STACK CFI INIT 8a830 2c2 .cfa: $rsp 8 + .ra: .cfa -8 + ^
STACK CFI 8a832 $r14: .cfa -16 + ^ .cfa: $rsp 16 +
STACK CFI 8a839 $r13: .cfa -24 + ^ .cfa: $rsp 24 +
STACK CFI 8a83b $r12: .cfa -32 + ^ .cfa: $rsp 32 +
STACK CFI 8a83c $rbp: .cfa -40 + ^ .cfa: $rsp 40 +
STACK CFI 8a846 .cfa: $rsp 1360 +
STACK CFI 8a97d .cfa: $rsp 40 +
STACK CFI 8a97e .cfa: $rsp 32 +
STACK CFI 8a980 .cfa: $rsp 24 +
STACK CFI 8a982 .cfa: $rsp 16 +
STACK CFI 8a984 .cfa: $rsp 8 +
STACK CFI 8a988 .cfa: $rsp 1360 +
STACK CFI 8a99f .cfa: $rsp 40 +
STACK CFI 8a9a0 .cfa: $rsp 32 +
STACK CFI 8a9a2 .cfa: $rsp 24 +
STACK CFI 8a9a4 .cfa: $rsp 16 +
STACK CFI 8a9a6 .cfa: $rsp 8 +
STACK CFI 8a9b0 .cfa: $rsp 1360 +
STACK CFI INIT 8ab00 48 .cfa: $rsp 8 + .ra: .cfa -8 + ^
STACK CFI 8ab02 $r12: .cfa -16 + ^ .cfa: $rsp 16 +
STACK CFI 8ab03 $rbp: .cfa -24 + ^ .cfa: $rsp 24 +
STACK CFI 8ab07 .cfa: $rsp 32 +
STACK CFI 8ab34 .cfa: $rsp 24 +
STACK CFI 8ab38 .cfa: $rsp 16 +
STACK CFI 8ab3a .cfa: $rsp 8 +
STACK CFI 8ab40 .cfa: $rsp 32 +
STACK CFI INIT 8ab50 27 .cfa: $rsp 8 + .ra: .cfa -8 + ^
STACK CFI 8ab54 .cfa: $rsp 16 +
STACK CFI 8ab65 .cfa: $rsp 8 +
STACK CFI 8ab70 .cfa: $rsp 16 +
STACK CFI 8ab76 .cfa: $rsp 8 +
STACK CFI INIT 8ab80 2a2 .cfa: $rsp 8 + .ra: .cfa -8 + ^
STACK CFI 8ab82 $r15: .cfa -16 + ^ .cfa: $rsp 16 +
STACK CFI 8ab84 $r14: .cfa -24 + ^ .cfa: $rsp 24 +
STACK CFI 8ab86 $r13: .cfa -32 + ^ .cfa: $rsp 32 +
STACK CFI 8ab88 $r12: .cfa -40 + ^ .cfa: $rsp 40 +
STACK CFI 8ab8c $rbp: .cfa -48 + ^ .cfa: $rsp 48 +
STACK CFI 8ab90 $rbx: .cfa -56 + ^ .cfa: $rsp 56 +
STACK CFI 8ab94 .cfa: $rsp 64 +
STACK CFI 8acce .cfa: $rsp 56 +
STACK CFI 8acd1 .cfa: $rsp 48 +
STACK CFI 8acd2 .cfa: $rsp 40 +
STACK CFI 8acd4 .cfa: $rsp 32 +
STACK CFI 8acd6 .cfa: $rsp 24 +
STACK CFI 8acd8 .cfa: $rsp 16 +
STACK CFI 8acda .cfa: $rsp 8 +
STACK CFI 8ace0 .cfa: $rsp 64 +
STACK CFI 8ad7d .cfa: $rsp 56 +
STACK CFI 8ad7e .cfa: $rsp 48 +
STACK CFI 8ad7f .cfa: $rsp 40 +
STACK CFI 8ad81 .cfa: $rsp 32 +
STACK CFI 8ad83 .cfa: $rsp 24 +
STACK CFI 8ad85 .cfa: $rsp 16 +
STACK CFI 8ad87 .cfa: $rsp 8 +
STACK CFI 8ad90 .cfa: $rsp 64 +
STACK CFI 8adbe .cfa: $rsp 56 +
STACK CFI 8adca .cfa: $rsp 48 +
STACK CFI 8adcb .cfa: $rsp 40 +
STACK CFI 8adcd .cfa: $rsp 32 +
STACK CFI 8adcf .cfa: $rsp 24 +
STACK CFI 8add1 .cfa: $rsp 16 +
STACK CFI 8add3 .cfa: $rsp 8 +
STACK CFI 8ade0 .cfa: $rsp 64 +
STACK CFI 8ae0c .cfa: $rsp 56 +
STACK CFI 8ae14 .cfa: $rsp 48 +
STACK CFI 8ae15 .cfa: $rsp 40 +
STACK CFI 8ae17 .cfa: $rsp 32 +
STACK CFI 8ae19 .cfa: $rsp 24 +
STACK CFI 8ae1b .cfa: $rsp 16 +
STACK CFI 8ae1d .cfa: $rsp 8 +
STACK CFI INIT 8ae30 bd .cfa: $rsp 8 + .ra: .cfa -8 + ^
STACK CFI 8ae32 $r12: .cfa -16 + ^ .cfa: $rsp 16 +
STACK CFI 8ae33 $rbp: .cfa -24 + ^ .cfa: $rsp 24 +
STACK CFI 8ae3a .cfa: $rsp 32 +
STACK CFI 8ae71 .cfa: $rsp 24 +
STACK CFI 8ae75 .cfa: $rsp 16 +
STACK CFI 8ae77 .cfa: $rsp 8 +
STACK CFI 8ae80 .cfa: $rsp 32 +
STACK CFI 8aeae .cfa: $rsp 24 +
STACK CFI 8aeaf .cfa: $rsp 16 +
STACK CFI 8aeb4 .cfa: $rsp 8 +
STACK CFI 8aeb8 .cfa: $rsp 32 +
STACK CFI INIT 8aef0 7b .cfa: $rsp 8 + .ra: .cfa -8 + ^
STACK CFI 8af09 $rbp: .cfa -16 + ^ .cfa: $rsp 16 +
STACK CFI 8af14 .cfa: $rsp 32 +
STACK CFI 8af50 .cfa: $rsp 16 +
STACK CFI 8af51 .cfa: $rsp 8 +
STACK CFI 8af58 .cfa: $rsp 32 +
STACK CFI 8af67 .cfa: $rsp 16 +
STACK CFI 8af6a .cfa: $rsp 8 +
STACK CFI INIT 8af70 7 .cfa: $rsp 8 + .ra: .cfa -8 + ^
STACK CFI INIT 8af80 a5 .cfa: $rsp 8 + .ra: .cfa -8 + ^
STACK CFI 8af82 $r13: .cfa -16 + ^ .cfa: $rsp 16 +
STACK CFI 8af87 $r12: .cfa -24 + ^ .cfa: $rsp 24 +
STACK CFI 8af99 .cfa: $rsp 320 +
STACK CFI 8afec .cfa: $rsp 24 +
STACK CFI 8afee .cfa: $rsp 16 +
STACK CFI 8aff0 .cfa: $rsp 8 +
STACK CFI 8aff8 .cfa: $rsp 320 +
STACK CFI INIT 8b030 69 .cfa: $rsp 8 + .ra: .cfa -8 + ^
STACK CFI 8b031 $rbp: .cfa -16 + ^ .cfa: $rsp 16 +
STACK CFI 8b043 .cfa: $rsp 304 +
STACK CFI 8b05b .cfa: $rsp 16 +
STACK CFI 8b05c .cfa: $rsp 8 +
STACK CFI 8b060 .cfa: $rsp 304 +
STACK CFI INIT 8b0a0 f .cfa: $rsp 8 + .ra: .cfa -8 + ^
STACK CFI INIT 8b0b0 181 .cfa: $rsp 8 + .ra: .cfa -8 + ^
STACK CFI 8b0b2 $r15: .cfa -16 + ^ .cfa: $rsp 16 +
STACK CFI 8b0b4 $r14: .cfa -24 + ^ .cfa: $rsp 24 +
STACK CFI 8b0b6 $r13: .cfa -32 + ^ .cfa: $rsp 32 +
STACK CFI 8b0b8 $r12: .cfa -40 + ^ .cfa: $rsp 40 +
STACK CFI 8b0b9 $rbp: .cfa -48 + ^ .cfa: $rsp 48 +
STACK CFI 8b0ba $rbx: .cfa -56 + ^ .cfa: $rsp 56 +
STACK CFI 8b0be .cfa: $rsp 80 +
STACK CFI 8b1d5 .cfa: $rsp 56 +
STACK CFI 8b1d6 .cfa: $rsp 48 +
STACK CFI 8b1d7 .cfa: $rsp 40 +
STACK CFI 8b1d9 .cfa: $rsp 32 +
STACK CFI 8b1db .cfa: $rsp 24 +
STACK CFI 8b1dd .cfa: $rsp 16 +
STACK CFI 8b1df .cfa: $rsp 8 +
STACK CFI 8b1e0 .cfa: $rsp 80 +
STACK CFI INIT 8b240 31 .cfa: $rsp 8 + .ra: .cfa -8 + ^
STACK CFI 8b248 $rbp: .cfa -16 + ^ .cfa: $rsp 16 +
STACK CFI 8b25c .cfa: $rsp 8 +
STACK CFI 8b270 $rbp: $rbp
STACK CFI INIT 8b280 19d .cfa: $rsp 8 + .ra: .cfa -8 + ^
STACK CFI 8b282 $r15: .cfa -16 + ^ .cfa: $rsp 16 +
STACK CFI 8b284 $r14: .cfa -24 + ^ .cfa: $rsp 24 +
STACK CFI 8b286 $r13: .cfa -32 + ^ .cfa: $rsp 32 +
STACK CFI 8b288 $r12: .cfa -40 + ^ .cfa: $rsp 40 +
STACK CFI 8b28c $rbp: .cfa -48 + ^ .cfa: $rsp 48 +
STACK CFI 8b28d $rbx: .cfa -56 + ^ .cfa: $rsp 56 +
STACK CFI 8b297 .cfa: $rsp 240 +
STACK CFI 8b384 .cfa: $rsp 56 +
STACK CFI 8b385 .cfa: $rsp 48 +
STACK CFI 8b386 .cfa: $rsp 40 +
STACK CFI 8b388 .cfa: $rsp 32 +
STACK CFI 8b38a .cfa: $rsp 24 +
STACK CFI 8b38c .cfa: $rsp 16 +
STACK CFI 8b38e .cfa: $rsp 8 +
STACK CFI 8b390 .cfa: $rsp 240 +
STACK CFI INIT 8b420 1e9 .cfa: $rsp 8 + .ra: .cfa -8 + ^
STACK CFI 8b422 $r13: .cfa -16 + ^ .cfa: $rsp 16 +
STACK CFI 8b424 $r12: .cfa -24 + ^ .cfa: $rsp 24 +
STACK CFI 8b425 $rbp: .cfa -32 + ^ .cfa: $rsp 32 +
STACK CFI 8b429 $rbx: .cfa -40 + ^ .cfa: $rsp 40 +
STACK CFI 8b42d .cfa: $rsp 48 +
STACK CFI 8b548 .cfa: $rsp 40 +
STACK CFI 8b54c .cfa: $rsp 32 +
STACK CFI 8b54d .cfa: $rsp 24 +
STACK CFI 8b54f .cfa: $rsp 16 +
STACK CFI 8b551 .cfa: $rsp 8 +
STACK CFI 8b558 .cfa: $rsp 48 +
STACK CFI 8b59b .cfa: $rsp 40 +
STACK CFI 8b59c .cfa: $rsp 32 +
STACK CFI 8b59d .cfa: $rsp 24 +
STACK CFI 8b59f .cfa: $rsp 16 +
STACK CFI 8b5a1 .cfa: $rsp 8 +
STACK CFI 8b5a8 .cfa: $rsp 48 +
STACK CFI INIT 8b610 12 .cfa: $rsp 8 + .ra: .cfa -8 + ^
STACK CFI 8b614 .cfa: $rsp 16 +
STACK CFI 8b621 .cfa: $rsp 8 +
STACK CFI INIT 8b630 b3 .cfa: $rsp 8 + .ra: .cfa -8 + ^
STACK CFI 8b638 $r12: .cfa -16 + ^ .cfa: $rsp 16 +
STACK CFI 8b6a6 .cfa: $rsp 8 +
STACK CFI 8b6b0 .cfa: $rsp 16 +
STACK CFI INIT 8b6f0 242 .cfa: $rsp 8 + .ra: .cfa -8 + ^
STACK CFI 8b6f2 $r15: .cfa -16 + ^ .cfa: $rsp 16 +
STACK CFI 8b6f4 $r14: .cfa -24 + ^ .cfa: $rsp 24 +
STACK CFI 8b6f9 $r13: .cfa -32 + ^ .cfa: $rsp 32 +
STACK CFI 8b6fb $r12: .cfa -40 + ^ .cfa: $rsp 40 +
STACK CFI 8b6ff $rbp: .cfa -48 + ^ .cfa: $rsp 48 +
STACK CFI 8b703 $rbx: .cfa -56 + ^ .cfa: $rsp 56 +
STACK CFI 8b707 .cfa: $rsp 112 +
STACK CFI 8b787 .cfa: $rsp 56 +
STACK CFI 8b78b .cfa: $rsp 48 +
STACK CFI 8b78c .cfa: $rsp 40 +
STACK CFI 8b78e .cfa: $rsp 32 +
STACK CFI 8b790 .cfa: $rsp 24 +
STACK CFI 8b792 .cfa: $rsp 16 +
STACK CFI 8b794 .cfa: $rsp 8 +
STACK CFI 8b798 .cfa: $rsp 112 +
STACK CFI INIT 8b940 12f .cfa: $rsp 8 + .ra: .cfa -8 + ^
STACK CFI 8b942 $r14: .cfa -16 + ^ .cfa: $rsp 16 +
STACK CFI 8b944 $r13: .cfa -24 + ^ .cfa: $rsp 24 +
STACK CFI 8b949 $r12: .cfa -32 + ^ .cfa: $rsp 32 +
STACK CFI 8b94a $rbp: .cfa -40 + ^ .cfa: $rsp 40 +
STACK CFI 8b952 $rbx: .cfa -48 + ^ .cfa: $rsp 48 +
STACK CFI 8b962 .cfa: $rsp 208 +
STACK CFI 8ba0f .cfa: $rsp 48 +
STACK CFI 8ba10 .cfa: $rsp 40 +
STACK CFI 8ba11 .cfa: $rsp 32 +
STACK CFI 8ba13 .cfa: $rsp 24 +
STACK CFI 8ba15 .cfa: $rsp 16 +
STACK CFI 8ba17 .cfa: $rsp 8 +
STACK CFI 8ba20 .cfa: $rsp 208 +
STACK CFI INIT 8ba70 b9 .cfa: $rsp 8 + .ra: .cfa -8 + ^
STACK CFI 8ba7b $r12: .cfa -16 + ^ .cfa: $rsp 16 +
STACK CFI 8ba7c $rbp: .cfa -24 + ^ .cfa: $rsp 24 +
STACK CFI 8ba80 $rbx: .cfa -32 + ^ .cfa: $rsp 32 +
STACK CFI 8bb13 .cfa: $rsp 24 +
STACK CFI 8bb14 .cfa: $rsp 16 +
STACK CFI 8bb16 .cfa: $rsp 8 +
STACK CFI 8bb20 $r12: $r12 $rbp: $rbp $rbx: $rbx
STACK CFI 8bb23 $r12: .cfa -16 + ^ $rbp: .cfa -24 + ^ $rbx: .cfa -32 + ^ .cfa: $rsp 32 +
STACK CFI INIT 8bb30 22 .cfa: $rsp 8 + .ra: .cfa -8 + ^
STACK CFI 8bb34 .cfa: $rsp 16 +
STACK CFI 8bb51 .cfa: $rsp 8 +
STACK CFI INIT 8bb60 54 .cfa: $rsp 8 + .ra: .cfa -8 + ^
STACK CFI 8bb61 $rbp: .cfa -16 + ^ .cfa: $rsp 16 +
STACK CFI 8bb62 $rbx: .cfa -24 + ^ .cfa: $rsp 24 +
STACK CFI 8bb66 .cfa: $rsp 32 +
STACK CFI 8bb96 .cfa: $rsp 24 +
STACK CFI 8bb99 .cfa: $rsp 16 +
STACK CFI 8bb9a .cfa: $rsp 8 +
STACK CFI 8bba0 .cfa: $rsp 32 +
STACK CFI 8bbac .cfa: $rsp 24 +
STACK CFI 8bbb2 .cfa: $rsp 16 +
STACK CFI 8bbb3 .cfa: $rsp 8 +
STACK CFI INIT 8bbc0 49 .cfa: $rsp 8 + .ra: .cfa -8 + ^
STACK CFI 8bbc7 $rbp: .cfa -16 + ^ .cfa: $rsp 16 +
STACK CFI 8bbf8 .cfa: $rsp 8 +
STACK CFI 8bc00 .cfa: $rsp 16 +
STACK CFI 8bc04 .cfa: $rsp 8 +
STACK CFI INIT 8bc10 3b1 .cfa: $rsp 8 + .ra: .cfa -8 + ^
STACK CFI 8bc12 $r15: .cfa -16 + ^ .cfa: $rsp 16 +
STACK CFI 8bc14 $r14: .cfa -24 + ^ .cfa: $rsp 24 +
STACK CFI 8bc16 $r13: .cfa -32 + ^ .cfa: $rsp 32 +
STACK CFI 8bc18 $r12: .cfa -40 + ^ .cfa: $rsp 40 +
STACK CFI 8bc19 $rbp: .cfa -48 + ^ .cfa: $rsp 48 +
STACK CFI 8bc1d $rbx: .cfa -56 + ^ .cfa: $rsp 56 +
STACK CFI 8bc21 .cfa: $rsp 80 +
STACK CFI 8bc5b .cfa: $rsp 56 +
STACK CFI 8bc65 .cfa: $rsp 48 +
STACK CFI 8bc66 .cfa: $rsp 40 +
STACK CFI 8bc68 .cfa: $rsp 32 +
STACK CFI 8bc6a .cfa: $rsp 24 +
STACK CFI 8bc6c .cfa: $rsp 16 +
STACK CFI 8bc6e .cfa: $rsp 8 +
STACK CFI 8bc70 .cfa: $rsp 80 +
STACK CFI 8bec4 .cfa: $rsp 56 +
STACK CFI 8bec5 .cfa: $rsp 48 +
STACK CFI 8bec6 .cfa: $rsp 40 +
STACK CFI 8bec8 .cfa: $rsp 32 +
STACK CFI 8beca .cfa: $rsp 24 +
STACK CFI 8becc .cfa: $rsp 16 +
STACK CFI 8bece .cfa: $rsp 8 +
STACK CFI 8bed0 .cfa: $rsp 80 +
STACK CFI INIT 8bfd0 14d .cfa: $rsp 8 + .ra: .cfa -8 + ^
STACK CFI 8bfd2 $r12: .cfa -16 + ^ .cfa: $rsp 16 +
STACK CFI 8bfda $rbp: .cfa -24 + ^ .cfa: $rsp 24 +
STACK CFI 8bfe3 $rbx: .cfa -32 + ^ .cfa: $rsp 32 +
STACK CFI 8c0d6 .cfa: $rsp 24 +
STACK CFI 8c0e0 .cfa: $rsp 16 +
STACK CFI 8c0e2 .cfa: $rsp 8 +
STACK CFI 8c0f0 .cfa: $rsp 32 +
STACK CFI 8c0f1 .cfa: $rsp 24 +
STACK CFI 8c0f2 .cfa: $rsp 16 +
STACK CFI 8c0f4 .cfa: $rsp 8 +
STACK CFI 8c0f8 .cfa: $rsp 32 +
STACK CFI INIT 8c120 18f .cfa: $rsp 8 + .ra: .cfa -8 + ^
STACK CFI 8c122 $r14: .cfa -16 + ^ .cfa: $rsp 16 +
STACK CFI 8c124 $r13: .cfa -24 + ^ .cfa: $rsp 24 +
STACK CFI 8c126 $r12: .cfa -32 + ^ .cfa: $rsp 32 +
STACK CFI 8c127 $rbp: .cfa -40 + ^ .cfa: $rsp 40 +
STACK CFI 8c128 $rbx: .cfa -48 + ^ .cfa: $rsp 48 +
STACK CFI 8c132 .cfa: $rsp 2096 +
STACK CFI 8c1cf .cfa: $rsp 48 +
STACK CFI 8c1d0 .cfa: $rsp 40 +
STACK CFI 8c1d1 .cfa: $rsp 32 +
STACK CFI 8c1d3 .cfa: $rsp 24 +
STACK CFI 8c1d5 .cfa: $rsp 16 +
STACK CFI 8c1d7 .cfa: $rsp 8 +
STACK CFI 8c1d8 .cfa: $rsp 2096 +
STACK CFI INIT 8c2b0 60 .cfa: $rsp 8 + .ra: .cfa -8 + ^
STACK CFI 8c2b1 $rbp: .cfa -16 + ^ .cfa: $rsp 16 +
STACK CFI 8c2ce .cfa: $rsp 8 +
STACK CFI 8c2d8 .cfa: $rsp 16 +
STACK CFI 8c30b .cfa: $rsp 8 +
STACK CFI INIT 8c310 8b .cfa: $rsp 8 + .ra: .cfa -8 + ^
STACK CFI 8c312 $r14: .cfa -16 + ^ .cfa: $rsp 16 +
STACK CFI 8c314 $r13: .cfa -24 + ^ .cfa: $rsp 24 +
STACK CFI 8c319 $r12: .cfa -32 + ^ .cfa: $rsp 32 +
STACK CFI 8c31d $rbp: .cfa -40 + ^ .cfa: $rsp 40 +
STACK CFI 8c327 .cfa: $rsp 2096 +
STACK CFI 8c393 .cfa: $rsp 40 +
STACK CFI 8c394 .cfa: $rsp 32 +
STACK CFI 8c396 .cfa: $rsp 24 +
STACK CFI 8c398 .cfa: $rsp 16 +
STACK CFI 8c39a .cfa: $rsp 8 +
STACK CFI INIT 8c3a0 137 .cfa: $rsp 8 + .ra: .cfa -8 + ^
STACK CFI 8c3a2 $r15: .cfa -16 + ^ .cfa: $rsp 16 +
STACK CFI 8c3ab $r14: .cfa -24 + ^ .cfa: $rsp 24 +
STACK CFI 8c3b4 $r13: .cfa -32 + ^ .cfa: $rsp 32 +
STACK CFI 8c3b6 $r12: .cfa -40 + ^ .cfa: $rsp 40 +
STACK CFI 8c3b7 $rbp: .cfa -48 + ^ .cfa: $rsp 48 +
STACK CFI 8c3b8 $rbx: .cfa -56 + ^ .cfa: $rsp 56 +
STACK CFI 8c3bc .cfa: $rsp 96 +
STACK CFI 8c495 .cfa: $rsp 56 +
STACK CFI 8c496 .cfa: $rsp 48 +
STACK CFI 8c497 .cfa: $rsp 40 +
STACK CFI 8c499 .cfa: $rsp 32 +
STACK CFI 8c49b .cfa: $rsp 24 +
STACK CFI 8c49d .cfa: $rsp 16 +
STACK CFI 8c49f .cfa: $rsp 8 +
STACK CFI 8c4a0 .cfa: $rsp 96 +
STACK CFI INIT 8c4e0 5 .cfa: $rsp 8 + .ra: .cfa -8 + ^
STACK CFI INIT 8c4f0 56 .cfa: $rsp 8 + .ra: .cfa -8 + ^
STACK CFI 8c4f4 .cfa: $rsp 16 +
STACK CFI 8c518 .cfa: $rsp 8 +
STACK CFI 8c520 .cfa: $rsp 16 +
STACK CFI 8c529 .cfa: $rsp 8 +
STACK CFI 8c530 .cfa: $rsp 16 +
STACK CFI INIT 8c550 f7 .cfa: $rsp 8 + .ra: .cfa -8 + ^
STACK CFI 8c552 $r12: .cfa -16 + ^ .cfa: $rsp 16 +
STACK CFI 8c556 $rbp: .cfa -24 + ^ .cfa: $rsp 24 +
STACK CFI 8c55d .cfa: $rsp 160 +
STACK CFI 8c62a .cfa: $rsp 24 +
STACK CFI 8c62b .cfa: $rsp 16 +
STACK CFI 8c62d .cfa: $rsp 8 +
STACK CFI 8c630 .cfa: $rsp 160 +
STACK CFI INIT 8c650 379 .cfa: $rsp 8 + .ra: .cfa -8 + ^
STACK CFI 8c651 $rbp: .cfa -16 + ^ .cfa: $rsp 16 +
STACK CFI 8c654 $rbx: .cfa -24 + ^ .cfa: $rsp 24 +
STACK CFI 8c65b .cfa: $rsp 224 +
STACK CFI 8c769 .cfa: $rsp 24 +
STACK CFI 8c76a .cfa: $rsp 16 +
STACK CFI 8c76b .cfa: $rsp 8 +
STACK CFI 8c770 .cfa: $rsp 224 +
STACK CFI 8c85d .cfa: $rsp 24 +
STACK CFI 8c863 .cfa: $rsp 16 +
STACK CFI 8c864 .cfa: $rsp 8 +
STACK CFI 8c868 .cfa: $rsp 224 +
STACK CFI INIT 8c9d0 d .cfa: $rsp 8 + .ra: .cfa -8 + ^
STACK CFI INIT 8c9e0 25 .cfa: $rsp 8 + .ra: .cfa -8 + ^
STACK CFI 8c9e8 $rbp: .cfa -16 + ^ .cfa: $rsp 16 +
STACK CFI 8ca00 .cfa: $rsp 8 +
STACK CFI INIT 8ca10 3f .cfa: $rsp 8 + .ra: .cfa -8 + ^
STACK CFI 8ca12 $r12: .cfa -16 + ^ .cfa: $rsp 16 +
STACK CFI 8ca18 $rbp: .cfa -24 + ^ .cfa: $rsp 24 +
STACK CFI 8ca1c .cfa: $rsp 48 +
STACK CFI 8ca48 .cfa: $rsp 24 +
STACK CFI 8ca4c .cfa: $rsp 16 +
STACK CFI 8ca4e .cfa: $rsp 8 +
STACK CFI INIT 8ca50 5 .cfa: $rsp 8 + .ra: .cfa -8 + ^
STACK CFI INIT 8ca60 62 .cfa: $rsp 8 + .ra: .cfa -8 + ^
STACK CFI 8ca62 $r12: .cfa -16 + ^ .cfa: $rsp 16 +
STACK CFI 8ca63 $rbp: .cfa -24 + ^ .cfa: $rsp 24 +
STACK CFI 8ca6c .cfa: $rsp 352 +
STACK CFI 8cabe .cfa: $rsp 24 +
STACK CFI 8cabf .cfa: $rsp 16 +
STACK CFI 8cac1 .cfa: $rsp 8 +
STACK CFI INIT 8cad0 a0 .cfa: $rsp 8 + .ra: .cfa -8 + ^
STACK CFI 8cad2 $r13: .cfa -16 + ^ .cfa: $rsp 16 +
STACK CFI 8cad4 $r12: .cfa -24 + ^ .cfa: $rsp 24 +
STACK CFI 8cad5 $rbp: .cfa -32 + ^ .cfa: $rsp 32 +
STACK CFI 8cad8 $rbx: .cfa -40 + ^ .cfa: $rsp 40 +
STACK CFI 8cae4 .cfa: $rsp 368 +
STACK CFI 8cb50 .cfa: $rsp 40 +
STACK CFI 8cb51 .cfa: $rsp 32 +
STACK CFI 8cb52 .cfa: $rsp 24 +
STACK CFI 8cb54 .cfa: $rsp 16 +
STACK CFI 8cb56 .cfa: $rsp 8 +
STACK CFI 8cb60 .cfa: $rsp 368 +
STACK CFI 8cb67 .cfa: $rsp 40 +
STACK CFI 8cb6a .cfa: $rsp 32 +
STACK CFI 8cb6b .cfa: $rsp 24 +
STACK CFI 8cb6d .cfa: $rsp 16 +
STACK CFI 8cb6f .cfa: $rsp 8 +
STACK CFI INIT 8cb70 30 .cfa: $rsp 8 + .ra: .cfa -8 + ^
STACK CFI INIT 8cba0 ac .cfa: $rsp 8 + .ra: .cfa -8 + ^
STACK CFI 8cba1 $rbp: .cfa -16 + ^ .cfa: $rsp 16 +
STACK CFI 8cc47 .cfa: $rsp 8 +
STACK CFI INIT 8cc50 3 .cfa: $rsp 8 + .ra: .cfa -8 + ^
STACK CFI INIT 8cc60 5f .cfa: $rsp 8 + .ra: .cfa -8 + ^
STACK CFI 8cc64 .cfa: $rsp 112 +
STACK CFI 8ccac .cfa: $rsp 8 +
STACK CFI 8ccad .cfa: $rsp 112 +
STACK CFI INIT 8ccc0 37 .cfa: $rsp 8 + .ra: .cfa -8 + ^
STACK CFI 8ccc2 $r12: .cfa -16 + ^ .cfa: $rsp 16 +
STACK CFI 8ccc6 $rbp: .cfa -24 + ^ .cfa: $rsp 24 +
STACK CFI 8ccc9 $rbx: .cfa -32 + ^ .cfa: $rsp 32 +
STACK CFI 8ccd9 .cfa: $rsp 24 +
STACK CFI 8ccda .cfa: $rsp 16 +
STACK CFI 8ccdc .cfa: $rsp 8 +
STACK CFI 8cce0 .cfa: $rsp 32 +
STACK CFI INIT 8cd00 37 .cfa: $rsp 8 + .ra: .cfa -8 + ^
STACK CFI INIT 8cd40 aa .cfa: $rsp 8 + .ra: .cfa -8 + ^
STACK CFI 8cd42 $r12: .cfa -16 + ^ .cfa: $rsp 16 +
STACK CFI 8cd43 $rbp: .cfa -24 + ^ .cfa: $rsp 24 +
STACK CFI 8cd44 $rbx: .cfa -32 + ^ .cfa: $rsp 32 +
STACK CFI 8cd4b .cfa: $rsp 8240 +
STACK CFI 8cde5 .cfa: $rsp 32 +
STACK CFI 8cde6 .cfa: $rsp 24 +
STACK CFI 8cde7 .cfa: $rsp 16 +
STACK CFI 8cde9 .cfa: $rsp 8 +
STACK CFI INIT 8cdf0 1dd .cfa: $rsp 8 + .ra: .cfa -8 + ^
STACK CFI 8cdf2 $r13: .cfa -16 + ^ .cfa: $rsp 16 +
STACK CFI 8cdf4 $r12: .cfa -24 + ^ .cfa: $rsp 24 +
STACK CFI 8cdf5 $rbp: .cfa -32 + ^ .cfa: $rsp 32 +
STACK CFI 8cdf6 $rbx: .cfa -40 + ^ .cfa: $rsp 40 +
STACK CFI 8ce00 .cfa: $rsp 176 +
STACK CFI 8ce3d .cfa: $rsp 40 +
STACK CFI 8ce3e .cfa: $rsp 32 +
STACK CFI 8ce3f .cfa: $rsp 24 +
STACK CFI 8ce41 .cfa: $rsp 16 +
STACK CFI 8ce43 .cfa: $rsp 8 +
STACK CFI 8ce48 .cfa: $rsp 176 +
STACK CFI 8ce92 .cfa: $rsp 40 +
STACK CFI 8ce95 .cfa: $rsp 32 +
STACK CFI 8ce96 .cfa: $rsp 24 +
STACK CFI 8ce98 .cfa: $rsp 16 +
STACK CFI 8ce9a .cfa: $rsp 8 +
STACK CFI 8cea0 .cfa: $rsp 176 +
STACK CFI INIT 8cfd0 1e3 .cfa: $rsp 8 + .ra: .cfa -8 + ^
STACK CFI 8cfd2 $r12: .cfa -16 + ^ .cfa: $rsp 16 +
STACK CFI 8cfda $rbp: .cfa -24 + ^ .cfa: $rsp 24 +
STACK CFI 8cfe5 $rbx: .cfa -32 + ^ .cfa: $rsp 32 +
STACK CFI 8cfec .cfa: $rsp 2080 +
STACK CFI 8d111 .cfa: $rsp 32 +
STACK CFI 8d112 .cfa: $rsp 24 +
STACK CFI 8d113 .cfa: $rsp 16 +
STACK CFI 8d115 .cfa: $rsp 8 +
STACK CFI 8d120 .cfa: $rsp 2080 +
STACK CFI 8d1ae .cfa: $rsp 32 +
STACK CFI 8d1af .cfa: $rsp 24 +
STACK CFI 8d1b0 .cfa: $rsp 16 +
STACK CFI 8d1b2 .cfa: $rsp 8 +
STACK CFI INIT 8d1c0 c0 .cfa: $rsp 8 + .ra: .cfa -8 + ^
STACK CFI 8d1c2 $r15: .cfa -16 + ^ .cfa: $rsp 16 +
STACK CFI 8d1c7 $r14: .cfa -24 + ^ .cfa: $rsp 24 +
STACK CFI 8d1cc $r13: .cfa -32 + ^ .cfa: $rsp 32 +
STACK CFI 8d1d1 $r12: .cfa -40 + ^ .cfa: $rsp 40 +
STACK CFI 8d1d7 $rbp: .cfa -48 + ^ .cfa: $rsp 48 +
STACK CFI 8d1d8 $rbx: .cfa -56 + ^ .cfa: $rsp 56 +
STACK CFI 8d1dc .cfa: $rsp 80 +
STACK CFI 8d275 .cfa: $rsp 56 +
STACK CFI 8d276 .cfa: $rsp 48 +
STACK CFI 8d277 .cfa: $rsp 40 +
STACK CFI 8d279 .cfa: $rsp 32 +
STACK CFI 8d27b .cfa: $rsp 24 +
STACK CFI 8d27d .cfa: $rsp 16 +
STACK CFI 8d27f .cfa: $rsp 8 +
STACK CFI INIT 8d280 13d .cfa: $rsp 8 + .ra: .cfa -8 + ^
STACK CFI 8d282 $r14: .cfa -16 + ^ .cfa: $rsp 16 +
STACK CFI 8d28f $r13: .cfa -24 + ^ .cfa: $rsp 24 +
STACK CFI 8d294 $r12: .cfa -32 + ^ .cfa: $rsp 32 +
STACK CFI 8d295 $rbp: .cfa -40 + ^ .cfa: $rsp 40 +
STACK CFI 8d296 $rbx: .cfa -48 + ^ .cfa: $rsp 48 +
STACK CFI 8d2a0 .cfa: $rsp 1072 +
STACK CFI 8d37f .cfa: $rsp 48 +
STACK CFI 8d383 .cfa: $rsp 40 +
STACK CFI 8d384 .cfa: $rsp 32 +
STACK CFI 8d386 .cfa: $rsp 24 +
STACK CFI 8d388 .cfa: $rsp 16 +
STACK CFI 8d38a .cfa: $rsp 8 +
STACK CFI 8d390 .cfa: $rsp 1072 +
STACK CFI INIT 8d3c0 172 .cfa: $rsp 8 + .ra: .cfa -8 + ^
STACK CFI 8d3c4 .cfa: $rsp 32 +
STACK CFI 8d451 .cfa: $rsp 8 +
STACK CFI 8d458 .cfa: $rsp 32 +
STACK CFI INIT 8d540 9b .cfa: $rsp 8 + .ra: .cfa -8 + ^
STACK CFI 8d541 $rbp: .cfa -16 + ^ .cfa: $rsp 16 +
STACK CFI 8d545 $rbx: .cfa -24 + ^ .cfa: $rsp 24 +
STACK CFI 8d54c .cfa: $rsp 64 +
STACK CFI 8d59a .cfa: $rsp 24 +
STACK CFI 8d59b .cfa: $rsp 16 +
STACK CFI 8d59c .cfa: $rsp 8 +
STACK CFI 8d5a0 .cfa: $rsp 64 +
STACK CFI INIT 8d5e0 27e .cfa: $rsp 8 + .ra: .cfa -8 + ^
STACK CFI 8d5e1 $rbp: .cfa -16 + ^ .cfa: $rsp 16 +
STACK CFI 8d5e2 $rbx: .cfa -24 + ^ .cfa: $rsp 24 +
STACK CFI 8d5eb .cfa: $rsp 1088 +
STACK CFI 8d697 .cfa: $rsp 24 +
STACK CFI 8d69f .cfa: $rsp 16 +
STACK CFI 8d6a0 .cfa: $rsp 8 +
STACK CFI 8d6a8 .cfa: $rsp 1088 +
STACK CFI INIT 8d860 18e .cfa: $rsp 8 + .ra: .cfa -8 + ^
STACK CFI 8d862 $r12: .cfa -16 + ^ .cfa: $rsp 16 +
STACK CFI 8d86d .cfa: $rsp 48 +
STACK CFI 8d898 .cfa: $rsp 16 +
STACK CFI 8d89a .cfa: $rsp 8 +
STACK CFI 8d8a0 .cfa: $rsp 48 +
STACK CFI 8d969 .cfa: $rsp 16 +
STACK CFI 8d96b .cfa: $rsp 8 +
STACK CFI 8d970 .cfa: $rsp 48 +
STACK CFI INIT 8d9f0 32 .cfa: $rsp 8 + .ra: .cfa -8 + ^
STACK CFI 8d9f4 .cfa: $rsp 16 +
STACK CFI 8da21 .cfa: $rsp 8 +
STACK CFI INIT 8da30 fb .cfa: $rsp 8 + .ra: .cfa -8 + ^
STACK CFI 8da32 $r12: .cfa -16 + ^ .cfa: $rsp 16 +
STACK CFI 8da33 $rbp: .cfa -24 + ^ .cfa: $rsp 24 +
STACK CFI 8da37 $rbx: .cfa -32 + ^ .cfa: $rsp 32 +
STACK CFI 8da41 .cfa: $rsp 1088 +
STACK CFI 8db26 .cfa: $rsp 32 +
STACK CFI 8db27 .cfa: $rsp 24 +
STACK CFI 8db28 .cfa: $rsp 16 +
STACK CFI 8db2a .cfa: $rsp 8 +
STACK CFI INIT 8db30 31 .cfa: $rsp 8 + .ra: .cfa -8 + ^
STACK CFI 8db43 .cfa: $rsp 16 +
STACK CFI 8db4f .cfa: $rsp 8 +
STACK CFI INIT 8db70 27 .cfa: $rsp 8 + .ra: .cfa -8 + ^
STACK CFI 8db74 .cfa: $rsp 16 +
STACK CFI 8db92 .cfa: $rsp 8 +
STACK CFI INIT 8dba0 1ae .cfa: $rsp 8 + .ra: .cfa -8 + ^
STACK CFI 8dba1 $rbp: .cfa -16 + ^ .cfa: $rsp 16 +
STACK CFI 8dba2 $rbx: .cfa -24 + ^ .cfa: $rsp 24 +
STACK CFI 8dba6 .cfa: $rsp 96 +
STACK CFI 8dc1e .cfa: $rsp 104 +
STACK CFI 8dc2e .cfa: $rsp 112 +
STACK CFI 8dc4a .cfa: $rsp 104 +
STACK CFI 8dc4b .cfa: $rsp 96 +
STACK CFI 8dc54 .cfa: $rsp 24 +
STACK CFI 8dc5c .cfa: $rsp 16 +
STACK CFI 8dc5d .cfa: $rsp 8 +
STACK CFI 8dc60 .cfa: $rsp 96 +
STACK CFI 8dd00 .cfa: $rsp 24 +
STACK CFI 8dd08 .cfa: $rsp 16 +
STACK CFI 8dd09 .cfa: $rsp 8 +
STACK CFI 8dd10 .cfa: $rsp 96 +
STACK CFI INIT 8dd50 6a .cfa: $rsp 8 + .ra: .cfa -8 + ^
STACK CFI INIT 8ddc0 1e .cfa: $rsp 8 + .ra: .cfa -8 + ^
STACK CFI 8ddc1 $rbx: .cfa -16 + ^ .cfa: $rsp 16 +
STACK CFI 8ddc8 .cfa: $rsp 32 +
STACK CFI 8dddc .cfa: $rsp 16 +
STACK CFI 8dddd .cfa: $rsp 8 +
STACK CFI INIT 8dde0 39 .cfa: $rsp 8 + .ra: .cfa -8 + ^
STACK CFI 8ddf2 .cfa: $rsp 16 +
STACK CFI 8de13 .cfa: $rsp 8 +
STACK CFI INIT 8de20 1ed .cfa: $rsp 8 + .ra: .cfa -8 + ^
STACK CFI 8de27 .cfa: $rsp 192 +
STACK CFI 8df31 .cfa: $rsp 8 +
STACK CFI 8df38 .cfa: $rsp 192 +
STACK CFI INIT 8e010 274 .cfa: $rsp 8 + .ra: .cfa -8 + ^
STACK CFI 8e012 $r12: .cfa -16 + ^ .cfa: $rsp 16 +
STACK CFI 8e018 $rbp: .cfa -24 + ^ .cfa: $rsp 24 +
STACK CFI 8e01f .cfa: $rsp 224 +
STACK CFI 8e1a2 .cfa: $rsp 24 +
STACK CFI 8e1a6 .cfa: $rsp 16 +
STACK CFI 8e1a8 .cfa: $rsp 8 +
STACK CFI 8e1b0 .cfa: $rsp 224 +
STACK CFI 8e250 .cfa: $rsp 24 +
STACK CFI 8e251 .cfa: $rsp 16 +
STACK CFI 8e253 .cfa: $rsp 8 +
STACK CFI 8e258 .cfa: $rsp 224 +
STACK CFI INIT 8e290 a9 .cfa: $rsp 8 + .ra: .cfa -8 + ^
STACK CFI 8e291 $rbp: .cfa -16 + ^ .cfa: $rsp 16 +
STACK CFI 8e29a .cfa: $rsp 1072 +
STACK CFI 8e337 .cfa: $rsp 16 +
STACK CFI 8e338 .cfa: $rsp 8 +
STACK CFI INIT 8e340 8a .cfa: $rsp 8 + .ra: .cfa -8 + ^
STACK CFI 8e344 .cfa: $rsp 48 +
STACK CFI 8e39e .cfa: $rsp 8 +
STACK CFI 8e3a0 .cfa: $rsp 48 +
STACK CFI INIT 8e3d0 bc .cfa: $rsp 8 + .ra: .cfa -8 + ^
STACK CFI 8e3d1 $rbp: .cfa -16 + ^ .cfa: $rsp 16 +
STACK CFI 8e3d5 $rbx: .cfa -24 + ^ .cfa: $rsp 24 +
STACK CFI 8e3dc .cfa: $rsp 64 +
STACK CFI 8e469 .cfa: $rsp 24 +
STACK CFI 8e46a .cfa: $rsp 16 +
STACK CFI 8e46b .cfa: $rsp 8 +
STACK CFI 8e470 .cfa: $rsp 64 +
STACK CFI INIT 8e490 8a .cfa: $rsp 8 + .ra: .cfa -8 + ^
STACK CFI 8e494 .cfa: $rsp 48 +
STACK CFI 8e4ec .cfa: $rsp 8 +
STACK CFI 8e4f0 .cfa: $rsp 48 +
STACK CFI INIT 8e520 58 .cfa: $rsp 8 + .ra: .cfa -8 + ^
STACK CFI 8e522 $r12: .cfa -16 + ^ .cfa: $rsp 16 +
STACK CFI 8e528 $rbp: .cfa -24 + ^ .cfa: $rsp 24 +
STACK CFI 8e52c .cfa: $rsp 48 +
STACK CFI 8e552 .cfa: $rsp 24 +
STACK CFI 8e553 .cfa: $rsp 16 +
STACK CFI 8e555 .cfa: $rsp 8 +
STACK CFI 8e560 .cfa: $rsp 48 +
STACK CFI 8e574 .cfa: $rsp 24 +
STACK CFI 8e575 .cfa: $rsp 16 +
STACK CFI 8e577 .cfa: $rsp 8 +
STACK CFI INIT 8e580 11 .cfa: $rsp 8 + .ra: .cfa -8 + ^
STACK CFI 8e584 .cfa: $rsp 48 +
STACK CFI 8e590 .cfa: $rsp 8 +
STACK CFI INIT 8e5a0 3 .cfa: $rsp 8 + .ra: .cfa -8 + ^
STACK CFI INIT 8e5b0 c4 .cfa: $rsp 8 + .ra: .cfa -8 + ^
STACK CFI 8e5b1 $rbp: .cfa -16 + ^ .cfa: $rsp 16 +
STACK CFI 8e5b7 $rbx: .cfa -24 + ^ .cfa: $rsp 24 +
STACK CFI 8e5c1 .cfa: $rsp 176 +
STACK CFI 8e671 .cfa: $rsp 24 +
STACK CFI 8e672 .cfa: $rsp 16 +
STACK CFI 8e673 .cfa: $rsp 8 +
STACK CFI INIT 8e680 38 .cfa: $rsp 8 + .ra: .cfa -8 + ^
STACK CFI INIT 8e6c0 11 .cfa: $rsp 8 + .ra: .cfa -8 + ^
STACK CFI INIT 8e6e0 bd .cfa: $rsp 8 + .ra: .cfa -8 + ^
STACK CFI 8e6eb $r13: .cfa -16 + ^ .cfa: $rsp 16 +
STACK CFI 8e6fb $r12: .cfa -24 + ^ .cfa: $rsp 24 +
STACK CFI 8e6fe $rbp: .cfa -32 + ^ .cfa: $rsp 32 +
STACK CFI 8e708 .cfa: $rsp 4128 +
STACK CFI 8e761 .cfa: $rsp 32 +
STACK CFI 8e762 .cfa: $rsp 24 +
STACK CFI 8e764 .cfa: $rsp 16 +
STACK CFI 8e766 .cfa: $rsp 8 +
STACK CFI 8e770 $r12: $r12 $r13: $r13 $rbp: $rbp
STACK CFI 8e778 $r12: .cfa -24 + ^ $r13: .cfa -16 + ^ $rbp: .cfa -32 + ^ .cfa: $rsp 4128 +
STACK CFI INIT 8e7a0 f5 .cfa: $rsp 8 + .ra: .cfa -8 + ^
STACK CFI 8e7ab $r14: .cfa -16 + ^ .cfa: $rsp 16 +
STACK CFI 8e7bb $r13: .cfa -24 + ^ .cfa: $rsp 24 +
STACK CFI 8e7bf $r12: .cfa -32 + ^ .cfa: $rsp 32 +
STACK CFI 8e7c3 $rbp: .cfa -40 + ^ .cfa: $rsp 40 +
STACK CFI 8e7ca .cfa: $rsp 4144 +
STACK CFI 8e84b .cfa: $rsp 40 +
STACK CFI 8e84c .cfa: $rsp 32 +
STACK CFI 8e84e .cfa: $rsp 24 +
STACK CFI 8e850 .cfa: $rsp 16 +
STACK CFI 8e852 .cfa: $rsp 8 +
STACK CFI 8e858 .cfa: $rsp 4144 +
STACK CFI 8e868 $r12: $r12 $r13: $r13 $r14: $r14 $rbp: $rbp .cfa: $rsp 8 +
STACK CFI 8e870 $r12: .cfa -32 + ^ $r13: .cfa -24 + ^ $r14: .cfa -16 + ^ $rbp: .cfa -40 + ^ .cfa: $rsp 4144 +
STACK CFI INIT 8e8a0 47 .cfa: $rsp 8 + .ra: .cfa -8 + ^
STACK CFI 8e8a2 $r12: .cfa -16 + ^ .cfa: $rsp 16 +
STACK CFI 8e8aa $rbp: .cfa -24 + ^ .cfa: $rsp 24 +
STACK CFI 8e8ab $rbx: .cfa -32 + ^ .cfa: $rsp 32 +
STACK CFI 8e8e3 .cfa: $rsp 24 +
STACK CFI 8e8e4 .cfa: $rsp 16 +
STACK CFI 8e8e6 .cfa: $rsp 8 +
STACK CFI INIT 8e8f0 17c .cfa: $rsp 8 + .ra: .cfa -8 + ^
STACK CFI 8e8f2 $r15: .cfa -16 + ^ .cfa: $rsp 16 +
STACK CFI 8e8f4 $r14: .cfa -24 + ^ .cfa: $rsp 24 +
STACK CFI 8e8f9 $r13: .cfa -32 + ^ .cfa: $rsp 32 +
STACK CFI 8e8fb $r12: .cfa -40 + ^ .cfa: $rsp 40 +
STACK CFI 8e8fc $rbp: .cfa -48 + ^ .cfa: $rsp 48 +
STACK CFI 8e903 .cfa: $rsp 4160 +
STACK CFI 8ea2d .cfa: $rsp 48 +
STACK CFI 8ea2e .cfa: $rsp 40 +
STACK CFI 8ea30 .cfa: $rsp 32 +
STACK CFI 8ea32 .cfa: $rsp 24 +
STACK CFI 8ea34 .cfa: $rsp 16 +
STACK CFI 8ea36 .cfa: $rsp 8 +
STACK CFI 8ea40 .cfa: $rsp 4160 +
STACK CFI INIT 8ea70 19 .cfa: $rsp 8 + .ra: .cfa -8 + ^
STACK CFI 8ea74 .cfa: $rsp 48 +
STACK CFI 8ea88 .cfa: $rsp 8 +
STACK CFI INIT 8ea90 298 .cfa: $rsp 8 + .ra: .cfa -8 + ^
STACK CFI 8ea92 $r15: .cfa -16 + ^ .cfa: $rsp 16 +
STACK CFI 8ea94 $r14: .cfa -24 + ^ .cfa: $rsp 24 +
STACK CFI 8ea96 $r13: .cfa -32 + ^ .cfa: $rsp 32 +
STACK CFI 8ea98 $r12: .cfa -40 + ^ .cfa: $rsp 40 +
STACK CFI 8ea9c $rbp: .cfa -48 + ^ .cfa: $rsp 48 +
STACK CFI 8ea9f $rbx: .cfa -56 + ^ .cfa: $rsp 56 +
STACK CFI 8eaa5 .cfa: $rsp 112 +
STACK CFI 8ecc8 .cfa: $rsp 56 +
STACK CFI 8ecc9 .cfa: $rsp 48 +
STACK CFI 8ecca .cfa: $rsp 40 +
STACK CFI 8eccc .cfa: $rsp 32 +
STACK CFI 8ecce .cfa: $rsp 24 +
STACK CFI 8ecd0 .cfa: $rsp 16 +
STACK CFI 8ecd2 .cfa: $rsp 8 +
STACK CFI 8ecd8 .cfa: $rsp 112 +
STACK CFI INIT 8ed30 69 .cfa: $rsp 8 + .ra: .cfa -8 + ^
STACK CFI 8ed36 $rbp: .cfa -16 + ^ .cfa: $rsp 16 +
STACK CFI 8ed3a $rbx: .cfa -24 + ^ .cfa: $rsp 24 +
STACK CFI 8ed3e .cfa: $rsp 32 +
STACK CFI 8ed6b .cfa: $rsp 24 +
STACK CFI 8ed6f $rbx: $rbx .cfa: $rsp 16 +
STACK CFI 8ed70 $rbp: $rbp .cfa: $rsp 8 +
STACK CFI 8ed78 $rbp: .cfa -16 + ^ $rbx: .cfa -24 + ^ .cfa: $rsp 32 +
STACK CFI 8ed88 .cfa: $rsp 24 +
STACK CFI 8ed8c $rbx: $rbx .cfa: $rsp 16 +
STACK CFI 8ed8d $rbp: $rbp .cfa: $rsp 8 +
STACK CFI INIT 8eda0 be .cfa: $rsp 8 + .ra: .cfa -8 + ^
STACK CFI 8eda2 $r13: .cfa -16 + ^ .cfa: $rsp 16 +
STACK CFI 8eda4 $r12: .cfa -24 + ^ .cfa: $rsp 24 +
STACK CFI 8eda5 $rbp: .cfa -32 + ^ .cfa: $rsp 32 +
STACK CFI 8eda6 $rbx: .cfa -40 + ^ .cfa: $rsp 40 +
STACK CFI 8edad .cfa: $rsp 1088 +
STACK CFI 8ee4f .cfa: $rsp 40 +
STACK CFI 8ee53 .cfa: $rsp 32 +
STACK CFI 8ee54 .cfa: $rsp 24 +
STACK CFI 8ee56 .cfa: $rsp 16 +
STACK CFI 8ee58 .cfa: $rsp 8 +
STACK CFI 8ee59 .cfa: $rsp 1088 +
STACK CFI INIT 8ee60 de .cfa: $rsp 8 + .ra: .cfa -8 + ^
STACK CFI 8ee62 $r15: .cfa -16 + ^ .cfa: $rsp 16 +
STACK CFI 8ee64 $r14: .cfa -24 + ^ .cfa: $rsp 24 +
STACK CFI 8ee66 $r13: .cfa -32 + ^ .cfa: $rsp 32 +
STACK CFI 8ee68 $r12: .cfa -40 + ^ .cfa: $rsp 40 +
STACK CFI 8ee69 $rbp: .cfa -48 + ^ .cfa: $rsp 48 +
STACK CFI 8ee6a $rbx: .cfa -56 + ^ .cfa: $rsp 56 +
STACK CFI 8ee71 .cfa: $rsp 1104 +
STACK CFI 8ef2b .cfa: $rsp 56 +
STACK CFI 8ef2f .cfa: $rsp 48 +
STACK CFI 8ef30 .cfa: $rsp 40 +
STACK CFI 8ef32 .cfa: $rsp 32 +
STACK CFI 8ef34 .cfa: $rsp 24 +
STACK CFI 8ef36 .cfa: $rsp 16 +
STACK CFI 8ef38 .cfa: $rsp 8 +
STACK CFI 8ef39 .cfa: $rsp 1104 +
STACK CFI INIT 8ef40 7a .cfa: $rsp 8 + .ra: .cfa -8 + ^
STACK CFI 8ef4f $r12: .cfa -16 + ^ .cfa: $rsp 16 +
STACK CFI 8ef53 $rbp: .cfa -24 + ^ .cfa: $rsp 24 +
STACK CFI 8ef54 $rbx: .cfa -32 + ^ .cfa: $rsp 32 +
STACK CFI 8ef91 .cfa: $rsp 24 +
STACK CFI 8ef94 .cfa: $rsp 16 +
STACK CFI 8ef96 .cfa: $rsp 8 +
STACK CFI 8efa0 $r12: $r12 $rbp: $rbp $rbx: $rbx
STACK CFI 8efa8 $r12: .cfa -16 + ^ $rbp: .cfa -24 + ^ $rbx: .cfa -32 + ^ .cfa: $rsp 32 +
STACK CFI 8efb3 .cfa: $rsp 24 +
STACK CFI 8efb7 .cfa: $rsp 16 +
STACK CFI 8efb9 .cfa: $rsp 8 +
STACK CFI INIT 8efc0 6b .cfa: $rsp 8 + .ra: .cfa -8 + ^
STACK CFI INIT 8f030 8 .cfa: $rsp 8 + .ra: .cfa -8 + ^
STACK CFI INIT 8f040 1d4 .cfa: $rsp 8 + .ra: .cfa -8 + ^
STACK CFI 8f042 $r14: .cfa -16 + ^ .cfa: $rsp 16 +
STACK CFI 8f044 $r13: .cfa -24 + ^ .cfa: $rsp 24 +
STACK CFI 8f046 $r12: .cfa -32 + ^ .cfa: $rsp 32 +
STACK CFI 8f047 $rbp: .cfa -40 + ^ .cfa: $rsp 40 +
STACK CFI 8f048 $rbx: .cfa -48 + ^ .cfa: $rsp 48 +
STACK CFI 8f168 .cfa: $rsp 40 +
STACK CFI 8f169 .cfa: $rsp 32 +
STACK CFI 8f16b .cfa: $rsp 24 +
STACK CFI 8f16d .cfa: $rsp 16 +
STACK CFI 8f16f .cfa: $rsp 8 +
STACK CFI 8f170 .cfa: $rsp 48 +
STACK CFI INIT 8f220 e .cfa: $rsp 8 + .ra: .cfa -8 + ^
STACK CFI 8f224 .cfa: $rsp 16 +
STACK CFI INIT 8f230 4c1 .cfa: $rsp 8 + .ra: .cfa -8 + ^
STACK CFI 8f232 $r15: .cfa -16 + ^ .cfa: $rsp 16 +
STACK CFI 8f234 $r14: .cfa -24 + ^ .cfa: $rsp 24 +
STACK CFI 8f239 $r13: .cfa -32 + ^ .cfa: $rsp 32 +
STACK CFI 8f23b $r12: .cfa -40 + ^ .cfa: $rsp 40 +
STACK CFI 8f23c $rbp: .cfa -48 + ^ .cfa: $rsp 48 +
STACK CFI 8f240 $rbx: .cfa -56 + ^ .cfa: $rsp 56 +
STACK CFI 8f247 .cfa: $rsp 8304 +
STACK CFI 8f51f .cfa: $rsp 56 +
STACK CFI 8f520 .cfa: $rsp 48 +
STACK CFI 8f521 .cfa: $rsp 40 +
STACK CFI 8f523 .cfa: $rsp 32 +
STACK CFI 8f525 .cfa: $rsp 24 +
STACK CFI 8f527 .cfa: $rsp 16 +
STACK CFI 8f529 .cfa: $rsp 8 +
STACK CFI 8f52a .cfa: $rsp 8304 +
STACK CFI INIT 8f700 12f .cfa: $rsp 8 + .ra: .cfa -8 + ^
STACK CFI 8f701 $rbp: .cfa -16 + ^ .cfa: $rsp 16 +
STACK CFI 8f705 $rbx: .cfa -24 + ^ .cfa: $rsp 24 +
STACK CFI 8f70c .cfa: $rsp 32 +
STACK CFI 8f797 .cfa: $rsp 24 +
STACK CFI 8f79a .cfa: $rsp 16 +
STACK CFI 8f79b .cfa: $rsp 8 +
STACK CFI 8f7a0 .cfa: $rsp 32 +
STACK CFI 8f7a4 .cfa: $rsp 24 +
STACK CFI 8f7a5 .cfa: $rsp 16 +
STACK CFI 8f7a6 .cfa: $rsp 8 +
STACK CFI 8f7b0 .cfa: $rsp 32 +
STACK CFI INIT 8f830 d5 .cfa: $rsp 8 + .ra: .cfa -8 + ^
STACK CFI 8f837 .cfa: $rsp 144 +
STACK CFI 8f904 .cfa: $rsp 8 +
STACK CFI INIT 8f910 26 .cfa: $rsp 8 + .ra: .cfa -8 + ^
STACK CFI 8f911 $rbp: .cfa -16 + ^ .cfa: $rsp 16 +
STACK CFI 8f917 $rbx: .cfa -24 + ^ .cfa: $rsp 24 +
STACK CFI 8f91e .cfa: $rsp 32 +
STACK CFI 8f92e .cfa: $rsp 24 +
STACK CFI 8f934 .cfa: $rsp 16 +
STACK CFI 8f935 .cfa: $rsp 8 +
STACK CFI INIT 8f940 197 .cfa: $rsp 8 + .ra: .cfa -8 + ^
STACK CFI INIT 8fae0 200 .cfa: $rsp 8 + .ra: .cfa -8 + ^
STACK CFI 8fae2 $r13: .cfa -16 + ^ .cfa: $rsp 16 +
STACK CFI 8fae4 $r12: .cfa -24 + ^ .cfa: $rsp 24 +
STACK CFI 8fae5 $rbp: .cfa -32 + ^ .cfa: $rsp 32 +
STACK CFI 8fae6 $rbx: .cfa -40 + ^ .cfa: $rsp 40 +
STACK CFI 8faea .cfa: $rsp 48 +
STACK CFI 8faf4 .cfa: $rsp 40 +
STACK CFI 8faf5 .cfa: $rsp 32 +
STACK CFI 8faf6 .cfa: $rsp 24 +
STACK CFI 8faf8 .cfa: $rsp 16 +
STACK CFI 8fafa .cfa: $rsp 8 +
STACK CFI 8fb00 .cfa: $rsp 48 +
STACK CFI 8fcaa .cfa: $rsp 40 +
STACK CFI 8fcae .cfa: $rsp 32 +
STACK CFI 8fcaf .cfa: $rsp 24 +
STACK CFI 8fcb1 .cfa: $rsp 16 +
STACK CFI 8fcb3 .cfa: $rsp 8 +
STACK CFI 8fcc0 .cfa: $rsp 48 +
STACK CFI INIT 8fce0 1f0 .cfa: $rsp 8 + .ra: .cfa -8 + ^
STACK CFI 8fce2 $r13: .cfa -16 + ^ .cfa: $rsp 16 +
STACK CFI 8fce4 $r12: .cfa -24 + ^ .cfa: $rsp 24 +
STACK CFI 8fce5 $rbp: .cfa -32 + ^ .cfa: $rsp 32 +
STACK CFI 8fce6 $rbx: .cfa -40 + ^ .cfa: $rsp 40 +
STACK CFI 8fcea .cfa: $rsp 48 +
STACK CFI 8fcf4 .cfa: $rsp 40 +
STACK CFI 8fcf5 .cfa: $rsp 32 +
STACK CFI 8fcf6 .cfa: $rsp 24 +
STACK CFI 8fcf8 .cfa: $rsp 16 +
STACK CFI 8fcfa .cfa: $rsp 8 +
STACK CFI 8fd00 .cfa: $rsp 48 +
STACK CFI 8fe9a .cfa: $rsp 40 +
STACK CFI 8fe9e .cfa: $rsp 32 +
STACK CFI 8fe9f .cfa: $rsp 24 +
STACK CFI 8fea1 .cfa: $rsp 16 +
STACK CFI 8fea3 .cfa: $rsp 8 +
STACK CFI 8feb0 .cfa: $rsp 48 +
STACK CFI INIT 8fed0 200 .cfa: $rsp 8 + .ra: .cfa -8 + ^
STACK CFI 8fed2 $r13: .cfa -16 + ^ .cfa: $rsp 16 +
STACK CFI 8fed4 $r12: .cfa -24 + ^ .cfa: $rsp 24 +
STACK CFI 8fed5 $rbp: .cfa -32 + ^ .cfa: $rsp 32 +
STACK CFI 8fed6 $rbx: .cfa -40 + ^ .cfa: $rsp 40 +
STACK CFI 8feda .cfa: $rsp 48 +
STACK CFI 8fee4 .cfa: $rsp 40 +
STACK CFI 8fee5 .cfa: $rsp 32 +
STACK CFI 8fee6 .cfa: $rsp 24 +
STACK CFI 8fee8 .cfa: $rsp 16 +
STACK CFI 8feea .cfa: $rsp 8 +
STACK CFI 8fef0 .cfa: $rsp 48 +
STACK CFI 9009a .cfa: $rsp 40 +
STACK CFI 9009e .cfa: $rsp 32 +
STACK CFI 9009f .cfa: $rsp 24 +
STACK CFI 900a1 .cfa: $rsp 16 +
STACK CFI 900a3 .cfa: $rsp 8 +
STACK CFI 900b0 .cfa: $rsp 48 +
STACK CFI INIT 900d0 35 .cfa: $rsp 8 + .ra: .cfa -8 + ^
STACK CFI 900d2 $r12: .cfa -16 + ^ .cfa: $rsp 16 +
STACK CFI 900d6 $rbp: .cfa -24 + ^ .cfa: $rsp 24 +
STACK CFI 900da $rbx: .cfa -32 + ^ .cfa: $rsp 32 +
STACK CFI 900f2 .cfa: $rsp 24 +
STACK CFI 90102 .cfa: $rsp 16 +
STACK CFI 90104 .cfa: $rsp 8 +
STACK CFI INIT 90110 8 .cfa: $rsp 8 + .ra: .cfa -8 + ^
STACK CFI INIT 90120 11 .cfa: $rsp 8 + .ra: .cfa -8 + ^
STACK CFI INIT 90140 11 .cfa: $rsp 8 + .ra: .cfa -8 + ^
STACK CFI INIT 90160 8 .cfa: $rsp 8 + .ra: .cfa -8 + ^
STACK CFI INIT 90170 44 .cfa: $rsp 8 + .ra: .cfa -8 + ^
STACK CFI INIT 901c0 2f .cfa: $rsp 8 + .ra: .cfa -8 + ^
STACK CFI INIT 901f0 51 .cfa: $rsp 8 + .ra: .cfa -8 + ^
STACK CFI 901f6 $rbp: .cfa -16 + ^ .cfa: $rsp 16 +
STACK CFI 901fa $rbx: .cfa -24 + ^ .cfa: $rsp 24 +
STACK CFI 901fe .cfa: $rsp 32 +
STACK CFI 90233 .cfa: $rsp 24 +
STACK CFI 90234 .cfa: $rsp 16 +
STACK CFI 90235 .cfa: $rsp 8 +
STACK CFI 90240 $rbp: $rbp $rbx: $rbx
STACK CFI INIT 90250 50 .cfa: $rsp 8 + .ra: .cfa -8 + ^
STACK CFI 90257 $r12: .cfa -16 + ^ .cfa: $rsp 16 +
STACK CFI 9025b $rbp: .cfa -24 + ^ .cfa: $rsp 24 +
STACK CFI 9025c $rbx: .cfa -32 + ^ .cfa: $rsp 32 +
STACK CFI 90293 .cfa: $rsp 24 +
STACK CFI 90297 .cfa: $rsp 16 +
STACK CFI 90299 .cfa: $rsp 8 +
STACK CFI 9029a $r12: $r12 $rbp: $rbp $rbx: $rbx
STACK CFI INIT 902a0 61 .cfa: $rsp 8 + .ra: .cfa -8 + ^
STACK CFI 902a9 $r12: .cfa -16 + ^ .cfa: $rsp 16 +
STACK CFI 902ad $rbp: .cfa -24 + ^ .cfa: $rsp 24 +
STACK CFI 902b1 $rbx: .cfa -32 + ^ .cfa: $rsp 32 +
STACK CFI 902e2 .cfa: $rsp 24 +
STACK CFI 902e3 .cfa: $rsp 16 +
STACK CFI 902e5 .cfa: $rsp 8 +
STACK CFI 902f0 .cfa: $rsp 32 +
STACK CFI 902f1 .cfa: $rsp 24 +
STACK CFI 902f4 .cfa: $rsp 16 +
STACK CFI 902f6 .cfa: $rsp 8 +
STACK CFI 90300 $r12: $r12 $rbp: $rbp $rbx: $rbx
STACK CFI INIT 90310 9b .cfa: $rsp 8 + .ra: .cfa -8 + ^
STACK CFI 90318 $r12: .cfa -16 + ^ .cfa: $rsp 16 +
STACK CFI 90319 $rbp: .cfa -24 + ^ .cfa: $rsp 24 +
STACK CFI 9031a $rbx: .cfa -32 + ^ .cfa: $rsp 32 +
STACK CFI 9033e .cfa: $rsp 24 +
STACK CFI 9033f .cfa: $rsp 16 +
STACK CFI 90341 .cfa: $rsp 8 +
STACK CFI 90348 .cfa: $rsp 32 +
STACK CFI 903a7 .cfa: $rsp 24 +
STACK CFI 903a8 .cfa: $rsp 16 +
STACK CFI 903aa .cfa: $rsp 8 +
STACK CFI INIT 903b0 77 .cfa: $rsp 8 + .ra: .cfa -8 + ^
STACK CFI INIT 90430 12 .cfa: $rsp 8 + .ra: .cfa -8 + ^
STACK CFI INIT 90450 b .cfa: $rsp 8 + .ra: .cfa -8 + ^
STACK CFI INIT 90460 b .cfa: $rsp 8 + .ra: .cfa -8 + ^
STACK CFI INIT 90470 7 .cfa: $rsp 8 + .ra: .cfa -8 + ^
STACK CFI INIT 90480 36 .cfa: $rsp 8 + .ra: .cfa -8 + ^
STACK CFI INIT 904c0 7 .cfa: $rsp 8 + .ra: .cfa -8 + ^
STACK CFI INIT 904d0 7 .cfa: $rsp 8 + .ra: .cfa -8 + ^
STACK CFI INIT 904e0 a7 .cfa: $rsp 8 + .ra: .cfa -8 + ^
STACK CFI 904e4 .cfa: $rsp 16 +
STACK CFI 90586 .cfa: $rsp 8 +
STACK CFI INIT 90590 63 .cfa: $rsp 8 + .ra: .cfa -8 + ^
STACK CFI 905d3 .cfa: $rsp 16 +
STACK CFI 905e9 .cfa: $rsp 8 +
STACK CFI INIT 90600 1c .cfa: $rsp 8 + .ra: .cfa -8 + ^
STACK CFI INIT 90620 8d .cfa: $rsp 8 + .ra: .cfa -8 + ^
STACK CFI 9062c .cfa: $rsp 16 +
STACK CFI 90699 .cfa: $rsp 8 +
STACK CFI 906a0 .cfa: $rsp 16 +
STACK CFI 906a4 .cfa: $rsp 8 +
STACK CFI INIT 906b0 dd .cfa: $rsp 8 + .ra: .cfa -8 + ^
STACK CFI 906bc $r12: .cfa -16 + ^ .cfa: $rsp 16 +
STACK CFI 906c2 $rbp: .cfa -24 + ^ .cfa: $rsp 24 +
STACK CFI 906c3 $rbx: .cfa -32 + ^ .cfa: $rsp 32 +
STACK CFI 906f7 .cfa: $rsp 24 +
STACK CFI 906f8 .cfa: $rsp 16 +
STACK CFI 906fa .cfa: $rsp 8 +
STACK CFI 90700 $r12: $r12 $rbp: $rbp $rbx: $rbx
STACK CFI 90708 $r12: .cfa -16 + ^ $rbp: .cfa -24 + ^ $rbx: .cfa -32 + ^ .cfa: $rsp 32 +
STACK CFI 90740 .cfa: $rsp 24 +
STACK CFI 90741 .cfa: $rsp 16 +
STACK CFI 90743 .cfa: $rsp 8 +
STACK CFI 90748 .cfa: $rsp 32 +
STACK CFI INIT 90790 97 .cfa: $rsp 8 + .ra: .cfa -8 + ^
STACK CFI 9079c $r12: .cfa -16 + ^ .cfa: $rsp 16 +
STACK CFI 907aa $rbp: .cfa -24 + ^ .cfa: $rsp 24 +
STACK CFI 907ae $rbx: .cfa -32 + ^ .cfa: $rsp 32 +
STACK CFI 907f5 .cfa: $rsp 24 +
STACK CFI 907f6 .cfa: $rsp 16 +
STACK CFI 907f8 .cfa: $rsp 8 +
STACK CFI 90800 .cfa: $rsp 32 +
STACK CFI 90801 .cfa: $rsp 24 +
STACK CFI 90807 .cfa: $rsp 16 +
STACK CFI 90810 .cfa: $rsp 8 +
STACK CFI 90818 $r12: $r12 $rbp: $rbp $rbx: $rbx
STACK CFI 90820 $r12: .cfa -16 + ^ $rbp: .cfa -24 + ^ $rbx: .cfa -32 + ^ .cfa: $rsp 32 +
STACK CFI 90821 .cfa: $rsp 24 +
STACK CFI 90824 .cfa: $rsp 16 +
STACK CFI 90826 .cfa: $rsp 8 +
STACK CFI INIT 90830 1e .cfa: $rsp 8 + .ra: .cfa -8 + ^
STACK CFI INIT 90850 35 .cfa: $rsp 8 + .ra: .cfa -8 + ^
STACK CFI INIT 90890 3 .cfa: $rsp 8 + .ra: .cfa -8 + ^
STACK CFI INIT 908a0 114 .cfa: $rsp 8 + .ra: .cfa -8 + ^
STACK CFI 908a2 $r15: .cfa -16 + ^ .cfa: $rsp 16 +
STACK CFI 908a4 $r14: .cfa -24 + ^ .cfa: $rsp 24 +
STACK CFI 908a6 $r13: .cfa -32 + ^ .cfa: $rsp 32 +
STACK CFI 908a8 $r12: .cfa -40 + ^ .cfa: $rsp 40 +
STACK CFI 908a9 $rbp: .cfa -48 + ^ .cfa: $rsp 48 +
STACK CFI 908aa $rbx: .cfa -56 + ^ .cfa: $rsp 56 +
STACK CFI 908b1 .cfa: $rsp 80 +
STACK CFI 90934 .cfa: $rsp 56 +
STACK CFI 90938 .cfa: $rsp 48 +
STACK CFI 90939 .cfa: $rsp 40 +
STACK CFI 9093b .cfa: $rsp 32 +
STACK CFI 9093d .cfa: $rsp 24 +
STACK CFI 9093f .cfa: $rsp 16 +
STACK CFI 90941 .cfa: $rsp 8 +
STACK CFI 90948 .cfa: $rsp 80 +
STACK CFI INIT 909c0 893 .cfa: $rsp 8 + .ra: .cfa -8 + ^
STACK CFI 909c2 $r12: .cfa -16 + ^ .cfa: $rsp 16 +
STACK CFI 909c3 $rbp: .cfa -24 + ^ .cfa: $rsp 24 +
STACK CFI 909c4 $rbx: .cfa -32 + ^ .cfa: $rsp 32 +
STACK CFI 909c8 .cfa: $rsp 80 +
STACK CFI 90b13 .cfa: $rsp 32 +
STACK CFI 90b14 .cfa: $rsp 24 +
STACK CFI 90b15 .cfa: $rsp 16 +
STACK CFI 90b17 .cfa: $rsp 8 +
STACK CFI 90b20 .cfa: $rsp 80 +
STACK CFI INIT 91260 1bc3 .cfa: $rsp 8 + .ra: .cfa -8 + ^
STACK CFI 91262 $r15: .cfa -16 + ^ .cfa: $rsp 16 +
STACK CFI 91264 $r14: .cfa -24 + ^ .cfa: $rsp 24 +
STACK CFI 91266 $r13: .cfa -32 + ^ .cfa: $rsp 32 +
STACK CFI 9126b $r12: .cfa -40 + ^ .cfa: $rsp 40 +
STACK CFI 9126f $rbp: .cfa -48 + ^ .cfa: $rsp 48 +
STACK CFI 91270 $rbx: .cfa -56 + ^ .cfa: $rsp 56 +
STACK CFI 91277 .cfa: $rsp 592 +
STACK CFI 91c26 .cfa: $rsp 56 +
STACK CFI 91c27 .cfa: $rsp 48 +
STACK CFI 91c28 .cfa: $rsp 40 +
STACK CFI 91c2a .cfa: $rsp 32 +
STACK CFI 91c2c .cfa: $rsp 24 +
STACK CFI 91c2e .cfa: $rsp 16 +
STACK CFI 91c30 .cfa: $rsp 8 +
STACK CFI 91c38 .cfa: $rsp 592 +
STACK CFI INIT 92e30 94 .cfa: $rsp 8 + .ra: .cfa -8 + ^
STACK CFI 92e37 .cfa: $rsp 224 +
STACK CFI 92ec3 .cfa: $rsp 8 +
STACK CFI INIT 92ed0 db .cfa: $rsp 8 + .ra: .cfa -8 + ^
STACK CFI 92ed1 $rbp: .cfa -16 + ^ .cfa: $rsp 16 +
STACK CFI 92eda .cfa: $rsp 224 +
STACK CFI 92f6c .cfa: $rsp 16 +
STACK CFI 92f6d .cfa: $rsp 8 +
STACK CFI 92f70 .cfa: $rsp 224 +
STACK CFI INIT 92fb0 12d .cfa: $rsp 8 + .ra: .cfa -8 + ^
STACK CFI 92fb2 $r15: .cfa -16 + ^ .cfa: $rsp 16 +
STACK CFI 92fba $r14: .cfa -24 + ^ .cfa: $rsp 24 +
STACK CFI 92fbc $r13: .cfa -32 + ^ .cfa: $rsp 32 +
STACK CFI 92fc1 $r12: .cfa -40 + ^ .cfa: $rsp 40 +
STACK CFI 92fc5 $rbp: .cfa -48 + ^ .cfa: $rsp 48 +
STACK CFI 92fc6 $rbx: .cfa -56 + ^ .cfa: $rsp 56 +
STACK CFI 92fcd .cfa: $rsp 80 +
STACK CFI 93042 .cfa: $rsp 56 +
STACK CFI 93049 .cfa: $rsp 48 +
STACK CFI 9304a .cfa: $rsp 40 +
STACK CFI 9304c .cfa: $rsp 32 +
STACK CFI 9304e .cfa: $rsp 24 +
STACK CFI 93050 .cfa: $rsp 16 +
STACK CFI 93052 .cfa: $rsp 8 +
STACK CFI 93060 .cfa: $rsp 80 +
STACK CFI 930a0 .cfa: $rsp 56 +
STACK CFI 930aa .cfa: $rsp 48 +
STACK CFI 930ad .cfa: $rsp 40 +
STACK CFI 930af .cfa: $rsp 32 +
STACK CFI 930b1 .cfa: $rsp 24 +
STACK CFI 930b3 .cfa: $rsp 16 +
STACK CFI 930b5 .cfa: $rsp 8 +
STACK CFI 930c0 .cfa: $rsp 80 +
STACK CFI INIT 930e0 d1 .cfa: $rsp 8 + .ra: .cfa -8 + ^
STACK CFI 930f8 $rbp: .cfa -16 + ^ .cfa: $rsp 16 +
STACK CFI 930f9 $rbx: .cfa -24 + ^ .cfa: $rsp 24 +
STACK CFI 930fd .cfa: $rsp 32 +
STACK CFI 93199 .cfa: $rsp 24 +
STACK CFI 9319a .cfa: $rsp 16 +
STACK CFI 9319b .cfa: $rsp 8 +
STACK CFI 931a0 .cfa: $rsp 32 +
STACK CFI 931b0 $rbp: $rbp $rbx: $rbx .cfa: $rsp 8 +
STACK CFI INIT 931c0 14f .cfa: $rsp 8 + .ra: .cfa -8 + ^
STACK CFI 931c8 $r14: .cfa -16 + ^ .cfa: $rsp 16 +
STACK CFI 931cd $r13: .cfa -24 + ^ .cfa: $rsp 24 +
STACK CFI 931d2 $r12: .cfa -32 + ^ .cfa: $rsp 32 +
STACK CFI 931d6 $rbp: .cfa -40 + ^ .cfa: $rsp 40 +
STACK CFI 931da $rbx: .cfa -48 + ^ .cfa: $rsp 48 +
STACK CFI 9325b .cfa: $rsp 40 +
STACK CFI 9325c .cfa: $rsp 32 +
STACK CFI 9325e .cfa: $rsp 24 +
STACK CFI 93260 .cfa: $rsp 16 +
STACK CFI 93262 .cfa: $rsp 8 +
STACK CFI 93268 .cfa: $rsp 48 +
STACK CFI 9326e .cfa: $rsp 40 +
STACK CFI 93271 .cfa: $rsp 32 +
STACK CFI 93273 .cfa: $rsp 24 +
STACK CFI 93275 .cfa: $rsp 16 +
STACK CFI 93277 .cfa: $rsp 8 +
STACK CFI 93280 .cfa: $rsp 48 +
STACK CFI 93286 .cfa: $rsp 40 +
STACK CFI 93289 .cfa: $rsp 32 +
STACK CFI 9328b .cfa: $rsp 24 +
STACK CFI 9328d .cfa: $rsp 16 +
STACK CFI 9328f .cfa: $rsp 8 +
STACK CFI 93298 .cfa: $rsp 48 +
STACK CFI 932ee .cfa: $rsp 40 +
STACK CFI 932f1 .cfa: $rsp 32 +
STACK CFI 932f3 .cfa: $rsp 24 +
STACK CFI 932f5 .cfa: $rsp 16 +
STACK CFI 932f7 .cfa: $rsp 8 +
STACK CFI 93300 .cfa: $rsp 48 +
STACK CFI 93301 .cfa: $rsp 40 +
STACK CFI 93304 .cfa: $rsp 32 +
STACK CFI 93306 .cfa: $rsp 24 +
STACK CFI 93308 .cfa: $rsp 16 +
STACK CFI 9330a .cfa: $rsp 8 +
STACK CFI INIT 93310 171 .cfa: $rsp 8 + .ra: .cfa -8 + ^
STACK CFI 93312 $r13: .cfa -16 + ^ .cfa: $rsp 16 +
STACK CFI 93314 $r12: .cfa -24 + ^ .cfa: $rsp 24 +
STACK CFI 93315 $rbp: .cfa -32 + ^ .cfa: $rsp 32 +
STACK CFI 93316 $rbx: .cfa -40 + ^ .cfa: $rsp 40 +
STACK CFI 9331a .cfa: $rsp 48 +
STACK CFI 93418 .cfa: $rsp 40 +
STACK CFI 93419 .cfa: $rsp 32 +
STACK CFI 9341a .cfa: $rsp 24 +
STACK CFI 9341c .cfa: $rsp 16 +
STACK CFI 9341e .cfa: $rsp 8 +
STACK CFI 93420 .cfa: $rsp 48 +
STACK CFI INIT 93490 295 .cfa: $rsp 8 + .ra: .cfa -8 + ^
STACK CFI 93492 $r13: .cfa -16 + ^ .cfa: $rsp 16 +
STACK CFI 93494 $r12: .cfa -24 + ^ .cfa: $rsp 24 +
STACK CFI 93495 $rbp: .cfa -32 + ^ .cfa: $rsp 32 +
STACK CFI 93496 $rbx: .cfa -40 + ^ .cfa: $rsp 40 +
STACK CFI 9349a .cfa: $rsp 48 +
STACK CFI 935f0 .cfa: $rsp 40 +
STACK CFI 935f1 .cfa: $rsp 32 +
STACK CFI 935f2 .cfa: $rsp 24 +
STACK CFI 935f4 .cfa: $rsp 16 +
STACK CFI 935f6 .cfa: $rsp 8 +
STACK CFI 93600 .cfa: $rsp 48 +
STACK CFI INIT 93730 62 .cfa: $rsp 8 + .ra: .cfa -8 + ^
STACK CFI 93731 $rbx: .cfa -16 + ^ .cfa: $rsp 16 +
STACK CFI 9377f .cfa: $rsp 8 +
STACK CFI 93780 .cfa: $rsp 16 +
STACK CFI INIT 937a0 7f .cfa: $rsp 8 + .ra: .cfa -8 + ^
STACK CFI 937ff .cfa: $rsp 16 +
STACK CFI 9381e .cfa: $rsp 8 +
STACK CFI INIT 93820 c .cfa: $rsp 8 + .ra: .cfa -8 + ^
STACK CFI INIT 93830 8d .cfa: $rsp 8 + .ra: .cfa -8 + ^
STACK CFI 93831 $rbx: .cfa -16 + ^ .cfa: $rsp 16 +
STACK CFI 93857 .cfa: $rsp 8 +
STACK CFI 93860 .cfa: $rsp 16 +
STACK CFI 93884 .cfa: $rsp 8 +
STACK CFI 93890 .cfa: $rsp 16 +
STACK CFI INIT 938c0 f8 .cfa: $rsp 8 + .ra: .cfa -8 + ^
STACK CFI 938d1 $rbx: .cfa -16 + ^ .cfa: $rsp 16 +
STACK CFI 93927 .cfa: $rsp 8 +
STACK CFI 93930 .cfa: $rsp 16 +
STACK CFI 9395c $rbx: $rbx .cfa: $rsp 8 +
STACK CFI 93968 $rbx: .cfa -16 + ^ .cfa: $rsp 16 +
STACK CFI INIT 939c0 254 .cfa: $rsp 8 + .ra: .cfa -8 + ^
STACK CFI 939c1 $rbx: .cfa -16 + ^ .cfa: $rsp 16 +
STACK CFI 939ca .cfa: $rsp 9440 +
STACK CFI 93b6b .cfa: $rsp 16 +
STACK CFI 93b6c .cfa: $rsp 8 +
STACK CFI 93b70 .cfa: $rsp 9440 +
STACK CFI 93b85 .cfa: $rsp 16 +
STACK CFI 93b86 .cfa: $rsp 8 +
STACK CFI 93b90 .cfa: $rsp 9440 +
STACK CFI 93ba5 .cfa: $rsp 16 +
STACK CFI 93ba6 .cfa: $rsp 8 +
STACK CFI 93bb0 .cfa: $rsp 9440 +
STACK CFI INIT 93c20 2d0 .cfa: $rsp 8 + .ra: .cfa -8 + ^
STACK CFI 93c2b $rbx: .cfa -16 + ^ .cfa: $rsp 16 +
STACK CFI 93c32 .cfa: $rsp 32 +
STACK CFI 93ca5 .cfa: $rsp 16 +
STACK CFI 93cab .cfa: $rsp 8 +
STACK CFI 93cb0 .cfa: $rsp 32 +
STACK CFI 93d6a .cfa: $rsp 16 +
STACK CFI 93d70 .cfa: $rsp 8 +
STACK CFI 93d78 .cfa: $rsp 32 +
STACK CFI 93e26 .cfa: $rsp 16 +
STACK CFI 93e2c .cfa: $rsp 8 +
STACK CFI 93e30 .cfa: $rsp 32 +
STACK CFI 93e48 .cfa: $rsp 16 +
STACK CFI 93e4e .cfa: $rsp 8 +
STACK CFI 93e50 .cfa: $rsp 32 +
STACK CFI 93eb4 .cfa: $rsp 40 +
STACK CFI 93ec0 .cfa: $rsp 48 +
STACK CFI 93ec8 .cfa: $rsp 40 +
STACK CFI 93ec9 .cfa: $rsp 32 +
STACK CFI 93ed4 .cfa: $rsp 40 +
STACK CFI 93ee2 .cfa: $rsp 48 +
STACK CFI 93eea .cfa: $rsp 40 +
STACK CFI 93eeb .cfa: $rsp 32 +
STACK CFI INIT 93ef0 90 .cfa: $rsp 8 + .ra: .cfa -8 + ^
STACK CFI 93ef1 $rbp: .cfa -16 + ^ .cfa: $rsp 16 +
STACK CFI 93ef5 $rbx: .cfa -24 + ^ .cfa: $rsp 24 +
STACK CFI 93efc .cfa: $rsp 32 +
STACK CFI 93f2c .cfa: $rsp 24 +
STACK CFI 93f32 .cfa: $rsp 16 +
STACK CFI 93f38 .cfa: $rsp 8 +
STACK CFI 93f40 .cfa: $rsp 32 +
STACK CFI 93f4c .cfa: $rsp 24 +
STACK CFI 93f56 .cfa: $rsp 16 +
STACK CFI 93f57 .cfa: $rsp 8 +
STACK CFI 93f60 .cfa: $rsp 32 +
STACK CFI 93f64 .cfa: $rsp 24 +
STACK CFI 93f65 .cfa: $rsp 16 +
STACK CFI 93f66 .cfa: $rsp 8 +
STACK CFI 93f70 .cfa: $rsp 32 +
STACK CFI INIT 93f80 79 .cfa: $rsp 8 + .ra: .cfa -8 + ^
STACK CFI 93f81 $rbx: .cfa -16 + ^ .cfa: $rsp 16 +
STACK CFI 93fc5 .cfa: $rsp 8 +
STACK CFI 93fd0 .cfa: $rsp 16 +
STACK CFI 93fe9 .cfa: $rsp 8 +
STACK CFI 93ff0 .cfa: $rsp 16 +
STACK CFI INIT 94000 3c .cfa: $rsp 8 + .ra: .cfa -8 + ^
STACK CFI 94008 .cfa: $rsp 16 +
STACK CFI 9401d .cfa: $rsp 8 +
STACK CFI INIT 94040 d5 .cfa: $rsp 8 + .ra: .cfa -8 + ^
STACK CFI 94042 $r12: .cfa -16 + ^ .cfa: $rsp 16 +
STACK CFI 94049 .cfa: $rsp 144 +
STACK CFI 9409d .cfa: $rsp 16 +
STACK CFI 9409f .cfa: $rsp 8 +
STACK CFI 940a0 .cfa: $rsp 144 +
STACK CFI 940b2 .cfa: $rsp 16 +
STACK CFI 940b4 .cfa: $rsp 8 +
STACK CFI 940b8 .cfa: $rsp 144 +
STACK CFI 940ca .cfa: $rsp 16 +
STACK CFI 940cc .cfa: $rsp 8 +
STACK CFI 940d0 .cfa: $rsp 144 +
STACK CFI 940e2 .cfa: $rsp 16 +
STACK CFI 940e4 .cfa: $rsp 8 +
STACK CFI 940e8 .cfa: $rsp 144 +
STACK CFI 940fa .cfa: $rsp 16 +
STACK CFI 940fc .cfa: $rsp 8 +
STACK CFI 94100 .cfa: $rsp 144 +
STACK CFI 94112 .cfa: $rsp 16 +
STACK CFI 94114 .cfa: $rsp 8 +
STACK CFI INIT 94120 14f .cfa: $rsp 8 + .ra: .cfa -8 + ^
STACK CFI 94122 $r15: .cfa -16 + ^ .cfa: $rsp 16 +
STACK CFI 94124 $r14: .cfa -24 + ^ .cfa: $rsp 24 +
STACK CFI 94126 $r13: .cfa -32 + ^ .cfa: $rsp 32 +
STACK CFI 9412b $r12: .cfa -40 + ^ .cfa: $rsp 40 +
STACK CFI 9412f $rbp: .cfa -48 + ^ .cfa: $rsp 48 +
STACK CFI 94133 $rbx: .cfa -56 + ^ .cfa: $rsp 56 +
STACK CFI 9413a .cfa: $rsp 64 +
STACK CFI 9415c .cfa: $rsp 56 +
STACK CFI 94160 .cfa: $rsp 48 +
STACK CFI 94161 .cfa: $rsp 40 +
STACK CFI 94163 .cfa: $rsp 32 +
STACK CFI 94165 .cfa: $rsp 24 +
STACK CFI 94167 .cfa: $rsp 16 +
STACK CFI 94169 .cfa: $rsp 8 +
STACK CFI 94170 .cfa: $rsp 64 +
STACK CFI INIT 94270 375 .cfa: $rsp 8 + .ra: .cfa -8 + ^
STACK CFI 94272 $r15: .cfa -16 + ^ .cfa: $rsp 16 +
STACK CFI 94277 $r14: .cfa -24 + ^ .cfa: $rsp 24 +
STACK CFI 94279 $r13: .cfa -32 + ^ .cfa: $rsp 32 +
STACK CFI 9427e $r12: .cfa -40 + ^ .cfa: $rsp 40 +
STACK CFI 94282 $rbp: .cfa -48 + ^ .cfa: $rsp 48 +
STACK CFI 94286 $rbx: .cfa -56 + ^ .cfa: $rsp 56 +
STACK CFI 9428c .cfa: $rsp 80 +
STACK CFI 942e3 .cfa: $rsp 56 +
STACK CFI 942e6 .cfa: $rsp 48 +
STACK CFI 942e7 .cfa: $rsp 40 +
STACK CFI 942e9 .cfa: $rsp 32 +
STACK CFI 942eb .cfa: $rsp 24 +
STACK CFI 942ed .cfa: $rsp 16 +
STACK CFI 942ef .cfa: $rsp 8 +
STACK CFI 942f0 .cfa: $rsp 80 +
STACK CFI 94354 .cfa: $rsp 56 +
STACK CFI 9435a .cfa: $rsp 48 +
STACK CFI 9435b .cfa: $rsp 40 +
STACK CFI 9435d .cfa: $rsp 32 +
STACK CFI 9435f .cfa: $rsp 24 +
STACK CFI 94361 .cfa: $rsp 16 +
STACK CFI 94363 .cfa: $rsp 8 +
STACK CFI 94370 .cfa: $rsp 80 +
STACK CFI INIT 945f0 27f .cfa: $rsp 8 + .ra: .cfa -8 + ^
STACK CFI 945f2 $r15: .cfa -16 + ^ .cfa: $rsp 16 +
STACK CFI 945f4 $r14: .cfa -24 + ^ .cfa: $rsp 24 +
STACK CFI 945f6 $r13: .cfa -32 + ^ .cfa: $rsp 32 +
STACK CFI 945fb $r12: .cfa -40 + ^ .cfa: $rsp 40 +
STACK CFI 945ff $rbp: .cfa -48 + ^ .cfa: $rsp 48 +
STACK CFI 94602 $rbx: .cfa -56 + ^ .cfa: $rsp 56 +
STACK CFI 94609 .cfa: $rsp 80 +
STACK CFI 9466f .cfa: $rsp 56 +
STACK CFI 94670 .cfa: $rsp 48 +
STACK CFI 94671 .cfa: $rsp 40 +
STACK CFI 94673 .cfa: $rsp 32 +
STACK CFI 94675 .cfa: $rsp 24 +
STACK CFI 94677 .cfa: $rsp 16 +
STACK CFI 94679 .cfa: $rsp 8 +
STACK CFI 94680 .cfa: $rsp 80 +
STACK CFI 9468b .cfa: $rsp 88 +
STACK CFI 9468d .cfa: $rsp 96 +
STACK CFI 94698 .cfa: $rsp 104 +
STACK CFI 946a2 .cfa: $rsp 112 +
STACK CFI 946ab .cfa: $rsp 80 +
STACK CFI 946d5 .cfa: $rsp 88 +
STACK CFI 946e0 .cfa: $rsp 80 +
STACK CFI 946eb .cfa: $rsp 88 +
STACK CFI 946f0 .cfa: $rsp 80 +
STACK CFI 946f6 .cfa: $rsp 88 +
STACK CFI 94700 .cfa: $rsp 80 +
STACK CFI 94792 .cfa: $rsp 88 +
STACK CFI 947ab .cfa: $rsp 96 +
STACK CFI 947ad .cfa: $rsp 104 +
STACK CFI 947b2 .cfa: $rsp 112 +
STACK CFI 947be .cfa: $rsp 80 +
STACK CFI INIT 94870 1fd .cfa: $rsp 8 + .ra: .cfa -8 + ^
STACK CFI 94872 $r15: .cfa -16 + ^ .cfa: $rsp 16 +
STACK CFI 94874 $r14: .cfa -24 + ^ .cfa: $rsp 24 +
STACK CFI 94879 $r13: .cfa -32 + ^ .cfa: $rsp 32 +
STACK CFI 9487e $r12: .cfa -40 + ^ .cfa: $rsp 40 +
STACK CFI 9487f $rbp: .cfa -48 + ^ .cfa: $rsp 48 +
STACK CFI 94883 $rbx: .cfa -56 + ^ .cfa: $rsp 56 +
STACK CFI 94887 .cfa: $rsp 96 +
STACK CFI 9495e .cfa: $rsp 56 +
STACK CFI 9495f .cfa: $rsp 48 +
STACK CFI 94960 .cfa: $rsp 40 +
STACK CFI 94962 .cfa: $rsp 32 +
STACK CFI 94964 .cfa: $rsp 24 +
STACK CFI 94966 .cfa: $rsp 16 +
STACK CFI 94968 .cfa: $rsp 8 +
STACK CFI 94970 .cfa: $rsp 96 +
STACK CFI INIT 94a70 a1 .cfa: $rsp 8 + .ra: .cfa -8 + ^
STACK CFI 94a78 $r15: .cfa -16 + ^ .cfa: $rsp 16 +
STACK CFI 94a7a $r14: .cfa -24 + ^ .cfa: $rsp 24 +
STACK CFI 94a7f $r13: .cfa -32 + ^ .cfa: $rsp 32 +
STACK CFI 94a84 $r12: .cfa -40 + ^ .cfa: $rsp 40 +
STACK CFI 94a88 $rbp: .cfa -48 + ^ .cfa: $rsp 48 +
STACK CFI 94ad8 .cfa: $rsp 40 +
STACK CFI 94ada .cfa: $rsp 32 +
STACK CFI 94adc .cfa: $rsp 24 +
STACK CFI 94ade .cfa: $rsp 16 +
STACK CFI 94ae0 .cfa: $rsp 8 +
STACK CFI 94ae8 .cfa: $rsp 48 +
STACK CFI 94ae9 .cfa: $rsp 40 +
STACK CFI 94aed .cfa: $rsp 32 +
STACK CFI 94aef .cfa: $rsp 24 +
STACK CFI 94af1 .cfa: $rsp 16 +
STACK CFI 94af3 .cfa: $rsp 8 +
STACK CFI 94b00 .cfa: $rsp 48 +
STACK CFI INIT 94b20 333 .cfa: $rsp 8 + .ra: .cfa -8 + ^
STACK CFI 94b22 $r15: .cfa -16 + ^ .cfa: $rsp 16 +
STACK CFI 94b24 $r14: .cfa -24 + ^ .cfa: $rsp 24 +
STACK CFI 94b26 $r13: .cfa -32 + ^ .cfa: $rsp 32 +
STACK CFI 94b28 $r12: .cfa -40 + ^ .cfa: $rsp 40 +
STACK CFI 94b2c $rbp: .cfa -48 + ^ .cfa: $rsp 48 +
STACK CFI 94b2d $rbx: .cfa -56 + ^ .cfa: $rsp 56 +
STACK CFI 94b31 .cfa: $rsp 96 +
STACK CFI 94cc4 .cfa: $rsp 56 +
STACK CFI 94cc5 .cfa: $rsp 48 +
STACK CFI 94cc6 .cfa: $rsp 40 +
STACK CFI 94cc8 .cfa: $rsp 32 +
STACK CFI 94cca .cfa: $rsp 24 +
STACK CFI 94ccc .cfa: $rsp 16 +
STACK CFI 94cce .cfa: $rsp 8 +
STACK CFI 94cd0 .cfa: $rsp 96 +
STACK CFI 94e0a .cfa: $rsp 56 +
STACK CFI 94e0b .cfa: $rsp 48 +
STACK CFI 94e0c .cfa: $rsp 40 +
STACK CFI 94e0e .cfa: $rsp 32 +
STACK CFI 94e10 .cfa: $rsp 24 +
STACK CFI 94e12 .cfa: $rsp 16 +
STACK CFI 94e14 .cfa: $rsp 8 +
STACK CFI 94e15 .cfa: $rsp 96 +
STACK CFI INIT 94e60 11 .cfa: $rsp 8 + .ra: .cfa -8 + ^
STACK CFI INIT 94e80 111 .cfa: $rsp 8 + .ra: .cfa -8 + ^
STACK CFI 94e82 $r13: .cfa -16 + ^ .cfa: $rsp 16 +
STACK CFI 94e87 $r12: .cfa -24 + ^ .cfa: $rsp 24 +
STACK CFI 94e8b $rbp: .cfa -32 + ^ .cfa: $rsp 32 +
STACK CFI 94e8f $rbx: .cfa -40 + ^ .cfa: $rsp 40 +
STACK CFI 94e93 .cfa: $rsp 48 +
STACK CFI 94f09 .cfa: $rsp 40 +
STACK CFI 94f0a .cfa: $rsp 32 +
STACK CFI 94f0b .cfa: $rsp 24 +
STACK CFI 94f0d .cfa: $rsp 16 +
STACK CFI 94f0f .cfa: $rsp 8 +
STACK CFI 94f10 .cfa: $rsp 48 +
STACK CFI 94f19 .cfa: $rsp 40 +
STACK CFI 94f1c .cfa: $rsp 32 +
STACK CFI 94f1d .cfa: $rsp 24 +
STACK CFI 94f1f .cfa: $rsp 16 +
STACK CFI 94f21 .cfa: $rsp 8 +
STACK CFI 94f30 .cfa: $rsp 48 +
STACK CFI 94f39 .cfa: $rsp 40 +
STACK CFI 94f3c .cfa: $rsp 32 +
STACK CFI 94f3d .cfa: $rsp 24 +
STACK CFI 94f3f .cfa: $rsp 16 +
STACK CFI 94f41 .cfa: $rsp 8 +
STACK CFI 94f50 .cfa: $rsp 48 +
STACK CFI 94f84 .cfa: $rsp 40 +
STACK CFI 94f87 .cfa: $rsp 32 +
STACK CFI 94f88 .cfa: $rsp 24 +
STACK CFI 94f8a .cfa: $rsp 16 +
STACK CFI 94f8c .cfa: $rsp 8 +
STACK CFI INIT 94fa0 2cd .cfa: $rsp 8 + .ra: .cfa -8 + ^
STACK CFI 94fa2 $r14: .cfa -16 + ^ .cfa: $rsp 16 +
STACK CFI 94fa4 $r13: .cfa -24 + ^ .cfa: $rsp 24 +
STACK CFI 94fa6 $r12: .cfa -32 + ^ .cfa: $rsp 32 +
STACK CFI 94faa $rbp: .cfa -40 + ^ .cfa: $rsp 40 +
STACK CFI 94fab $rbx: .cfa -48 + ^ .cfa: $rsp 48 +
STACK CFI 950bd .cfa: $rsp 40 +
STACK CFI 950be .cfa: $rsp 32 +
STACK CFI 950c0 .cfa: $rsp 24 +
STACK CFI 950c2 .cfa: $rsp 16 +
STACK CFI 950c4 .cfa: $rsp 8 +
STACK CFI 950c8 .cfa: $rsp 48 +
STACK CFI INIT 95270 11 .cfa: $rsp 8 + .ra: .cfa -8 + ^
STACK CFI INIT 95290 60 .cfa: $rsp 8 + .ra: .cfa -8 + ^
STACK CFI 95299 .cfa: $rsp 80 +
STACK CFI 952ef .cfa: $rsp 8 +
STACK CFI INIT 952f0 2e5 .cfa: $rsp 8 + .ra: .cfa -8 + ^
STACK CFI 952f2 $r13: .cfa -16 + ^ .cfa: $rsp 16 +
STACK CFI 952f4 $r12: .cfa -24 + ^ .cfa: $rsp 24 +
STACK CFI 952f5 $rbp: .cfa -32 + ^ .cfa: $rsp 32 +
STACK CFI 952f6 $rbx: .cfa -40 + ^ .cfa: $rsp 40 +
STACK CFI 952fa .cfa: $rsp 48 +
STACK CFI 95418 .cfa: $rsp 40 +
STACK CFI 95419 .cfa: $rsp 32 +
STACK CFI 9541a .cfa: $rsp 24 +
STACK CFI 9541c .cfa: $rsp 16 +
STACK CFI 9541e .cfa: $rsp 8 +
STACK CFI 95420 .cfa: $rsp 48 +
STACK CFI INIT 955e0 11 .cfa: $rsp 8 + .ra: .cfa -8 + ^
STACK CFI INIT 95600 2dd .cfa: $rsp 8 + .ra: .cfa -8 + ^
STACK CFI 95602 $r13: .cfa -16 + ^ .cfa: $rsp 16 +
STACK CFI 95604 $r12: .cfa -24 + ^ .cfa: $rsp 24 +
STACK CFI 95605 $rbp: .cfa -32 + ^ .cfa: $rsp 32 +
STACK CFI 95606 $rbx: .cfa -40 + ^ .cfa: $rsp 40 +
STACK CFI 9560a .cfa: $rsp 48 +
STACK CFI 95750 .cfa: $rsp 40 +
STACK CFI 95751 .cfa: $rsp 32 +
STACK CFI 95752 .cfa: $rsp 24 +
STACK CFI 95754 .cfa: $rsp 16 +
STACK CFI 95756 .cfa: $rsp 8 +
STACK CFI 95760 .cfa: $rsp 48 +
STACK CFI INIT 958e0 11 .cfa: $rsp 8 + .ra: .cfa -8 + ^
STACK CFI INIT 95900 1e .cfa: $rsp 8 + .ra: .cfa -8 + ^
STACK CFI 95904 .cfa: $rsp 32 +
STACK CFI 9591d .cfa: $rsp 8 +
STACK CFI INIT 95920 c3 .cfa: $rsp 8 + .ra: .cfa -8 + ^
STACK CFI 95921 $rbp: .cfa -16 + ^ .cfa: $rsp 16 +
STACK CFI 9592a .cfa: $rsp 224 +
STACK CFI INIT 959f0 183c .cfa: $rsp 8 + .ra: .cfa -8 + ^
STACK CFI 959f2 $r15: .cfa -16 + ^ .cfa: $rsp 16 +
STACK CFI 959f8 $r14: .cfa -24 + ^ .cfa: $rsp 24 +
STACK CFI 959fa $r13: .cfa -32 + ^ .cfa: $rsp 32 +
STACK CFI 959fc $r12: .cfa -40 + ^ .cfa: $rsp 40 +
STACK CFI 95a00 $rbp: .cfa -48 + ^ .cfa: $rsp 48 +
STACK CFI 95a0a .cfa: $rsp 1072 +
STACK CFI 965e1 .cfa: $rsp 48 +
STACK CFI 965e4 .cfa: $rsp 40 +
STACK CFI 965e6 .cfa: $rsp 32 +
STACK CFI 965e8 .cfa: $rsp 24 +
STACK CFI 965ea .cfa: $rsp 16 +
STACK CFI 965ec .cfa: $rsp 8 +
STACK CFI 965ed .cfa: $rsp 1072 +
STACK CFI INIT 97230 ac2 .cfa: $rsp 8 + .ra: .cfa -8 + ^
STACK CFI 97232 $r15: .cfa -16 + ^ .cfa: $rsp 16 +
STACK CFI 9723f $r14: .cfa -24 + ^ .cfa: $rsp 24 +
STACK CFI 97241 $r13: .cfa -32 + ^ .cfa: $rsp 32 +
STACK CFI 97243 $r12: .cfa -40 + ^ .cfa: $rsp 40 +
STACK CFI 97244 $rbp: .cfa -48 + ^ .cfa: $rsp 48 +
STACK CFI 97248 $rbx: .cfa -56 + ^ .cfa: $rsp 56 +
STACK CFI 97254 .cfa: $rsp 1616 +
STACK CFI 9733a .cfa: $rsp 56 +
STACK CFI 9733e .cfa: $rsp 48 +
STACK CFI 9733f .cfa: $rsp 40 +
STACK CFI 97341 .cfa: $rsp 32 +
STACK CFI 97343 .cfa: $rsp 24 +
STACK CFI 97345 .cfa: $rsp 16 +
STACK CFI 97347 .cfa: $rsp 8 +
STACK CFI 97350 .cfa: $rsp 1616 +
STACK CFI INIT 97d00 81 .cfa: $rsp 8 + .ra: .cfa -8 + ^
STACK CFI 97d08 $rbp: .cfa -16 + ^ .cfa: $rsp 16 +
STACK CFI 97d11 $rbx: .cfa -24 + ^ .cfa: $rsp 24 +
STACK CFI 97d15 .cfa: $rsp 32 +
STACK CFI 97d49 .cfa: $rsp 24 +
STACK CFI 97d4f .cfa: $rsp 16 +
STACK CFI 97d50 .cfa: $rsp 8 +
STACK CFI 97d58 .cfa: $rsp 32 +
STACK CFI 97d73 .cfa: $rsp 24 +
STACK CFI 97d74 .cfa: $rsp 16 +
STACK CFI 97d75 .cfa: $rsp 8 +
STACK CFI 97d80 $rbp: $rbp $rbx: $rbx
STACK CFI INIT 97d90 1f .cfa: $rsp 8 + .ra: .cfa -8 + ^
STACK CFI INIT 97db0 1f .cfa: $rsp 8 + .ra: .cfa -8 + ^
STACK CFI INIT 97dd0 1f .cfa: $rsp 8 + .ra: .cfa -8 + ^
STACK CFI INIT 97df0 149 .cfa: $rsp 8 + .ra: .cfa -8 + ^
STACK CFI 97dfb $r13: .cfa -16 + ^ .cfa: $rsp 16 +
STACK CFI 97e00 $r12: .cfa -24 + ^ .cfa: $rsp 24 +
STACK CFI 97e04 $rbp: .cfa -32 + ^ .cfa: $rsp 32 +
STACK CFI 97e08 $rbx: .cfa -40 + ^ .cfa: $rsp 40 +
STACK CFI 97e0f .cfa: $rsp 48 +
STACK CFI 97e8b .cfa: $rsp 40 +
STACK CFI 97e8c .cfa: $rsp 32 +
STACK CFI 97e8d .cfa: $rsp 24 +
STACK CFI 97e8f .cfa: $rsp 16 +
STACK CFI 97e91 .cfa: $rsp 8 +
STACK CFI 97e98 .cfa: $rsp 48 +
STACK CFI 97f20 $r12: $r12 $r13: $r13 $rbp: $rbp $rbx: $rbx .cfa: $rsp 8 +
STACK CFI 97f23 $r12: .cfa -24 + ^ $r13: .cfa -16 + ^ $rbp: .cfa -32 + ^ $rbx: .cfa -40 + ^ .cfa: $rsp 48 +
STACK CFI INIT 97f40 24e .cfa: $rsp 8 + .ra: .cfa -8 + ^
STACK CFI 97f42 $r12: .cfa -16 + ^ .cfa: $rsp 16 +
STACK CFI 97f43 $rbp: .cfa -24 + ^ .cfa: $rsp 24 +
STACK CFI 97f44 $rbx: .cfa -32 + ^ .cfa: $rsp 32 +
STACK CFI 97f4b .cfa: $rsp 160 +
STACK CFI 980de .cfa: $rsp 32 +
STACK CFI 980e2 .cfa: $rsp 24 +
STACK CFI 980e3 .cfa: $rsp 16 +
STACK CFI 980e5 .cfa: $rsp 8 +
STACK CFI 980f0 .cfa: $rsp 160 +
STACK CFI 98105 .cfa: $rsp 32 +
STACK CFI 9810c .cfa: $rsp 24 +
STACK CFI 9810d .cfa: $rsp 16 +
STACK CFI 9810f .cfa: $rsp 8 +
STACK CFI 98110 .cfa: $rsp 160 +
STACK CFI INIT 98190 fef .cfa: $rsp 8 + .ra: .cfa -8 + ^
STACK CFI 98192 $r15: .cfa -16 + ^ .cfa: $rsp 16 +
STACK CFI 98194 $r14: .cfa -24 + ^ .cfa: $rsp 24 +
STACK CFI 98196 $r13: .cfa -32 + ^ .cfa: $rsp 32 +
STACK CFI 98198 $r12: .cfa -40 + ^ .cfa: $rsp 40 +
STACK CFI 98199 $rbp: .cfa -48 + ^ .cfa: $rsp 48 +
STACK CFI 9819a $rbx: .cfa -56 + ^ .cfa: $rsp 56 +
STACK CFI 981a1 .cfa: $rsp 256 +
STACK CFI 981ca .cfa: $rsp 56 +
STACK CFI 981ce .cfa: $rsp 48 +
STACK CFI 981cf .cfa: $rsp 40 +
STACK CFI 981d1 .cfa: $rsp 32 +
STACK CFI 981d3 .cfa: $rsp 24 +
STACK CFI 981d5 .cfa: $rsp 16 +
STACK CFI 981d7 .cfa: $rsp 8 +
STACK CFI 981e0 .cfa: $rsp 256 +
STACK CFI INIT 99180 17f .cfa: $rsp 8 + .ra: .cfa -8 + ^
STACK CFI 9919f $r12: .cfa -16 + ^ .cfa: $rsp 16 +
STACK CFI 991a0 $rbp: .cfa -24 + ^ .cfa: $rsp 24 +
STACK CFI 991a8 $rbx: .cfa -32 + ^ .cfa: $rsp 32 +
STACK CFI 99277 $rbx: $rbx .cfa: $rsp 24 +
STACK CFI 9927d $rbp: $rbp .cfa: $rsp 16 +
STACK CFI 99281 $r12: $r12 .cfa: $rsp 8 +
STACK CFI 99288 $r12: .cfa -16 + ^ $rbp: .cfa -24 + ^ $rbx: .cfa -32 + ^ .cfa: $rsp 32 +
STACK CFI 992a1 .cfa: $rsp 24 +
STACK CFI 992a2 .cfa: $rsp 16 +
STACK CFI 992a4 .cfa: $rsp 8 +
STACK CFI 992a8 .cfa: $rsp 32 +
STACK CFI INIT 99300 e2 .cfa: $rsp 8 + .ra: .cfa -8 + ^
STACK CFI 99302 $r12: .cfa -16 + ^ .cfa: $rsp 16 +
STACK CFI 99308 $rbp: .cfa -24 + ^ .cfa: $rsp 24 +
STACK CFI 99309 $rbx: .cfa -32 + ^ .cfa: $rsp 32 +
STACK CFI 99318 .cfa: $rsp 24 +
STACK CFI 99319 .cfa: $rsp 16 +
STACK CFI 9931b .cfa: $rsp 8 +
STACK CFI 99320 .cfa: $rsp 32 +
STACK CFI INIT 993f0 6b .cfa: $rsp 8 + .ra: .cfa -8 + ^
STACK CFI 993f1 $rbx: .cfa -16 + ^ .cfa: $rsp 16 +
STACK CFI 9945a .cfa: $rsp 8 +
STACK CFI INIT 99460 342 .cfa: $rsp 8 + .ra: .cfa -8 + ^
STACK CFI 99462 $r15: .cfa -16 + ^ .cfa: $rsp 16 +
STACK CFI 9946f $r14: .cfa -24 + ^ .cfa: $rsp 24 +
STACK CFI 99471 $r13: .cfa -32 + ^ .cfa: $rsp 32 +
STACK CFI 99473 $r12: .cfa -40 + ^ .cfa: $rsp 40 +
STACK CFI 99474 $rbp: .cfa -48 + ^ .cfa: $rsp 48 +
STACK CFI 99478 $rbx: .cfa -56 + ^ .cfa: $rsp 56 +
STACK CFI 99482 .cfa: $rsp 1120 +
STACK CFI 996a3 .cfa: $rsp 56 +
STACK CFI 996a7 .cfa: $rsp 48 +
STACK CFI 996a8 .cfa: $rsp 40 +
STACK CFI 996aa .cfa: $rsp 32 +
STACK CFI 996ac .cfa: $rsp 24 +
STACK CFI 996ae .cfa: $rsp 16 +
STACK CFI 996b0 .cfa: $rsp 8 +
STACK CFI 996b8 .cfa: $rsp 1120 +
STACK CFI INIT 997b0 47e .cfa: $rsp 8 + .ra: .cfa -8 + ^
STACK CFI 997b2 $r15: .cfa -16 + ^ .cfa: $rsp 16 +
STACK CFI 997ba $r14: .cfa -24 + ^ .cfa: $rsp 24 +
STACK CFI 997bc $r13: .cfa -32 + ^ .cfa: $rsp 32 +
STACK CFI 997be $r12: .cfa -40 + ^ .cfa: $rsp 40 +
STACK CFI 997bf $rbp: .cfa -48 + ^ .cfa: $rsp 48 +
STACK CFI 997c0 $rbx: .cfa -56 + ^ .cfa: $rsp 56 +
STACK CFI 997ca .cfa: $rsp 1168 +
STACK CFI 99ab9 .cfa: $rsp 56 +
STACK CFI 99abd .cfa: $rsp 48 +
STACK CFI 99abe .cfa: $rsp 40 +
STACK CFI 99ac0 .cfa: $rsp 32 +
STACK CFI 99ac2 .cfa: $rsp 24 +
STACK CFI 99ac4 .cfa: $rsp 16 +
STACK CFI 99ac6 .cfa: $rsp 8 +
STACK CFI 99ad0 .cfa: $rsp 1168 +
STACK CFI INIT 99c30 38 .cfa: $rsp 8 + .ra: .cfa -8 + ^
STACK CFI 99c34 .cfa: $rsp 48 +
STACK CFI 99c67 .cfa: $rsp 8 +
STACK CFI INIT 99c70 41 .cfa: $rsp 8 + .ra: .cfa -8 + ^
STACK CFI 99c74 .cfa: $rsp 16 +
STACK CFI 99cb0 .cfa: $rsp 8 +
STACK CFI INIT 99cc0 224 .cfa: $rsp 8 + .ra: .cfa -8 + ^
STACK CFI 99cc1 $rbp: .cfa -16 + ^ .cfa: $rsp 16 +
STACK CFI 99cc5 $rbx: .cfa -24 + ^ .cfa: $rsp 24 +
STACK CFI 99cc9 .cfa: $rsp 32 +
STACK CFI 99d0f .cfa: $rsp 24 +
STACK CFI 99d10 .cfa: $rsp 16 +
STACK CFI 99d11 .cfa: $rsp 8 +
STACK CFI 99d18 .cfa: $rsp 32 +
STACK CFI 99d3c .cfa: $rsp 24 +
STACK CFI 99d3f .cfa: $rsp 16 +
STACK CFI 99d40 .cfa: $rsp 8 +
STACK CFI 99d50 .cfa: $rsp 32 +
STACK CFI 99e82 .cfa: $rsp 24 +
STACK CFI 99e85 .cfa: $rsp 16 +
STACK CFI 99e86 .cfa: $rsp 8 +
STACK CFI 99e90 .cfa: $rsp 32 +
STACK CFI 99e9c .cfa: $rsp 24 +
STACK CFI 99e9d .cfa: $rsp 16 +
STACK CFI 99e9e .cfa: $rsp 8 +
STACK CFI 99e9f .cfa: $rsp 32 +
STACK CFI 99eb1 .cfa: $rsp 24 +
STACK CFI 99eb7 .cfa: $rsp 16 +
STACK CFI 99eb8 .cfa: $rsp 8 +
STACK CFI 99ec0 .cfa: $rsp 32 +
STACK CFI INIT 99ef0 3b3 .cfa: $rsp 8 + .ra: .cfa -8 + ^
STACK CFI 99ef2 $r15: .cfa -16 + ^ .cfa: $rsp 16 +
STACK CFI 99ef9 $r14: .cfa -24 + ^ .cfa: $rsp 24 +
STACK CFI 99efb $r13: .cfa -32 + ^ .cfa: $rsp 32 +
STACK CFI 99efd $r12: .cfa -40 + ^ .cfa: $rsp 40 +
STACK CFI 99efe $rbp: .cfa -48 + ^ .cfa: $rsp 48 +
STACK CFI 99eff $rbx: .cfa -56 + ^ .cfa: $rsp 56 +
STACK CFI 99f03 .cfa: $rsp 80 +
STACK CFI 9a20c .cfa: $rsp 56 +
STACK CFI 9a20f .cfa: $rsp 48 +
STACK CFI 9a210 .cfa: $rsp 40 +
STACK CFI 9a212 .cfa: $rsp 32 +
STACK CFI 9a214 .cfa: $rsp 24 +
STACK CFI 9a216 .cfa: $rsp 16 +
STACK CFI 9a218 .cfa: $rsp 8 +
STACK CFI 9a220 .cfa: $rsp 80 +
STACK CFI 9a224 .cfa: $rsp 56 +
STACK CFI 9a225 .cfa: $rsp 48 +
STACK CFI 9a226 .cfa: $rsp 40 +
STACK CFI 9a228 .cfa: $rsp 32 +
STACK CFI 9a22a .cfa: $rsp 24 +
STACK CFI 9a22c .cfa: $rsp 16 +
STACK CFI 9a22e .cfa: $rsp 8 +
STACK CFI 9a230 .cfa: $rsp 80 +
STACK CFI INIT 9a2b0 adb .cfa: $rsp 8 + .ra: .cfa -8 + ^
STACK CFI 9a2b2 $r15: .cfa -16 + ^ .cfa: $rsp 16 +
STACK CFI 9a2b4 $r14: .cfa -24 + ^ .cfa: $rsp 24 +
STACK CFI 9a2b6 $r13: .cfa -32 + ^ .cfa: $rsp 32 +
STACK CFI 9a2b8 $r12: .cfa -40 + ^ .cfa: $rsp 40 +
STACK CFI 9a2b9 $rbp: .cfa -48 + ^ .cfa: $rsp 48 +
STACK CFI 9a2ba $rbx: .cfa -56 + ^ .cfa: $rsp 56 +
STACK CFI 9a2c4 .cfa: $rsp 224 +
STACK CFI 9a6d7 .cfa: $rsp 232 +
STACK CFI 9a6dc .cfa: $rsp 240 +
STACK CFI 9a6de .cfa: $rsp 248 +
STACK CFI 9a6e3 .cfa: $rsp 256 +
STACK CFI 9a705 .cfa: $rsp 224 +
STACK CFI 9a72d .cfa: $rsp 56 +
STACK CFI 9a72e .cfa: $rsp 48 +
STACK CFI 9a72f .cfa: $rsp 40 +
STACK CFI 9a731 .cfa: $rsp 32 +
STACK CFI 9a733 .cfa: $rsp 24 +
STACK CFI 9a735 .cfa: $rsp 16 +
STACK CFI 9a737 .cfa: $rsp 8 +
STACK CFI 9a740 .cfa: $rsp 224 +
STACK CFI 9a8a6 .cfa: $rsp 232 +
STACK CFI 9a8ae .cfa: $rsp 240 +
STACK CFI 9a8b0 .cfa: $rsp 248 +
STACK CFI 9a8b5 .cfa: $rsp 256 +
STACK CFI 9a8c0 .cfa: $rsp 224 +
STACK CFI 9a914 .cfa: $rsp 232 +
STACK CFI 9a91c .cfa: $rsp 240 +
STACK CFI 9a936 .cfa: $rsp 232 +
STACK CFI 9a938 .cfa: $rsp 224 +
STACK CFI 9aa48 .cfa: $rsp 232 +
STACK CFI 9aa50 .cfa: $rsp 240 +
STACK CFI 9aa69 .cfa: $rsp 232 +
STACK CFI 9aa6b .cfa: $rsp 224 +
STACK CFI INIT 9ad90 11e .cfa: $rsp 8 + .ra: .cfa -8 + ^
STACK CFI 9ad99 .cfa: $rsp 16 +
STACK CFI 9aead .cfa: $rsp 8 +
STACK CFI INIT 9aeb0 b .cfa: $rsp 8 + .ra: .cfa -8 + ^
STACK CFI INIT 9aec0 37b .cfa: $rsp 8 + .ra: .cfa -8 + ^
STACK CFI 9aec2 $r14: .cfa -16 + ^ .cfa: $rsp 16 +
STACK CFI 9aec7 $r13: .cfa -24 + ^ .cfa: $rsp 24 +
STACK CFI 9aecc $r12: .cfa -32 + ^ .cfa: $rsp 32 +
STACK CFI 9aed0 $rbp: .cfa -40 + ^ .cfa: $rsp 40 +
STACK CFI 9aed1 $rbx: .cfa -48 + ^ .cfa: $rsp 48 +
STACK CFI 9b0b0 .cfa: $rsp 40 +
STACK CFI 9b0b4 .cfa: $rsp 32 +
STACK CFI 9b0b6 .cfa: $rsp 24 +
STACK CFI 9b0b8 .cfa: $rsp 16 +
STACK CFI 9b0ba .cfa: $rsp 8 +
STACK CFI 9b0c0 .cfa: $rsp 48 +
STACK CFI 9b1c3 .cfa: $rsp 40 +
STACK CFI 9b1c7 .cfa: $rsp 32 +
STACK CFI 9b1c9 .cfa: $rsp 24 +
STACK CFI 9b1cb .cfa: $rsp 16 +
STACK CFI 9b1cd .cfa: $rsp 8 +
STACK CFI 9b1d2 .cfa: $rsp 48 +
STACK CFI INIT 9b240 101 .cfa: $rsp 8 + .ra: .cfa -8 + ^
STACK CFI 9b24a $r15: .cfa -16 + ^ .cfa: $rsp 16 +
STACK CFI 9b24f $r14: .cfa -24 + ^ .cfa: $rsp 24 +
STACK CFI 9b254 $r13: .cfa -32 + ^ .cfa: $rsp 32 +
STACK CFI 9b259 $r12: .cfa -40 + ^ .cfa: $rsp 40 +
STACK CFI 9b25d $rbp: .cfa -48 + ^ .cfa: $rsp 48 +
STACK CFI 9b265 $rbx: .cfa -56 + ^ .cfa: $rsp 56 +
STACK CFI 9b269 .cfa: $rsp 64 +
STACK CFI 9b2e0 .cfa: $rsp 56 +
STACK CFI 9b2e1 .cfa: $rsp 48 +
STACK CFI 9b2e2 .cfa: $rsp 40 +
STACK CFI 9b2e4 .cfa: $rsp 32 +
STACK CFI 9b2e6 .cfa: $rsp 24 +
STACK CFI 9b2e8 .cfa: $rsp 16 +
STACK CFI 9b2ea .cfa: $rsp 8 +
STACK CFI 9b2f0 .cfa: $rsp 64 +
STACK CFI 9b310 .cfa: $rsp 56 +
STACK CFI 9b311 .cfa: $rsp 48 +
STACK CFI 9b312 .cfa: $rsp 40 +
STACK CFI 9b314 .cfa: $rsp 32 +
STACK CFI 9b316 .cfa: $rsp 24 +
STACK CFI 9b318 .cfa: $rsp 16 +
STACK CFI 9b31a .cfa: $rsp 8 +
STACK CFI 9b320 .cfa: $rsp 64 +
STACK CFI INIT 9b350 9c .cfa: $rsp 8 + .ra: .cfa -8 + ^
STACK CFI 9b351 $rbx: .cfa -16 + ^ .cfa: $rsp 16 +
STACK CFI 9b399 .cfa: $rsp 8 +
STACK CFI 9b3a0 .cfa: $rsp 16 +
STACK CFI INIT 9b3f0 e .cfa: $rsp 8 + .ra: .cfa -8 + ^
STACK CFI INIT 9b400 b .cfa: $rsp 8 + .ra: .cfa -8 + ^
STACK CFI INIT 9b410 7 .cfa: $rsp 8 + .ra: .cfa -8 + ^
STACK CFI INIT 9b420 147 .cfa: $rsp 8 + .ra: .cfa -8 + ^
STACK CFI 9b422 $r14: .cfa -16 + ^ .cfa: $rsp 16 +
STACK CFI 9b427 $r13: .cfa -24 + ^ .cfa: $rsp 24 +
STACK CFI 9b42d $r12: .cfa -32 + ^ .cfa: $rsp 32 +
STACK CFI 9b431 $rbp: .cfa -40 + ^ .cfa: $rsp 40 +
STACK CFI 9b432 $rbx: .cfa -48 + ^ .cfa: $rsp 48 +
STACK CFI 9b475 .cfa: $rsp 40 +
STACK CFI 9b476 .cfa: $rsp 32 +
STACK CFI 9b478 .cfa: $rsp 24 +
STACK CFI 9b47a .cfa: $rsp 16 +
STACK CFI 9b47c .cfa: $rsp 8 +
STACK CFI 9b480 .cfa: $rsp 48 +
STACK CFI 9b4a6 .cfa: $rsp 40 +
STACK CFI 9b4a7 .cfa: $rsp 32 +
STACK CFI 9b4a9 .cfa: $rsp 24 +
STACK CFI 9b4ab .cfa: $rsp 16 +
STACK CFI 9b4ad .cfa: $rsp 8 +
STACK CFI 9b4b0 .cfa: $rsp 48 +
STACK CFI 9b51c .cfa: $rsp 40 +
STACK CFI 9b51d .cfa: $rsp 32 +
STACK CFI 9b51f .cfa: $rsp 24 +
STACK CFI 9b521 .cfa: $rsp 16 +
STACK CFI 9b523 .cfa: $rsp 8 +
STACK CFI 9b530 .cfa: $rsp 48 +
STACK CFI 9b537 .cfa: $rsp 40 +
STACK CFI 9b538 .cfa: $rsp 32 +
STACK CFI 9b53a .cfa: $rsp 24 +
STACK CFI 9b53c .cfa: $rsp 16 +
STACK CFI 9b53e .cfa: $rsp 8 +
STACK CFI 9b548 .cfa: $rsp 48 +
STACK CFI INIT 9b570 178 .cfa: $rsp 8 + .ra: .cfa -8 + ^
STACK CFI 9b572 $r15: .cfa -16 + ^ .cfa: $rsp 16 +
STACK CFI 9b574 $r14: .cfa -24 + ^ .cfa: $rsp 24 +
STACK CFI 9b576 $r13: .cfa -32 + ^ .cfa: $rsp 32 +
STACK CFI 9b578 $r12: .cfa -40 + ^ .cfa: $rsp 40 +
STACK CFI 9b57c $rbp: .cfa -48 + ^ .cfa: $rsp 48 +
STACK CFI 9b580 $rbx: .cfa -56 + ^ .cfa: $rsp 56 +
STACK CFI 9b587 .cfa: $rsp 80 +
STACK CFI 9b67b .cfa: $rsp 56 +
STACK CFI 9b67c .cfa: $rsp 48 +
STACK CFI 9b67d .cfa: $rsp 40 +
STACK CFI 9b67f .cfa: $rsp 32 +
STACK CFI 9b681 .cfa: $rsp 24 +
STACK CFI 9b683 .cfa: $rsp 16 +
STACK CFI 9b685 .cfa: $rsp 8 +
STACK CFI 9b690 .cfa: $rsp 80 +
STACK CFI INIT 9b6f0 13e .cfa: $rsp 8 + .ra: .cfa -8 + ^
STACK CFI 9b6f2 $r15: .cfa -16 + ^ .cfa: $rsp 16 +
STACK CFI 9b6f4 $r14: .cfa -24 + ^ .cfa: $rsp 24 +
STACK CFI 9b6f9 $r13: .cfa -32 + ^ .cfa: $rsp 32 +
STACK CFI 9b6fe $r12: .cfa -40 + ^ .cfa: $rsp 40 +
STACK CFI 9b6ff $rbp: .cfa -48 + ^ .cfa: $rsp 48 +
STACK CFI 9b702 $rbx: .cfa -56 + ^ .cfa: $rsp 56 +
STACK CFI 9b708 .cfa: $rsp 64 +
STACK CFI 9b7c2 .cfa: $rsp 56 +
STACK CFI 9b7c3 .cfa: $rsp 48 +
STACK CFI 9b7c4 .cfa: $rsp 40 +
STACK CFI 9b7c6 .cfa: $rsp 32 +
STACK CFI 9b7c8 .cfa: $rsp 24 +
STACK CFI 9b7ca .cfa: $rsp 16 +
STACK CFI 9b7cc .cfa: $rsp 8 +
STACK CFI 9b7d8 .cfa: $rsp 64 +
STACK CFI 9b823 .cfa: $rsp 56 +
STACK CFI 9b824 .cfa: $rsp 48 +
STACK CFI 9b825 .cfa: $rsp 40 +
STACK CFI 9b827 .cfa: $rsp 32 +
STACK CFI 9b829 .cfa: $rsp 24 +
STACK CFI 9b82b .cfa: $rsp 16 +
STACK CFI 9b82d .cfa: $rsp 8 +
STACK CFI INIT 9b830 a .cfa: $rsp 8 + .ra: .cfa -8 + ^
STACK CFI INIT 9b840 132 .cfa: $rsp 8 + .ra: .cfa -8 + ^
STACK CFI 9b842 $r14: .cfa -16 + ^ .cfa: $rsp 16 +
STACK CFI 9b847 $r13: .cfa -24 + ^ .cfa: $rsp 24 +
STACK CFI 9b84c $r12: .cfa -32 + ^ .cfa: $rsp 32 +
STACK CFI 9b84d $rbp: .cfa -40 + ^ .cfa: $rsp 40 +
STACK CFI 9b84e $rbx: .cfa -48 + ^ .cfa: $rsp 48 +
STACK CFI 9b8f1 .cfa: $rsp 40 +
STACK CFI 9b8f2 .cfa: $rsp 32 +
STACK CFI 9b8f4 .cfa: $rsp 24 +
STACK CFI 9b8f6 .cfa: $rsp 16 +
STACK CFI 9b8f8 .cfa: $rsp 8 +
STACK CFI 9b900 .cfa: $rsp 48 +
STACK CFI 9b929 .cfa: $rsp 40 +
STACK CFI 9b92a .cfa: $rsp 32 +
STACK CFI 9b92c .cfa: $rsp 24 +
STACK CFI 9b92e .cfa: $rsp 16 +
STACK CFI 9b930 .cfa: $rsp 8 +
STACK CFI 9b938 .cfa: $rsp 48 +
STACK CFI INIT 9b980 15f .cfa: $rsp 8 + .ra: .cfa -8 + ^
STACK CFI 9b982 $r15: .cfa -16 + ^ .cfa: $rsp 16 +
STACK CFI 9b987 $r14: .cfa -24 + ^ .cfa: $rsp 24 +
STACK CFI 9b98c $r13: .cfa -32 + ^ .cfa: $rsp 32 +
STACK CFI 9b991 $r12: .cfa -40 + ^ .cfa: $rsp 40 +
STACK CFI 9b992 $rbp: .cfa -48 + ^ .cfa: $rsp 48 +
STACK CFI 9b993 $rbx: .cfa -56 + ^ .cfa: $rsp 56 +
STACK CFI 9b999 .cfa: $rsp 64 +
STACK CFI 9ba6c .cfa: $rsp 56 +
STACK CFI 9ba6d .cfa: $rsp 48 +
STACK CFI 9ba6e .cfa: $rsp 40 +
STACK CFI 9ba70 .cfa: $rsp 32 +
STACK CFI 9ba72 .cfa: $rsp 24 +
STACK CFI 9ba74 .cfa: $rsp 16 +
STACK CFI 9ba76 .cfa: $rsp 8 +
STACK CFI 9ba80 .cfa: $rsp 64 +
STACK CFI 9bad4 .cfa: $rsp 56 +
STACK CFI 9bad5 .cfa: $rsp 48 +
STACK CFI 9bad6 .cfa: $rsp 40 +
STACK CFI 9bad8 .cfa: $rsp 32 +
STACK CFI 9bada .cfa: $rsp 24 +
STACK CFI 9badc .cfa: $rsp 16 +
STACK CFI 9bade .cfa: $rsp 8 +
STACK CFI INIT 9bae0 86 .cfa: $rsp 8 + .ra: .cfa -8 + ^
STACK CFI 9bae2 $r13: .cfa -16 + ^ .cfa: $rsp 16 +
STACK CFI 9bae7 $r12: .cfa -24 + ^ .cfa: $rsp 24 +
STACK CFI 9baeb $rbp: .cfa -32 + ^ .cfa: $rsp 32 +
STACK CFI 9baf2 $rbx: .cfa -40 + ^ .cfa: $rsp 40 +
STACK CFI 9baf9 .cfa: $rsp 48 +
STACK CFI 9bb23 .cfa: $rsp 40 +
STACK CFI 9bb26 .cfa: $rsp 32 +
STACK CFI 9bb27 .cfa: $rsp 24 +
STACK CFI 9bb29 .cfa: $rsp 16 +
STACK CFI 9bb2b .cfa: $rsp 8 +
STACK CFI 9bb30 .cfa: $rsp 48 +
STACK CFI 9bb3a .cfa: $rsp 40 +
STACK CFI 9bb40 .cfa: $rsp 32 +
STACK CFI 9bb41 .cfa: $rsp 24 +
STACK CFI 9bb43 .cfa: $rsp 16 +
STACK CFI 9bb45 .cfa: $rsp 8 +
STACK CFI 9bb50 .cfa: $rsp 48 +
STACK CFI 9bb5a .cfa: $rsp 40 +
STACK CFI 9bb60 .cfa: $rsp 32 +
STACK CFI 9bb61 .cfa: $rsp 24 +
STACK CFI 9bb63 .cfa: $rsp 16 +
STACK CFI 9bb65 .cfa: $rsp 8 +
STACK CFI INIT 9bb70 60 .cfa: $rsp 8 + .ra: .cfa -8 + ^
STACK CFI 9bb72 $r12: .cfa -16 + ^ .cfa: $rsp 16 +
STACK CFI 9bb76 $rbp: .cfa -24 + ^ .cfa: $rsp 24 +
STACK CFI 9bb7a $rbx: .cfa -32 + ^ .cfa: $rsp 32 +
STACK CFI 9bba3 .cfa: $rsp 24 +
STACK CFI 9bba4 .cfa: $rsp 16 +
STACK CFI 9bba6 .cfa: $rsp 8 +
STACK CFI 9bbb0 .cfa: $rsp 32 +
STACK CFI 9bbbc .cfa: $rsp 24 +
STACK CFI 9bbbd .cfa: $rsp 16 +
STACK CFI 9bbbf .cfa: $rsp 8 +
STACK CFI 9bbc0 .cfa: $rsp 32 +
STACK CFI 9bbcc .cfa: $rsp 24 +
STACK CFI 9bbcd .cfa: $rsp 16 +
STACK CFI 9bbcf .cfa: $rsp 8 +
STACK CFI INIT 9bbd0 47 .cfa: $rsp 8 + .ra: .cfa -8 + ^
STACK CFI 9bbde $rbx: .cfa -16 + ^ .cfa: $rsp 16 +
STACK CFI 9bc09 $rbx: $rbx .cfa: $rsp 8 +
STACK CFI INIT 9bc20 154 .cfa: $rsp 8 + .ra: .cfa -8 + ^
STACK CFI 9bc21 $rbp: .cfa -16 + ^ .cfa: $rsp 16 +
STACK CFI 9bc25 $rbx: .cfa -24 + ^ .cfa: $rsp 24 +
STACK CFI 9bc2c .cfa: $rsp 32 +
STACK CFI 9bd01 .cfa: $rsp 24 +
STACK CFI 9bd02 .cfa: $rsp 16 +
STACK CFI 9bd03 .cfa: $rsp 8 +
STACK CFI 9bd08 .cfa: $rsp 32 +
STACK CFI 9bd13 .cfa: $rsp 24 +
STACK CFI 9bd14 .cfa: $rsp 16 +
STACK CFI 9bd15 .cfa: $rsp 8 +
STACK CFI 9bd20 .cfa: $rsp 32 +
STACK CFI 9bd53 .cfa: $rsp 24 +
STACK CFI 9bd54 .cfa: $rsp 16 +
STACK CFI 9bd55 .cfa: $rsp 8 +
STACK CFI 9bd60 .cfa: $rsp 32 +
STACK CFI INIT 9f4f0 37a .cfa: $rsp 8 + .ra: .cfa -8 + ^
STACK CFI 9f4f2 $r15: .cfa -16 + ^ .cfa: $rsp 16 +
STACK CFI 9f4f7 $r14: .cfa -24 + ^ .cfa: $rsp 24 +
STACK CFI 9f4f9 $r13: .cfa -32 + ^ .cfa: $rsp 32 +
STACK CFI 9f4fb $r12: .cfa -40 + ^ .cfa: $rsp 40 +
STACK CFI 9f4fc $rbp: .cfa -48 + ^ .cfa: $rsp 48 +
STACK CFI 9f500 $rbx: .cfa -56 + ^ .cfa: $rsp 56 +
STACK CFI 9f504 .cfa: $rsp 64 +
STACK CFI 9f57e .cfa: $rsp 56 +
STACK CFI 9f57f .cfa: $rsp 48 +
STACK CFI 9f580 .cfa: $rsp 40 +
STACK CFI 9f582 .cfa: $rsp 32 +
STACK CFI 9f584 .cfa: $rsp 24 +
STACK CFI 9f586 .cfa: $rsp 16 +
STACK CFI 9f588 .cfa: $rsp 8 +
STACK CFI 9f590 .cfa: $rsp 64 +
STACK CFI INIT 9f870 4d0 .cfa: $rsp 8 + .ra: .cfa -8 + ^
STACK CFI 9f872 $r15: .cfa -16 + ^ .cfa: $rsp 16 +
STACK CFI 9f874 $r14: .cfa -24 + ^ .cfa: $rsp 24 +
STACK CFI 9f876 $r13: .cfa -32 + ^ .cfa: $rsp 32 +
STACK CFI 9f878 $r12: .cfa -40 + ^ .cfa: $rsp 40 +
STACK CFI 9f87c $rbp: .cfa -48 + ^ .cfa: $rsp 48 +
STACK CFI 9f880 $rbx: .cfa -56 + ^ .cfa: $rsp 56 +
STACK CFI 9f884 .cfa: $rsp 64 +
STACK CFI 9f904 .cfa: $rsp 56 +
STACK CFI 9f908 .cfa: $rsp 48 +
STACK CFI 9f909 .cfa: $rsp 40 +
STACK CFI 9f90b .cfa: $rsp 32 +
STACK CFI 9f90d .cfa: $rsp 24 +
STACK CFI 9f90f .cfa: $rsp 16 +
STACK CFI 9f911 .cfa: $rsp 8 +
STACK CFI 9f918 .cfa: $rsp 64 +
STACK CFI INIT 9fd40 f65 .cfa: $rsp 8 + .ra: .cfa -8 + ^
STACK CFI 9fd42 $r15: .cfa -16 + ^ .cfa: $rsp 16 +
STACK CFI 9fd44 $r14: .cfa -24 + ^ .cfa: $rsp 24 +
STACK CFI 9fd46 $r13: .cfa -32 + ^ .cfa: $rsp 32 +
STACK CFI 9fd48 $r12: .cfa -40 + ^ .cfa: $rsp 40 +
STACK CFI 9fd4c $rbp: .cfa -48 + ^ .cfa: $rsp 48 +
STACK CFI 9fd4d $rbx: .cfa -56 + ^ .cfa: $rsp 56 +
STACK CFI 9fd54 .cfa: $rsp 192 +
STACK CFI 9fe20 .cfa: $rsp 56 +
STACK CFI 9fe21 .cfa: $rsp 48 +
STACK CFI 9fe22 .cfa: $rsp 40 +
STACK CFI 9fe24 .cfa: $rsp 32 +
STACK CFI 9fe26 .cfa: $rsp 24 +
STACK CFI 9fe28 .cfa: $rsp 16 +
STACK CFI 9fe2a .cfa: $rsp 8 +
STACK CFI 9fe30 .cfa: $rsp 192 +
STACK CFI INIT a0cb0 c65 .cfa: $rsp 8 + .ra: .cfa -8 + ^
STACK CFI a0cb2 $r12: .cfa -16 + ^ .cfa: $rsp 16 +
STACK CFI a0cb6 $rbp: .cfa -24 + ^ .cfa: $rsp 24 +
STACK CFI a0cbe $rbx: .cfa -32 + ^ .cfa: $rsp 32 +
STACK CFI a0d7e .cfa: $rsp 24 +
STACK CFI a0d7f .cfa: $rsp 16 +
STACK CFI a0d81 .cfa: $rsp 8 +
STACK CFI a0d88 .cfa: $rsp 32 +
STACK CFI INIT 9bd80 34 .cfa: $rsp 8 + .ra: .cfa -8 + ^
STACK CFI 9bd94 .cfa: $rsp 16 +
STACK CFI 9bdb3 .cfa: $rsp 8 +
STACK CFI INIT 9bdc0 52a .cfa: $rsp 8 + .ra: .cfa -8 + ^
STACK CFI 9bdc1 $rbp: .cfa -16 + ^ .cfa: $rsp 16 +
STACK CFI 9bdc4 .cfa: $rbp 16 +
STACK CFI 9bdcd $r12: .cfa -48 + ^ $r13: .cfa -40 + ^ $r14: .cfa -32 + ^ $r15: .cfa -24 + ^ $rbx: .cfa -56 + ^
STACK CFI 9bea8 .cfa: $rsp 8 +
STACK CFI 9beb0 .cfa: $rbp 16 +
STACK CFI INIT 1cde5 10 $r12: .cfa -48 + ^ $r13: .cfa -40 + ^ $r14: .cfa -32 + ^ $r15: .cfa -24 + ^ $rbp: .cfa -16 + ^ $rbx: .cfa -56 + ^ .cfa: $rbp 16 + .ra: .cfa -8 + ^
STACK CFI INIT 9c2f0 b6a .cfa: $rsp 8 + .ra: .cfa -8 + ^
STACK CFI 9c2f1 $rbp: .cfa -16 + ^ .cfa: $rsp 16 +
STACK CFI 9c2f4 .cfa: $rbp 16 +
STACK CFI 9c2fd $r12: .cfa -48 + ^ $r13: .cfa -40 + ^ $r14: .cfa -32 + ^ $r15: .cfa -24 + ^ $rbx: .cfa -56 + ^
STACK CFI 9c33e .cfa: $rsp 8 +
STACK CFI 9c340 .cfa: $rbp 16 +
STACK CFI INIT 1cdf5 10 $r12: .cfa -48 + ^ $r13: .cfa -40 + ^ $r14: .cfa -32 + ^ $r15: .cfa -24 + ^ $rbp: .cfa -16 + ^ $rbx: .cfa -56 + ^ .cfa: $rbp 16 + .ra: .cfa -8 + ^
STACK CFI INIT 9ce60 295 .cfa: $rsp 8 + .ra: .cfa -8 + ^
STACK CFI 9ce61 $rbp: .cfa -16 + ^ .cfa: $rsp 16 +
STACK CFI 9ce64 .cfa: $rbp 16 +
STACK CFI 9ce6d $r12: .cfa -48 + ^ $r13: .cfa -40 + ^ $r14: .cfa -32 + ^ $r15: .cfa -24 + ^ $rbx: .cfa -56 + ^
STACK CFI 9ce90 .cfa: $rsp 8 +
STACK CFI 9ce98 .cfa: $rbp 16 +
STACK CFI INIT 1ce05 10 $r12: .cfa -48 + ^ $r13: .cfa -40 + ^ $r14: .cfa -32 + ^ $r15: .cfa -24 + ^ $rbp: .cfa -16 + ^ $rbx: .cfa -56 + ^ .cfa: $rbp 16 + .ra: .cfa -8 + ^
STACK CFI INIT 9d100 2f8 .cfa: $rsp 8 + .ra: .cfa -8 + ^
STACK CFI 9d102 $r13: .cfa -16 + ^ .cfa: $rsp 16 +
STACK CFI 9d104 $r12: .cfa -24 + ^ .cfa: $rsp 24 +
STACK CFI 9d105 $rbp: .cfa -32 + ^ .cfa: $rsp 32 +
STACK CFI 9d106 $rbx: .cfa -40 + ^ .cfa: $rsp 40 +
STACK CFI 9d10c .cfa: $rsp 48 +
STACK CFI 9d11c .cfa: $rsp 40 +
STACK CFI 9d120 .cfa: $rsp 32 +
STACK CFI 9d121 .cfa: $rsp 24 +
STACK CFI 9d123 .cfa: $rsp 16 +
STACK CFI 9d125 .cfa: $rsp 8 +
STACK CFI 9d130 .cfa: $rsp 48 +
STACK CFI INIT 9d400 1ab .cfa: $rsp 8 + .ra: .cfa -8 + ^
STACK CFI 9d402 $r12: .cfa -16 + ^ .cfa: $rsp 16 +
STACK CFI 9d403 $rbp: .cfa -24 + ^ .cfa: $rsp 24 +
STACK CFI 9d404 $rbx: .cfa -32 + ^ .cfa: $rsp 32 +
STACK CFI 9d410 .cfa: $rsp 24 +
STACK CFI 9d411 .cfa: $rsp 16 +
STACK CFI 9d413 .cfa: $rsp 8 +
STACK CFI 9d418 .cfa: $rsp 32 +
STACK CFI 9d46b .cfa: $rsp 24 +
STACK CFI 9d46c .cfa: $rsp 16 +
STACK CFI 9d46e .cfa: $rsp 8 +
STACK CFI 9d470 .cfa: $rsp 32 +
STACK CFI INIT 9d5b0 1ab .cfa: $rsp 8 + .ra: .cfa -8 + ^
STACK CFI 9d5b2 $r12: .cfa -16 + ^ .cfa: $rsp 16 +
STACK CFI 9d5b3 $rbp: .cfa -24 + ^ .cfa: $rsp 24 +
STACK CFI 9d5b4 $rbx: .cfa -32 + ^ .cfa: $rsp 32 +
STACK CFI 9d5c0 .cfa: $rsp 24 +
STACK CFI 9d5c1 .cfa: $rsp 16 +
STACK CFI 9d5c3 .cfa: $rsp 8 +
STACK CFI 9d5c8 .cfa: $rsp 32 +
STACK CFI 9d61b .cfa: $rsp 24 +
STACK CFI 9d61c .cfa: $rsp 16 +
STACK CFI 9d61e .cfa: $rsp 8 +
STACK CFI 9d620 .cfa: $rsp 32 +
STACK CFI INIT a1920 11b .cfa: $rsp 8 + .ra: .cfa -8 + ^
STACK CFI a1922 $r15: .cfa -16 + ^ .cfa: $rsp 16 +
STACK CFI a1924 $r14: .cfa -24 + ^ .cfa: $rsp 24 +
STACK CFI a192a $r13: .cfa -32 + ^ .cfa: $rsp 32 +
STACK CFI a192f $r12: .cfa -40 + ^ .cfa: $rsp 40 +
STACK CFI a1930 $rbp: .cfa -48 + ^ .cfa: $rsp 48 +
STACK CFI a1931 $rbx: .cfa -56 + ^ .cfa: $rsp 56 +
STACK CFI a1938 .cfa: $rsp 64 +
STACK CFI a19bb .cfa: $rsp 56 +
STACK CFI a19bf .cfa: $rsp 48 +
STACK CFI a19c5 .cfa: $rsp 40 +
STACK CFI a19c7 .cfa: $rsp 32 +
STACK CFI a19c9 .cfa: $rsp 24 +
STACK CFI a19cb .cfa: $rsp 16 +
STACK CFI a19cd .cfa: $rsp 8 +
STACK CFI a19d0 .cfa: $rsp 64 +
STACK CFI a19eb .cfa: $rsp 56 +
STACK CFI a19f1 .cfa: $rsp 48 +
STACK CFI a19f2 .cfa: $rsp 40 +
STACK CFI a19f4 .cfa: $rsp 32 +
STACK CFI a19f6 .cfa: $rsp 24 +
STACK CFI a19f8 .cfa: $rsp 16 +
STACK CFI a19fa .cfa: $rsp 8 +
STACK CFI a1a00 .cfa: $rsp 64 +
STACK CFI INIT 9d760 4e3 .cfa: $rsp 8 + .ra: .cfa -8 + ^
STACK CFI 9d761 $rbp: .cfa -16 + ^ .cfa: $rsp 16 +
STACK CFI 9d764 .cfa: $rbp 16 +
STACK CFI 9d76d $r12: .cfa -48 + ^ $r13: .cfa -40 + ^ $r14: .cfa -32 + ^ $r15: .cfa -24 + ^ $rbx: .cfa -56 + ^
STACK CFI 9d78e .cfa: $rsp 8 +
STACK CFI 9d790 .cfa: $rbp 16 +
STACK CFI 9d843 .cfa: $rsp 8 +
STACK CFI 9d848 .cfa: $rbp 16 +
STACK CFI 9d88a .cfa: $rsp 8 +
STACK CFI 9d890 .cfa: $rbp 16 +
STACK CFI INIT 1ce15 10 $r12: .cfa -48 + ^ $r13: .cfa -40 + ^ $r14: .cfa -32 + ^ $r15: .cfa -24 + ^ $rbp: .cfa -16 + ^ $rbx: .cfa -56 + ^ .cfa: $rbp 16 + .ra: .cfa -8 + ^
STACK CFI INIT a1a40 11b .cfa: $rsp 8 + .ra: .cfa -8 + ^
STACK CFI a1a42 $r15: .cfa -16 + ^ .cfa: $rsp 16 +
STACK CFI a1a44 $r14: .cfa -24 + ^ .cfa: $rsp 24 +
STACK CFI a1a4a $r13: .cfa -32 + ^ .cfa: $rsp 32 +
STACK CFI a1a4f $r12: .cfa -40 + ^ .cfa: $rsp 40 +
STACK CFI a1a50 $rbp: .cfa -48 + ^ .cfa: $rsp 48 +
STACK CFI a1a51 $rbx: .cfa -56 + ^ .cfa: $rsp 56 +
STACK CFI a1a58 .cfa: $rsp 64 +
STACK CFI a1adb .cfa: $rsp 56 +
STACK CFI a1adf .cfa: $rsp 48 +
STACK CFI a1ae5 .cfa: $rsp 40 +
STACK CFI a1ae7 .cfa: $rsp 32 +
STACK CFI a1ae9 .cfa: $rsp 24 +
STACK CFI a1aeb .cfa: $rsp 16 +
STACK CFI a1aed .cfa: $rsp 8 +
STACK CFI a1af0 .cfa: $rsp 64 +
STACK CFI a1b0b .cfa: $rsp 56 +
STACK CFI a1b11 .cfa: $rsp 48 +
STACK CFI a1b12 .cfa: $rsp 40 +
STACK CFI a1b14 .cfa: $rsp 32 +
STACK CFI a1b16 .cfa: $rsp 24 +
STACK CFI a1b18 .cfa: $rsp 16 +
STACK CFI a1b1a .cfa: $rsp 8 +
STACK CFI a1b20 .cfa: $rsp 64 +
STACK CFI INIT 9dc50 10c .cfa: $rsp 8 + .ra: .cfa -8 + ^
STACK CFI 9dc52 $r12: .cfa -16 + ^ .cfa: $rsp 16 +
STACK CFI 9dc53 $rbp: .cfa -24 + ^ .cfa: $rsp 24 +
STACK CFI 9dc54 $rbx: .cfa -32 + ^ .cfa: $rsp 32 +
STACK CFI 9dc5b .cfa: $rsp 48 +
STACK CFI 9dc68 .cfa: $rsp 32 +
STACK CFI 9dc69 .cfa: $rsp 24 +
STACK CFI 9dc6a .cfa: $rsp 16 +
STACK CFI 9dc6c .cfa: $rsp 8 +
STACK CFI 9dc70 .cfa: $rsp 48 +
STACK CFI 9dca0 .cfa: $rsp 32 +
STACK CFI 9dca1 .cfa: $rsp 24 +
STACK CFI 9dca2 .cfa: $rsp 16 +
STACK CFI 9dca4 .cfa: $rsp 8 +
STACK CFI 9dca8 .cfa: $rsp 48 +
STACK CFI 9dcd6 .cfa: $rsp 32 +
STACK CFI 9dcd7 .cfa: $rsp 24 +
STACK CFI 9dcd8 .cfa: $rsp 16 +
STACK CFI 9dcda .cfa: $rsp 8 +
STACK CFI 9dce0 .cfa: $rsp 48 +
STACK CFI INIT 9dd60 560 .cfa: $rsp 8 + .ra: .cfa -8 + ^
STACK CFI 9dd61 $rbp: .cfa -16 + ^ .cfa: $rsp 16 +
STACK CFI 9dd64 .cfa: $rbp 16 +
STACK CFI 9dd68 $r14: .cfa -32 + ^ $r15: .cfa -24 + ^
STACK CFI 9dd70 $r12: .cfa -48 + ^ $r13: .cfa -40 + ^ $rbx: .cfa -56 + ^
STACK CFI 9dd91 .cfa: $rsp 8 +
STACK CFI 9dd98 .cfa: $rbp 16 +
STACK CFI 9deb9 .cfa: $rsp 8 +
STACK CFI 9dec0 .cfa: $rbp 16 +
STACK CFI 9defc .cfa: $rsp 8 +
STACK CFI 9df00 .cfa: $rbp 16 +
STACK CFI INIT 1ce25 10 $r12: .cfa -48 + ^ $r13: .cfa -40 + ^ $r14: .cfa -32 + ^ $r15: .cfa -24 + ^ $rbp: .cfa -16 + ^ $rbx: .cfa -56 + ^ .cfa: $rbp 16 + .ra: .cfa -8 + ^
STACK CFI INIT a1b60 39 .cfa: $rsp 8 + .ra: .cfa -8 + ^
STACK CFI a1b66 $rbp: .cfa -16 + ^ .cfa: $rsp 16 +
STACK CFI a1b6a $rbx: .cfa -24 + ^ .cfa: $rsp 24 +
STACK CFI a1b71 .cfa: $rsp 32 +
STACK CFI a1b92 .cfa: $rsp 24 +
STACK CFI a1b93 .cfa: $rsp 16 +
STACK CFI a1b94 .cfa: $rsp 8 +
STACK CFI a1b98 $rbp: $rbp $rbx: $rbx
STACK CFI INIT a1ba0 180 .cfa: $rsp 8 + .ra: .cfa -8 + ^
STACK CFI a1ba2 $r15: .cfa -16 + ^ .cfa: $rsp 16 +
STACK CFI a1ba4 $r14: .cfa -24 + ^ .cfa: $rsp 24 +
STACK CFI a1ba6 $r13: .cfa -32 + ^ .cfa: $rsp 32 +
STACK CFI a1bac $r12: .cfa -40 + ^ .cfa: $rsp 40 +
STACK CFI a1bad $rbp: .cfa -48 + ^ .cfa: $rsp 48 +
STACK CFI a1bb1 $rbx: .cfa -56 + ^ .cfa: $rsp 56 +
STACK CFI a1bb5 .cfa: $rsp 64 +
STACK CFI a1c0a .cfa: $rsp 56 +
STACK CFI a1c0e .cfa: $rsp 48 +
STACK CFI a1c0f .cfa: $rsp 40 +
STACK CFI a1c11 .cfa: $rsp 32 +
STACK CFI a1c13 .cfa: $rsp 24 +
STACK CFI a1c15 .cfa: $rsp 16 +
STACK CFI a1c17 .cfa: $rsp 8 +
STACK CFI a1c20 .cfa: $rsp 64 +
STACK CFI INIT 9e2c0 5b4 .cfa: $rsp 8 + .ra: .cfa -8 + ^
STACK CFI 9e2c1 $rbp: .cfa -16 + ^ .cfa: $rsp 16 +
STACK CFI 9e2c4 .cfa: $rbp 16 +
STACK CFI 9e2d4 $r12: .cfa -48 + ^ $r13: .cfa -40 + ^ $r14: .cfa -32 + ^ $r15: .cfa -24 + ^ $rbx: .cfa -56 + ^
STACK CFI 9e2f2 .cfa: $rsp 8 +
STACK CFI 9e2f8 .cfa: $rbp 16 +
STACK CFI 9e3de .cfa: $rsp 8 +
STACK CFI 9e3e0 .cfa: $rbp 16 +
STACK CFI INIT 1ce35 10 $r12: .cfa -48 + ^ $r13: .cfa -40 + ^ $r14: .cfa -32 + ^ $r15: .cfa -24 + ^ $rbp: .cfa -16 + ^ $rbx: .cfa -56 + ^ .cfa: $rbp 16 + .ra: .cfa -8 + ^
STACK CFI INIT a1d20 39 .cfa: $rsp 8 + .ra: .cfa -8 + ^
STACK CFI a1d26 $rbp: .cfa -16 + ^ .cfa: $rsp 16 +
STACK CFI a1d2a $rbx: .cfa -24 + ^ .cfa: $rsp 24 +
STACK CFI a1d31 .cfa: $rsp 32 +
STACK CFI a1d52 .cfa: $rsp 24 +
STACK CFI a1d53 .cfa: $rsp 16 +
STACK CFI a1d54 .cfa: $rsp 8 +
STACK CFI a1d58 $rbp: $rbp $rbx: $rbx
STACK CFI INIT a1d60 5c .cfa: $rsp 8 + .ra: .cfa -8 + ^
STACK CFI a1d62 $r12: .cfa -16 + ^ .cfa: $rsp 16 +
STACK CFI a1d63 $rbp: .cfa -24 + ^ .cfa: $rsp 24 +
STACK CFI a1d67 $rbx: .cfa -32 + ^ .cfa: $rsp 32 +
STACK CFI a1db8 .cfa: $rsp 24 +
STACK CFI a1db9 .cfa: $rsp 16 +
STACK CFI a1dbb .cfa: $rsp 8 +
STACK CFI INIT 9e880 5a4 .cfa: $rsp 8 + .ra: .cfa -8 + ^
STACK CFI 9e881 $rbp: .cfa -16 + ^ .cfa: $rsp 16 +
STACK CFI 9e884 .cfa: $rbp 16 +
STACK CFI 9e894 $r12: .cfa -48 + ^ $r13: .cfa -40 + ^ $r14: .cfa -32 + ^ $r15: .cfa -24 + ^ $rbx: .cfa -56 + ^
STACK CFI 9e8bc .cfa: $rsp 8 +
STACK CFI 9e8c0 .cfa: $rbp 16 +
STACK CFI 9e9f0 .cfa: $rsp 8 +
STACK CFI 9e9f8 .cfa: $rbp 16 +
STACK CFI 9eab6 .cfa: $rsp 8 +
STACK CFI 9eac0 .cfa: $rbp 16 +
STACK CFI INIT 1ce45 10 $r12: .cfa -48 + ^ $r13: .cfa -40 + ^ $r14: .cfa -32 + ^ $r15: .cfa -24 + ^ $rbp: .cfa -16 + ^ $rbx: .cfa -56 + ^ .cfa: $rbp 16 + .ra: .cfa -8 + ^
STACK CFI INIT a1dc0 180 .cfa: $rsp 8 + .ra: .cfa -8 + ^
STACK CFI a1dc2 $r15: .cfa -16 + ^ .cfa: $rsp 16 +
STACK CFI a1dc4 $r14: .cfa -24 + ^ .cfa: $rsp 24 +
STACK CFI a1dc6 $r13: .cfa -32 + ^ .cfa: $rsp 32 +
STACK CFI a1dcc $r12: .cfa -40 + ^ .cfa: $rsp 40 +
STACK CFI a1dcd $rbp: .cfa -48 + ^ .cfa: $rsp 48 +
STACK CFI a1dd1 $rbx: .cfa -56 + ^ .cfa: $rsp 56 +
STACK CFI a1dd5 .cfa: $rsp 64 +
STACK CFI a1e2a .cfa: $rsp 56 +
STACK CFI a1e2e .cfa: $rsp 48 +
STACK CFI a1e2f .cfa: $rsp 40 +
STACK CFI a1e31 .cfa: $rsp 32 +
STACK CFI a1e33 .cfa: $rsp 24 +
STACK CFI a1e35 .cfa: $rsp 16 +
STACK CFI a1e37 .cfa: $rsp 8 +
STACK CFI a1e40 .cfa: $rsp 64 +
STACK CFI INIT 9ee30 13d .cfa: $rsp 8 + .ra: .cfa -8 + ^
STACK CFI 9ee32 $r12: .cfa -16 + ^ .cfa: $rsp 16 +
STACK CFI 9ee33 $rbp: .cfa -24 + ^ .cfa: $rsp 24 +
STACK CFI 9ee34 $rbx: .cfa -32 + ^ .cfa: $rsp 32 +
STACK CFI 9ee3b .cfa: $rsp 48 +
STACK CFI 9ee48 .cfa: $rsp 32 +
STACK CFI 9ee49 .cfa: $rsp 24 +
STACK CFI 9ee4a .cfa: $rsp 16 +
STACK CFI 9ee4c .cfa: $rsp 8 +
STACK CFI 9ee50 .cfa: $rsp 48 +
STACK CFI 9eece .cfa: $rsp 32 +
STACK CFI 9eecf .cfa: $rsp 24 +
STACK CFI 9eed0 .cfa: $rsp 16 +
STACK CFI 9eed2 .cfa: $rsp 8 +
STACK CFI 9eed8 .cfa: $rsp 48 +
STACK CFI INIT 9ef70 578 .cfa: $rsp 8 + .ra: .cfa -8 + ^
STACK CFI 9ef71 $rbp: .cfa -16 + ^ .cfa: $rsp 16 +
STACK CFI 9ef74 .cfa: $rbp 16 +
STACK CFI 9ef76 $r15: .cfa -24 + ^
STACK CFI 9ef7f $r12: .cfa -48 + ^ $r13: .cfa -40 + ^ $r14: .cfa -32 + ^
STACK CFI 9ef8a $rbx: .cfa -56 + ^
STACK CFI 9efa1 .cfa: $rsp 8 +
STACK CFI 9efa8 .cfa: $rbp 16 +
STACK CFI 9f0a0 .cfa: $rsp 8 +
STACK CFI 9f0a8 .cfa: $rbp 16 +
STACK CFI INIT 1ce55 10 $r12: .cfa -48 + ^ $r13: .cfa -40 + ^ $r14: .cfa -32 + ^ $r15: .cfa -24 + ^ $rbp: .cfa -16 + ^ $rbx: .cfa -56 + ^ .cfa: $rbp 16 + .ra: .cfa -8 + ^
STACK CFI INIT a1f40 17 .cfa: $rsp 8 + .ra: .cfa -8 + ^
STACK CFI INIT a1f60 17 .cfa: $rsp 8 + .ra: .cfa -8 + ^
STACK CFI INIT a1f80 17 .cfa: $rsp 8 + .ra: .cfa -8 + ^
STACK CFI INIT a1fa0 17 .cfa: $rsp 8 + .ra: .cfa -8 + ^
STACK CFI INIT a1fc0 17 .cfa: $rsp 8 + .ra: .cfa -8 + ^
STACK CFI INIT a1fe0 17 .cfa: $rsp 8 + .ra: .cfa -8 + ^
STACK CFI INIT a2000 17 .cfa: $rsp 8 + .ra: .cfa -8 + ^
STACK CFI INIT a2020 17 .cfa: $rsp 8 + .ra: .cfa -8 + ^
STACK CFI INIT a2040 17 .cfa: $rsp 8 + .ra: .cfa -8 + ^
STACK CFI INIT a2060 17 .cfa: $rsp 8 + .ra: .cfa -8 + ^
STACK CFI INIT a2080 17 .cfa: $rsp 8 + .ra: .cfa -8 + ^
STACK CFI INIT a20a0 17 .cfa: $rsp 8 + .ra: .cfa -8 + ^
STACK CFI INIT a20c0 ce2 .cfa: $rsp 8 + .ra: .cfa -8 + ^
STACK CFI a20c2 $r15: .cfa -16 + ^ .cfa: $rsp 16 +
STACK CFI a20c4 $r14: .cfa -24 + ^ .cfa: $rsp 24 +
STACK CFI a20c6 $r13: .cfa -32 + ^ .cfa: $rsp 32 +
STACK CFI a20c8 $r12: .cfa -40 + ^ .cfa: $rsp 40 +
STACK CFI a20c9 $rbp: .cfa -48 + ^ .cfa: $rsp 48 +
STACK CFI a20ca $rbx: .cfa -56 + ^ .cfa: $rsp 56 +
STACK CFI a20da .cfa: $rsp 352 +
STACK CFI a275e .cfa: $rsp 56 +
STACK CFI a275f .cfa: $rsp 48 +
STACK CFI a2760 .cfa: $rsp 40 +
STACK CFI a2762 .cfa: $rsp 32 +
STACK CFI a2764 .cfa: $rsp 24 +
STACK CFI a2766 .cfa: $rsp 16 +
STACK CFI a2768 .cfa: $rsp 8 +
STACK CFI a2770 .cfa: $rsp 352 +
STACK CFI INIT a2db0 4d .cfa: $rsp 8 + .ra: .cfa -8 + ^
STACK CFI a2db2 $r14: .cfa -16 + ^ .cfa: $rsp 16 +
STACK CFI a2db7 $r13: .cfa -24 + ^ .cfa: $rsp 24 +
STACK CFI a2dbc $r12: .cfa -32 + ^ .cfa: $rsp 32 +
STACK CFI a2dc0 $rbp: .cfa -40 + ^ .cfa: $rsp 40 +
STACK CFI a2dc7 .cfa: $rsp 48 +
STACK CFI a2df4 .cfa: $rsp 40 +
STACK CFI a2df5 .cfa: $rsp 32 +
STACK CFI a2df7 .cfa: $rsp 24 +
STACK CFI a2df9 .cfa: $rsp 16 +
STACK CFI a2dfb .cfa: $rsp 8 +
STACK CFI INIT a2e00 27 .cfa: $rsp 8 + .ra: .cfa -8 + ^
STACK CFI a2e08 $rbp: .cfa -16 + ^ .cfa: $rsp 16 +
STACK CFI a2e22 .cfa: $rsp 8 +
STACK CFI INIT a2e30 27 .cfa: $rsp 8 + .ra: .cfa -8 + ^
STACK CFI a2e38 $rbp: .cfa -16 + ^ .cfa: $rsp 16 +
STACK CFI a2e52 .cfa: $rsp 8 +
STACK CFI INIT a2e60 39 .cfa: $rsp 8 + .ra: .cfa -8 + ^
STACK CFI a2e62 $r12: .cfa -16 + ^ .cfa: $rsp 16 +
STACK CFI a2e66 $rbp: .cfa -24 + ^ .cfa: $rsp 24 +
STACK CFI a2e6d .cfa: $rsp 32 +
STACK CFI a2e94 .cfa: $rsp 24 +
STACK CFI a2e95 .cfa: $rsp 16 +
STACK CFI a2e97 .cfa: $rsp 8 +
STACK CFI INIT a2ea0 39 .cfa: $rsp 8 + .ra: .cfa -8 + ^
STACK CFI a2ea2 $r12: .cfa -16 + ^ .cfa: $rsp 16 +
STACK CFI a2ea6 $rbp: .cfa -24 + ^ .cfa: $rsp 24 +
STACK CFI a2ead .cfa: $rsp 32 +
STACK CFI a2ed4 .cfa: $rsp 24 +
STACK CFI a2ed5 .cfa: $rsp 16 +
STACK CFI a2ed7 .cfa: $rsp 8 +
STACK CFI INIT a2ee0 39 .cfa: $rsp 8 + .ra: .cfa -8 + ^
STACK CFI a2ee2 $r12: .cfa -16 + ^ .cfa: $rsp 16 +
STACK CFI a2ee6 $rbp: .cfa -24 + ^ .cfa: $rsp 24 +
STACK CFI a2eed .cfa: $rsp 32 +
STACK CFI a2f14 .cfa: $rsp 24 +
STACK CFI a2f15 .cfa: $rsp 16 +
STACK CFI a2f17 .cfa: $rsp 8 +
STACK CFI INIT a2f20 39 .cfa: $rsp 8 + .ra: .cfa -8 + ^
STACK CFI a2f22 $r12: .cfa -16 + ^ .cfa: $rsp 16 +
STACK CFI a2f26 $rbp: .cfa -24 + ^ .cfa: $rsp 24 +
STACK CFI a2f2d .cfa: $rsp 32 +
STACK CFI a2f54 .cfa: $rsp 24 +
STACK CFI a2f55 .cfa: $rsp 16 +
STACK CFI a2f57 .cfa: $rsp 8 +
STACK CFI INIT a2f60 3b .cfa: $rsp 8 + .ra: .cfa -8 + ^
STACK CFI a2f69 $r13: .cfa -16 + ^ .cfa: $rsp 16 +
STACK CFI a2f6e $r12: .cfa -24 + ^ .cfa: $rsp 24 +
STACK CFI a2f72 $rbp: .cfa -32 + ^ .cfa: $rsp 32 +
STACK CFI a2f92 .cfa: $rsp 24 +
STACK CFI a2f94 .cfa: $rsp 16 +
STACK CFI a2f99 .cfa: $rsp 8 +
STACK CFI INIT a2fa0 3b .cfa: $rsp 8 + .ra: .cfa -8 + ^
STACK CFI a2fa9 $r13: .cfa -16 + ^ .cfa: $rsp 16 +
STACK CFI a2fae $r12: .cfa -24 + ^ .cfa: $rsp 24 +
STACK CFI a2fb2 $rbp: .cfa -32 + ^ .cfa: $rsp 32 +
STACK CFI a2fd2 .cfa: $rsp 24 +
STACK CFI a2fd4 .cfa: $rsp 16 +
STACK CFI a2fd9 .cfa: $rsp 8 +
STACK CFI INIT a2fe0 3b .cfa: $rsp 8 + .ra: .cfa -8 + ^
STACK CFI a2fe9 $r13: .cfa -16 + ^ .cfa: $rsp 16 +
STACK CFI a2fee $r12: .cfa -24 + ^ .cfa: $rsp 24 +
STACK CFI a2ff2 $rbp: .cfa -32 + ^ .cfa: $rsp 32 +
STACK CFI a3012 .cfa: $rsp 24 +
STACK CFI a3014 .cfa: $rsp 16 +
STACK CFI a3019 .cfa: $rsp 8 +
STACK CFI INIT a3020 3b .cfa: $rsp 8 + .ra: .cfa -8 + ^
STACK CFI a3029 $r13: .cfa -16 + ^ .cfa: $rsp 16 +
STACK CFI a302e $r12: .cfa -24 + ^ .cfa: $rsp 24 +
STACK CFI a3032 $rbp: .cfa -32 + ^ .cfa: $rsp 32 +
STACK CFI a3052 .cfa: $rsp 24 +
STACK CFI a3054 .cfa: $rsp 16 +
STACK CFI a3059 .cfa: $rsp 8 +
STACK CFI INIT a3060 3b .cfa: $rsp 8 + .ra: .cfa -8 + ^
STACK CFI a3069 $r13: .cfa -16 + ^ .cfa: $rsp 16 +
STACK CFI a306e $r12: .cfa -24 + ^ .cfa: $rsp 24 +
STACK CFI a3072 $rbp: .cfa -32 + ^ .cfa: $rsp 32 +
STACK CFI a3092 .cfa: $rsp 24 +
STACK CFI a3094 .cfa: $rsp 16 +
STACK CFI a3099 .cfa: $rsp 8 +
STACK CFI INIT a30a0 3b .cfa: $rsp 8 + .ra: .cfa -8 + ^
STACK CFI a30a9 $r13: .cfa -16 + ^ .cfa: $rsp 16 +
STACK CFI a30ae $r12: .cfa -24 + ^ .cfa: $rsp 24 +
STACK CFI a30b2 $rbp: .cfa -32 + ^ .cfa: $rsp 32 +
STACK CFI a30d2 .cfa: $rsp 24 +
STACK CFI a30d4 .cfa: $rsp 16 +
STACK CFI a30d9 .cfa: $rsp 8 +
STACK CFI INIT a30e0 3b .cfa: $rsp 8 + .ra: .cfa -8 + ^
STACK CFI a30e9 $r13: .cfa -16 + ^ .cfa: $rsp 16 +
STACK CFI a30ee $r12: .cfa -24 + ^ .cfa: $rsp 24 +
STACK CFI a30f2 $rbp: .cfa -32 + ^ .cfa: $rsp 32 +
STACK CFI a3112 .cfa: $rsp 24 +
STACK CFI a3114 .cfa: $rsp 16 +
STACK CFI a3119 .cfa: $rsp 8 +
STACK CFI INIT a3120 3b .cfa: $rsp 8 + .ra: .cfa -8 + ^
STACK CFI a3129 $r13: .cfa -16 + ^ .cfa: $rsp 16 +
STACK CFI a312e $r12: .cfa -24 + ^ .cfa: $rsp 24 +
STACK CFI a3132 $rbp: .cfa -32 + ^ .cfa: $rsp 32 +
STACK CFI a3152 .cfa: $rsp 24 +
STACK CFI a3154 .cfa: $rsp 16 +
STACK CFI a3159 .cfa: $rsp 8 +
STACK CFI INIT a3160 3b .cfa: $rsp 8 + .ra: .cfa -8 + ^
STACK CFI a3169 $r13: .cfa -16 + ^ .cfa: $rsp 16 +
STACK CFI a316e $r12: .cfa -24 + ^ .cfa: $rsp 24 +
STACK CFI a3172 $rbp: .cfa -32 + ^ .cfa: $rsp 32 +
STACK CFI a3192 .cfa: $rsp 24 +
STACK CFI a3194 .cfa: $rsp 16 +
STACK CFI a3199 .cfa: $rsp 8 +
STACK CFI INIT a31a0 3b .cfa: $rsp 8 + .ra: .cfa -8 + ^
STACK CFI a31a9 $r13: .cfa -16 + ^ .cfa: $rsp 16 +
STACK CFI a31ae $r12: .cfa -24 + ^ .cfa: $rsp 24 +
STACK CFI a31b2 $rbp: .cfa -32 + ^ .cfa: $rsp 32 +
STACK CFI a31d2 .cfa: $rsp 24 +
STACK CFI a31d4 .cfa: $rsp 16 +
STACK CFI a31d9 .cfa: $rsp 8 +
STACK CFI INIT a31e0 3b .cfa: $rsp 8 + .ra: .cfa -8 + ^
STACK CFI a31e9 $r13: .cfa -16 + ^ .cfa: $rsp 16 +
STACK CFI a31ee $r12: .cfa -24 + ^ .cfa: $rsp 24 +
STACK CFI a31f2 $rbp: .cfa -32 + ^ .cfa: $rsp 32 +
STACK CFI a3212 .cfa: $rsp 24 +
STACK CFI a3214 .cfa: $rsp 16 +
STACK CFI a3219 .cfa: $rsp 8 +
STACK CFI INIT a3220 3b .cfa: $rsp 8 + .ra: .cfa -8 + ^
STACK CFI a3229 $r13: .cfa -16 + ^ .cfa: $rsp 16 +
STACK CFI a322e $r12: .cfa -24 + ^ .cfa: $rsp 24 +
STACK CFI a3232 $rbp: .cfa -32 + ^ .cfa: $rsp 32 +
STACK CFI a3252 .cfa: $rsp 24 +
STACK CFI a3254 .cfa: $rsp 16 +
STACK CFI a3259 .cfa: $rsp 8 +
STACK CFI INIT a3260 3b .cfa: $rsp 8 + .ra: .cfa -8 + ^
STACK CFI a3269 $r13: .cfa -16 + ^ .cfa: $rsp 16 +
STACK CFI a326e $r12: .cfa -24 + ^ .cfa: $rsp 24 +
STACK CFI a3272 $rbp: .cfa -32 + ^ .cfa: $rsp 32 +
STACK CFI a3292 .cfa: $rsp 24 +
STACK CFI a3294 .cfa: $rsp 16 +
STACK CFI a3299 .cfa: $rsp 8 +
STACK CFI INIT a32a0 3b .cfa: $rsp 8 + .ra: .cfa -8 + ^
STACK CFI a32a9 $r13: .cfa -16 + ^ .cfa: $rsp 16 +
STACK CFI a32ae $r12: .cfa -24 + ^ .cfa: $rsp 24 +
STACK CFI a32b2 $rbp: .cfa -32 + ^ .cfa: $rsp 32 +
STACK CFI a32d2 .cfa: $rsp 24 +
STACK CFI a32d4 .cfa: $rsp 16 +
STACK CFI a32d9 .cfa: $rsp 8 +
STACK CFI INIT a32e0 3b .cfa: $rsp 8 + .ra: .cfa -8 + ^
STACK CFI a32e9 $r13: .cfa -16 + ^ .cfa: $rsp 16 +
STACK CFI a32ee $r12: .cfa -24 + ^ .cfa: $rsp 24 +
STACK CFI a32f2 $rbp: .cfa -32 + ^ .cfa: $rsp 32 +
STACK CFI a3312 .cfa: $rsp 24 +
STACK CFI a3314 .cfa: $rsp 16 +
STACK CFI a3319 .cfa: $rsp 8 +
STACK CFI INIT a3320 3b .cfa: $rsp 8 + .ra: .cfa -8 + ^
STACK CFI a3329 $r13: .cfa -16 + ^ .cfa: $rsp 16 +
STACK CFI a332e $r12: .cfa -24 + ^ .cfa: $rsp 24 +
STACK CFI a3332 $rbp: .cfa -32 + ^ .cfa: $rsp 32 +
STACK CFI a3352 .cfa: $rsp 24 +
STACK CFI a3354 .cfa: $rsp 16 +
STACK CFI a3359 .cfa: $rsp 8 +
STACK CFI INIT a3360 3b .cfa: $rsp 8 + .ra: .cfa -8 + ^
STACK CFI a3369 $r13: .cfa -16 + ^ .cfa: $rsp 16 +
STACK CFI a336e $r12: .cfa -24 + ^ .cfa: $rsp 24 +
STACK CFI a3372 $rbp: .cfa -32 + ^ .cfa: $rsp 32 +
STACK CFI a3392 .cfa: $rsp 24 +
STACK CFI a3394 .cfa: $rsp 16 +
STACK CFI a3399 .cfa: $rsp 8 +
STACK CFI INIT a33a0 3b .cfa: $rsp 8 + .ra: .cfa -8 + ^
STACK CFI a33a9 $r13: .cfa -16 + ^ .cfa: $rsp 16 +
STACK CFI a33ae $r12: .cfa -24 + ^ .cfa: $rsp 24 +
STACK CFI a33b2 $rbp: .cfa -32 + ^ .cfa: $rsp 32 +
STACK CFI a33d2 .cfa: $rsp 24 +
STACK CFI a33d4 .cfa: $rsp 16 +
STACK CFI a33d9 .cfa: $rsp 8 +
STACK CFI INIT a33e0 3b .cfa: $rsp 8 + .ra: .cfa -8 + ^
STACK CFI a33e9 $r13: .cfa -16 + ^ .cfa: $rsp 16 +
STACK CFI a33ee $r12: .cfa -24 + ^ .cfa: $rsp 24 +
STACK CFI a33f2 $rbp: .cfa -32 + ^ .cfa: $rsp 32 +
STACK CFI a3412 .cfa: $rsp 24 +
STACK CFI a3414 .cfa: $rsp 16 +
STACK CFI a3419 .cfa: $rsp 8 +
STACK CFI INIT a3420 3b .cfa: $rsp 8 + .ra: .cfa -8 + ^
STACK CFI a3429 $r13: .cfa -16 + ^ .cfa: $rsp 16 +
STACK CFI a342e $r12: .cfa -24 + ^ .cfa: $rsp 24 +
STACK CFI a3432 $rbp: .cfa -32 + ^ .cfa: $rsp 32 +
STACK CFI a3452 .cfa: $rsp 24 +
STACK CFI a3454 .cfa: $rsp 16 +
STACK CFI a3459 .cfa: $rsp 8 +
STACK CFI INIT a3460 3b .cfa: $rsp 8 + .ra: .cfa -8 + ^
STACK CFI a3469 $r13: .cfa -16 + ^ .cfa: $rsp 16 +
STACK CFI a346e $r12: .cfa -24 + ^ .cfa: $rsp 24 +
STACK CFI a3472 $rbp: .cfa -32 + ^ .cfa: $rsp 32 +
STACK CFI a3492 .cfa: $rsp 24 +
STACK CFI a3494 .cfa: $rsp 16 +
STACK CFI a3499 .cfa: $rsp 8 +
STACK CFI INIT a34a0 3b .cfa: $rsp 8 + .ra: .cfa -8 + ^
STACK CFI a34a9 $r13: .cfa -16 + ^ .cfa: $rsp 16 +
STACK CFI a34ae $r12: .cfa -24 + ^ .cfa: $rsp 24 +
STACK CFI a34b2 $rbp: .cfa -32 + ^ .cfa: $rsp 32 +
STACK CFI a34d2 .cfa: $rsp 24 +
STACK CFI a34d4 .cfa: $rsp 16 +
STACK CFI a34d9 .cfa: $rsp 8 +
STACK CFI INIT a34e0 3b .cfa: $rsp 8 + .ra: .cfa -8 + ^
STACK CFI a34e9 $r13: .cfa -16 + ^ .cfa: $rsp 16 +
STACK CFI a34ee $r12: .cfa -24 + ^ .cfa: $rsp 24 +
STACK CFI a34f2 $rbp: .cfa -32 + ^ .cfa: $rsp 32 +
STACK CFI a3512 .cfa: $rsp 24 +
STACK CFI a3514 .cfa: $rsp 16 +
STACK CFI a3519 .cfa: $rsp 8 +
STACK CFI INIT a3520 3b .cfa: $rsp 8 + .ra: .cfa -8 + ^
STACK CFI a3529 $r13: .cfa -16 + ^ .cfa: $rsp 16 +
STACK CFI a352e $r12: .cfa -24 + ^ .cfa: $rsp 24 +
STACK CFI a3532 $rbp: .cfa -32 + ^ .cfa: $rsp 32 +
STACK CFI a3552 .cfa: $rsp 24 +
STACK CFI a3554 .cfa: $rsp 16 +
STACK CFI a3559 .cfa: $rsp 8 +
STACK CFI INIT a3560 3b .cfa: $rsp 8 + .ra: .cfa -8 + ^
STACK CFI a3569 $r13: .cfa -16 + ^ .cfa: $rsp 16 +
STACK CFI a356e $r12: .cfa -24 + ^ .cfa: $rsp 24 +
STACK CFI a3572 $rbp: .cfa -32 + ^ .cfa: $rsp 32 +
STACK CFI a3592 .cfa: $rsp 24 +
STACK CFI a3594 .cfa: $rsp 16 +
STACK CFI a3599 .cfa: $rsp 8 +
STACK CFI INIT a35a0 3b .cfa: $rsp 8 + .ra: .cfa -8 + ^
STACK CFI a35a9 $r13: .cfa -16 + ^ .cfa: $rsp 16 +
STACK CFI a35ae $r12: .cfa -24 + ^ .cfa: $rsp 24 +
STACK CFI a35b2 $rbp: .cfa -32 + ^ .cfa: $rsp 32 +
STACK CFI a35d2 .cfa: $rsp 24 +
STACK CFI a35d4 .cfa: $rsp 16 +
STACK CFI a35d9 .cfa: $rsp 8 +
STACK CFI INIT a35e0 3b .cfa: $rsp 8 + .ra: .cfa -8 + ^
STACK CFI a35e9 $r13: .cfa -16 + ^ .cfa: $rsp 16 +
STACK CFI a35ee $r12: .cfa -24 + ^ .cfa: $rsp 24 +
STACK CFI a35f2 $rbp: .cfa -32 + ^ .cfa: $rsp 32 +
STACK CFI a3612 .cfa: $rsp 24 +
STACK CFI a3614 .cfa: $rsp 16 +
STACK CFI a3619 .cfa: $rsp 8 +
STACK CFI INIT a3620 3b .cfa: $rsp 8 + .ra: .cfa -8 + ^
STACK CFI a3629 $r13: .cfa -16 + ^ .cfa: $rsp 16 +
STACK CFI a362e $r12: .cfa -24 + ^ .cfa: $rsp 24 +
STACK CFI a3632 $rbp: .cfa -32 + ^ .cfa: $rsp 32 +
STACK CFI a3652 .cfa: $rsp 24 +
STACK CFI a3654 .cfa: $rsp 16 +
STACK CFI a3659 .cfa: $rsp 8 +
STACK CFI INIT a3660 3b .cfa: $rsp 8 + .ra: .cfa -8 + ^
STACK CFI a3669 $r13: .cfa -16 + ^ .cfa: $rsp 16 +
STACK CFI a366e $r12: .cfa -24 + ^ .cfa: $rsp 24 +
STACK CFI a3672 $rbp: .cfa -32 + ^ .cfa: $rsp 32 +
STACK CFI a3692 .cfa: $rsp 24 +
STACK CFI a3694 .cfa: $rsp 16 +
STACK CFI a3699 .cfa: $rsp 8 +
STACK CFI INIT a36a0 3b .cfa: $rsp 8 + .ra: .cfa -8 + ^
STACK CFI a36a9 $r13: .cfa -16 + ^ .cfa: $rsp 16 +
STACK CFI a36ae $r12: .cfa -24 + ^ .cfa: $rsp 24 +
STACK CFI a36b2 $rbp: .cfa -32 + ^ .cfa: $rsp 32 +
STACK CFI a36d2 .cfa: $rsp 24 +
STACK CFI a36d4 .cfa: $rsp 16 +
STACK CFI a36d9 .cfa: $rsp 8 +
STACK CFI INIT a36e0 4d .cfa: $rsp 8 + .ra: .cfa -8 + ^
STACK CFI a36e2 $r14: .cfa -16 + ^ .cfa: $rsp 16 +
STACK CFI a36e7 $r13: .cfa -24 + ^ .cfa: $rsp 24 +
STACK CFI a36ec $r12: .cfa -32 + ^ .cfa: $rsp 32 +
STACK CFI a36f0 $rbp: .cfa -40 + ^ .cfa: $rsp 40 +
STACK CFI a36f7 .cfa: $rsp 48 +
STACK CFI a3724 .cfa: $rsp 40 +
STACK CFI a3725 .cfa: $rsp 32 +
STACK CFI a3727 .cfa: $rsp 24 +
STACK CFI a3729 .cfa: $rsp 16 +
STACK CFI a372b .cfa: $rsp 8 +
STACK CFI INIT a3730 4d .cfa: $rsp 8 + .ra: .cfa -8 + ^
STACK CFI a3732 $r14: .cfa -16 + ^ .cfa: $rsp 16 +
STACK CFI a3737 $r13: .cfa -24 + ^ .cfa: $rsp 24 +
STACK CFI a373c $r12: .cfa -32 + ^ .cfa: $rsp 32 +
STACK CFI a3740 $rbp: .cfa -40 + ^ .cfa: $rsp 40 +
STACK CFI a3747 .cfa: $rsp 48 +
STACK CFI a3774 .cfa: $rsp 40 +
STACK CFI a3775 .cfa: $rsp 32 +
STACK CFI a3777 .cfa: $rsp 24 +
STACK CFI a3779 .cfa: $rsp 16 +
STACK CFI a377b .cfa: $rsp 8 +
STACK CFI INIT a3780 4d .cfa: $rsp 8 + .ra: .cfa -8 + ^
STACK CFI a3782 $r14: .cfa -16 + ^ .cfa: $rsp 16 +
STACK CFI a3787 $r13: .cfa -24 + ^ .cfa: $rsp 24 +
STACK CFI a378c $r12: .cfa -32 + ^ .cfa: $rsp 32 +
STACK CFI a3790 $rbp: .cfa -40 + ^ .cfa: $rsp 40 +
STACK CFI a3797 .cfa: $rsp 48 +
STACK CFI a37c4 .cfa: $rsp 40 +
STACK CFI a37c5 .cfa: $rsp 32 +
STACK CFI a37c7 .cfa: $rsp 24 +
STACK CFI a37c9 .cfa: $rsp 16 +
STACK CFI a37cb .cfa: $rsp 8 +
STACK CFI INIT a37d0 4d .cfa: $rsp 8 + .ra: .cfa -8 + ^
STACK CFI a37d2 $r14: .cfa -16 + ^ .cfa: $rsp 16 +
STACK CFI a37d7 $r13: .cfa -24 + ^ .cfa: $rsp 24 +
STACK CFI a37dc $r12: .cfa -32 + ^ .cfa: $rsp 32 +
STACK CFI a37e0 $rbp: .cfa -40 + ^ .cfa: $rsp 40 +
STACK CFI a37e7 .cfa: $rsp 48 +
STACK CFI a3814 .cfa: $rsp 40 +
STACK CFI a3815 .cfa: $rsp 32 +
STACK CFI a3817 .cfa: $rsp 24 +
STACK CFI a3819 .cfa: $rsp 16 +
STACK CFI a381b .cfa: $rsp 8 +
STACK CFI INIT a3820 4d .cfa: $rsp 8 + .ra: .cfa -8 + ^
STACK CFI a3822 $r14: .cfa -16 + ^ .cfa: $rsp 16 +
STACK CFI a3827 $r13: .cfa -24 + ^ .cfa: $rsp 24 +
STACK CFI a382c $r12: .cfa -32 + ^ .cfa: $rsp 32 +
STACK CFI a3830 $rbp: .cfa -40 + ^ .cfa: $rsp 40 +
STACK CFI a3837 .cfa: $rsp 48 +
STACK CFI a3864 .cfa: $rsp 40 +
STACK CFI a3865 .cfa: $rsp 32 +
STACK CFI a3867 .cfa: $rsp 24 +
STACK CFI a3869 .cfa: $rsp 16 +
STACK CFI a386b .cfa: $rsp 8 +
STACK CFI INIT a3870 63 .cfa: $rsp 8 + .ra: .cfa -8 + ^
STACK CFI a3884 .cfa: $rsp 16 +
STACK CFI a38a3 .cfa: $rsp 8 +
STACK CFI a38a8 .cfa: $rsp 16 +
STACK CFI INIT a38e0 4 .cfa: $rsp 8 + .ra: .cfa -8 + ^
STACK CFI INIT a38f0 26 .cfa: $rsp 8 + .ra: .cfa -8 + ^
STACK CFI a38f1 $rbp: .cfa -16 + ^ .cfa: $rsp 16 +
STACK CFI a3915 .cfa: $rsp 8 +
STACK CFI INIT a3920 8c .cfa: $rsp 8 + .ra: .cfa -8 + ^
STACK CFI a3922 $r13: .cfa -16 + ^ .cfa: $rsp 16 +
STACK CFI a3924 $r12: .cfa -24 + ^ .cfa: $rsp 24 +
STACK CFI a3928 $rbp: .cfa -32 + ^ .cfa: $rsp 32 +
STACK CFI a392c $rbx: .cfa -40 + ^ .cfa: $rsp 40 +
STACK CFI a3933 .cfa: $rsp 48 +
STACK CFI a39a2 .cfa: $rsp 40 +
STACK CFI a39a6 .cfa: $rsp 32 +
STACK CFI a39a7 .cfa: $rsp 24 +
STACK CFI a39a9 .cfa: $rsp 16 +
STACK CFI a39ab .cfa: $rsp 8 +
STACK CFI INIT a39b0 e9 .cfa: $rsp 8 + .ra: .cfa -8 + ^
STACK CFI a39b2 $r13: .cfa -16 + ^ .cfa: $rsp 16 +
STACK CFI a39b7 $r12: .cfa -24 + ^ .cfa: $rsp 24 +
STACK CFI a39bb $rbp: .cfa -32 + ^ .cfa: $rsp 32 +
STACK CFI a39bf $rbx: .cfa -40 + ^ .cfa: $rsp 40 +
STACK CFI a39c6 .cfa: $rsp 48 +
STACK CFI a39e8 .cfa: $rsp 40 +
STACK CFI a39e9 .cfa: $rsp 32 +
STACK CFI a39ea .cfa: $rsp 24 +
STACK CFI a39ec .cfa: $rsp 16 +
STACK CFI a39ee .cfa: $rsp 8 +
STACK CFI a39f0 .cfa: $rsp 48 +
STACK CFI a3a7d .cfa: $rsp 40 +
STACK CFI a3a81 .cfa: $rsp 32 +
STACK CFI a3a82 .cfa: $rsp 24 +
STACK CFI a3a84 .cfa: $rsp 16 +
STACK CFI a3a86 .cfa: $rsp 8 +
STACK CFI a3a90 .cfa: $rsp 48 +
STACK CFI INIT a3aa0 9b .cfa: $rsp 8 + .ra: .cfa -8 + ^
STACK CFI a3aa2 $r13: .cfa -16 + ^ .cfa: $rsp 16 +
STACK CFI a3aa7 $r12: .cfa -24 + ^ .cfa: $rsp 24 +
STACK CFI a3aab $rbp: .cfa -32 + ^ .cfa: $rsp 32 +
STACK CFI a3aaf $rbx: .cfa -40 + ^ .cfa: $rsp 40 +
STACK CFI a3ab6 .cfa: $rsp 48 +
STACK CFI a3ae3 .cfa: $rsp 40 +
STACK CFI a3ae6 .cfa: $rsp 32 +
STACK CFI a3ae7 .cfa: $rsp 24 +
STACK CFI a3ae9 .cfa: $rsp 16 +
STACK CFI a3aeb .cfa: $rsp 8 +
STACK CFI a3af0 .cfa: $rsp 48 +
STACK CFI a3b2f .cfa: $rsp 40 +
STACK CFI a3b35 .cfa: $rsp 32 +
STACK CFI a3b36 .cfa: $rsp 24 +
STACK CFI a3b38 .cfa: $rsp 16 +
STACK CFI a3b3a .cfa: $rsp 8 +
STACK CFI INIT a3b40 92 .cfa: $rsp 8 + .ra: .cfa -8 + ^
STACK CFI a3b42 $r12: .cfa -16 + ^ .cfa: $rsp 16 +
STACK CFI a3b46 $rbp: .cfa -24 + ^ .cfa: $rsp 24 +
STACK CFI a3b4a $rbx: .cfa -32 + ^ .cfa: $rsp 32 +
STACK CFI a3b76 .cfa: $rsp 24 +
STACK CFI a3b79 .cfa: $rsp 16 +
STACK CFI a3b7b .cfa: $rsp 8 +
STACK CFI a3b80 .cfa: $rsp 32 +
STACK CFI a3bc5 .cfa: $rsp 24 +
STACK CFI a3bcf .cfa: $rsp 16 +
STACK CFI a3bd1 .cfa: $rsp 8 +
STACK CFI INIT a3be0 92 .cfa: $rsp 8 + .ra: .cfa -8 + ^
STACK CFI a3be2 $r12: .cfa -16 + ^ .cfa: $rsp 16 +
STACK CFI a3be6 $rbp: .cfa -24 + ^ .cfa: $rsp 24 +
STACK CFI a3bea $rbx: .cfa -32 + ^ .cfa: $rsp 32 +
STACK CFI a3c16 .cfa: $rsp 24 +
STACK CFI a3c19 .cfa: $rsp 16 +
STACK CFI a3c1b .cfa: $rsp 8 +
STACK CFI a3c20 .cfa: $rsp 32 +
STACK CFI a3c65 .cfa: $rsp 24 +
STACK CFI a3c6f .cfa: $rsp 16 +
STACK CFI a3c71 .cfa: $rsp 8 +
STACK CFI INIT a3c80 b5 .cfa: $rsp 8 + .ra: .cfa -8 + ^
STACK CFI a3c82 $r12: .cfa -16 + ^ .cfa: $rsp 16 +
STACK CFI a3c86 $rbp: .cfa -24 + ^ .cfa: $rsp 24 +
STACK CFI a3c8a $rbx: .cfa -32 + ^ .cfa: $rsp 32 +
STACK CFI a3cb8 .cfa: $rsp 24 +
STACK CFI a3cb9 .cfa: $rsp 16 +
STACK CFI a3cbb .cfa: $rsp 8 +
STACK CFI a3cc0 .cfa: $rsp 32 +
STACK CFI a3d1f .cfa: $rsp 24 +
STACK CFI a3d2d .cfa: $rsp 16 +
STACK CFI a3d2f .cfa: $rsp 8 +
STACK CFI a3d30 .cfa: $rsp 32 +
STACK CFI INIT a3d40 6b .cfa: $rsp 8 + .ra: .cfa -8 + ^
STACK CFI a3d42 $r13: .cfa -16 + ^ .cfa: $rsp 16 +
STACK CFI a3d47 $r12: .cfa -24 + ^ .cfa: $rsp 24 +
STACK CFI a3d4b $rbp: .cfa -32 + ^ .cfa: $rsp 32 +
STACK CFI a3d8c .cfa: $rsp 24 +
STACK CFI a3d90 .cfa: $rsp 16 +
STACK CFI a3d92 .cfa: $rsp 8 +
STACK CFI a3d98 .cfa: $rsp 32 +
STACK CFI a3da2 .cfa: $rsp 24 +
STACK CFI a3da4 .cfa: $rsp 16 +
STACK CFI a3da6 .cfa: $rsp 8 +
STACK CFI INIT a3db0 bd .cfa: $rsp 8 + .ra: .cfa -8 + ^
STACK CFI a3db2 $r12: .cfa -16 + ^ .cfa: $rsp 16 +
STACK CFI a3db6 $rbp: .cfa -24 + ^ .cfa: $rsp 24 +
STACK CFI a3dba $rbx: .cfa -32 + ^ .cfa: $rsp 32 +
STACK CFI a3de6 .cfa: $rsp 24 +
STACK CFI a3de9 .cfa: $rsp 16 +
STACK CFI a3deb .cfa: $rsp 8 +
STACK CFI a3df0 .cfa: $rsp 32 +
STACK CFI a3e4e .cfa: $rsp 24 +
STACK CFI a3e54 .cfa: $rsp 16 +
STACK CFI a3e56 .cfa: $rsp 8 +
STACK CFI a3e60 .cfa: $rsp 32 +
STACK CFI a3e66 .cfa: $rsp 24 +
STACK CFI a3e67 .cfa: $rsp 16 +
STACK CFI a3e6c .cfa: $rsp 8 +
STACK CFI INIT a3e70 63 .cfa: $rsp 8 + .ra: .cfa -8 + ^
STACK CFI a3e72 $r13: .cfa -16 + ^ .cfa: $rsp 16 +
STACK CFI a3e77 $r12: .cfa -24 + ^ .cfa: $rsp 24 +
STACK CFI a3e7b $rbp: .cfa -32 + ^ .cfa: $rsp 32 +
STACK CFI a3eb2 .cfa: $rsp 24 +
STACK CFI a3eb6 .cfa: $rsp 16 +
STACK CFI a3eb8 .cfa: $rsp 8 +
STACK CFI a3ec0 .cfa: $rsp 32 +
STACK CFI a3eca .cfa: $rsp 24 +
STACK CFI a3ecc .cfa: $rsp 16 +
STACK CFI a3ece .cfa: $rsp 8 +
STACK CFI INIT a3ee0 da .cfa: $rsp 8 + .ra: .cfa -8 + ^
STACK CFI a3ee2 $r12: .cfa -16 + ^ .cfa: $rsp 16 +
STACK CFI a3ee6 $rbp: .cfa -24 + ^ .cfa: $rsp 24 +
STACK CFI a3eea $rbx: .cfa -32 + ^ .cfa: $rsp 32 +
STACK CFI a3f16 .cfa: $rsp 24 +
STACK CFI a3f19 .cfa: $rsp 16 +
STACK CFI a3f1b .cfa: $rsp 8 +
STACK CFI a3f20 .cfa: $rsp 32 +
STACK CFI a3f6f .cfa: $rsp 24 +
STACK CFI a3f75 .cfa: $rsp 16 +
STACK CFI a3f77 .cfa: $rsp 8 +
STACK CFI a3f80 .cfa: $rsp 32 +
STACK CFI INIT a3fc0 6b .cfa: $rsp 8 + .ra: .cfa -8 + ^
STACK CFI a3fc2 $r13: .cfa -16 + ^ .cfa: $rsp 16 +
STACK CFI a3fc7 $r12: .cfa -24 + ^ .cfa: $rsp 24 +
STACK CFI a3fcb $rbp: .cfa -32 + ^ .cfa: $rsp 32 +
STACK CFI a400c .cfa: $rsp 24 +
STACK CFI a4010 .cfa: $rsp 16 +
STACK CFI a4012 .cfa: $rsp 8 +
STACK CFI a4018 .cfa: $rsp 32 +
STACK CFI a4022 .cfa: $rsp 24 +
STACK CFI a4024 .cfa: $rsp 16 +
STACK CFI a4026 .cfa: $rsp 8 +
STACK CFI INIT a4030 51 .cfa: $rsp 8 + .ra: .cfa -8 + ^
STACK CFI a4031 $rbx: .cfa -16 + ^ .cfa: $rsp 16 +
STACK CFI a403d .cfa: $rsp 8 +
STACK CFI a4048 .cfa: $rsp 16 +
STACK CFI a407c .cfa: $rsp 8 +
STACK CFI INIT a4090 63 .cfa: $rsp 8 + .ra: .cfa -8 + ^
STACK CFI a40a4 .cfa: $rsp 16 +
STACK CFI a40c3 .cfa: $rsp 8 +
STACK CFI a40c8 .cfa: $rsp 16 +
STACK CFI INIT a4100 4 .cfa: $rsp 8 + .ra: .cfa -8 + ^
STACK CFI INIT a4110 26 .cfa: $rsp 8 + .ra: .cfa -8 + ^
STACK CFI a4111 $rbp: .cfa -16 + ^ .cfa: $rsp 16 +
STACK CFI a4135 .cfa: $rsp 8 +
STACK CFI INIT a4140 9d .cfa: $rsp 8 + .ra: .cfa -8 + ^
STACK CFI a4142 $r13: .cfa -16 + ^ .cfa: $rsp 16 +
STACK CFI a4147 $r12: .cfa -24 + ^ .cfa: $rsp 24 +
STACK CFI a414b $rbp: .cfa -32 + ^ .cfa: $rsp 32 +
STACK CFI a414f $rbx: .cfa -40 + ^ .cfa: $rsp 40 +
STACK CFI a4156 .cfa: $rsp 48 +
STACK CFI a41bf .cfa: $rsp 40 +
STACK CFI a41c4 .cfa: $rsp 32 +
STACK CFI a41c5 .cfa: $rsp 24 +
STACK CFI a41c7 .cfa: $rsp 16 +
STACK CFI a41c9 .cfa: $rsp 8 +
STACK CFI a41d0 .cfa: $rsp 48 +
STACK CFI a41d4 .cfa: $rsp 40 +
STACK CFI a41d7 .cfa: $rsp 32 +
STACK CFI a41d8 .cfa: $rsp 24 +
STACK CFI a41da .cfa: $rsp 16 +
STACK CFI a41dc .cfa: $rsp 8 +
STACK CFI INIT a41e0 97 .cfa: $rsp 8 + .ra: .cfa -8 + ^
STACK CFI a41e2 $r12: .cfa -16 + ^ .cfa: $rsp 16 +
STACK CFI a41e6 $rbp: .cfa -24 + ^ .cfa: $rsp 24 +
STACK CFI a41ea $rbx: .cfa -32 + ^ .cfa: $rsp 32 +
STACK CFI a4264 .cfa: $rsp 24 +
STACK CFI a4265 .cfa: $rsp 16 +
STACK CFI a4267 .cfa: $rsp 8 +
STACK CFI a4270 .cfa: $rsp 32 +
STACK CFI a4271 .cfa: $rsp 24 +
STACK CFI a4274 .cfa: $rsp 16 +
STACK CFI a4276 .cfa: $rsp 8 +
