MODULE Linux x86_64 E12B348FF640E07F8E993E8379B253C10 libsagegen.so
INFO CODE_ID 8F342BE140F67FE08E993E8379B253C195534088
PUBLIC 1d000 0 _init
PUBLIC 1da40 0 std::function<._845 (ssl_item_s*, xst_s*, ssl_item_s*, char const*, char const*, char const*, char const*, char const*)>::function<std::_Bind<._845 (*(std::unordered_map<std::__cxx11::basic_string<char, std::char_traits<char>, std::allocator<char> >, int, std::hash<std::__cxx11::basic_string<char, std::char_traits<char>, std::allocator<char> > >, std::equal_to<std::__cxx11::basic_string<char, std::char_traits<char>, std::allocator<char> > >, std::allocator<std::pair<std::__cxx11::basic_string<char, std::char_traits<char>, std::allocator<char> > const, int> > >, std::_Placeholder<1>, std::_Placeholder<2>, std::_Placeholder<3>, std::_Placeholder<4>, std::_Placeholder<5>, std::_Placeholder<6>, std::_Placeholder<7>, std::_Placeholder<8>))(std::unordered_map<std::__cxx11::basic_string<char, std::char_traits<char>, std::allocator<char> >, int, std::hash<std::__cxx11::basic_string<char, std::char_traits<char>, std::allocator<char> > >, std::equal_to<std::__cxx11::basic_string<char, std::char_traits<char>, std::allocator<char> > >, std::allocator<std::pair<std::__cxx11::basic_string<char, std::char_traits<char>, std::allocator<char> > const, int> > >&, ssl_item_s*, xst_s*, ssl_item_s*, char const*, char const*, char const*, char const*, char const*)>, void, void>(std::_Bind<._845 (*(std::unordered_map<std::__cxx11::basic_string<char, std::char_traits<char>, std::allocator<char> >, int, std::hash<std::__cxx11::basic_string<char, std::char_traits<char>, std::allocator<char> > >, std::equal_to<std::__cxx11::basic_string<char, std::char_traits<char>, std::allocator<char> > >, std::allocator<std::pair<std::__cxx11::basic_string<char, std::char_traits<char>, std::allocator<char> > const, int> > >, std::_Placeholder<1>, std::_Placeholder<2>, std::_Placeholder<3>, std::_Placeholder<4>, std::_Placeholder<5>, std::_Placeholder<6>, std::_Placeholder<7>, std::_Placeholder<8>))(std::unordered_map<std::__cxx11::basic_string<char, std::char_traits<char>, std::allocator<char> >, int, std::hash<std::__cxx11::basic_string<char, std::char_traits<char>, std::allocator<char> > >, std::equal_to<std::__cxx11::basic_string<char, std::char_traits<char>, std::allocator<char> > >, std::allocator<std::pair<std::__cxx11::basic_string<char, std::char_traits<char>, std::allocator<char> > const, int> > >&, ssl_item_s*, xst_s*, ssl_item_s*, char const*, char const*, char const*, char const*, char const*)>) [clone .cold]
PUBLIC 1da5e 0 std::_Hashtable<std::pair<xst_s*, long*>, std::pair<std::pair<xst_s*, long*> const, int>, std::allocator<std::pair<std::pair<xst_s*, long*> const, int> >, std::__detail::_Select1st, std::equal_to<std::pair<xst_s*, long*> >, (anonymous namespace)::PointerPairHash, std::__detail::_Mod_range_hashing, std::__detail::_Default_ranged_hash, std::__detail::_Prime_rehash_policy, std::__detail::_Hashtable_traits<true, false, true> >::_M_insert_unique_node(unsigned long, unsigned long, std::__detail::_Hash_node<std::pair<std::pair<xst_s*, long*> const, int>, true>*, unsigned long) [clone .constprop.0] [clone .cold]
PUBLIC 1da9c 0 (anonymous namespace)::createOoprForOocr((anonymous namespace)::OocrInfo&) [clone .cold]
PUBLIC 1dc18 0 (anonymous namespace)::comparePibInstancesDirect(long*, long*) [clone .cold]
PUBLIC 1dc2f 0 (anonymous namespace)::getPrimTypeName(vst_s*, bool) [clone .cold]
PUBLIC 1dcb3 0 (anonymous namespace)::fileSysErr(std::__cxx11::basic_string<char, std::char_traits<char>, std::allocator<char> > const&, std::__cxx11::basic_string<char, std::char_traits<char>, std::allocator<char> > const&) [clone .cold]
PUBLIC 1dcca 0 (anonymous namespace)::prepareOoprForSvBindOomr(ssl_item_s*, xst_s*, std::__cxx11::basic_string<char, std::char_traits<char>, std::allocator<char> > const&, std::__cxx11::basic_string<char, std::char_traits<char>, std::allocator<char> > const&, xst_s*, std::__cxx11::basic_string<char, std::char_traits<char>, std::allocator<char> > const&) [clone .cold]
PUBLIC 1df95 0 (anonymous namespace)::getXmclonePartitionPath(char const*, char const*, char const*, char const*, char const*, bool) [clone .constprop.0] [clone .cold]
PUBLIC 1dfc4 0 (anonymous namespace)::getXmclonePartitionPath(char const*, char const*, char const*, char const*, char const*, bool) [clone .cold]
PUBLIC 1dff3 0 Sage::catLCVSName[abi:cxx11](char const*, char const*, char const*, char const*) [clone .cold]
PUBLIC 1e007 0 (anonymous namespace)::recordHierNodeTypeSignals(ssl_item_s*, hiertreeproto::ModuleItem&) [clone .isra.0] [clone .cold]
PUBLIC 1e014 0 (anonymous namespace)::sagegenIePropagateCoercion() [clone .cold]
PUBLIC 1e021 0 (anonymous namespace)::getPaddedHexStr(long) [clone .cold]
PUBLIC 1e108 0 Sage::getSignature[abi:cxx11](ssl_item_s const*) [clone .cold]
PUBLIC 1e122 0 Sage::buildUnknownLcvName[abi:cxx11](ssl_item_s*, bool) [clone .cold]
PUBLIC 1e150 0 Sage::getLcvName[abi:cxx11](ssl_item_s*, bool) [clone .cold]
PUBLIC 1e16c 0 (anonymous namespace)::getOocrTargetValue(xst_s*, long*, bool&) [clone .constprop.0] [clone .cold]
PUBLIC 1e1f6 0 (anonymous namespace)::logVlogObj(char const*, xst_s*, long*, std::__cxx11::basic_string<char, std::char_traits<char>, std::allocator<char> > const&) [clone .cold]
PUBLIC 1e2a7 0 sagegen_xmclone_bind_cb.cold
PUBLIC 1e2c3 0 (anonymous namespace)::xmcloneDsngenOomrCb(ssl_item_s*, xst_s*, ssl_item_s*, char const*, char const*, char const*, char const*, char const*) [clone .cold]
PUBLIC 1e414 0 sagegen_xmclone_prepare.cold
PUBLIC 1e43c 0 (anonymous namespace)::propagationCb(vst_s*, long*, std::unordered_set<std::__cxx11::basic_string<char, std::char_traits<char>, std::allocator<char> >, std::hash<std::__cxx11::basic_string<char, std::char_traits<char>, std::allocator<char> > >, std::equal_to<std::__cxx11::basic_string<char, std::char_traits<char>, std::allocator<char> > >, std::allocator<std::__cxx11::basic_string<char, std::char_traits<char>, std::allocator<char> > > > const&) [clone .cold]
PUBLIC 1e458 0 (anonymous namespace)::getNodeTypeId(std::__cxx11::basic_string<char, std::char_traits<char>, std::allocator<char> > const&, bool*) [clone .cold]
PUBLIC 1e46e 0 std::__detail::_Map_base<std::__cxx11::basic_string<char, std::char_traits<char>, std::allocator<char> >, std::pair<std::__cxx11::basic_string<char, std::char_traits<char>, std::allocator<char> > const, int>, std::allocator<std::pair<std::__cxx11::basic_string<char, std::char_traits<char>, std::allocator<char> > const, int> >, std::__detail::_Select1st, std::equal_to<std::__cxx11::basic_string<char, std::char_traits<char>, std::allocator<char> > >, std::hash<std::__cxx11::basic_string<char, std::char_traits<char>, std::allocator<char> > >, std::__detail::_Mod_range_hashing, std::__detail::_Default_ranged_hash, std::__detail::_Prime_rehash_policy, std::__detail::_Hashtable_traits<true, false, true>, true>::operator[](std::__cxx11::basic_string<char, std::char_traits<char>, std::allocator<char> > const&) [clone .constprop.0] [clone .cold]
PUBLIC 1e490 0 (anonymous namespace)::getMSIEPartitionId(long*) [clone .cold]
PUBLIC 1e4a6 0 (anonymous namespace)::sagegenIeGetPartitionCoercion() [clone .cold]
PUBLIC 1e50c 0 std::_Function_base::_Base_manager<std::_Bind<._845 (*(std::unordered_map<std::__cxx11::basic_string<char, std::char_traits<char>, std::allocator<char> >, int, std::hash<std::__cxx11::basic_string<char, std::char_traits<char>, std::allocator<char> > >, std::equal_to<std::__cxx11::basic_string<char, std::char_traits<char>, std::allocator<char> > >, std::allocator<std::pair<std::__cxx11::basic_string<char, std::char_traits<char>, std::allocator<char> > const, int> > >, std::_Placeholder<1>, std::_Placeholder<2>, std::_Placeholder<3>, std::_Placeholder<4>, std::_Placeholder<5>, std::_Placeholder<6>, std::_Placeholder<7>, std::_Placeholder<8>))(std::unordered_map<std::__cxx11::basic_string<char, std::char_traits<char>, std::allocator<char> >, int, std::hash<std::__cxx11::basic_string<char, std::char_traits<char>, std::allocator<char> > >, std::equal_to<std::__cxx11::basic_string<char, std::char_traits<char>, std::allocator<char> > >, std::allocator<std::pair<std::__cxx11::basic_string<char, std::char_traits<char>, std::allocator<char> > const, int> > >&, ssl_item_s*, xst_s*, ssl_item_s*, char const*, char const*, char const*, char const*, char const*)> >::_M_manager(std::_Any_data&, std::_Any_data const&, std::_Manager_operation) [clone .cold]
PUBLIC 1e521 0 (anonymous namespace)::sagegenXmcloneOocrCb(vst_s*, long*, vst_s*, long*) [clone .cold]
PUBLIC 1e578 0 _GLOBAL__sub_I_sagegen.cc.cold
PUBLIC 1e860 0 sagegen_wait_and_cleanup.cold
PUBLIC 1e912 0 (anonymous namespace)::recordModuleItemPartition(std::__cxx11::basic_string<char, std::char_traits<char>, std::allocator<char> > const&, std::__cxx11::basic_string<char, std::char_traits<char>, std::allocator<char> > const&, std::__cxx11::basic_string<char, std::char_traits<char>, std::allocator<char> > const&, std::__cxx11::basic_string<char, std::char_traits<char>, std::allocator<char> > const&, std::__cxx11::basic_string<char, std::char_traits<char>, std::allocator<char> > const&, std::__cxx11::basic_string<char, std::char_traits<char>, std::allocator<char> > const&, bool) [clone .cold]
PUBLIC 1e956 0 (anonymous namespace)::recordHierParent(int, ssl_item_s*, ssl_item_s const*, int*, std::__cxx11::basic_string<char, std::char_traits<char>, std::allocator<char> > const&) [clone .isra.0] [clone .cold]
PUBLIC 1e963 0 (anonymous namespace)::recordHierNodeType(int, ssl_item_s*, bool) [clone .cold]
PUBLIC 1eba7 0 (anonymous namespace)::sagegenRecordTopInstance(long*, bool) [clone .cold]
PUBLIC 1ebd7 0 (anonymous namespace)::sagegenBeginShutdown(bool) [clone .cold]
PUBLIC 1ebe9 0 (anonymous namespace)::sagegenIeStitchPair(long*, long*, bool) [clone .cold]
PUBLIC 1ec36 0 (anonymous namespace)::xmcloneBindScopeDsngenOomrCb(std::unordered_map<std::__cxx11::basic_string<char, std::char_traits<char>, std::allocator<char> >, int, std::hash<std::__cxx11::basic_string<char, std::char_traits<char>, std::allocator<char> > >, std::equal_to<std::__cxx11::basic_string<char, std::char_traits<char>, std::allocator<char> > >, std::allocator<std::pair<std::__cxx11::basic_string<char, std::char_traits<char>, std::allocator<char> > const, int> > >&, ssl_item_s*, xst_s*, ssl_item_s*, char const*, char const*, char const*, char const*, char const*) [clone .cold]
PUBLIC 1ec6e 0 (anonymous namespace)::xmcloneConnectBindInstOoprs(xst_s*, std::vector<long*, std::allocator<long*> >&) [clone .cold]
PUBLIC 1ee19 0 sagegen_ie_connect_oopr.cold
PUBLIC 1eef9 0 (anonymous namespace)::recordScope(xst_s*, long*, std::__cxx11::basic_string<char, std::char_traits<char>, std::allocator<char> > const&) [clone .constprop.0] [clone .cold]
PUBLIC 1efdb 0 (anonymous namespace)::processXstItems(ssl_item_s*, idaStatusCodeT, char*, char*, std::__cxx11::basic_string<char, std::char_traits<char>, std::allocator<char> > const&) [clone .cold]
PUBLIC 1f15f 0 (anonymous namespace)::traverseDesignCallback(ssl_item_s*, bool, ._845 (*)(ssl_item_s*, xst_s*, ssl_item_s*, char const*, char const*, char const*, char const*, char const*)) [clone .cold]
PUBLIC 1f19a 0 (anonymous namespace)::sagegenGenerate(char*, char*, char*, char*, char*, char*, int, bool, bool, bool, void*, void*, ssl_item_s*) [clone .cold]
PUBLIC 1f482 0 (anonymous namespace)::sagegenGenerateXmclone(char*, char*, char*, char*, char*, char*, int, bool, void*) [clone .cold]
PUBLIC 1f64b 0 sagegen_xmclone_complete.cold
PUBLIC 1f69c 0 Sage::Logger::Logger() [clone .cold]
PUBLIC 1f764 0 (anonymous namespace)::dumpMsgStr(std::__cxx11::basic_string<char, std::char_traits<char>, std::allocator<char> > const&, google::protobuf::Message&) [clone .cold]
PUBLIC 1f77f 0 (anonymous namespace)::packAnyMsg(google::protobuf::Message&) [clone .cold]
PUBLIC 1f796 0 Sage::Proto::markTypeParam(parameterproto::ValuePack&) [clone .cold]
PUBLIC 1f7b1 0 Sage::Proto::startHegTextRef() [clone .cold]
PUBLIC 1f7c8 0 Sage::Proto::getByteStream(unsigned char*, unsigned long) [clone .cold]
PUBLIC 1f7f0 0 Sage::Proto::addByteStream(unsigned char*, bool, unsigned long, parameterproto::ValuePack&) [clone .cold]
PUBLIC 1f80b 0 (anonymous namespace)::createNamedBlockCore(std::__cxx11::basic_string<char, std::char_traits<char>, std::allocator<char> > const&, sourcelocproto::SourceLoc*, hiertreeproto::NamedBlockCore_NamedBlockKind, bool) [clone .cold]
PUBLIC 1f822 0 Sage::Proto::addStringValue(char*, unsigned long, parameterproto::ValuePack&) [clone .cold]
PUBLIC 1f839 0 Sage::Proto::commInit(char const*, bool, bool) [clone .cold]
PUBLIC 1fb64 0 Sage::Proto::addHegTextRef(int, hegproto::TextRef&) [clone .cold]
PUBLIC 1fb8b 0 (anonymous namespace)::send(google::protobuf::Message&, bool) [clone .cold]
PUBLIC 1fbb4 0 (anonymous namespace)::processHierEdgeMsg(int, int, hiertreeproto::Edge_EdgeKind, bool) [clone .cold]
PUBLIC 1fbf0 0 (anonymous namespace)::send(google::protobuf::Message&, bool) [clone .constprop.0] [clone .cold]
PUBLIC 1fc19 0 Sage::Proto::recordHegDataMsg(hegproto::Data_Type) [clone .cold]
PUBLIC 1fc2d 0 (anonymous namespace)::processOoprTargetMsg(std::__cxx11::basic_string<char, std::char_traits<char>, std::allocator<char> > const&, std::__cxx11::basic_string<char, std::char_traits<char>, std::allocator<char> > const&, int, bool) [clone .cold]
PUBLIC 1fc68 0 (anonymous namespace)::processOoprExternMsg(int, std::__cxx11::basic_string<char, std::char_traits<char>, std::allocator<char> > const&, std::__cxx11::basic_string<char, std::char_traits<char>, std::allocator<char> > const&, bool, int, bool) [clone .cold]
PUBLIC 1fcc5 0 (anonymous namespace)::processTopInstanceMsg(int, bool) [clone .cold]
PUBLIC 1fd05 0 (anonymous namespace)::processModuleItemPartitionMsg(int, std::__cxx11::basic_string<char, std::char_traits<char>, std::allocator<char> > const&, std::__cxx11::basic_string<char, std::char_traits<char>, std::allocator<char> > const&, std::__cxx11::basic_string<char, std::char_traits<char>, std::allocator<char> > const&, std::__cxx11::basic_string<char, std::char_traits<char>, std::allocator<char> > const&, int, bool) [clone .cold]
PUBLIC 1fd40 0 (anonymous namespace)::processPartitionInfoMsg(int, std::__cxx11::basic_string<char, std::char_traits<char>, std::allocator<char> > const&, std::__cxx11::basic_string<char, std::char_traits<char>, std::allocator<char> > const&, std::__cxx11::basic_string<char, std::char_traits<char>, std::allocator<char> > const&, std::__cxx11::basic_string<char, std::char_traits<char>, std::allocator<char> > const&, std::__cxx11::basic_string<char, std::char_traits<char>, std::allocator<char> > const&, std::__cxx11::basic_string<char, std::char_traits<char>, std::allocator<char> > const&, bool) [clone .cold]
PUBLIC 1fd92 0 (anonymous namespace)::processAttributeMsg(std::__cxx11::basic_string<char, std::char_traits<char>, std::allocator<char> > const&, std::__cxx11::basic_string<char, std::char_traits<char>, std::allocator<char> > const&, bool) [clone .cold]
PUBLIC 1fde4 0 (anonymous namespace)::dumpSrcLoc(Sage::GenSrcLoc const&) [clone .cold]
PUBLIC 1fe43 0 (anonymous namespace)::createSourceLoc(Sage::GenSrcLoc const&, bool) [clone .constprop.0] [clone .cold]
PUBLIC 1fe7f 0 (anonymous namespace)::processHierNodeMsg(int, std::__cxx11::basic_string<char, std::char_traits<char>, std::allocator<char> > const&, Sage::GenSrcLoc const&, bool) [clone .cold]
PUBLIC 1feb6 0 (anonymous namespace)::processHierNodeTypeMsg(int, int, std::__cxx11::basic_string<char, std::char_traits<char>, std::allocator<char> > const&, std::__cxx11::basic_string<char, std::char_traits<char>, std::allocator<char> > const&, Sage::GenSrcLoc const&, hiertreeproto::NamedBlockCore_NamedBlockKind, bool) [clone .cold]
PUBLIC 1fee9 0 (anonymous namespace)::processPrimitiveTypeMsg(int, std::__cxx11::basic_string<char, std::char_traits<char>, std::allocator<char> > const&, Sage::GenSrcLoc const&, hiertreeproto::NamedBlockCore_NamedBlockKind, bool) [clone .cold]
PUBLIC 1ff23 0 (anonymous namespace)::processGenvarMsg(int, std::__cxx11::basic_string<char, std::char_traits<char>, std::allocator<char> > const&, Sage::GenSrcLoc const&, int, bool) [clone .cold]
PUBLIC 1ff5a 0 (anonymous namespace)::processStitchPointMsg(int, std::__cxx11::basic_string<char, std::char_traits<char>, std::allocator<char> > const&, std::__cxx11::basic_string<char, std::char_traits<char>, std::allocator<char> > const&, std::__cxx11::basic_string<char, std::char_traits<char>, std::allocator<char> > const&, int, Sage::GenSrcLoc const&, bool) [clone .cold]
PUBLIC 1ff91 0 (anonymous namespace)::processHegMacroElem(std::__cxx11::basic_string<char, std::char_traits<char>, std::allocator<char> > const&, hegproto::MacroElement_Type, Sage::GenSrcLoc const&, int, hegproto::MacroElement*) [clone .cold]
PUBLIC 1ffc4 0 Sage::Proto::addHegMacroElem(std::__cxx11::basic_string<char, std::char_traits<char>, std::allocator<char> > const&, hegproto::MacroElement_Type, Sage::GenSrcLoc const&, int, hegproto::MacroArg&) [clone .cold]
PUBLIC 1ffdb 0 Sage::Proto::startParam(hiertreeproto::ModuleItem&, int, std::__cxx11::basic_string<char, std::char_traits<char>, std::allocator<char> > const&, Sage::GenSrcLoc const&) [clone .cold]
PUBLIC 1fff7 0 Sage::Proto::startSignal(hiertreeproto::ModuleItem&, int, std::__cxx11::basic_string<char, std::char_traits<char>, std::allocator<char> > const&, Sage::GenSrcLoc const&, bool, bool, bool, hiertreeproto::Signal_SigVis) [clone .cold]
PUBLIC 20013 0 Sage::Proto::startHegMacroRef(int, Sage::GenSrcLoc const&, int, int, int, std::__cxx11::basic_string<char, std::char_traits<char>, std::allocator<char> > const&, bool) [clone .cold]
PUBLIC 2005d 0 Sage::Proto::startHegMacroArg(Sage::GenSrcLoc const&, hegproto::MacroRef&) [clone .cold]
PUBLIC 20073 0 Sage::Proto::addPredefinedType(std::__cxx11::basic_string<char, std::char_traits<char>, std::allocator<char> > const&, bool, bool, bool, typeinfoproto::PredefinedType_Type, Sage::Wrapper<parameterproto::ParameterBasicInfo>&) [clone .cold]
PUBLIC 200a4 0 Sage::Proto::addPredefinedType(std::__cxx11::basic_string<char, std::char_traits<char>, std::allocator<char> > const&, bool, bool, bool, typeinfoproto::PredefinedType_Type, Sage::Wrapper<hiertreeproto::Signal>&) [clone .cold]
PUBLIC 200c6 0 Sage::Proto::addStruct(std::__cxx11::basic_string<char, std::char_traits<char>, std::allocator<char> > const&, bool, bool, bool, bool, std::tuple<bool, bool, long, long>&, Sage::Wrapper<parameterproto::ParameterBasicInfo>&) [clone .cold]
PUBLIC 200f4 0 Sage::Proto::addStruct(std::__cxx11::basic_string<char, std::char_traits<char>, std::allocator<char> > const&, bool, bool, bool, bool, std::tuple<bool, bool, long, long>&, Sage::Wrapper<hiertreeproto::Signal>&) [clone .cold]
PUBLIC 20122 0 Sage::Proto::addUnion(std::__cxx11::basic_string<char, std::char_traits<char>, std::allocator<char> > const&, bool, bool, bool, bool, std::tuple<bool, bool, long, long>&, Sage::Wrapper<parameterproto::ParameterBasicInfo>&) [clone .cold]
PUBLIC 20150 0 Sage::Proto::addUnion(std::__cxx11::basic_string<char, std::char_traits<char>, std::allocator<char> > const&, bool, bool, bool, bool, std::tuple<bool, bool, long, long>&, Sage::Wrapper<hiertreeproto::Signal>&) [clone .cold]
PUBLIC 2017e 0 Sage::Proto::finishComposite(Sage::Wrapper<parameterproto::ParameterBasicInfo>&) [clone .cold]
PUBLIC 201ac 0 Sage::Proto::finishComposite(Sage::Wrapper<hiertreeproto::Signal>&) [clone .cold]
PUBLIC 201ce 0 Sage::Proto::addField(std::__cxx11::basic_string<char, std::char_traits<char>, std::allocator<char> > const&, typeinfoproto::TypeInfoTree_Type, Sage::Wrapper<parameterproto::ParameterBasicInfo>&) [clone .cold]
PUBLIC 201fc 0 Sage::Proto::addField(std::__cxx11::basic_string<char, std::char_traits<char>, std::allocator<char> > const&, typeinfoproto::TypeInfoTree_Type, Sage::Wrapper<hiertreeproto::Signal>&) [clone .cold]
PUBLIC 2021e 0 Sage::Proto::addEnum(std::__cxx11::basic_string<char, std::char_traits<char>, std::allocator<char> > const&, std::vector<std::pair<std::__cxx11::basic_string<char, std::char_traits<char>, std::allocator<char> >, common::ByteStream*>, std::allocator<std::pair<std::__cxx11::basic_string<char, std::char_traits<char>, std::allocator<char> >, common::ByteStream*> > > const&, unsigned long, bool, bool, bool, Sage::Wrapper<hiertreeproto::Signal>&) [clone .cold]
PUBLIC 20240 0 Sage::Proto::addEnum(std::__cxx11::basic_string<char, std::char_traits<char>, std::allocator<char> > const&, std::vector<std::pair<std::__cxx11::basic_string<char, std::char_traits<char>, std::allocator<char> >, common::ByteStream*>, std::allocator<std::pair<std::__cxx11::basic_string<char, std::char_traits<char>, std::allocator<char> >, common::ByteStream*> > > const&, unsigned long, bool, bool, bool, Sage::Wrapper<parameterproto::ParameterBasicInfo>&) [clone .cold]
PUBLIC 2025f 0 Sage::Proto::addArray(std::__cxx11::basic_string<char, std::char_traits<char>, std::allocator<char> > const&, std::vector<std::tuple<bool, bool, long, long>, std::allocator<std::tuple<bool, bool, long, long> > > const&, typeinfoproto::TypeInfoTree_Type, bool, bool, Sage::Wrapper<parameterproto::ParameterBasicInfo>&) [clone .cold]
PUBLIC 202b8 0 Sage::Proto::addArray(std::__cxx11::basic_string<char, std::char_traits<char>, std::allocator<char> > const&, std::vector<std::tuple<bool, bool, long, long>, std::allocator<std::tuple<bool, bool, long, long> > > const&, typeinfoproto::TypeInfoTree_Type, bool, bool, Sage::Wrapper<hiertreeproto::Signal>&) [clone .cold]
PUBLIC 20311 0 Sage::Proto::addQDA(std::__cxx11::basic_string<char, std::char_traits<char>, std::allocator<char> > const&, typeinfoproto::QDAArray_Type, typeinfoproto::TypeInfoTree_Type, typeinfoproto::TypeInfoTree_Type, Sage::Wrapper<parameterproto::ParameterBasicInfo>&) [clone .cold]
PUBLIC 20342 0 Sage::Proto::addQDA(std::__cxx11::basic_string<char, std::char_traits<char>, std::allocator<char> > const&, typeinfoproto::QDAArray_Type, typeinfoproto::TypeInfoTree_Type, typeinfoproto::TypeInfoTree_Type, Sage::Wrapper<hiertreeproto::Signal>&) [clone .cold]
PUBLIC 20364 0 Sage::Proto::addClassHandle(std::__cxx11::basic_string<char, std::char_traits<char>, std::allocator<char> > const&, int, int, typeinfoproto::ClassHandle_Type, typeinfoproto::TypeInfoTree_Type, Sage::Wrapper<parameterproto::ParameterBasicInfo>&) [clone .cold]
PUBLIC 2039e 0 Sage::Proto::addClassHandle(std::__cxx11::basic_string<char, std::char_traits<char>, std::allocator<char> > const&, int, int, typeinfoproto::ClassHandle_Type, typeinfoproto::TypeInfoTree_Type, Sage::Wrapper<hiertreeproto::Signal>&) [clone .cold]
PUBLIC 203d8 0 Sage::Proto::addVirtualInterface(std::__cxx11::basic_string<char, std::char_traits<char>, std::allocator<char> > const&, int, int, Sage::Wrapper<parameterproto::ParameterBasicInfo>&) [clone .cold]
PUBLIC 203fc 0 Sage::Proto::addVirtualInterface(std::__cxx11::basic_string<char, std::char_traits<char>, std::allocator<char> > const&, int, int, Sage::Wrapper<hiertreeproto::Signal>&) [clone .cold]
PUBLIC 20420 0 Sage::Proto::recordHegVariable(int, std::__cxx11::basic_string<char, std::char_traits<char>, std::allocator<char> > const&, Sage::GenSrcLoc const&) [clone .cold]
PUBLIC 20443 0 Sage::Proto::recordHegParameter(int, std::__cxx11::basic_string<char, std::char_traits<char>, std::allocator<char> > const&, Sage::GenSrcLoc const&) [clone .cold]
PUBLIC 20466 0 Sage::Proto::startHegModule(int, std::__cxx11::basic_string<char, std::char_traits<char>, std::allocator<char> > const&, Sage::GenSrcLoc const&, std::vector<int, std::allocator<int> > const&, bool) [clone .cold]
PUBLIC 204a8 0 Sage::Proto::recordHegPortDecl(int, std::__cxx11::basic_string<char, std::char_traits<char>, std::allocator<char> > const&, hegproto::PortDecl_Direction, int, Sage::GenSrcLoc const&) [clone .cold]
PUBLIC 204db 0 Sage::Proto::recordHegElemRef(int, int, Sage::GenSrcLoc const&) [clone .cold]
PUBLIC 2051c 0 Sage::Proto::recordHegConstant(int, std::__cxx11::basic_string<char, std::char_traits<char>, std::allocator<char> > const&, Sage::GenSrcLoc const&) [clone .cold]
PUBLIC 2053f 0 Sage::Proto::recordHegInstance(int, int, std::__cxx11::basic_string<char, std::char_traits<char>, std::allocator<char> > const&, std::vector<int, std::allocator<int> > const&, std::vector<int, std::allocator<int> > const&, Sage::GenSrcLoc const&) [clone .cold]
PUBLIC 205a0 0 Sage::Proto::recordHegAssignment(int, hegproto::Assign_Type, int, int, Sage::GenSrcLoc const&) [clone .cold]
PUBLIC 205ea 0 Sage::Proto::recordHegConditional(int, hegproto::ConditionalStmt_Type, int, int, int, Sage::GenSrcLoc const&) [clone .cold]
PUBLIC 2061b 0 Sage::Proto::recordHegSeqBlock(int, std::__cxx11::basic_string<char, std::char_traits<char>, std::allocator<char> > const&, std::vector<int, std::allocator<int> > const&, Sage::GenSrcLoc const&) [clone .cold]
PUBLIC 2065e 0 Sage::Proto::recordHegAlways(int, int, Sage::GenSrcLoc const&) [clone .cold]
PUBLIC 20691 0 Sage::Proto::recordHegAlwaysEventControl(int, std::vector<int, std::allocator<int> > const&, int, Sage::GenSrcLoc const&) [clone .cold]
PUBLIC 206f6 0 Sage::Proto::recordHegEventExpression(int, hegproto::EventExpression_Type, int, Sage::GenSrcLoc const&) [clone .cold]
PUBLIC 20730 0 Sage::Proto::recordHegBinaryOp(int, int, int, hegproto::BinaryOperator_Type, Sage::GenSrcLoc const&) [clone .cold]
PUBLIC 2077a 0 Sage::Proto::recordHegIncludeRef(std::__cxx11::basic_string<char, std::char_traits<char>, std::allocator<char> > const&, Sage::GenSrcLoc const&) [clone .cold]
PUBLIC 207cf 0 Sage::Proto::recordHegSourceChunk(std::__cxx11::basic_string<char, std::char_traits<char>, std::allocator<char> > const&, int, int) [clone .cold]
PUBLIC 2080f 0 Sage::Proto::recordHegMacroDef(int, std::__cxx11::basic_string<char, std::char_traits<char>, std::allocator<char> > const&, Sage::GenSrcLoc const&, std::__cxx11::basic_string<char, std::char_traits<char>, std::allocator<char> > const&) [clone .cold]
PUBLIC 20832 0 Sage::Proto::recordHegUnhandledType(int, Sage::GenSrcLoc const&) [clone .cold]
PUBLIC 20859 0 Sage::Proto::commSignalShutdown(bool) [clone .cold]
PUBLIC 20869 0 Sage::loadLib(char const*) [clone .cold]
PUBLIC 20890 0 Sage::StringValue::record(unsigned char*, unsigned long) [clone .cold]
PUBLIC 20938 0 Sage::BasicValue::record(unsigned char*, unsigned long) [clone .cold]
PUBLIC 209e6 0 (anonymous namespace)::getTypeName(vst_s*, via_external_s, long*) [clone .cold]
PUBLIC 209fc 0 Sage::Type::recordDanglingTypeRefs(int, std::__cxx11::basic_string<char, std::char_traits<char>, std::allocator<char> > const&, long*) [clone .cold]
PUBLIC 20aa0 0 (anonymous namespace)::TypeObj<Sage::Wrapper<parameterproto::ParameterBasicInfo> >::finishComposite() [clone .isra.0] [clone .cold]
PUBLIC 20b4c 0 (anonymous namespace)::TypeObj<Sage::Wrapper<hiertreeproto::Signal> >::finishComposite() [clone .isra.0] [clone .cold]
PUBLIC 20bf8 0 Sage::CompoundValue* (anonymous namespace)::doPredefType<Sage::Wrapper<parameterproto::ParameterBasicInfo> >(std::__cxx11::basic_string<char, std::char_traits<char>, std::allocator<char> > const&, bool, typeinfoproto::PredefinedType_Type, (anonymous namespace)::TypeObj<Sage::Wrapper<parameterproto::ParameterBasicInfo> >&, bool, bool, unsigned long, bool, unsigned char*) [clone .cold]
PUBLIC 20cae 0 Sage::CompoundValue* (anonymous namespace)::doPredefType<Sage::Wrapper<hiertreeproto::Signal> >(std::__cxx11::basic_string<char, std::char_traits<char>, std::allocator<char> > const&, bool, typeinfoproto::PredefinedType_Type, (anonymous namespace)::TypeObj<Sage::Wrapper<hiertreeproto::Signal> >&, bool, bool, unsigned long, bool, unsigned char*) [clone .cold]
PUBLIC 20d64 0 Sage::CompoundValue* (anonymous namespace)::doStructUnionType<Sage::Wrapper<parameterproto::ParameterBasicInfo> >(std::__cxx11::basic_string<char, std::char_traits<char>, std::allocator<char> > const&, via_external_s, bool, bool, (anonymous namespace)::TypeObj<Sage::Wrapper<parameterproto::ParameterBasicInfo> >&, unsigned long, bool, unsigned char*, unsigned long, bool, bool) [clone .cold]
PUBLIC 210bc 0 Sage::CompoundValue* (anonymous namespace)::doObjTypeAndValue<Sage::Wrapper<parameterproto::ParameterBasicInfo> >(vst_s*, via_external_s, (anonymous namespace)::TypeObj<Sage::Wrapper<parameterproto::ParameterBasicInfo> >&, bool, std::__cxx11::basic_string<char, std::char_traits<char>, std::allocator<char> >, unsigned char*, unsigned long, bool) [clone .cold]
PUBLIC 21384 0 Sage::Type::recordParameter(xst_s*, long*, hiertreeproto::ModuleItem&) [clone .cold]
PUBLIC 21549 0 Sage::CompoundValue* (anonymous namespace)::doObjTypeAndValue<Sage::Wrapper<hiertreeproto::Signal> >(vst_s*, via_external_s, (anonymous namespace)::TypeObj<Sage::Wrapper<hiertreeproto::Signal> >&, bool, std::__cxx11::basic_string<char, std::char_traits<char>, std::allocator<char> >, unsigned char*, unsigned long, bool) [clone .constprop.0] [clone .cold]
PUBLIC 21929 0 void (anonymous namespace)::doClassType<Sage::Wrapper<hiertreeproto::Signal> >(std::__cxx11::basic_string<char, std::char_traits<char>, std::allocator<char> > const&, via_external_s, (anonymous namespace)::TypeObj<Sage::Wrapper<hiertreeproto::Signal> >&, typeinfoproto::ClassHandle_Type, bool) [clone .cold]
PUBLIC 21b0b 0 Sage::CompoundValue* (anonymous namespace)::doVectorType<Sage::Wrapper<hiertreeproto::Signal> >(std::__cxx11::basic_string<char, std::char_traits<char>, std::allocator<char> > const&, via_external_s, bool, (anonymous namespace)::TypeObj<Sage::Wrapper<hiertreeproto::Signal> >&, xst_s*, long*, unsigned long, bool, unsigned char*, unsigned long, bool, bool) [clone .constprop.0] [clone .cold]
PUBLIC 21cb5 0 void (anonymous namespace)::doWireType<Sage::Wrapper<hiertreeproto::Signal> >(xst_s*, long*, vst_s*, via_external_s, (anonymous namespace)::TypeObj<Sage::Wrapper<hiertreeproto::Signal> >&) [clone .cold]
PUBLIC 21ce1 0 Sage::Type::recordSignal(xst_s*, long*, hiertreeproto::ModuleItem&, bool, bool) [clone .cold]
PUBLIC 21eac 0 Sage::CompoundValue* (anonymous namespace)::doStaticArrayType<Sage::Wrapper<hiertreeproto::Signal> >(std::__cxx11::basic_string<char, std::char_traits<char>, std::allocator<char> > const&, via_external_s, bool, (anonymous namespace)::TypeObj<Sage::Wrapper<hiertreeproto::Signal> >&, xst_s*, long*, unsigned char*, unsigned long, bool, bool) [clone .constprop.0] [clone .cold]
PUBLIC 2204d 0 Sage::HDLGraph::doUnhandledType(vst_s*, long*, int) [clone .cold]
PUBLIC 22104 0 (anonymous namespace)::doElemRef(vst_s*, long*) [clone .cold]
PUBLIC 221d0 0 (anonymous namespace)::doExpr(vst_s*, long*) [clone .cold]
PUBLIC 224bd 0 (anonymous namespace)::doAssignment(vst_s*, long*, hegproto::Assign_Type) [clone .cold]
PUBLIC 2258f 0 (anonymous namespace)::doStatement(vst_s*, long*) [clone .cold]
PUBLIC 22774 0 (anonymous namespace)::doEventControls(vst_s*, std::vector<int, std::allocator<int> >&, long*) [clone .cold]
PUBLIC 22833 0 (anonymous namespace)::doDeclarativeItems(ssl_item_s*) [clone .isra.0] [clone .cold]
PUBLIC 22d10 0 Sage::HDLGraph::recordHDLGraph(ssl_item_s*) [clone .cold]
PUBLIC 22fad 0 (anonymous namespace)::getNameFromVst(vst_s*) [clone .cold]
PUBLIC 22fc3 0 Sage::Text::getSrcLoc(xst_s*, long*) [clone .cold]
PUBLIC 23018 0 Sage::Text::recordSourceChunks(xst_s*) [clone .cold]
PUBLIC 230d5 0 Sage::Text::recordIncludeRefs(xst_s*) [clone .cold]
PUBLIC 231ca 0 Sage::Text::recordTextRefs(ssl_item_s*) [clone .cold]
PUBLIC 233e8 0 (anonymous namespace)::doMacroDef(mac_def_s*) [clone .cold]
PUBLIC 234eb 0 (anonymous namespace)::doMacroRef(mac_ref_s*, long*) [clone .cold]
PUBLIC 23958 0 Sage::IO::IpcStream::connect() [clone .cold]
PUBLIC 23970 0 Sage::IO::IpcStream::IpcStream() [clone .cold]
PUBLIC 239a7 0 Sage::IO::connectWriter(std::__cxx11::basic_string<char, std::char_traits<char>, std::allocator<char> >, char const*, bool, bool) [clone .cold]
PUBLIC 239e4 0 Sage::IO::IpcStream::IpcStream(std::__cxx11::basic_string<char, std::char_traits<char>, std::allocator<char> > const&) [clone .cold]
PUBLIC 23a30 0 boost::disable_if<boost::property_tree::detail::is_translator<std::__cxx11::basic_string<char, std::char_traits<char>, std::allocator<char> > >, std::__cxx11::basic_string<char, std::char_traits<char>, std::allocator<char> > >::type boost::property_tree::basic_ptree<std::__cxx11::basic_string<char, std::char_traits<char>, std::allocator<char> >, std::__cxx11::basic_string<char, std::char_traits<char>, std::allocator<char> >, std::less<std::__cxx11::basic_string<char, std::char_traits<char>, std::allocator<char> > > >::get<std::__cxx11::basic_string<char, std::char_traits<char>, std::allocator<char> > >(boost::property_tree::string_path<std::__cxx11::basic_string<char, std::char_traits<char>, std::allocator<char> >, boost::property_tree::id_translator<std::__cxx11::basic_string<char, std::char_traits<char>, std::allocator<char> > > > const&, std::__cxx11::basic_string<char, std::char_traits<char>, std::allocator<char> > const&) const [clone .constprop.0] [clone .cold]
PUBLIC 23a68 0 boost::property_tree::basic_ptree<std::__cxx11::basic_string<char, std::char_traits<char>, std::allocator<char> >, std::__cxx11::basic_string<char, std::char_traits<char>, std::allocator<char> >, std::less<std::__cxx11::basic_string<char, std::char_traits<char>, std::allocator<char> > > >& boost::property_tree::basic_ptree<std::__cxx11::basic_string<char, std::char_traits<char>, std::allocator<char> >, std::__cxx11::basic_string<char, std::char_traits<char>, std::allocator<char> >, std::less<std::__cxx11::basic_string<char, std::char_traits<char>, std::allocator<char> > > >::put<std::__cxx11::basic_string<char, std::char_traits<char>, std::allocator<char> >, boost::property_tree::id_translator<std::__cxx11::basic_string<char, std::char_traits<char>, std::allocator<char> > > >(boost::property_tree::string_path<std::__cxx11::basic_string<char, std::char_traits<char>, std::allocator<char> >, boost::property_tree::id_translator<std::__cxx11::basic_string<char, std::char_traits<char>, std::allocator<char> > > > const&, std::__cxx11::basic_string<char, std::char_traits<char>, std::allocator<char> > const&, boost::property_tree::id_translator<std::__cxx11::basic_string<char, std::char_traits<char>, std::allocator<char> > >) [clone .constprop.0] [clone .cold]
PUBLIC 23a8e 0 Sage::PartDsgn::readXmclonePrepareData(char*, std::vector<std::array<std::__cxx11::basic_string<char, std::char_traits<char>, std::allocator<char> >, 6ul>, std::allocator<std::array<std::__cxx11::basic_string<char, std::char_traits<char>, std::allocator<char> >, 6ul> > >&, std::vector<unsigned long, std::allocator<unsigned long> >&, std::map<std::pair<std::__cxx11::basic_string<char, std::char_traits<char>, std::allocator<char> >, std::__cxx11::basic_string<char, std::char_traits<char>, std::allocator<char> > >, std::set<std::pair<std::__cxx11::basic_string<char, std::char_traits<char>, std::allocator<char> >, std::__cxx11::basic_string<char, std::char_traits<char>, std::allocator<char> > >, std::less<std::pair<std::__cxx11::basic_string<char, std::char_traits<char>, std::allocator<char> >, std::__cxx11::basic_string<char, std::char_traits<char>, std::allocator<char> > > >, std::allocator<std::pair<std::__cxx11::basic_string<char, std::char_traits<char>, std::allocator<char> >, std::__cxx11::basic_string<char, std::char_traits<char>, std::allocator<char> > > > >, std::less<std::pair<std::__cxx11::basic_string<char, std::char_traits<char>, std::allocator<char> >, std::__cxx11::basic_string<char, std::char_traits<char>, std::allocator<char> > > >, std::allocator<std::pair<std::pair<std::__cxx11::basic_string<char, std::char_traits<char>, std::allocator<char> >, std::__cxx11::basic_string<char, std::char_traits<char>, std::allocator<char> > > const, std::set<std::pair<std::__cxx11::basic_string<char, std::char_traits<char>, std::allocator<char> >, std::__cxx11::basic_string<char, std::char_traits<char>, std::allocator<char> > >, std::less<std::pair<std::__cxx11::basic_string<char, std::char_traits<char>, std::allocator<char> >, std::__cxx11::basic_string<char, std::char_traits<char>, std::allocator<char> > > >, std::allocator<std::pair<std::__cxx11::basic_string<char, std::char_traits<char>, std::allocator<char> >, std::__cxx11::basic_string<char, std::char_traits<char>, std::allocator<char> > > > > > > >&, std::vector<std::__cxx11::basic_string<char, std::char_traits<char>, std::allocator<char> >, std::allocator<std::__cxx11::basic_string<char, std::char_traits<char>, std::allocator<char> > > >&) [clone .cold]
PUBLIC 23d9c 0 Sage::PartDsgn::xmclonePrepare(char*, void*, std::vector<unsigned long, std::allocator<unsigned long> >&, std::map<std::pair<std::__cxx11::basic_string<char, std::char_traits<char>, std::allocator<char> >, std::__cxx11::basic_string<char, std::char_traits<char>, std::allocator<char> > >, std::set<std::pair<std::__cxx11::basic_string<char, std::char_traits<char>, std::allocator<char> >, std::__cxx11::basic_string<char, std::char_traits<char>, std::allocator<char> > >, std::less<std::pair<std::__cxx11::basic_string<char, std::char_traits<char>, std::allocator<char> >, std::__cxx11::basic_string<char, std::char_traits<char>, std::allocator<char> > > >, std::allocator<std::pair<std::__cxx11::basic_string<char, std::char_traits<char>, std::allocator<char> >, std::__cxx11::basic_string<char, std::char_traits<char>, std::allocator<char> > > > >, std::less<std::pair<std::__cxx11::basic_string<char, std::char_traits<char>, std::allocator<char> >, std::__cxx11::basic_string<char, std::char_traits<char>, std::allocator<char> > > >, std::allocator<std::pair<std::pair<std::__cxx11::basic_string<char, std::char_traits<char>, std::allocator<char> >, std::__cxx11::basic_string<char, std::char_traits<char>, std::allocator<char> > > const, std::set<std::pair<std::__cxx11::basic_string<char, std::char_traits<char>, std::allocator<char> >, std::__cxx11::basic_string<char, std::char_traits<char>, std::allocator<char> > >, std::less<std::pair<std::__cxx11::basic_string<char, std::char_traits<char>, std::allocator<char> >, std::__cxx11::basic_string<char, std::char_traits<char>, std::allocator<char> > > >, std::allocator<std::pair<std::__cxx11::basic_string<char, std::char_traits<char>, std::allocator<char> >, std::__cxx11::basic_string<char, std::char_traits<char>, std::allocator<char> > > > > > > >&, std::vector<std::__cxx11::basic_string<char, std::char_traits<char>, std::allocator<char> >, std::allocator<std::__cxx11::basic_string<char, std::char_traits<char>, std::allocator<char> > > >&) [clone .cold]
PUBLIC 241c1 0 _GLOBAL__sub_I_partitioned_design.cc.cold
PUBLIC 2426c 0 boost::exception_detail::clone_impl<boost::exception_detail::error_info_injector<boost::property_tree::json_parser::json_parser_error> >::rethrow() const
PUBLIC 242ea 0 virtual thunk to boost::exception_detail::clone_impl<boost::exception_detail::error_info_injector<boost::property_tree::json_parser::json_parser_error> >::rethrow() const
PUBLIC 24370 0 boost::exception_detail::clone_impl<boost::exception_detail::error_info_injector<boost::property_tree::ptree_bad_path> >::rethrow() const
PUBLIC 243e8 0 virtual thunk to boost::exception_detail::clone_impl<boost::exception_detail::error_info_injector<boost::property_tree::ptree_bad_path> >::rethrow() const
PUBLIC 24468 0 boost::exception_detail::clone_impl<boost::exception_detail::error_info_injector<boost::property_tree::ptree_bad_data> >::rethrow() const
PUBLIC 244e0 0 virtual thunk to boost::exception_detail::clone_impl<boost::exception_detail::error_info_injector<boost::property_tree::ptree_bad_data> >::rethrow() const
PUBLIC 2455f 0 void boost::throw_exception<boost::exception_detail::error_info_injector<boost::property_tree::json_parser::json_parser_error> >(boost::exception_detail::error_info_injector<boost::property_tree::json_parser::json_parser_error> const&)
PUBLIC 245cf 0 void boost::throw_exception<boost::exception_detail::error_info_injector<boost::property_tree::ptree_bad_path> >(boost::exception_detail::error_info_injector<boost::property_tree::ptree_bad_path> const&)
PUBLIC 2463f 0 void boost::throw_exception<boost::exception_detail::error_info_injector<boost::property_tree::ptree_bad_data> >(boost::exception_detail::error_info_injector<boost::property_tree::ptree_bad_data> const&)
PUBLIC 246b0 0 google::protobuf::internal::LogMessage::operator<<(google::protobuf::util::Status const&) [clone .cold]
PUBLIC 246cc 0 google::protobuf::internal::LogMessage::Finish() [clone .cold]
PUBLIC 247b2 0 google::protobuf::internal::LogMessage::operator<<(google::protobuf::uint128 const&) [clone .cold]
PUBLIC 2485a 0 google::protobuf::internal::VerifyVersion(int, int, char const*) [clone .cold]
PUBLIC 248ca 0 google::protobuf::internal::LogMessage::operator<<(google::protobuf::StringPiece const&) [clone .cold]
PUBLIC 248e0 0 google::protobuf::uint128::DivModImpl(google::protobuf::uint128, google::protobuf::uint128, google::protobuf::uint128*, google::protobuf::uint128*) [clone .cold]
PUBLIC 248f0 0 google::protobuf::operator<<(std::ostream&, google::protobuf::uint128 const&) [clone .cold]
PUBLIC 249a8 0 google::protobuf::util::Status::Status(google::protobuf::util::error::Code, google::protobuf::StringPiece) [clone .cold]
PUBLIC 249be 0 google::protobuf::util::Status::ToString[abi:cxx11]() const [clone .cold]
PUBLIC 249eb 0 google::protobuf::util::operator<<(std::ostream&, google::protobuf::util::Status const&) [clone .cold]
PUBLIC 24a06 0 google::protobuf::internal::ArenaImpl::NewBlock(google::protobuf::internal::ArenaImpl::Block*, unsigned long) [clone .cold]
PUBLIC 24a16 0 google::protobuf::internal::InitProtobufDefaults() [clone .cold]
PUBLIC 24a2a 0 google::protobuf::internal::SerializeMessageNoTable(google::protobuf::MessageLite const*, google::protobuf::internal::ArrayOutput*) [clone .cold]
PUBLIC 24a3a 0 google::protobuf::internal::SerializeNotImplemented(int) [clone .cold]
PUBLIC 24a4a 0 google::protobuf::internal::GenericSwap(google::protobuf::MessageLite*, google::protobuf::MessageLite*) [clone .cold]
PUBLIC 24a5c 0 google::protobuf::internal::InitSCCImpl(google::protobuf::internal::SCCInfoBase*) [clone .cold]
PUBLIC 24a6c 0 google::protobuf::internal::SerializeInternalToArray(unsigned char const*, google::protobuf::internal::FieldMetadata const*, int, bool, unsigned char*) [clone .cold]
PUBLIC 24a7c 0 google::protobuf::MessageLite::LogInitializationErrorMessage() const [clone .cold]
PUBLIC 24ad0 0 google::protobuf::MessageLite::SerializePartialToCodedStream(google::protobuf::io::CodedOutputStream*) const [clone .cold]
PUBLIC 24b3e 0 google::protobuf::MessageLite::SerializePartialToZeroCopyStream(google::protobuf::io::ZeroCopyOutputStream*) const [clone .cold]
PUBLIC 24b5e 0 google::protobuf::MessageLite::AppendPartialToString(std::__cxx11::basic_string<char, std::char_traits<char>, std::allocator<char> >*) const [clone .cold]
PUBLIC 24b7e 0 google::protobuf::MessageLite::SerializePartialToArray(void*, int) const [clone .cold]
PUBLIC 24b9e 0 google::protobuf::MessageLite::SerializeAsString[abi:cxx11]() const [clone .cold]
PUBLIC 24bb4 0 google::protobuf::MessageLite::SerializePartialAsString[abi:cxx11]() const [clone .cold]
PUBLIC 24bca 0 google::protobuf::ShutdownProtobufLibrary() [clone .cold]
PUBLIC 24bda 0 google::protobuf::internal::OnShutdownRun(void (*)(void const*), void const*) [clone .cold]
PUBLIC 24c00 0 google::protobuf::MessageLite::ParseFromFileDescriptor(int) [clone .cold]
PUBLIC 24c2c 0 google::protobuf::MessageLite::ParsePartialFromFileDescriptor(int) [clone .cold]
PUBLIC 24c58 0 google::protobuf::MessageLite::ParseFromIstream(std::istream*) [clone .cold]
PUBLIC 24c84 0 google::protobuf::MessageLite::ParsePartialFromIstream(std::istream*) [clone .cold]
PUBLIC 24cb0 0 google::protobuf::MessageLite::SerializeToFileDescriptor(int) const [clone .cold]
PUBLIC 24cc0 0 google::protobuf::MessageLite::SerializePartialToFileDescriptor(int) const [clone .cold]
PUBLIC 24cd0 0 google::protobuf::MessageLite::SerializeToOstream(std::ostream*) const [clone .cold]
PUBLIC 24ce0 0 google::protobuf::MessageLite::SerializePartialToOstream(std::ostream*) const [clone .cold]
PUBLIC 24cf0 0 google::protobuf::internal::VerifyUTF8(google::protobuf::StringPiece, char const*) [clone .cold]
PUBLIC 24d08 0 google::protobuf::internal::WireFormatLite::SkipField(google::protobuf::io::CodedInputStream*, unsigned int, google::protobuf::io::CodedOutputStream*) [clone .cold]
PUBLIC 24d1e 0 google::protobuf::internal::WireFormatLite::WriteString(int, std::__cxx11::basic_string<char, std::char_traits<char>, std::allocator<char> > const&, google::protobuf::io::CodedOutputStream*) [clone .cold]
PUBLIC 24d2e 0 google::protobuf::internal::WireFormatLite::WriteStringMaybeAliased(int, std::__cxx11::basic_string<char, std::char_traits<char>, std::allocator<char> > const&, google::protobuf::io::CodedOutputStream*) [clone .cold]
PUBLIC 24d3e 0 google::protobuf::internal::WireFormatLite::WriteBytes(int, std::__cxx11::basic_string<char, std::char_traits<char>, std::allocator<char> > const&, google::protobuf::io::CodedOutputStream*) [clone .cold]
PUBLIC 24d4e 0 google::protobuf::internal::WireFormatLite::WriteBytesMaybeAliased(int, std::__cxx11::basic_string<char, std::char_traits<char>, std::allocator<char> > const&, google::protobuf::io::CodedOutputStream*) [clone .cold]
PUBLIC 24d5e 0 google::protobuf::internal::PrintUTF8ErrorLog(char const*, char const*, bool) [clone .cold]
PUBLIC 24d8c 0 google::protobuf::io::CodedInputStream::PrintTotalBytesLimitError() [clone .cold]
PUBLIC 24d9c 0 google::protobuf::io::CodedInputStream::Refresh() [clone .cold]
PUBLIC 24dac 0 google::protobuf::io::ConcatenatingInputStream::BackUp(int) [clone .cold]
PUBLIC 24dbc 0 google::protobuf::io::FileInputStream::CopyingFileInputStream::Read(void*, int) [clone .cold]
PUBLIC 24dcc 0 google::protobuf::io::FileInputStream::CopyingFileInputStream::Skip(int) [clone .cold]
PUBLIC 24ddc 0 google::protobuf::io::FileOutputStream::CopyingFileOutputStream::Write(void const*, int) [clone .cold]
PUBLIC 24dec 0 google::protobuf::io::FileInputStream::CopyingFileInputStream::Close() [clone .cold]
PUBLIC 24dfc 0 google::protobuf::io::FileInputStream::FileInputStream(int, int) [clone .cold]
PUBLIC 24e0c 0 google::protobuf::io::FileOutputStream::CopyingFileOutputStream::Close() [clone .cold]
PUBLIC 24e1c 0 google::protobuf::io::FileOutputStream::FileOutputStream(int, int) [clone .cold]
PUBLIC 24e2c 0 google::protobuf::io::IstreamInputStream::IstreamInputStream(std::istream*, int) [clone .cold]
PUBLIC 24e3c 0 google::protobuf::io::OstreamOutputStream::OstreamOutputStream(std::ostream*, int) [clone .cold]
PUBLIC 24e4c 0 google::protobuf::io::ArrayInputStream::BackUp(int) [clone .cold]
PUBLIC 24e7c 0 google::protobuf::io::ArrayInputStream::Skip(int) [clone .cold]
PUBLIC 24e8c 0 google::protobuf::io::ArrayOutputStream::BackUp(int) [clone .cold]
PUBLIC 24ebc 0 google::protobuf::io::StringOutputStream::ByteCount() const [clone .cold]
PUBLIC 24ecc 0 google::protobuf::io::CopyingOutputStreamAdaptor::BackUp(int) [clone .cold]
PUBLIC 24efc 0 google::protobuf::io::CopyingInputStreamAdaptor::BackUp(int) [clone .cold]
PUBLIC 24f2c 0 google::protobuf::io::StringOutputStream::BackUp(int) [clone .cold]
PUBLIC 24f5c 0 google::protobuf::io::StringOutputStream::Next(void**, int*) [clone .cold]
PUBLIC 24f7c 0 google::protobuf::io::CopyingInputStreamAdaptor::Skip(int) [clone .cold]
PUBLIC 24f8c 0 google::protobuf::io::CopyingInputStreamAdaptor::FreeBuffer() [clone .cold]
PUBLIC 24f9c 0 google::protobuf::Any* google::protobuf::Arena::CreateMaybeMessage<google::protobuf::Any>(google::protobuf::Arena*) [clone .cold]
PUBLIC 24fb2 0 google::protobuf::internal::ArenaStringPtr::CreateInstanceNoArena(std::__cxx11::basic_string<char, std::char_traits<char>, std::allocator<char> > const*) [clone .isra.0] [clone .constprop.0] [clone .cold]
PUBLIC 24fc8 0 google::protobuf::internal::AnyMetadata::PackFrom(google::protobuf::Message const&, std::__cxx11::basic_string<char, std::char_traits<char>, std::allocator<char> > const&) [clone .cold]
PUBLIC 24fe4 0 google::protobuf::internal::AnyMetadata::PackFrom(google::protobuf::Message const&) [clone .cold]
PUBLIC 24ffc 0 google::protobuf::(anonymous namespace)::OptionsToInterpret::~OptionsToInterpret()
PUBLIC 25034 0 google::protobuf::(anonymous namespace)::GeneratedDatabase() [clone .cold]
PUBLIC 25058 0 std::pair<std::__detail::_Node_iterator<std::pair<std::pair<google::protobuf::EnumDescriptor const*, int> const, google::protobuf::EnumValueDescriptor const*>, false, true>, bool> std::_Hashtable<std::pair<google::protobuf::EnumDescriptor const*, int>, std::pair<std::pair<google::protobuf::EnumDescriptor const*, int> const, google::protobuf::EnumValueDescriptor const*>, std::allocator<std::pair<std::pair<google::protobuf::EnumDescriptor const*, int> const, google::protobuf::EnumValueDescriptor const*> >, std::__detail::_Select1st, std::equal_to<std::pair<google::protobuf::EnumDescriptor const*, int> >, google::protobuf::(anonymous namespace)::PointerIntegerPairHash<std::pair<google::protobuf::EnumDescriptor const*, int> >, std::__detail::_Mod_range_hashing, std::__detail::_Default_ranged_hash, std::__detail::_Prime_rehash_policy, std::__detail::_Hashtable_traits<true, false, true> >::_M_insert<std::pair<std::pair<google::protobuf::EnumDescriptor const*, int> const, google::protobuf::EnumValueDescriptor const*> const&, std::__detail::_AllocNode<std::allocator<std::__detail::_Hash_node<std::pair<std::pair<google::protobuf::EnumDescriptor const*, int> const, google::protobuf::EnumValueDescriptor const*>, true> > > >(std::pair<std::pair<google::protobuf::EnumDescriptor const*, int> const, google::protobuf::EnumValueDescriptor const*> const&, std::__detail::_AllocNode<std::allocator<std::__detail::_Hash_node<std::pair<std::pair<google::protobuf::EnumDescriptor const*, int> const, google::protobuf::EnumValueDescriptor const*>, true> > > const&, std::integral_constant<bool, true>, unsigned long) [clone .isra.0] [clone .constprop.0] [clone .cold]
PUBLIC 25094 0 std::pair<std::__detail::_Node_iterator<std::pair<std::pair<void const*, char const*> const, google::protobuf::FieldDescriptor const*>, false, true>, bool> std::_Hashtable<std::pair<void const*, char const*>, std::pair<std::pair<void const*, char const*> const, google::protobuf::FieldDescriptor const*>, std::allocator<std::pair<std::pair<void const*, char const*> const, google::protobuf::FieldDescriptor const*> >, std::__detail::_Select1st, google::protobuf::(anonymous namespace)::PointerStringPairEqual, google::protobuf::(anonymous namespace)::PointerStringPairHash, std::__detail::_Mod_range_hashing, std::__detail::_Default_ranged_hash, std::__detail::_Prime_rehash_policy, std::__detail::_Hashtable_traits<true, false, true> >::_M_insert<std::pair<std::pair<void const*, char const*> const, google::protobuf::FieldDescriptor const*> const&, std::__detail::_AllocNode<std::allocator<std::__detail::_Hash_node<std::pair<std::pair<void const*, char const*> const, google::protobuf::FieldDescriptor const*>, true> > > >(std::pair<std::pair<void const*, char const*> const, google::protobuf::FieldDescriptor const*> const&, std::__detail::_AllocNode<std::allocator<std::__detail::_Hash_node<std::pair<std::pair<void const*, char const*> const, google::protobuf::FieldDescriptor const*>, true> > > const&, std::integral_constant<bool, true>, unsigned long) [clone .isra.0] [clone .constprop.0] [clone .cold]
PUBLIC 250d0 0 std::_Hashtable<std::pair<void const*, char const*>, std::pair<std::pair<void const*, char const*> const, google::protobuf::FieldDescriptor const*>, std::allocator<std::pair<std::pair<void const*, char const*> const, google::protobuf::FieldDescriptor const*> >, std::__detail::_Select1st, google::protobuf::(anonymous namespace)::PointerStringPairEqual, google::protobuf::(anonymous namespace)::PointerStringPairHash, std::__detail::_Mod_range_hashing, std::__detail::_Default_ranged_hash, std::__detail::_Prime_rehash_policy, std::__detail::_Hashtable_traits<true, false, true> >::_Hashtable(unsigned long, google::protobuf::(anonymous namespace)::PointerStringPairHash const&, std::__detail::_Mod_range_hashing const&, std::__detail::_Default_ranged_hash const&, google::protobuf::(anonymous namespace)::PointerStringPairEqual const&, std::__detail::_Select1st const&, std::allocator<std::pair<std::pair<void const*, char const*> const, google::protobuf::FieldDescriptor const*> > const&) [clone .isra.0] [clone .constprop.0] [clone .cold]
PUBLIC 250e0 0 std::_Hashtable<std::pair<google::protobuf::EnumDescriptor const*, int>, std::pair<std::pair<google::protobuf::EnumDescriptor const*, int> const, google::protobuf::EnumValueDescriptor const*>, std::allocator<std::pair<std::pair<google::protobuf::EnumDescriptor const*, int> const, google::protobuf::EnumValueDescriptor const*> >, std::__detail::_Select1st, std::equal_to<std::pair<google::protobuf::EnumDescriptor const*, int> >, google::protobuf::(anonymous namespace)::PointerIntegerPairHash<std::pair<google::protobuf::EnumDescriptor const*, int> >, std::__detail::_Mod_range_hashing, std::__detail::_Default_ranged_hash, std::__detail::_Prime_rehash_policy, std::__detail::_Hashtable_traits<true, false, true> >::_Hashtable(unsigned long, google::protobuf::(anonymous namespace)::PointerIntegerPairHash<std::pair<google::protobuf::EnumDescriptor const*, int> > const&, std::__detail::_Mod_range_hashing const&, std::__detail::_Default_ranged_hash const&, std::equal_to<std::pair<google::protobuf::EnumDescriptor const*, int> > const&, std::__detail::_Select1st const&, std::allocator<std::pair<std::pair<google::protobuf::EnumDescriptor const*, int> const, google::protobuf::EnumValueDescriptor const*> > const&) [clone .isra.0] [clone .constprop.0] [clone .cold]
PUBLIC 250f0 0 std::default_delete<google::protobuf::UnknownFieldSet>::operator()(google::protobuf::UnknownFieldSet*) const [clone .isra.0] [clone .part.0]
PUBLIC 2511e 0 google::protobuf::(anonymous namespace)::SourceLocationCommentPrinter::~SourceLocationCommentPrinter()
PUBLIC 2519a 0 google::protobuf::(anonymous namespace)::ToJsonName(std::__cxx11::basic_string<char, std::char_traits<char>, std::allocator<char> > const&) [clone .cold]
PUBLIC 251b2 0 google::protobuf::(anonymous namespace)::ToCamelCase(std::__cxx11::basic_string<char, std::char_traits<char>, std::allocator<char> > const&, bool) [clone .cold]
PUBLIC 251ca 0 google::protobuf::FileDescriptor::SyntaxName(google::protobuf::FileDescriptor::Syntax) [clone .cold]
PUBLIC 251da 0 google::protobuf::FileDescriptorTables::AddAliasUnderParent(void const*, std::__cxx11::basic_string<char, std::char_traits<char>, std::allocator<char> > const&, google::protobuf::Symbol) [clone .cold]
PUBLIC 25216 0 google::protobuf::FileDescriptorTables::AddFieldByNumber(google::protobuf::FieldDescriptor const*) [clone .cold]
PUBLIC 25254 0 google::protobuf::DescriptorPool::InternalAddGeneratedFile(void const*, int) [clone .cold]
PUBLIC 25264 0 google::protobuf::Descriptor::CopyJsonNameTo(google::protobuf::DescriptorProto*) const [clone .cold]
PUBLIC 25274 0 google::protobuf::FileDescriptor::CopyJsonNameTo(google::protobuf::FileDescriptorProto*) const [clone .cold]
PUBLIC 25284 0 google::protobuf::DescriptorBuilder::AddError(std::__cxx11::basic_string<char, std::char_traits<char>, std::allocator<char> > const&, google::protobuf::Message const&, google::protobuf::DescriptorPool::ErrorCollector::ErrorLocation, std::__cxx11::basic_string<char, std::char_traits<char>, std::allocator<char> > const&) [clone .cold]
PUBLIC 252a4 0 google::protobuf::DescriptorBuilder::AddWarning(std::__cxx11::basic_string<char, std::char_traits<char>, std::allocator<char> > const&, google::protobuf::Message const&, google::protobuf::DescriptorPool::ErrorCollector::ErrorLocation, std::__cxx11::basic_string<char, std::char_traits<char>, std::allocator<char> > const&) [clone .cold]
PUBLIC 252b4 0 google::protobuf::DescriptorBuilder::OptionInterpreter::SetInt32(int, int, google::protobuf::FieldDescriptor::Type, google::protobuf::UnknownFieldSet*) [clone .cold]
PUBLIC 252c4 0 google::protobuf::DescriptorBuilder::OptionInterpreter::SetInt64(int, long, google::protobuf::FieldDescriptor::Type, google::protobuf::UnknownFieldSet*) [clone .cold]
PUBLIC 252d4 0 google::protobuf::DescriptorBuilder::OptionInterpreter::SetUInt32(int, unsigned int, google::protobuf::FieldDescriptor::Type, google::protobuf::UnknownFieldSet*) [clone .cold]
PUBLIC 252e4 0 google::protobuf::DescriptorBuilder::OptionInterpreter::SetUInt64(int, unsigned long, google::protobuf::FieldDescriptor::Type, google::protobuf::UnknownFieldSet*) [clone .cold]
PUBLIC 252f4 0 google::protobuf::internal::LazyDescriptor::Set(google::protobuf::Descriptor const*) [clone .cold]
PUBLIC 25324 0 google::protobuf::(anonymous namespace)::SourceLocationCommentPrinter::AddPreComment(std::__cxx11::basic_string<char, std::char_traits<char>, std::allocator<char> >*) [clone .cold]
PUBLIC 253f6 0 google::protobuf::FileDescriptorTables::FileDescriptorTables() [clone .cold]
PUBLIC 25492 0 google::protobuf::DescriptorBuilder::AddNotDefinedError(std::__cxx11::basic_string<char, std::char_traits<char>, std::allocator<char> > const&, google::protobuf::Message const&, google::protobuf::DescriptorPool::ErrorCollector::ErrorLocation, std::__cxx11::basic_string<char, std::char_traits<char>, std::allocator<char> > const&) [clone .cold]
PUBLIC 255b4 0 google::protobuf::DescriptorBuilder::AddTwiceListedError(google::protobuf::FileDescriptorProto const&, int) [clone .cold]
PUBLIC 255de 0 google::protobuf::DescriptorBuilder::AddImportError(google::protobuf::FileDescriptorProto const&, int) [clone .cold]
PUBLIC 2561e 0 google::protobuf::DescriptorBuilder::OptionInterpreter::ExamineIfOptionIsSet(__gnu_cxx::__normal_iterator<google::protobuf::FieldDescriptor const* const*, std::vector<google::protobuf::FieldDescriptor const*, std::allocator<google::protobuf::FieldDescriptor const*> > >, __gnu_cxx::__normal_iterator<google::protobuf::FieldDescriptor const* const*, std::vector<google::protobuf::FieldDescriptor const*, std::allocator<google::protobuf::FieldDescriptor const*> > >, google::protobuf::FieldDescriptor const*, std::__cxx11::basic_string<char, std::char_traits<char>, std::allocator<char> > const&, google::protobuf::UnknownFieldSet const&) [clone .cold]
PUBLIC 25684 0 google::protobuf::DescriptorPool::Tables::AllocateString(std::__cxx11::basic_string<char, std::char_traits<char>, std::allocator<char> > const&) [clone .cold]
PUBLIC 2569a 0 google::protobuf::internal::LazyDescriptor::SetLazy(std::__cxx11::basic_string<char, std::char_traits<char>, std::allocator<char> > const&, google::protobuf::FileDescriptor const*) [clone .cold]
PUBLIC 2570a 0 google::protobuf::DescriptorPool::Tables::AllocateFileTables() [clone .cold]
PUBLIC 25720 0 google::protobuf::DescriptorPool::NewPlaceholderFileWithMutexHeld(std::__cxx11::basic_string<char, std::char_traits<char>, std::allocator<char> > const&) const [clone .cold]
PUBLIC 2573e 0 google::protobuf::DescriptorPool::NewPlaceholderFile(std::__cxx11::basic_string<char, std::char_traits<char>, std::allocator<char> > const&) const [clone .cold]
PUBLIC 2575d 0 google::protobuf::(anonymous namespace)::RetrieveOptionsAssumingRightPool(int, google::protobuf::Message const&, std::vector<std::__cxx11::basic_string<char, std::char_traits<char>, std::allocator<char> >, std::allocator<std::__cxx11::basic_string<char, std::char_traits<char>, std::allocator<char> > > >*) [clone .cold]
PUBLIC 25850 0 google::protobuf::DescriptorBuilder::LogUnusedDependency(google::protobuf::FileDescriptorProto const&, google::protobuf::FileDescriptor const*) [clone .cold]
PUBLIC 25880 0 google::protobuf::DescriptorBuilder::DetectMapConflicts(google::protobuf::Descriptor const*, google::protobuf::DescriptorProto const&) [clone .cold]
PUBLIC 25954 0 google::protobuf::DescriptorBuilder::CheckEnumValueUniqueness(google::protobuf::EnumDescriptorProto const&, google::protobuf::EnumDescriptor const*) [clone .cold]
PUBLIC 25a4a 0 google::protobuf::DescriptorBuilder::AddError(std::__cxx11::basic_string<char, std::char_traits<char>, std::allocator<char> > const&, google::protobuf::Message const&, google::protobuf::DescriptorPool::ErrorCollector::ErrorLocation, char const*) [clone .cold]
PUBLIC 25a62 0 google::protobuf::DescriptorBuilder::ValidateSymbolName(std::__cxx11::basic_string<char, std::char_traits<char>, std::allocator<char> > const&, std::__cxx11::basic_string<char, std::char_traits<char>, std::allocator<char> > const&, google::protobuf::Message const&) [clone .cold]
PUBLIC 25a8c 0 google::protobuf::DescriptorBuilder::ValidateMapEntry(google::protobuf::FieldDescriptor*, google::protobuf::FieldDescriptorProto const&) [clone .cold]
PUBLIC 25aa8 0 google::protobuf::DescriptorBuilder::ValidateJSType(google::protobuf::FieldDescriptor*, google::protobuf::FieldDescriptorProto const&) [clone .cold]
PUBLIC 25ac4 0 google::protobuf::DescriptorBuilder::DescriptorBuilder(google::protobuf::DescriptorPool const*, google::protobuf::DescriptorPool::Tables*, google::protobuf::DescriptorPool::ErrorCollector*) [clone .cold]
PUBLIC 25b5e 0 google::protobuf::DescriptorBuilder::AddRecursiveImportError(google::protobuf::FileDescriptorProto const&, int) [clone .cold]
PUBLIC 25b76 0 google::protobuf::DescriptorBuilder::OptionInterpreter::AddWithoutInterpreting(google::protobuf::UninterpretedOption const&, google::protobuf::Message*) [clone .cold]
PUBLIC 25b9e 0 google::protobuf::MethodDescriptor::CopyTo(google::protobuf::MethodDescriptorProto*) const [clone .cold]
PUBLIC 25bcc 0 google::protobuf::DescriptorBuilder::ValidateProto3Field(google::protobuf::FieldDescriptor*, google::protobuf::FieldDescriptorProto const&) [clone .cold]
PUBLIC 25c8e 0 google::protobuf::DescriptorPool::NewPlaceholderWithMutexHeld(std::__cxx11::basic_string<char, std::char_traits<char>, std::allocator<char> > const&, google::protobuf::DescriptorPool::PlaceholderType) const [clone .cold]
PUBLIC 25ca6 0 google::protobuf::DescriptorPool::NewPlaceholder(std::__cxx11::basic_string<char, std::char_traits<char>, std::allocator<char> > const&, google::protobuf::DescriptorPool::PlaceholderType) const [clone .cold]
PUBLIC 25cc6 0 google::protobuf::FieldDescriptor::DefaultValueAsString[abi:cxx11](bool) const [clone .cold]
PUBLIC 25d20 0 google::protobuf::FieldDescriptor::CopyTo(google::protobuf::FieldDescriptorProto*) const [clone .cold]
PUBLIC 25d82 0 google::protobuf::FileDescriptor::CopyTo(google::protobuf::FileDescriptorProto*) const [clone .cold]
PUBLIC 25d9a 0 google::protobuf::DescriptorPool::IsSubSymbolOfBuiltType(std::__cxx11::basic_string<char, std::char_traits<char>, std::allocator<char> > const&) const [clone .cold]
PUBLIC 25db0 0 google::protobuf::FileDescriptorTables::GetSourceLocation(std::vector<int, std::allocator<int> > const&, google::protobuf::SourceCodeInfo const*) const [clone .cold]
PUBLIC 25dc8 0 google::protobuf::FileDescriptor::GetSourceLocation(std::vector<int, std::allocator<int> > const&, google::protobuf::SourceLocation*) const [clone .cold]
PUBLIC 25dd8 0 google::protobuf::FileDescriptor::GetSourceLocation(google::protobuf::SourceLocation*) const [clone .cold]
PUBLIC 25dee 0 google::protobuf::Descriptor::GetSourceLocation(google::protobuf::SourceLocation*) const [clone .cold]
PUBLIC 25e04 0 google::protobuf::FieldDescriptor::GetSourceLocation(google::protobuf::SourceLocation*) const [clone .cold]
PUBLIC 25e1a 0 google::protobuf::OneofDescriptor::GetSourceLocation(google::protobuf::SourceLocation*) const [clone .cold]
PUBLIC 25e30 0 google::protobuf::EnumDescriptor::GetSourceLocation(google::protobuf::SourceLocation*) const [clone .cold]
PUBLIC 25e46 0 google::protobuf::MethodDescriptor::GetSourceLocation(google::protobuf::SourceLocation*) const [clone .cold]
PUBLIC 25e5c 0 google::protobuf::ServiceDescriptor::GetSourceLocation(google::protobuf::SourceLocation*) const [clone .cold]
PUBLIC 25e72 0 google::protobuf::EnumValueDescriptor::GetSourceLocation(google::protobuf::SourceLocation*) const [clone .cold]
PUBLIC 25e88 0 google::protobuf::FileDescriptorTables::BuildLocationsByPath(std::pair<google::protobuf::FileDescriptorTables const*, google::protobuf::SourceCodeInfo const*>*) [clone .cold]
PUBLIC 25f04 0 google::protobuf::DescriptorPool::Tables::Tables() [clone .cold]
PUBLIC 2629e 0 google::protobuf::DescriptorPool::DescriptorPool() [clone .cold]
PUBLIC 262b4 0 google::protobuf::DescriptorPool::DescriptorPool(google::protobuf::DescriptorDatabase*, google::protobuf::DescriptorPool::ErrorCollector*) [clone .cold]
PUBLIC 262ca 0 google::protobuf::DescriptorPool::internal_generated_pool() [clone .cold]
PUBLIC 262ec 0 google::protobuf::EnumDescriptor::FindValueByNumberCreatingIfUnknown(int) const [clone .cold]
PUBLIC 26350 0 google::protobuf::DescriptorPool::DescriptorPool(google::protobuf::DescriptorPool const*) [clone .cold]
PUBLIC 26366 0 google::protobuf::DescriptorBuilder::ValidateProto3Message(google::protobuf::Descriptor*, google::protobuf::DescriptorProto const&) [clone .cold]
PUBLIC 263f4 0 google::protobuf::DescriptorBuilder::ValidateEnumOptions(google::protobuf::EnumDescriptor*, google::protobuf::EnumDescriptorProto const&) [clone .cold]
PUBLIC 26458 0 google::protobuf::DescriptorBuilder::ValidateMessageOptions(google::protobuf::Descriptor*, google::protobuf::DescriptorProto const&) [clone .cold]
PUBLIC 26474 0 google::protobuf::DescriptorBuilder::ValidateFileOptions(google::protobuf::FileDescriptor*, google::protobuf::FileDescriptorProto const&) [clone .cold]
PUBLIC 2649e 0 google::protobuf::DescriptorPool::Tables::AddSymbol(std::__cxx11::basic_string<char, std::char_traits<char>, std::allocator<char> > const&, google::protobuf::Symbol) [clone .cold]
PUBLIC 264c0 0 google::protobuf::DescriptorBuilder::AddSymbol(std::__cxx11::basic_string<char, std::char_traits<char>, std::allocator<char> > const&, void const*, std::__cxx11::basic_string<char, std::char_traits<char>, std::allocator<char> > const&, google::protobuf::Message const&, google::protobuf::Symbol) [clone .cold]
PUBLIC 265ce 0 google::protobuf::DescriptorBuilder::AddPackage(std::__cxx11::basic_string<char, std::char_traits<char>, std::allocator<char> > const&, google::protobuf::Message const&, google::protobuf::FileDescriptor const*) [clone .cold]
PUBLIC 2662e 0 google::protobuf::DescriptorPool::Tables::AddFile(google::protobuf::FileDescriptor const*) [clone .cold]
PUBLIC 26650 0 google::protobuf::ExistingFileMatchesProto(google::protobuf::FileDescriptor const*, google::protobuf::FileDescriptorProto const&) [clone .cold]
PUBLIC 26686 0 google::protobuf::DescriptorBuilder::OptionInterpreter::OptionInterpreter(google::protobuf::DescriptorBuilder*) [clone .cold]
PUBLIC 266b8 0 google::protobuf::DescriptorBuilder::AllocateOptions(google::protobuf::FileOptions const&, google::protobuf::FileDescriptor*) [clone .cold]
PUBLIC 266fe 0 google::protobuf::DescriptorBuilder::BuildFieldOrExtension(google::protobuf::FieldDescriptorProto const&, google::protobuf::Descriptor*, google::protobuf::FieldDescriptor*, bool) [clone .cold]
PUBLIC 267a8 0 google::protobuf::DescriptorBuilder::BuildExtensionRange(google::protobuf::DescriptorProto_ExtensionRange const&, google::protobuf::Descriptor const*, google::protobuf::Descriptor::ExtensionRange*) [clone .cold]
PUBLIC 267d0 0 google::protobuf::DescriptorBuilder::BuildOneof(google::protobuf::OneofDescriptorProto const&, google::protobuf::Descriptor*, google::protobuf::OneofDescriptor*) [clone .cold]
PUBLIC 267f8 0 google::protobuf::DescriptorBuilder::BuildEnumValue(google::protobuf::EnumValueDescriptorProto const&, google::protobuf::EnumDescriptor const*, google::protobuf::EnumValueDescriptor*) [clone .cold]
PUBLIC 268b2 0 google::protobuf::DescriptorBuilder::BuildEnum(google::protobuf::EnumDescriptorProto const&, google::protobuf::Descriptor const*, google::protobuf::EnumDescriptor*) [clone .cold]
PUBLIC 26960 0 google::protobuf::DescriptorBuilder::BuildMessage(google::protobuf::DescriptorProto const&, google::protobuf::Descriptor const*, google::protobuf::Descriptor*) [clone .cold]
PUBLIC 269d8 0 google::protobuf::DescriptorBuilder::BuildMethod(google::protobuf::MethodDescriptorProto const&, google::protobuf::ServiceDescriptor const*, google::protobuf::MethodDescriptor*) [clone .cold]
PUBLIC 26a00 0 google::protobuf::DescriptorBuilder::BuildService(google::protobuf::ServiceDescriptorProto const&, void const*, google::protobuf::ServiceDescriptor*) [clone .cold]
PUBLIC 26a28 0 google::protobuf::DescriptorBuilder::OptionInterpreter::UpdateSourceCodeInfo(google::protobuf::SourceCodeInfo*) [clone .cold]
PUBLIC 26a4a 0 google::protobuf::DescriptorBuilder::BuildFileImpl(google::protobuf::FileDescriptorProto const&) [clone .cold]
PUBLIC 26be0 0 google::protobuf::DescriptorPool::BuildFile(google::protobuf::FileDescriptorProto const&) [clone .cold]
PUBLIC 26c10 0 google::protobuf::DescriptorPool::BuildFileCollectingErrors(google::protobuf::FileDescriptorProto const&, google::protobuf::DescriptorPool::ErrorCollector*) [clone .cold]
PUBLIC 26c40 0 google::protobuf::DescriptorPool::BuildFileFromDatabase(google::protobuf::FileDescriptorProto const&) const [clone .cold]
PUBLIC 26c50 0 google::protobuf::DescriptorPool::TryFindFileInFallbackDatabase(std::__cxx11::basic_string<char, std::char_traits<char>, std::allocator<char> > const&) const [clone .cold]
PUBLIC 26c60 0 google::protobuf::DescriptorPool::FindFileByName(std::__cxx11::basic_string<char, std::char_traits<char>, std::allocator<char> > const&) const [clone .cold]
PUBLIC 26c80 0 google::protobuf::FileDescriptor::InternalDependenciesOnceInit() const [clone .cold]
PUBLIC 26c90 0 google::protobuf::DescriptorPool::TryFindSymbolInFallbackDatabase(std::__cxx11::basic_string<char, std::char_traits<char>, std::allocator<char> > const&) const [clone .cold]
PUBLIC 26ca0 0 google::protobuf::DescriptorPool::Tables::FindByNameHelper(google::protobuf::DescriptorPool const*, std::__cxx11::basic_string<char, std::char_traits<char>, std::allocator<char> > const&) [clone .cold]
PUBLIC 26cbf 0 google::protobuf::(anonymous namespace)::RetrieveOptions(int, google::protobuf::Message const&, google::protobuf::DescriptorPool const*, std::vector<std::__cxx11::basic_string<char, std::char_traits<char>, std::allocator<char> >, std::allocator<std::__cxx11::basic_string<char, std::char_traits<char>, std::allocator<char> > > >*) [clone .constprop.0] [clone .cold]
PUBLIC 26cfb 0 google::protobuf::(anonymous namespace)::FormatLineOptions(int, google::protobuf::Message const&, google::protobuf::DescriptorPool const*, std::__cxx11::basic_string<char, std::char_traits<char>, std::allocator<char> >*) [clone .cold]
PUBLIC 26d24 0 google::protobuf::MethodDescriptor::DebugString(int, std::__cxx11::basic_string<char, std::char_traits<char>, std::allocator<char> >*, google::protobuf::DebugStringOptions const&) const [clone .cold]
PUBLIC 26de2 0 google::protobuf::MethodDescriptor::DebugStringWithOptions[abi:cxx11](google::protobuf::DebugStringOptions const&) const [clone .cold]
PUBLIC 26df8 0 google::protobuf::ServiceDescriptor::DebugString(std::__cxx11::basic_string<char, std::char_traits<char>, std::allocator<char> >*, google::protobuf::DebugStringOptions const&) const [clone .cold]
PUBLIC 26e9e 0 google::protobuf::ServiceDescriptor::DebugStringWithOptions[abi:cxx11](google::protobuf::DebugStringOptions const&) const [clone .cold]
PUBLIC 26eb4 0 google::protobuf::(anonymous namespace)::FormatBracketedOptions(int, google::protobuf::Message const&, google::protobuf::DescriptorPool const*, std::__cxx11::basic_string<char, std::char_traits<char>, std::allocator<char> >*) [clone .constprop.0] [clone .cold]
PUBLIC 26ee8 0 google::protobuf::EnumValueDescriptor::DebugString(int, std::__cxx11::basic_string<char, std::char_traits<char>, std::allocator<char> >*, google::protobuf::DebugStringOptions const&) const [clone .cold]
PUBLIC 26fa2 0 google::protobuf::EnumDescriptor::DebugString(int, std::__cxx11::basic_string<char, std::char_traits<char>, std::allocator<char> >*, google::protobuf::DebugStringOptions const&) const [clone .cold]
PUBLIC 27070 0 google::protobuf::EnumDescriptor::DebugStringWithOptions[abi:cxx11](google::protobuf::DebugStringOptions const&) const [clone .cold]
PUBLIC 27086 0 google::protobuf::Descriptor::DebugString(int, std::__cxx11::basic_string<char, std::char_traits<char>, std::allocator<char> >*, google::protobuf::DebugStringOptions const&, bool) const [clone .cold]
PUBLIC 27156 0 google::protobuf::FieldDescriptor::DebugString(int, std::__cxx11::basic_string<char, std::char_traits<char>, std::allocator<char> >*, google::protobuf::DebugStringOptions const&) const [clone .cold]
PUBLIC 272a4 0 google::protobuf::FieldDescriptor::DebugStringWithOptions[abi:cxx11](google::protobuf::DebugStringOptions const&) const [clone .cold]
PUBLIC 272ba 0 google::protobuf::DescriptorBuilder::OptionInterpreter::SetAggregateOption(google::protobuf::FieldDescriptor const*, google::protobuf::UnknownFieldSet*) [clone .cold]
PUBLIC 273ec 0 google::protobuf::OneofDescriptor::DebugString(int, std::__cxx11::basic_string<char, std::char_traits<char>, std::allocator<char> >*, google::protobuf::DebugStringOptions const&) const [clone .cold]
PUBLIC 2748e 0 google::protobuf::OneofDescriptor::DebugStringWithOptions[abi:cxx11](google::protobuf::DebugStringOptions const&) const [clone .cold]
PUBLIC 274a4 0 google::protobuf::Descriptor::DebugStringWithOptions[abi:cxx11](google::protobuf::DebugStringOptions const&) const [clone .cold]
PUBLIC 274ba 0 google::protobuf::FileDescriptor::DebugStringWithOptions[abi:cxx11](google::protobuf::DebugStringOptions const&) const [clone .cold]
PUBLIC 27722 0 google::protobuf::EnumValueDescriptor::DebugStringWithOptions[abi:cxx11](google::protobuf::DebugStringOptions const&) const [clone .cold]
PUBLIC 27738 0 google::protobuf::DescriptorPool::CrossLinkOnDemandHelper(std::__cxx11::basic_string<char, std::char_traits<char>, std::allocator<char> > const&, bool) const [clone .cold]
PUBLIC 2774e 0 google::protobuf::FieldDescriptor::InternalTypeOnceInit() const [clone .cold]
PUBLIC 277a2 0 google::protobuf::internal::LazyDescriptor::OnceInternal() [clone .cold]
PUBLIC 277b2 0 google::protobuf::DescriptorPool::FindFileContainingSymbol(std::__cxx11::basic_string<char, std::char_traits<char>, std::allocator<char> > const&) const [clone .cold]
PUBLIC 277d2 0 google::protobuf::DescriptorBuilder::FindSymbolNotEnforcingDepsHelper(google::protobuf::DescriptorPool const*, std::__cxx11::basic_string<char, std::char_traits<char>, std::allocator<char> > const&, bool) [clone .cold]
PUBLIC 277f2 0 google::protobuf::DescriptorBuilder::LookupSymbolNoPlaceholder(std::__cxx11::basic_string<char, std::char_traits<char>, std::allocator<char> > const&, std::__cxx11::basic_string<char, std::char_traits<char>, std::allocator<char> > const&, google::protobuf::DescriptorBuilder::ResolveMode, bool) [clone .cold]
PUBLIC 27836 0 google::protobuf::DescriptorBuilder::CrossLinkMethod(google::protobuf::MethodDescriptor*, google::protobuf::MethodDescriptorProto const&) [clone .cold]
PUBLIC 2788a 0 google::protobuf::DescriptorBuilder::CrossLinkField(google::protobuf::FieldDescriptor*, google::protobuf::FieldDescriptorProto const&) [clone .cold]
PUBLIC 27a5c 0 google::protobuf::DescriptorBuilder::CrossLinkMessage(google::protobuf::Descriptor*, google::protobuf::DescriptorProto const&) [clone .cold]
PUBLIC 27af8 0 google::protobuf::DescriptorBuilder::OptionInterpreter::SetOptionValue(google::protobuf::FieldDescriptor const*, google::protobuf::UnknownFieldSet*) [clone .cold]
PUBLIC 27ece 0 google::protobuf::DescriptorBuilder::OptionInterpreter::InterpretSingleOption(google::protobuf::Message*, std::vector<int, std::allocator<int> > const&, std::vector<int, std::allocator<int> > const&) [clone .cold]
PUBLIC 28150 0 google::protobuf::DescriptorPool::TryFindExtensionInFallbackDatabase(google::protobuf::Descriptor const*, int) const [clone .cold]
PUBLIC 28160 0 google::protobuf::DescriptorPool::FindExtensionByNumber(google::protobuf::Descriptor const*, int) const [clone .cold]
PUBLIC 28180 0 google::protobuf::DescriptorPool::FindAllExtensions(google::protobuf::Descriptor const*, std::vector<google::protobuf::FieldDescriptor const*, std::allocator<google::protobuf::FieldDescriptor const*> >*) const [clone .cold]
PUBLIC 281ae 0 google::protobuf::DescriptorPoolDatabase::FindAllExtensionNumbers(std::__cxx11::basic_string<char, std::char_traits<char>, std::allocator<char> > const&, std::vector<int, std::allocator<int> >*) [clone .cold]
PUBLIC 281c6 0 google::protobuf::MergedDescriptorDatabase::MergedDescriptorDatabase(std::vector<google::protobuf::DescriptorDatabase*, std::allocator<google::protobuf::DescriptorDatabase*> > const&) [clone .cold]
PUBLIC 281d6 0 google::protobuf::MergedDescriptorDatabase::MergedDescriptorDatabase(google::protobuf::DescriptorDatabase*, google::protobuf::DescriptorDatabase*) [clone .cold]
PUBLIC 281f4 0 google::protobuf::(anonymous namespace)::RecordMessageNames(google::protobuf::DescriptorProto const&, std::__cxx11::basic_string<char, std::char_traits<char>, std::allocator<char> > const&, std::set<std::__cxx11::basic_string<char, std::char_traits<char>, std::allocator<char> >, std::less<std::__cxx11::basic_string<char, std::char_traits<char>, std::allocator<char> > >, std::allocator<std::__cxx11::basic_string<char, std::char_traits<char>, std::allocator<char> > > >*) [clone .cold]
PUBLIC 2821a 0 google::protobuf::EncodedDescriptorDatabase::Add(void const*, int) [clone .cold]
PUBLIC 28248 0 google::protobuf::MergedDescriptorDatabase::FindAllExtensionNumbers(std::__cxx11::basic_string<char, std::char_traits<char>, std::allocator<char> > const&, std::vector<int, std::allocator<int> >*) [clone .cold]
PUBLIC 2826e 0 bool google::protobuf::(anonymous namespace)::ForAllFileProtos<google::protobuf::DescriptorDatabase::FindAllPackageNames(std::vector<std::__cxx11::basic_string<char, std::char_traits<char>, std::allocator<char> >, std::allocator<std::__cxx11::basic_string<char, std::char_traits<char>, std::allocator<char> > > >*)::{lambda(google::protobuf::FileDescriptorProto const&, std::set<std::__cxx11::basic_string<char, std::char_traits<char>, std::allocator<char> >, std::less<std::__cxx11::basic_string<char, std::char_traits<char>, std::allocator<char> > >, std::allocator<std::__cxx11::basic_string<char, std::char_traits<char>, std::allocator<char> > > >*)#1}>(google::protobuf::DescriptorDatabase*, google::protobuf::DescriptorDatabase::FindAllPackageNames(std::vector<std::__cxx11::basic_string<char, std::char_traits<char>, std::allocator<char> >, std::allocator<std::__cxx11::basic_string<char, std::char_traits<char>, std::allocator<char> > > >*)::{lambda(google::protobuf::FileDescriptorProto const&, std::set<std::__cxx11::basic_string<char, std::char_traits<char>, std::allocator<char> >, std::less<std::__cxx11::basic_string<char, std::char_traits<char>, std::allocator<char> > >, std::allocator<std::__cxx11::basic_string<char, std::char_traits<char>, std::allocator<char> > > >*)#1}, std::vector<std::__cxx11::basic_string<char, std::char_traits<char>, std::allocator<char> >, std::allocator<std::__cxx11::basic_string<char, std::char_traits<char>, std::allocator<char> > > >*) [clone .isra.0] [clone .cold]
PUBLIC 2829d 0 bool google::protobuf::(anonymous namespace)::ForAllFileProtos<google::protobuf::DescriptorDatabase::FindAllMessageNames(std::vector<std::__cxx11::basic_string<char, std::char_traits<char>, std::allocator<char> >, std::allocator<std::__cxx11::basic_string<char, std::char_traits<char>, std::allocator<char> > > >*)::{lambda(google::protobuf::FileDescriptorProto const&, std::set<std::__cxx11::basic_string<char, std::char_traits<char>, std::allocator<char> >, std::less<std::__cxx11::basic_string<char, std::char_traits<char>, std::allocator<char> > >, std::allocator<std::__cxx11::basic_string<char, std::char_traits<char>, std::allocator<char> > > >*)#1}>(google::protobuf::DescriptorDatabase*, google::protobuf::DescriptorDatabase::FindAllMessageNames(std::vector<std::__cxx11::basic_string<char, std::char_traits<char>, std::allocator<char> >, std::allocator<std::__cxx11::basic_string<char, std::char_traits<char>, std::allocator<char> > > >*)::{lambda(google::protobuf::FileDescriptorProto const&, std::set<std::__cxx11::basic_string<char, std::char_traits<char>, std::allocator<char> >, std::less<std::__cxx11::basic_string<char, std::char_traits<char>, std::allocator<char> > >, std::allocator<std::__cxx11::basic_string<char, std::char_traits<char>, std::allocator<char> > > >*)#1}, std::vector<std::__cxx11::basic_string<char, std::char_traits<char>, std::allocator<char> >, std::allocator<std::__cxx11::basic_string<char, std::char_traits<char>, std::allocator<char> > > >*) [clone .isra.0] [clone .cold]
PUBLIC 282cc 0 google::protobuf::EncodedDescriptorDatabase::FindNameOfFileContainingSymbol(std::__cxx11::basic_string<char, std::char_traits<char>, std::allocator<char> > const&, std::__cxx11::basic_string<char, std::char_traits<char>, std::allocator<char> >*) [clone .cold]
PUBLIC 282e4 0 google::protobuf::MergedDescriptorDatabase::FindFileContainingSymbol(std::__cxx11::basic_string<char, std::char_traits<char>, std::allocator<char> > const&, google::protobuf::FileDescriptorProto*) [clone .cold]
PUBLIC 282f4 0 google::protobuf::MergedDescriptorDatabase::FindFileContainingExtension(std::__cxx11::basic_string<char, std::char_traits<char>, std::allocator<char> > const&, int, google::protobuf::FileDescriptorProto*) [clone .cold]
PUBLIC 28304 0 google::protobuf::SimpleDescriptorDatabase::Add(google::protobuf::FileDescriptorProto const&) [clone .cold]
PUBLIC 2831a 0 google::protobuf::SourceCodeInfo_Location::SourceCodeInfo_Location(google::protobuf::Arena*) [clone .cold]
PUBLIC 2833c 0 google::protobuf::GeneratedCodeInfo_Annotation::GeneratedCodeInfo_Annotation(google::protobuf::Arena*) [clone .cold]
PUBLIC 2834e 0 google::protobuf::DescriptorProto_ExtensionRange* google::protobuf::Arena::CreateMaybeMessage<google::protobuf::DescriptorProto_ExtensionRange>(google::protobuf::Arena*) [clone .cold]
PUBLIC 28364 0 google::protobuf::DescriptorProto_ReservedRange* google::protobuf::Arena::CreateMaybeMessage<google::protobuf::DescriptorProto_ReservedRange>(google::protobuf::Arena*) [clone .cold]
PUBLIC 2837a 0 google::protobuf::FieldDescriptorProto* google::protobuf::Arena::CreateMaybeMessage<google::protobuf::FieldDescriptorProto>(google::protobuf::Arena*) [clone .cold]
PUBLIC 28390 0 google::protobuf::OneofDescriptorProto* google::protobuf::Arena::CreateMaybeMessage<google::protobuf::OneofDescriptorProto>(google::protobuf::Arena*) [clone .cold]
PUBLIC 283a6 0 google::protobuf::EnumDescriptorProto_EnumReservedRange* google::protobuf::Arena::CreateMaybeMessage<google::protobuf::EnumDescriptorProto_EnumReservedRange>(google::protobuf::Arena*) [clone .cold]
PUBLIC 283bc 0 google::protobuf::EnumValueDescriptorProto* google::protobuf::Arena::CreateMaybeMessage<google::protobuf::EnumValueDescriptorProto>(google::protobuf::Arena*) [clone .cold]
PUBLIC 283d2 0 google::protobuf::MethodDescriptorProto* google::protobuf::Arena::CreateMaybeMessage<google::protobuf::MethodDescriptorProto>(google::protobuf::Arena*) [clone .cold]
PUBLIC 283e8 0 google::protobuf::UninterpretedOption_NamePart* google::protobuf::Arena::CreateMaybeMessage<google::protobuf::UninterpretedOption_NamePart>(google::protobuf::Arena*) [clone .cold]
PUBLIC 283fe 0 google::protobuf::SourceCodeInfo_Location* google::protobuf::Arena::CreateMaybeMessage<google::protobuf::SourceCodeInfo_Location>(google::protobuf::Arena*) [clone .cold]
PUBLIC 28414 0 google::protobuf::GeneratedCodeInfo_Annotation* google::protobuf::Arena::CreateMaybeMessage<google::protobuf::GeneratedCodeInfo_Annotation>(google::protobuf::Arena*) [clone .cold]
PUBLIC 2842a 0 google::protobuf::UninterpretedOption::UninterpretedOption(google::protobuf::Arena*) [clone .cold]
PUBLIC 2843c 0 google::protobuf::UninterpretedOption* google::protobuf::Arena::CreateMaybeMessage<google::protobuf::UninterpretedOption>(google::protobuf::Arena*) [clone .cold]
PUBLIC 28452 0 google::protobuf::ExtensionRangeOptions::ExtensionRangeOptions(google::protobuf::Arena*) [clone .cold]
PUBLIC 2846c 0 google::protobuf::ExtensionRangeOptions* google::protobuf::Arena::CreateMaybeMessage<google::protobuf::ExtensionRangeOptions>(google::protobuf::Arena*) [clone .cold]
PUBLIC 28482 0 google::protobuf::FileOptions::FileOptions(google::protobuf::Arena*) [clone .cold]
PUBLIC 2849c 0 google::protobuf::FileOptions* google::protobuf::Arena::CreateMaybeMessage<google::protobuf::FileOptions>(google::protobuf::Arena*) [clone .cold]
PUBLIC 284b2 0 google::protobuf::MessageOptions::MessageOptions(google::protobuf::Arena*) [clone .cold]
PUBLIC 284cc 0 google::protobuf::MessageOptions* google::protobuf::Arena::CreateMaybeMessage<google::protobuf::MessageOptions>(google::protobuf::Arena*) [clone .cold]
PUBLIC 284e2 0 google::protobuf::FieldOptions::FieldOptions(google::protobuf::Arena*) [clone .cold]
PUBLIC 284fc 0 google::protobuf::FieldOptions* google::protobuf::Arena::CreateMaybeMessage<google::protobuf::FieldOptions>(google::protobuf::Arena*) [clone .cold]
PUBLIC 28512 0 google::protobuf::OneofOptions::OneofOptions(google::protobuf::Arena*) [clone .cold]
PUBLIC 2852c 0 google::protobuf::OneofOptions* google::protobuf::Arena::CreateMaybeMessage<google::protobuf::OneofOptions>(google::protobuf::Arena*) [clone .cold]
PUBLIC 28542 0 google::protobuf::EnumOptions::EnumOptions(google::protobuf::Arena*) [clone .cold]
PUBLIC 2855c 0 google::protobuf::EnumOptions* google::protobuf::Arena::CreateMaybeMessage<google::protobuf::EnumOptions>(google::protobuf::Arena*) [clone .cold]
PUBLIC 28572 0 google::protobuf::EnumValueOptions::EnumValueOptions(google::protobuf::Arena*) [clone .cold]
PUBLIC 2858c 0 google::protobuf::EnumValueOptions* google::protobuf::Arena::CreateMaybeMessage<google::protobuf::EnumValueOptions>(google::protobuf::Arena*) [clone .cold]
PUBLIC 285a2 0 google::protobuf::ServiceOptions::ServiceOptions(google::protobuf::Arena*) [clone .cold]
PUBLIC 285bc 0 google::protobuf::ServiceOptions* google::protobuf::Arena::CreateMaybeMessage<google::protobuf::ServiceOptions>(google::protobuf::Arena*) [clone .cold]
PUBLIC 285d2 0 google::protobuf::MethodOptions::MethodOptions(google::protobuf::Arena*) [clone .cold]
PUBLIC 285ec 0 google::protobuf::MethodOptions* google::protobuf::Arena::CreateMaybeMessage<google::protobuf::MethodOptions>(google::protobuf::Arena*) [clone .cold]
PUBLIC 28602 0 google::protobuf::EnumDescriptorProto::EnumDescriptorProto(google::protobuf::Arena*) [clone .cold]
PUBLIC 28624 0 google::protobuf::EnumDescriptorProto* google::protobuf::Arena::CreateMaybeMessage<google::protobuf::EnumDescriptorProto>(google::protobuf::Arena*) [clone .cold]
PUBLIC 2863a 0 google::protobuf::DescriptorProto::DescriptorProto(google::protobuf::Arena*) [clone .cold]
PUBLIC 28690 0 google::protobuf::DescriptorProto* google::protobuf::Arena::CreateMaybeMessage<google::protobuf::DescriptorProto>(google::protobuf::Arena*) [clone .cold]
PUBLIC 286a6 0 google::protobuf::ServiceDescriptorProto::ServiceDescriptorProto(google::protobuf::Arena*) [clone .cold]
PUBLIC 286b8 0 google::protobuf::ServiceDescriptorProto* google::protobuf::Arena::CreateMaybeMessage<google::protobuf::ServiceDescriptorProto>(google::protobuf::Arena*) [clone .cold]
PUBLIC 286ce 0 google::protobuf::FileDescriptorProto::FileDescriptorProto(google::protobuf::Arena*) [clone .cold]
PUBLIC 2871a 0 google::protobuf::FileDescriptorProto* google::protobuf::Arena::CreateMaybeMessage<google::protobuf::FileDescriptorProto>(google::protobuf::Arena*) [clone .cold]
PUBLIC 28730 0 google::protobuf::SourceCodeInfo::SourceCodeInfo(google::protobuf::Arena*) [clone .cold]
PUBLIC 28742 0 google::protobuf::SourceCodeInfo* google::protobuf::Arena::CreateMaybeMessage<google::protobuf::SourceCodeInfo>(google::protobuf::Arena*) [clone .cold]
PUBLIC 28758 0 google::protobuf::FileDescriptorSet::FileDescriptorSet(google::protobuf::Arena*) [clone .cold]
PUBLIC 2876a 0 google::protobuf::FileDescriptorSet* google::protobuf::Arena::CreateMaybeMessage<google::protobuf::FileDescriptorSet>(google::protobuf::Arena*) [clone .cold]
PUBLIC 28780 0 google::protobuf::GeneratedCodeInfo::GeneratedCodeInfo(google::protobuf::Arena*) [clone .cold]
PUBLIC 28792 0 google::protobuf::GeneratedCodeInfo* google::protobuf::Arena::CreateMaybeMessage<google::protobuf::GeneratedCodeInfo>(google::protobuf::Arena*) [clone .cold]
PUBLIC 287a8 0 google::protobuf::GeneratedCodeInfo_Annotation::GeneratedCodeInfo_Annotation(google::protobuf::GeneratedCodeInfo_Annotation const&) [clone .cold]
PUBLIC 287b8 0 google::protobuf::SourceCodeInfo_Location::SourceCodeInfo_Location(google::protobuf::SourceCodeInfo_Location const&) [clone .cold]
PUBLIC 287d8 0 google::protobuf::OneofOptions::OneofOptions(google::protobuf::OneofOptions const&) [clone .cold]
PUBLIC 287f0 0 google::protobuf::OneofDescriptorProto::OneofDescriptorProto(google::protobuf::OneofDescriptorProto const&) [clone .cold]
PUBLIC 28806 0 google::protobuf::ExtensionRangeOptions::ExtensionRangeOptions(google::protobuf::ExtensionRangeOptions const&) [clone .cold]
PUBLIC 2881e 0 google::protobuf::DescriptorProto_ExtensionRange::DescriptorProto_ExtensionRange(google::protobuf::DescriptorProto_ExtensionRange const&) [clone .cold]
PUBLIC 28834 0 google::protobuf::EnumValueOptions::EnumValueOptions(google::protobuf::EnumValueOptions const&) [clone .cold]
PUBLIC 2884c 0 google::protobuf::EnumValueDescriptorProto::EnumValueDescriptorProto(google::protobuf::EnumValueDescriptorProto const&) [clone .cold]
PUBLIC 28862 0 google::protobuf::MessageOptions::MessageOptions(google::protobuf::MessageOptions const&) [clone .cold]
PUBLIC 2887a 0 google::protobuf::EnumOptions::EnumOptions(google::protobuf::EnumOptions const&) [clone .cold]
PUBLIC 28892 0 google::protobuf::EnumDescriptorProto::EnumDescriptorProto(google::protobuf::EnumDescriptorProto const&) [clone .cold]
PUBLIC 288c0 0 google::protobuf::ServiceOptions::ServiceOptions(google::protobuf::ServiceOptions const&) [clone .cold]
PUBLIC 288d8 0 google::protobuf::MethodOptions::MethodOptions(google::protobuf::MethodOptions const&) [clone .cold]
PUBLIC 288f0 0 google::protobuf::MethodDescriptorProto::MethodDescriptorProto(google::protobuf::MethodDescriptorProto const&) [clone .cold]
PUBLIC 28906 0 google::protobuf::FieldOptions::FieldOptions(google::protobuf::FieldOptions const&) [clone .cold]
PUBLIC 2891e 0 google::protobuf::FieldDescriptorProto::FieldDescriptorProto(google::protobuf::FieldDescriptorProto const&) [clone .cold]
PUBLIC 28934 0 google::protobuf::ServiceDescriptorProto::ServiceDescriptorProto(google::protobuf::ServiceDescriptorProto const&) [clone .cold]
PUBLIC 28952 0 google::protobuf::DescriptorProto::DescriptorProto(google::protobuf::DescriptorProto const&) [clone .cold]
PUBLIC 289b2 0 google::protobuf::FileOptions::FileOptions(google::protobuf::FileOptions const&) [clone .cold]
PUBLIC 289ca 0 google::protobuf::UninterpretedOption::UninterpretedOption(google::protobuf::UninterpretedOption const&) [clone .cold]
PUBLIC 289da 0 google::protobuf::FileDescriptorSet::FileDescriptorSet(google::protobuf::FileDescriptorSet const&) [clone .cold]
PUBLIC 289ea 0 google::protobuf::SourceCodeInfo::SourceCodeInfo(google::protobuf::SourceCodeInfo const&) [clone .cold]
PUBLIC 289fa 0 google::protobuf::FileDescriptorProto::FileDescriptorProto(google::protobuf::FileDescriptorProto const&) [clone .cold]
PUBLIC 28a60 0 google::protobuf::GeneratedCodeInfo::GeneratedCodeInfo(google::protobuf::GeneratedCodeInfo const&) [clone .cold]
PUBLIC 28a70 0 google::protobuf::DynamicMessageFactory::DynamicMessageFactory() [clone .cold]
PUBLIC 28a80 0 google::protobuf::DynamicMessageFactory::DynamicMessageFactory(google::protobuf::DescriptorPool const*) [clone .cold]
PUBLIC 28a90 0 google::protobuf::DynamicMessageFactory::GetPrototypeNoLock(google::protobuf::Descriptor const*) [clone .cold]
PUBLIC 28b34 0 google::protobuf::DynamicMessage::CrossLinkPrototypes() [clone .cold]
PUBLIC 28b44 0 google::protobuf::DynamicMessageFactory::GetPrototype(google::protobuf::Descriptor const*) [clone .cold]
PUBLIC 28b5a 0 google::protobuf::internal::ExtensionSet::ParseField(unsigned int, google::protobuf::io::CodedInputStream*, google::protobuf::Message const*, google::protobuf::UnknownFieldSet*) [clone .cold]
PUBLIC 28b8c 0 google::protobuf::internal::ExtensionSet::ParseMessageSetItem(google::protobuf::io::CodedInputStream*, google::protobuf::internal::ExtensionFinder*, google::protobuf::internal::MessageSetFieldSkipper*) [clone .cold]
PUBLIC 28bac 0 google::protobuf::internal::ExtensionSet::ParseMessageSet(google::protobuf::io::CodedInputStream*, google::protobuf::Message const*, google::protobuf::UnknownFieldSet*) [clone .cold]
PUBLIC 28bde 0 google::protobuf::internal::DescriptorPoolExtensionFinder::Find(int, google::protobuf::internal::ExtensionInfo*) [clone .cold]
PUBLIC 28bee 0 google::protobuf::internal::ExtensionSet::AddMessage(google::protobuf::FieldDescriptor const*, google::protobuf::MessageFactory*) [clone .cold]
PUBLIC 28bfe 0 google::protobuf::internal::ExtensionSet::ParseField(unsigned long, char const*, google::protobuf::Message const*, google::protobuf::internal::InternalMetadata*, google::protobuf::internal::ParseContext*) [clone .cold]
PUBLIC 28c3e 0 google::protobuf::(anonymous namespace)::ReportReflectionUsageError(google::protobuf::Descriptor const*, google::protobuf::FieldDescriptor const*, char const*, char const*) [clone .cold]
PUBLIC 28c4e 0 google::protobuf::(anonymous namespace)::ReportReflectionUsageEnumTypeError(google::protobuf::Descriptor const*, google::protobuf::FieldDescriptor const*, char const*, google::protobuf::EnumValueDescriptor const*) [clone .cold]
PUBLIC 28c5e 0 google::protobuf::(anonymous namespace)::ReportReflectionUsageTypeError(google::protobuf::Descriptor const*, google::protobuf::FieldDescriptor const*, char const*, google::protobuf::FieldDescriptor::CppType) [clone .cold]
PUBLIC 28c6e 0 google::protobuf::Reflection::SetRepeatedString(google::protobuf::Message*, google::protobuf::FieldDescriptor const*, int, std::__cxx11::basic_string<char, std::char_traits<char>, std::allocator<char> >) const [clone .cold]
PUBLIC 28c86 0 google::protobuf::Reflection::AddString(google::protobuf::Message*, google::protobuf::FieldDescriptor const*, std::__cxx11::basic_string<char, std::char_traits<char>, std::allocator<char> >) const [clone .cold]
PUBLIC 28c9e 0 google::protobuf::Reflection::RepeatedFieldData(google::protobuf::Message*, google::protobuf::FieldDescriptor const*, google::protobuf::FieldDescriptor::CppType, google::protobuf::Descriptor const*) const [clone .cold]
PUBLIC 28cd8 0 google::protobuf::Reflection::MutableRawRepeatedField(google::protobuf::Message*, google::protobuf::FieldDescriptor const*, google::protobuf::FieldDescriptor::CppType, int, google::protobuf::Descriptor const*) const [clone .cold]
PUBLIC 28ce8 0 google::protobuf::Reflection::GetRawRepeatedField(google::protobuf::Message const&, google::protobuf::FieldDescriptor const*, google::protobuf::FieldDescriptor::CppType, int, google::protobuf::Descriptor const*) const [clone .cold]
PUBLIC 28d08 0 google::protobuf::Reflection::InsertOrLookupMapValue(google::protobuf::Message*, google::protobuf::FieldDescriptor const*, google::protobuf::MapKey const&, google::protobuf::MapValueRef*) const [clone .cold]
PUBLIC 28d20 0 google::protobuf::Reflection::MapBegin(google::protobuf::Message*, google::protobuf::FieldDescriptor const*) const [clone .cold]
PUBLIC 28d74 0 google::protobuf::Reflection::MapEnd(google::protobuf::Message*, google::protobuf::FieldDescriptor const*) const [clone .cold]
PUBLIC 28dc8 0 google::protobuf::Reflection::FieldSize(google::protobuf::Message const&, google::protobuf::FieldDescriptor const*) const [clone .cold]
PUBLIC 28dd8 0 google::protobuf::(anonymous namespace)::AssignDescriptorsImpl(google::protobuf::internal::DescriptorTable const*, bool) [clone .cold]
PUBLIC 28e22 0 google::protobuf::Reflection::SetString(google::protobuf::Message*, google::protobuf::FieldDescriptor const*, std::__cxx11::basic_string<char, std::char_traits<char>, std::allocator<char> >) const [clone .cold]
PUBLIC 28e3a 0 google::protobuf::Reflection::SwapOneofField(google::protobuf::Message*, google::protobuf::Message*, google::protobuf::OneofDescriptor const*) const [clone .cold]
PUBLIC 28e88 0 google::protobuf::Reflection::SwapField(google::protobuf::Message*, google::protobuf::Message*, google::protobuf::FieldDescriptor const*) const [clone .cold]
PUBLIC 28ec0 0 google::protobuf::Reflection::Swap(google::protobuf::Message*, google::protobuf::Message*) const [clone .cold]
PUBLIC 28ef4 0 google::protobuf::Reflection::SwapFields(google::protobuf::Message*, google::protobuf::Message*, std::vector<google::protobuf::FieldDescriptor const*, std::allocator<google::protobuf::FieldDescriptor const*> > const&) const [clone .cold]
PUBLIC 28f44 0 std::_Rb_tree<google::protobuf::internal::KeyView<google::protobuf::MapKey>*, google::protobuf::internal::KeyView<google::protobuf::MapKey>*, std::_Identity<google::protobuf::internal::KeyView<google::protobuf::MapKey>*>, google::protobuf::internal::DerefCompare<google::protobuf::internal::KeyView<google::protobuf::MapKey> >, google::protobuf::internal::MapAllocator<google::protobuf::internal::KeyView<google::protobuf::MapKey>*> >::_M_lower_bound(std::_Rb_tree_node<google::protobuf::internal::KeyView<google::protobuf::MapKey>*>*, std::_Rb_tree_node_base*, google::protobuf::internal::KeyView<google::protobuf::MapKey>* const&) [clone .isra.0] [clone .cold]
PUBLIC 28f74 0 google::protobuf::internal::DynamicMapField::SetMapIteratorValue(google::protobuf::MapIterator*) const [clone .cold]
PUBLIC 28f94 0 google::protobuf::internal::DynamicMapField::DynamicMapField(google::protobuf::Message const*) [clone .cold]
PUBLIC 28fc4 0 google::protobuf::internal::DynamicMapField::DynamicMapField(google::protobuf::Message const*, google::protobuf::Arena*) [clone .cold]
PUBLIC 28ff4 0 google::protobuf::internal::DynamicMapField::SyncRepeatedFieldWithMapNoLock() const [clone .cold]
PUBLIC 29126 0 google::protobuf::internal::DynamicMapField::SyncMapWithRepeatedFieldNoLock() const [clone .cold]
PUBLIC 2916a 0 google::protobuf::internal::DynamicMapField::MergeFrom(google::protobuf::internal::MapFieldBase const&) [clone .cold]
PUBLIC 293d6 0 google::protobuf::internal::DynamicMapField::Swap(google::protobuf::internal::MapFieldBase*) [clone .cold]
PUBLIC 2949e 0 google::protobuf::Message::SetCachedSize(int) const [clone .cold]
PUBLIC 294ae 0 google::protobuf::Message::MergeFrom(google::protobuf::Message const&) [clone .cold]
PUBLIC 294c8 0 google::protobuf::Message::CopyFrom(google::protobuf::Message const&) [clone .cold]
PUBLIC 294e2 0 google::protobuf::(anonymous namespace)::GeneratedMessageFactory::singleton() [clone .cold]
PUBLIC 294f6 0 google::protobuf::Message::FindInitializationErrors(std::vector<std::__cxx11::basic_string<char, std::char_traits<char>, std::allocator<char> >, std::allocator<std::__cxx11::basic_string<char, std::char_traits<char>, std::allocator<char> > > >*) const [clone .cold]
PUBLIC 2950c 0 google::protobuf::Message::InitializationErrorString[abi:cxx11]() const [clone .cold]
PUBLIC 29556 0 google::protobuf::Message::CheckInitialized() const [clone .cold]
PUBLIC 2957a 0 google::protobuf::Reflection::RepeatedFieldAccessor(google::protobuf::FieldDescriptor const*) const [clone .cold]
PUBLIC 2959a 0 google::protobuf::(anonymous namespace)::GeneratedMessageFactory::GetPrototype(google::protobuf::Descriptor const*) [clone .cold]
PUBLIC 295ca 0 google::protobuf::MessageFactory::InternalRegisterGeneratedFile(google::protobuf::internal::DescriptorTable const*) [clone .cold]
PUBLIC 295fc 0 google::protobuf::MessageFactory::InternalRegisterGeneratedMessage(google::protobuf::Descriptor const*, google::protobuf::Message const*) [clone .cold]
PUBLIC 2962e 0 google::protobuf::internal::GenericSwap(google::protobuf::Message*, google::protobuf::Message*) [clone .cold]
PUBLIC 29644 0 google::protobuf::internal::GetReflectionOrDie(google::protobuf::Message const&) [clone .cold]
PUBLIC 29664 0 google::protobuf::internal::ReflectionOps::Merge(google::protobuf::Message const&, google::protobuf::Message*) [clone .cold]
PUBLIC 296d0 0 google::protobuf::internal::ReflectionOps::Clear(google::protobuf::Message*) [clone .cold]
PUBLIC 296e6 0 google::protobuf::internal::ReflectionOps::IsInitialized(google::protobuf::Message const&) [clone .cold]
PUBLIC 297de 0 google::protobuf::internal::ReflectionOps::DiscardUnknownFields(google::protobuf::Message*) [clone .cold]
PUBLIC 298d1 0 google::protobuf::internal::SubMessagePrefix(std::__cxx11::basic_string<char, std::char_traits<char>, std::allocator<char> > const&, google::protobuf::FieldDescriptor const*, int) [clone .cold]
PUBLIC 298f6 0 google::protobuf::internal::ReflectionOps::FindInitializationErrors(google::protobuf::Message const&, std::__cxx11::basic_string<char, std::char_traits<char>, std::allocator<char> > const&, std::vector<std::__cxx11::basic_string<char, std::char_traits<char>, std::allocator<char> >, std::allocator<std::__cxx11::basic_string<char, std::char_traits<char>, std::allocator<char> > > >*) [clone .cold]
PUBLIC 29969 0 google::protobuf::strings::SubstituteAndAppend(std::__cxx11::basic_string<char, std::char_traits<char>, std::allocator<char> >*, char const*, google::protobuf::strings::internal::SubstituteArg const&, google::protobuf::strings::internal::SubstituteArg const&, google::protobuf::strings::internal::SubstituteArg const&, google::protobuf::strings::internal::SubstituteArg const&, google::protobuf::strings::internal::SubstituteArg const&, google::protobuf::strings::internal::SubstituteArg const&, google::protobuf::strings::internal::SubstituteArg const&, google::protobuf::strings::internal::SubstituteArg const&, google::protobuf::strings::internal::SubstituteArg const&, google::protobuf::strings::internal::SubstituteArg const&) [clone .cold]
PUBLIC 299cf 0 google::protobuf::strings::Substitute[abi:cxx11](char const*, google::protobuf::strings::internal::SubstituteArg const&, google::protobuf::strings::internal::SubstituteArg const&, google::protobuf::strings::internal::SubstituteArg const&, google::protobuf::strings::internal::SubstituteArg const&, google::protobuf::strings::internal::SubstituteArg const&, google::protobuf::strings::internal::SubstituteArg const&, google::protobuf::strings::internal::SubstituteArg const&, google::protobuf::strings::internal::SubstituteArg const&, google::protobuf::strings::internal::SubstituteArg const&, google::protobuf::strings::internal::SubstituteArg const&) [clone .cold]
PUBLIC 299e6 0 google::protobuf::(anonymous namespace)::FieldValuePrinterWrapper::PrintMessageEnd(google::protobuf::Message const&, int, int, bool, google::protobuf::TextFormat::BaseTextGenerator*) const [clone .cold]
PUBLIC 29a02 0 google::protobuf::(anonymous namespace)::FieldValuePrinterWrapper::PrintMessageStart(google::protobuf::Message const&, int, int, bool, google::protobuf::TextFormat::BaseTextGenerator*) const [clone .cold]
PUBLIC 29a1e 0 google::protobuf::(anonymous namespace)::FieldValuePrinterWrapper::PrintFieldName(google::protobuf::Message const&, google::protobuf::Reflection const*, google::protobuf::FieldDescriptor const*, google::protobuf::TextFormat::BaseTextGenerator*) const [clone .cold]
PUBLIC 29a3a 0 google::protobuf::(anonymous namespace)::FieldValuePrinterWrapper::PrintFieldName(google::protobuf::Message const&, int, int, google::protobuf::Reflection const*, google::protobuf::FieldDescriptor const*, google::protobuf::TextFormat::BaseTextGenerator*) const [clone .cold]
PUBLIC 29a56 0 google::protobuf::(anonymous namespace)::FieldValuePrinterWrapper::PrintEnum(int, std::__cxx11::basic_string<char, std::char_traits<char>, std::allocator<char> > const&, google::protobuf::TextFormat::BaseTextGenerator*) const [clone .cold]
PUBLIC 29a72 0 google::protobuf::(anonymous namespace)::FieldValuePrinterWrapper::PrintBytes(std::__cxx11::basic_string<char, std::char_traits<char>, std::allocator<char> > const&, google::protobuf::TextFormat::BaseTextGenerator*) const [clone .cold]
PUBLIC 29a8e 0 google::protobuf::(anonymous namespace)::FieldValuePrinterWrapper::PrintString(std::__cxx11::basic_string<char, std::char_traits<char>, std::allocator<char> > const&, google::protobuf::TextFormat::BaseTextGenerator*) const [clone .cold]
PUBLIC 29aaa 0 google::protobuf::(anonymous namespace)::FieldValuePrinterWrapper::PrintDouble(double, google::protobuf::TextFormat::BaseTextGenerator*) const [clone .cold]
PUBLIC 29ac6 0 google::protobuf::(anonymous namespace)::FieldValuePrinterWrapper::PrintFloat(float, google::protobuf::TextFormat::BaseTextGenerator*) const [clone .cold]
PUBLIC 29ae2 0 google::protobuf::(anonymous namespace)::FieldValuePrinterWrapper::PrintUInt64(unsigned long, google::protobuf::TextFormat::BaseTextGenerator*) const [clone .cold]
PUBLIC 29afe 0 google::protobuf::(anonymous namespace)::FieldValuePrinterWrapper::PrintInt64(long, google::protobuf::TextFormat::BaseTextGenerator*) const [clone .cold]
PUBLIC 29b1a 0 google::protobuf::(anonymous namespace)::FieldValuePrinterWrapper::PrintUInt32(unsigned int, google::protobuf::TextFormat::BaseTextGenerator*) const [clone .cold]
PUBLIC 29b36 0 google::protobuf::(anonymous namespace)::FieldValuePrinterWrapper::PrintInt32(int, google::protobuf::TextFormat::BaseTextGenerator*) const [clone .cold]
PUBLIC 29b52 0 google::protobuf::(anonymous namespace)::FieldValuePrinterWrapper::PrintBool(bool, google::protobuf::TextFormat::BaseTextGenerator*) const [clone .cold]
PUBLIC 29b6e 0 google::protobuf::TextFormat::FastFieldValuePrinter::PrintString(std::__cxx11::basic_string<char, std::char_traits<char>, std::allocator<char> > const&, google::protobuf::TextFormat::BaseTextGenerator*) const [clone .cold]
PUBLIC 29b8a 0 google::protobuf::(anonymous namespace)::FastFieldValuePrinterUtf8Escaping::PrintString(std::__cxx11::basic_string<char, std::char_traits<char>, std::allocator<char> > const&, google::protobuf::TextFormat::BaseTextGenerator*) const [clone .cold]
PUBLIC 29ba5 0 google::protobuf::CheckFieldIndex(google::protobuf::FieldDescriptor const*, int) [clone .cold]
PUBLIC 29bc5 0 google::protobuf::(anonymous namespace)::CheckParseInputSize(google::protobuf::StringPiece, google::protobuf::io::ErrorCollector*) [clone .isra.0] [clone .cold]
PUBLIC 29be2 0 google::protobuf::TextFormat::Printer::SetDefaultFieldValuePrinter(google::protobuf::TextFormat::FieldValuePrinter const*) [clone .cold]
PUBLIC 29bf8 0 google::protobuf::TextFormat::Printer::SetUseUtf8StringEscaping(bool) [clone .cold]
PUBLIC 29c22 0 google::protobuf::TextFormat::Printer::Printer() [clone .cold]
PUBLIC 29c54 0 google::protobuf::TextFormat::Printer::RegisterFieldValuePrinter(google::protobuf::FieldDescriptor const*, google::protobuf::TextFormat::FieldValuePrinter const*) [clone .cold]
PUBLIC 29c9a 0 google::protobuf::TextFormat::FastFieldValuePrinter::PrintInt32(int, google::protobuf::TextFormat::BaseTextGenerator*) const [clone .cold]
PUBLIC 29cb0 0 google::protobuf::TextFormat::FastFieldValuePrinter::PrintUInt32(unsigned int, google::protobuf::TextFormat::BaseTextGenerator*) const [clone .cold]
PUBLIC 29cc6 0 google::protobuf::TextFormat::FastFieldValuePrinter::PrintInt64(long, google::protobuf::TextFormat::BaseTextGenerator*) const [clone .cold]
PUBLIC 29cdc 0 google::protobuf::TextFormat::FastFieldValuePrinter::PrintUInt64(unsigned long, google::protobuf::TextFormat::BaseTextGenerator*) const [clone .cold]
PUBLIC 29cf2 0 google::protobuf::TextFormat::Printer::PrintFieldName(google::protobuf::Message const&, int, int, google::protobuf::Reflection const*, google::protobuf::FieldDescriptor const*, google::protobuf::TextFormat::Printer::TextGenerator*) const [clone .cold]
PUBLIC 29d08 0 google::protobuf::TextFormat::Printer::PrintUnknownFields(google::protobuf::UnknownFieldSet const&, google::protobuf::TextFormat::Printer::TextGenerator*, int) const [clone .cold]
PUBLIC 29d6e 0 google::protobuf::TextFormat::Printer::PrintUnknownFields(google::protobuf::UnknownFieldSet const&, google::protobuf::io::ZeroCopyOutputStream*) const [clone .cold]
PUBLIC 29d7e 0 google::protobuf::TextFormat::PrintUnknownFields(google::protobuf::UnknownFieldSet const&, google::protobuf::io::ZeroCopyOutputStream*) [clone .cold]
PUBLIC 29d8e 0 google::protobuf::TextFormat::PrintUnknownFieldsToString(google::protobuf::UnknownFieldSet const&, std::__cxx11::basic_string<char, std::char_traits<char>, std::allocator<char> >*) [clone .cold]
PUBLIC 29d9e 0 google::protobuf::TextFormat::FastFieldValuePrinter::PrintFloat(float, google::protobuf::TextFormat::BaseTextGenerator*) const [clone .cold]
PUBLIC 29db4 0 google::protobuf::TextFormat::FastFieldValuePrinter::PrintDouble(double, google::protobuf::TextFormat::BaseTextGenerator*) const [clone .cold]
PUBLIC 29dca 0 google::protobuf::TextFormat::FieldValuePrinter::PrintBool[abi:cxx11](bool) const [clone .cold]
PUBLIC 29dda 0 google::protobuf::TextFormat::FieldValuePrinter::PrintInt32[abi:cxx11](int) const [clone .cold]
PUBLIC 29dea 0 google::protobuf::TextFormat::FieldValuePrinter::PrintUInt32[abi:cxx11](unsigned int) const [clone .cold]
PUBLIC 29dfa 0 google::protobuf::TextFormat::FieldValuePrinter::PrintInt64[abi:cxx11](long) const [clone .cold]
PUBLIC 29e0a 0 google::protobuf::TextFormat::FieldValuePrinter::PrintUInt64[abi:cxx11](unsigned long) const [clone .cold]
PUBLIC 29e1a 0 google::protobuf::TextFormat::FieldValuePrinter::PrintFloat[abi:cxx11](float) const [clone .cold]
PUBLIC 29e2a 0 google::protobuf::TextFormat::FieldValuePrinter::PrintDouble[abi:cxx11](double) const [clone .cold]
PUBLIC 29e3a 0 google::protobuf::TextFormat::FieldValuePrinter::PrintString(std::__cxx11::basic_string<char, std::char_traits<char>, std::allocator<char> > const&) const [clone .cold]
PUBLIC 29e4a 0 google::protobuf::TextFormat::FieldValuePrinter::PrintEnum(int, std::__cxx11::basic_string<char, std::char_traits<char>, std::allocator<char> > const&) const [clone .cold]
PUBLIC 29e5a 0 google::protobuf::TextFormat::FieldValuePrinter::PrintFieldName[abi:cxx11](google::protobuf::Message const&, google::protobuf::Reflection const*, google::protobuf::FieldDescriptor const*) const [clone .cold]
PUBLIC 29e6a 0 google::protobuf::TextFormat::FieldValuePrinter::PrintMessageStart[abi:cxx11](google::protobuf::Message const&, int, int, bool) const [clone .cold]
PUBLIC 29e7a 0 google::protobuf::TextFormat::FieldValuePrinter::PrintMessageEnd[abi:cxx11](google::protobuf::Message const&, int, int, bool) const [clone .cold]
PUBLIC 29e8a 0 google::protobuf::internal::MapFieldPrinterHelper::CopyKey(google::protobuf::MapKey const&, google::protobuf::Message*, google::protobuf::FieldDescriptor const*) [clone .cold]
PUBLIC 29f72 0 google::protobuf::internal::MapFieldPrinterHelper::CopyValue(google::protobuf::MapValueRef const&, google::protobuf::Message*, google::protobuf::FieldDescriptor const*) [clone .cold]
PUBLIC 2a0ce 0 google::protobuf::internal::MapFieldPrinterHelper::SortMap(google::protobuf::Message const&, google::protobuf::Reflection const*, google::protobuf::FieldDescriptor const*, google::protobuf::MessageFactory*, std::vector<google::protobuf::Message const*, std::allocator<google::protobuf::Message const*> >*) [clone .cold]
PUBLIC 2a0fc 0 google::protobuf::TextFormat::Parser::MergeUsingImpl(google::protobuf::io::ZeroCopyInputStream*, google::protobuf::Message*, google::protobuf::TextFormat::Parser::ParserImpl*) [clone .cold]
PUBLIC 2a16c 0 google::protobuf::TextFormat::Parser::Parse(google::protobuf::io::ZeroCopyInputStream*, google::protobuf::Message*) [clone .cold]
PUBLIC 2a1bc 0 google::protobuf::TextFormat::ParseFromString(std::__cxx11::basic_string<char, std::char_traits<char>, std::allocator<char> > const&, google::protobuf::Message*) [clone .cold]
PUBLIC 2a1cc 0 google::protobuf::TextFormat::Parse(google::protobuf::io::ZeroCopyInputStream*, google::protobuf::Message*) [clone .cold]
PUBLIC 2a1dc 0 google::protobuf::TextFormat::Parser::Merge(google::protobuf::io::ZeroCopyInputStream*, google::protobuf::Message*) [clone .cold]
PUBLIC 2a22c 0 google::protobuf::TextFormat::MergeFromString(std::__cxx11::basic_string<char, std::char_traits<char>, std::allocator<char> > const&, google::protobuf::Message*) [clone .cold]
PUBLIC 2a23c 0 google::protobuf::TextFormat::Merge(google::protobuf::io::ZeroCopyInputStream*, google::protobuf::Message*) [clone .cold]
PUBLIC 2a24c 0 google::protobuf::TextFormat::Parser::ParseFieldValueFromString(std::__cxx11::basic_string<char, std::char_traits<char>, std::allocator<char> > const&, google::protobuf::FieldDescriptor const*, google::protobuf::Message*) [clone .cold]
PUBLIC 2a29c 0 google::protobuf::TextFormat::ParseFieldValueFromString(std::__cxx11::basic_string<char, std::char_traits<char>, std::allocator<char> > const&, google::protobuf::FieldDescriptor const*, google::protobuf::Message*) [clone .cold]
PUBLIC 2a2ac 0 google::protobuf::TextFormat::Printer::PrintField(google::protobuf::Message const&, google::protobuf::Reflection const*, google::protobuf::FieldDescriptor const*, google::protobuf::TextFormat::Printer::TextGenerator*) const [clone .cold]
PUBLIC 2a2de 0 google::protobuf::TextFormat::Printer::Print(google::protobuf::Message const&, google::protobuf::TextFormat::Printer::TextGenerator*) const [clone .cold]
PUBLIC 2a31a 0 google::protobuf::TextFormat::Printer::PrintAny(google::protobuf::Message const&, google::protobuf::TextFormat::Printer::TextGenerator*) const [clone .cold]
PUBLIC 2a3b4 0 google::protobuf::TextFormat::Printer::Print(google::protobuf::Message const&, google::protobuf::io::ZeroCopyOutputStream*) const [clone .cold]
PUBLIC 2a3c4 0 google::protobuf::Message::DebugString[abi:cxx11]() const [clone .cold]
PUBLIC 2a3e2 0 google::protobuf::Message::PrintDebugString() const [clone .cold]
PUBLIC 2a3fe 0 google::protobuf::Message::ShortDebugString[abi:cxx11]() const [clone .cold]
PUBLIC 2a41c 0 google::protobuf::Message::Utf8DebugString[abi:cxx11]() const [clone .cold]
PUBLIC 2a43a 0 google::protobuf::TextFormat::PrintToString(google::protobuf::Message const&, std::__cxx11::basic_string<char, std::char_traits<char>, std::allocator<char> >*) [clone .cold]
PUBLIC 2a44a 0 google::protobuf::TextFormat::Print(google::protobuf::Message const&, google::protobuf::io::ZeroCopyOutputStream*) [clone .cold]
PUBLIC 2a45a 0 google::protobuf::TextFormat::Printer::PrintFieldValue(google::protobuf::Message const&, google::protobuf::Reflection const*, google::protobuf::FieldDescriptor const*, int, google::protobuf::TextFormat::Printer::TextGenerator*) const [clone .cold]
PUBLIC 2a4ac 0 google::protobuf::TextFormat::Printer::PrintFieldValueToString(google::protobuf::Message const&, google::protobuf::FieldDescriptor const*, int, std::__cxx11::basic_string<char, std::char_traits<char>, std::allocator<char> >*) const [clone .cold]
PUBLIC 2a4bc 0 google::protobuf::TextFormat::PrintFieldValueToString(google::protobuf::Message const&, google::protobuf::FieldDescriptor const*, int, std::__cxx11::basic_string<char, std::char_traits<char>, std::allocator<char> >*) [clone .cold]
PUBLIC 2a4cc 0 google::protobuf::UnknownFieldSet::default_instance() [clone .cold]
PUBLIC 2a4e0 0 google::protobuf::UnknownField::DeepCopy(google::protobuf::UnknownField const&) [clone .cold]
PUBLIC 2a4f6 0 google::protobuf::UnknownFieldSet::MergeFromCodedStream(google::protobuf::io::CodedInputStream*) [clone .cold]
PUBLIC 2a520 0 google::protobuf::UnknownFieldSet::ParseFromZeroCopyStream(google::protobuf::io::ZeroCopyInputStream*) [clone .cold]
PUBLIC 2a530 0 google::protobuf::internal::WireFormat::ParseAndMergeMessageSetField(unsigned int, google::protobuf::FieldDescriptor const*, google::protobuf::Message*, google::protobuf::io::CodedInputStream*) [clone .cold]
PUBLIC 2a540 0 google::protobuf::internal::WireFormat::ParseAndMergeMessageSetItem(google::protobuf::io::CodedInputStream*, google::protobuf::Message*) [clone .cold]
PUBLIC 2a55f 0 google::protobuf::internal::MapKeyDataOnlyByteSize(google::protobuf::FieldDescriptor const*, google::protobuf::MapKey const&) [clone .cold]
PUBLIC 2a57f 0 google::protobuf::internal::MapValueRefDataOnlyByteSize(google::protobuf::FieldDescriptor const*, google::protobuf::MapValueRef const&) [clone .cold]
PUBLIC 2a59f 0 google::protobuf::internal::InternalSerializeMapEntry(google::protobuf::FieldDescriptor const*, google::protobuf::MapKey const&, google::protobuf::MapValueRef const&, unsigned char*, google::protobuf::io::EpsCopyOutputStream*) [clone .cold]
PUBLIC 2a5e0 0 google::protobuf::internal::WireFormat::FieldDataOnlyByteSize(google::protobuf::FieldDescriptor const*, google::protobuf::Message const&) [clone .cold]
PUBLIC 2a614 0 google::protobuf::internal::WireFormat::ByteSize(google::protobuf::Message const&) [clone .cold]
PUBLIC 2a62c 0 google::protobuf::internal::WireFormat::ParseAndMergeField(unsigned int, google::protobuf::FieldDescriptor const*, google::protobuf::Message*, google::protobuf::io::CodedInputStream*) [clone .cold]
PUBLIC 2a6a2 0 google::protobuf::internal::WireFormat::_InternalParseAndMergeField(google::protobuf::Message*, char const*, google::protobuf::internal::ParseContext*, unsigned long, google::protobuf::Reflection const*, google::protobuf::FieldDescriptor const*) [clone .cold]
PUBLIC 2a6ee 0 google::protobuf::internal::WireFormat::InternalSerializeField(google::protobuf::FieldDescriptor const*, google::protobuf::Message const&, unsigned char*, google::protobuf::io::EpsCopyOutputStream*) [clone .cold]
PUBLIC 2a7be 0 google::protobuf::internal::WireFormat::_InternalSerialize(google::protobuf::Message const&, unsigned char*, google::protobuf::io::EpsCopyOutputStream*) [clone .cold]
PUBLIC 2a7d6 0 google::protobuf::io::Tokenizer::Tokenizer(google::protobuf::io::ZeroCopyInputStream*, google::protobuf::io::ErrorCollector*) [clone .cold]
PUBLIC 2a7fa 0 google::protobuf::io::Tokenizer::ParseFloat(std::__cxx11::basic_string<char, std::char_traits<char>, std::allocator<char> > const&) [clone .cold]
PUBLIC 2a81e 0 google::protobuf::io::Tokenizer::ParseStringAppend(std::__cxx11::basic_string<char, std::char_traits<char>, std::allocator<char> > const&, std::__cxx11::basic_string<char, std::char_traits<char>, std::allocator<char> >*) [clone .cold]
PUBLIC 2a842 0 google::protobuf::io::Tokenizer::ConsumeBlockComment(std::__cxx11::basic_string<char, std::char_traits<char>, std::allocator<char> >*) [clone .cold]
PUBLIC 2a85a 0 google::protobuf::io::Tokenizer::ConsumeNumber(bool, bool) [clone .cold]
PUBLIC 2a8de 0 google::protobuf::io::Tokenizer::ConsumeString(char) [clone .cold]
PUBLIC 2a962 0 google::protobuf::io::Tokenizer::Next() [clone .cold]
PUBLIC 2a988 0 google::protobuf::io::Tokenizer::NextWithComments(std::__cxx11::basic_string<char, std::char_traits<char>, std::allocator<char> >*, std::vector<std::__cxx11::basic_string<char, std::char_traits<char>, std::allocator<char> >, std::allocator<std::__cxx11::basic_string<char, std::char_traits<char>, std::allocator<char> > > >*, std::__cxx11::basic_string<char, std::char_traits<char>, std::allocator<char> >*) [clone .cold]
PUBLIC 2a9c9 0 google::protobuf::util::ParseDelimitedFromZeroCopyStream(google::protobuf::MessageLite*, google::protobuf::io::ZeroCopyInputStream*, bool*) [clone .cold]
PUBLIC 2a9d9 0 google::protobuf::util::SerializeDelimitedToZeroCopyStream(google::protobuf::MessageLite const&, google::protobuf::io::ZeroCopyOutputStream*) [clone .cold]
PUBLIC 2a9e9 0 google::protobuf::util::SerializeDelimitedToFileDescriptor(google::protobuf::MessageLite const&, int) [clone .cold]
PUBLIC 2a9f9 0 google::protobuf::util::SerializeDelimitedToOstream(google::protobuf::MessageLite const&, std::ostream*) [clone .cold]
PUBLIC 2aa09 0 google::protobuf::StringPrintf[abi:cxx11](char const*, ...) [clone .cold]
PUBLIC 2aa1f 0 google::protobuf::StringPrintfVector(char const*, std::vector<std::__cxx11::basic_string<char, std::char_traits<char>, std::allocator<char> >, std::allocator<std::__cxx11::basic_string<char, std::char_traits<char>, std::allocator<char> > > > const&) [clone .cold]
PUBLIC 2aa2f 0 google::protobuf::StringReplace(std::__cxx11::basic_string<char, std::char_traits<char>, std::allocator<char> > const&, std::__cxx11::basic_string<char, std::char_traits<char>, std::allocator<char> > const&, std::__cxx11::basic_string<char, std::char_traits<char>, std::allocator<char> > const&, bool) [clone .cold]
PUBLIC 2aa45 0 google::protobuf::JoinStrings(std::vector<std::__cxx11::basic_string<char, std::char_traits<char>, std::allocator<char> >, std::allocator<std::__cxx11::basic_string<char, std::char_traits<char>, std::allocator<char> > > > const&, char const*, std::__cxx11::basic_string<char, std::char_traits<char>, std::allocator<char> >*) [clone .cold]
PUBLIC 2aa55 0 google::protobuf::UnescapeCEscapeString(std::__cxx11::basic_string<char, std::char_traits<char>, std::allocator<char> > const&, std::__cxx11::basic_string<char, std::char_traits<char>, std::allocator<char> >*, std::vector<std::__cxx11::basic_string<char, std::char_traits<char>, std::allocator<char> >, std::allocator<std::__cxx11::basic_string<char, std::char_traits<char>, std::allocator<char> > > >*) [clone .cold]
PUBLIC 2aa6d 0 google::protobuf::CEscape(std::__cxx11::basic_string<char, std::char_traits<char>, std::allocator<char> > const&) [clone .cold]
PUBLIC 2aa83 0 google::protobuf::FastHexToBuffer(int, char*) [clone .cold]
PUBLIC 2aa93 0 google::protobuf::safe_strtob(google::protobuf::StringPiece, bool*) [clone .cold]
PUBLIC 2aaa3 0 google::protobuf::StrCat[abi:cxx11](google::protobuf::strings::AlphaNum const&, google::protobuf::strings::AlphaNum const&) [clone .cold]
PUBLIC 2aab9 0 google::protobuf::StrCat[abi:cxx11](google::protobuf::strings::AlphaNum const&, google::protobuf::strings::AlphaNum const&, google::protobuf::strings::AlphaNum const&) [clone .cold]
PUBLIC 2aacf 0 google::protobuf::StrCat[abi:cxx11](google::protobuf::strings::AlphaNum const&, google::protobuf::strings::AlphaNum const&, google::protobuf::strings::AlphaNum const&, google::protobuf::strings::AlphaNum const&) [clone .cold]
PUBLIC 2aae5 0 google::protobuf::StrCat[abi:cxx11](google::protobuf::strings::AlphaNum const&, google::protobuf::strings::AlphaNum const&, google::protobuf::strings::AlphaNum const&, google::protobuf::strings::AlphaNum const&, google::protobuf::strings::AlphaNum const&) [clone .cold]
PUBLIC 2aafd 0 google::protobuf::StrCat[abi:cxx11](google::protobuf::strings::AlphaNum const&, google::protobuf::strings::AlphaNum const&, google::protobuf::strings::AlphaNum const&, google::protobuf::strings::AlphaNum const&, google::protobuf::strings::AlphaNum const&, google::protobuf::strings::AlphaNum const&) [clone .cold]
PUBLIC 2ab15 0 google::protobuf::StrCat[abi:cxx11](google::protobuf::strings::AlphaNum const&, google::protobuf::strings::AlphaNum const&, google::protobuf::strings::AlphaNum const&, google::protobuf::strings::AlphaNum const&, google::protobuf::strings::AlphaNum const&, google::protobuf::strings::AlphaNum const&, google::protobuf::strings::AlphaNum const&) [clone .cold]
PUBLIC 2ab2d 0 google::protobuf::StrCat[abi:cxx11](google::protobuf::strings::AlphaNum const&, google::protobuf::strings::AlphaNum const&, google::protobuf::strings::AlphaNum const&, google::protobuf::strings::AlphaNum const&, google::protobuf::strings::AlphaNum const&, google::protobuf::strings::AlphaNum const&, google::protobuf::strings::AlphaNum const&, google::protobuf::strings::AlphaNum const&) [clone .cold]
PUBLIC 2ab45 0 google::protobuf::StrCat[abi:cxx11](google::protobuf::strings::AlphaNum const&, google::protobuf::strings::AlphaNum const&, google::protobuf::strings::AlphaNum const&, google::protobuf::strings::AlphaNum const&, google::protobuf::strings::AlphaNum const&, google::protobuf::strings::AlphaNum const&, google::protobuf::strings::AlphaNum const&, google::protobuf::strings::AlphaNum const&, google::protobuf::strings::AlphaNum const&) [clone .cold]
PUBLIC 2ab5d 0 google::protobuf::GlobalReplaceSubstring(std::__cxx11::basic_string<char, std::char_traits<char>, std::allocator<char> > const&, std::__cxx11::basic_string<char, std::char_traits<char>, std::allocator<char> > const&, std::__cxx11::basic_string<char, std::char_traits<char>, std::allocator<char> >*) [clone .cold]
PUBLIC 2ab86 0 google::protobuf::Base64EscapeInternal(unsigned char const*, int, char*, int, char const*, bool) [clone .cold]
PUBLIC 2ab96 0 google::protobuf::internal::NoLocaleStrtod(char const*, char**) [clone .cold]
PUBLIC 2abde 0 google::protobuf::UnescapeCEscapeString(std::__cxx11::basic_string<char, std::char_traits<char>, std::allocator<char> > const&) [clone .cold]
PUBLIC 2abee 0 google::protobuf::strings::Utf8SafeCEscape(std::__cxx11::basic_string<char, std::char_traits<char>, std::allocator<char> > const&) [clone .cold]
PUBLIC 2abfe 0 google::protobuf::strings::CHexEscape(std::__cxx11::basic_string<char, std::char_traits<char>, std::allocator<char> > const&) [clone .cold]
PUBLIC 2ac0e 0 google::protobuf::safe_strto32(std::__cxx11::basic_string<char, std::char_traits<char>, std::allocator<char> > const&, int*) [clone .cold]
PUBLIC 2ac24 0 google::protobuf::safe_strtou32(std::__cxx11::basic_string<char, std::char_traits<char>, std::allocator<char> > const&, unsigned int*) [clone .cold]
PUBLIC 2ac3a 0 google::protobuf::safe_strto64(std::__cxx11::basic_string<char, std::char_traits<char>, std::allocator<char> > const&, long*) [clone .cold]
PUBLIC 2ac50 0 google::protobuf::safe_strtou64(std::__cxx11::basic_string<char, std::char_traits<char>, std::allocator<char> > const&, unsigned long*) [clone .cold]
PUBLIC 2ac66 0 google::protobuf::CleanStringLineEndings(std::__cxx11::basic_string<char, std::char_traits<char>, std::allocator<char> > const&, std::__cxx11::basic_string<char, std::char_traits<char>, std::allocator<char> >*, bool) [clone .cold]
PUBLIC 2ac7c 0 google::protobuf::SplitStringUsing(std::__cxx11::basic_string<char, std::char_traits<char>, std::allocator<char> > const&, char const*, std::vector<std::__cxx11::basic_string<char, std::char_traits<char>, std::allocator<char> >, std::allocator<std::__cxx11::basic_string<char, std::char_traits<char>, std::allocator<char> > > >*) [clone .cold]
PUBLIC 2ac93 0 google::protobuf::SplitStringAllowEmpty(std::__cxx11::basic_string<char, std::char_traits<char>, std::allocator<char> > const&, char const*, std::vector<std::__cxx11::basic_string<char, std::char_traits<char>, std::allocator<char> >, std::allocator<std::__cxx11::basic_string<char, std::char_traits<char>, std::allocator<char> > > >*) [clone .cold]
PUBLIC 2acaa 0 google::protobuf::internal::ArenaStringPtr::CreateInstanceNoArena(std::__cxx11::basic_string<char, std::char_traits<char>, std::allocator<char> > const*) [clone .isra.0] [clone .constprop.0] [clone .cold]
PUBLIC 2acc0 0 google::protobuf::internal::AnyMetadata::InternalPackFrom(google::protobuf::MessageLite const&, google::protobuf::StringPiece, google::protobuf::StringPiece) [clone .cold]
PUBLIC 2acdc 0 google::protobuf::internal::AnyMetadata::InternalIs(google::protobuf::StringPiece) const [clone .cold]
PUBLIC 2ad02 0 google::protobuf::internal::ExtensionSet::FindExtensionInfoFromFieldNumber(int, int, google::protobuf::internal::ExtensionFinder*, google::protobuf::internal::ExtensionInfo*, bool*) [clone .cold]
PUBLIC 2ad12 0 google::protobuf::internal::ExtensionSet::Extension::ByteSize(int) const [clone .cold]
PUBLIC 2ad22 0 google::protobuf::internal::ExtensionSet::Extension::GetSize() const [clone .cold]
PUBLIC 2ad32 0 google::protobuf::internal::ExtensionSet::ExtensionType(int) const [clone .cold]
PUBLIC 2ad52 0 google::protobuf::internal::ExtensionSet::GetRepeatedInt32(int, int) const [clone .cold]
PUBLIC 2ad62 0 google::protobuf::internal::ExtensionSet::GetRepeatedInt64(int, int) const [clone .cold]
PUBLIC 2ad72 0 google::protobuf::internal::ExtensionSet::GetRepeatedUInt32(int, int) const [clone .cold]
PUBLIC 2ad82 0 google::protobuf::internal::ExtensionSet::GetRepeatedUInt64(int, int) const [clone .cold]
PUBLIC 2ad92 0 google::protobuf::internal::ExtensionSet::GetRepeatedFloat(int, int) const [clone .cold]
PUBLIC 2ada2 0 google::protobuf::internal::ExtensionSet::GetRepeatedDouble(int, int) const [clone .cold]
PUBLIC 2adb2 0 google::protobuf::internal::ExtensionSet::GetRepeatedBool(int, int) const [clone .cold]
PUBLIC 2adc2 0 google::protobuf::internal::ExtensionSet::GetRepeatedEnum(int, int) const [clone .cold]
PUBLIC 2add2 0 google::protobuf::internal::ExtensionSet::GetRepeatedString[abi:cxx11](int, int) const [clone .cold]
PUBLIC 2ade2 0 google::protobuf::internal::ExtensionSet::GetRepeatedMessage(int, int) const [clone .cold]
PUBLIC 2adf2 0 google::protobuf::internal::ExtensionSet::SetRepeatedInt32(int, int, int) [clone .cold]
PUBLIC 2ae02 0 google::protobuf::internal::ExtensionSet::SetRepeatedInt64(int, int, long) [clone .cold]
PUBLIC 2ae12 0 google::protobuf::internal::ExtensionSet::SetRepeatedUInt32(int, int, unsigned int) [clone .cold]
PUBLIC 2ae22 0 google::protobuf::internal::ExtensionSet::SetRepeatedUInt64(int, int, unsigned long) [clone .cold]
PUBLIC 2ae32 0 google::protobuf::internal::ExtensionSet::SetRepeatedFloat(int, int, float) [clone .cold]
PUBLIC 2ae42 0 google::protobuf::internal::ExtensionSet::SetRepeatedDouble(int, int, double) [clone .cold]
PUBLIC 2ae52 0 google::protobuf::internal::ExtensionSet::SetRepeatedBool(int, int, bool) [clone .cold]
PUBLIC 2ae62 0 google::protobuf::internal::ExtensionSet::MutableRawRepeatedField(int) [clone .cold]
PUBLIC 2ae72 0 google::protobuf::internal::ExtensionSet::SetRepeatedEnum(int, int, int) [clone .cold]
PUBLIC 2ae82 0 google::protobuf::internal::ExtensionSet::MutableRepeatedString[abi:cxx11](int, int) [clone .cold]
PUBLIC 2ae92 0 google::protobuf::internal::ExtensionSet::MutableRepeatedMessage(int, int) [clone .cold]
PUBLIC 2aea2 0 google::protobuf::internal::ExtensionSet::RemoveLast(int) [clone .cold]
PUBLIC 2aeb2 0 google::protobuf::internal::ExtensionSet::ReleaseLast(int) [clone .cold]
PUBLIC 2aec2 0 google::protobuf::internal::ExtensionSet::SwapElements(int, int, int) [clone .cold]
PUBLIC 2aed2 0 google::protobuf::internal::RepeatedPrimitiveDefaults::default_instance() [clone .cold]
PUBLIC 2aee6 0 google::protobuf::internal::RepeatedStringTypeTraits::GetDefaultRepeatedField[abi:cxx11]() [clone .cold]
PUBLIC 2af0a 0 google::protobuf::internal::ExtensionSet::Extension::InternalSerializeFieldWithCachedSizesToArray(int, unsigned char*, google::protobuf::io::EpsCopyOutputStream*) const [clone .cold]
PUBLIC 2af1a 0 google::protobuf::internal::ExtensionSet::Extension::InternalSerializeMessageSetItemWithCachedSizesToArray(int, unsigned char*, google::protobuf::io::EpsCopyOutputStream*) const [clone .cold]
PUBLIC 2af2a 0 google::protobuf::internal::(anonymous namespace)::Register(google::protobuf::MessageLite const*, int, google::protobuf::internal::ExtensionInfo) [clone .constprop.0] [clone .cold]
PUBLIC 2af98 0 google::protobuf::internal::ExtensionSet::RegisterMessageExtension(google::protobuf::MessageLite const*, int, unsigned char, bool, bool, google::protobuf::MessageLite const*) [clone .cold]
PUBLIC 2afa8 0 google::protobuf::internal::ExtensionSet::RegisterEnumExtension(google::protobuf::MessageLite const*, int, unsigned char, bool, bool, bool (*)(int)) [clone .cold]
PUBLIC 2afb8 0 google::protobuf::internal::ExtensionSet::RegisterExtension(google::protobuf::MessageLite const*, int, unsigned char, bool, bool) [clone .cold]
PUBLIC 2afe8 0 google::protobuf::internal::ExtensionSet::MutableRawRepeatedField(int, unsigned char, bool, google::protobuf::FieldDescriptor const*) [clone .cold]
PUBLIC 2affe 0 google::protobuf::internal::ExtensionSet::AddString[abi:cxx11](int, unsigned char, google::protobuf::FieldDescriptor const*) [clone .cold]
PUBLIC 2b014 0 google::protobuf::internal::ExtensionSet::ParseField(unsigned long, char const*, google::protobuf::MessageLite const*, google::protobuf::internal::InternalMetadata*, google::protobuf::internal::ParseContext*) [clone .cold]
PUBLIC 2b034 0 google::protobuf::internal::ExtensionSet::ParseFieldWithExtensionInfo(int, bool, google::protobuf::internal::ExtensionInfo const&, google::protobuf::io::CodedInputStream*, google::protobuf::internal::FieldSkipper*) [clone .cold]
PUBLIC 2b044 0 google::protobuf::internal::ExtensionSet::ParseField(unsigned int, google::protobuf::io::CodedInputStream*, google::protobuf::MessageLite const*) [clone .cold]
PUBLIC 2b05e 0 google::protobuf::internal::ExtensionSet::ParseField(unsigned int, google::protobuf::io::CodedInputStream*, google::protobuf::MessageLite const*, google::protobuf::io::CodedOutputStream*) [clone .cold]
PUBLIC 2b078 0 google::protobuf::internal::ExtensionSet::ParseMessageSetItemLite(google::protobuf::io::CodedInputStream*, google::protobuf::internal::ExtensionFinder*, google::protobuf::internal::FieldSkipper*) [clone .cold]
PUBLIC 2b098 0 google::protobuf::internal::ExtensionSet::ParseMessageSet(google::protobuf::io::CodedInputStream*, google::protobuf::MessageLite const*, std::__cxx11::basic_string<char, std::char_traits<char>, std::allocator<char> >*) [clone .cold]
PUBLIC 2b0ba 0 google::protobuf::internal::ExtensionSet::InternalExtensionMergeFrom(int, google::protobuf::internal::ExtensionSet::Extension const&) [clone .cold]
PUBLIC 2b0e6 0 google::protobuf::internal::ExtensionSet::SwapExtension(google::protobuf::internal::ExtensionSet*, int) [clone .cold]
PUBLIC 2b0f6 0 google::protobuf::internal::ExtensionSet::Swap(google::protobuf::internal::ExtensionSet*) [clone .cold]
PUBLIC 2b106 0 google::protobuf::io::ZeroCopyOutputStream::WriteAliasedRaw(void const*, int) [clone .cold]
PUBLIC 2b116 0 generalproto::EndOfData::~EndOfData() [clone .cold]
PUBLIC 2b124 0 generalproto::GenericMsg* google::protobuf::Arena::CreateMaybeMessage<generalproto::GenericMsg>(google::protobuf::Arena*) [clone .cold]
PUBLIC 2b13a 0 generalproto::EndOfData* google::protobuf::Arena::CreateMaybeMessage<generalproto::EndOfData>(google::protobuf::Arena*) [clone .cold]
PUBLIC 2b150 0 generalproto::EndOfData::_InternalParse(char const*, google::protobuf::internal::ParseContext*) [clone .cold]
PUBLIC 2b160 0 generalproto::GenericMsg::MergeFrom(generalproto::GenericMsg const&) [clone .cold]
PUBLIC 2b170 0 generalproto::GenericMsg::MergeFrom(google::protobuf::Message const&) [clone .cold]
PUBLIC 2b180 0 generalproto::GenericMsg::GenericMsg(generalproto::GenericMsg const&) [clone .cold]
PUBLIC 2b196 0 generalproto::EndOfData::MergeFrom(generalproto::EndOfData const&) [clone .cold]
PUBLIC 2b1a6 0 generalproto::EndOfData::MergeFrom(google::protobuf::Message const&) [clone .cold]
PUBLIC 2b1b6 0 generalproto::GenericMsg::~GenericMsg() [clone .cold]
PUBLIC 2b1c4 0 generalproto::GenericMsg::_InternalParse(char const*, google::protobuf::internal::ParseContext*) [clone .cold]
PUBLIC 2b1d4 0 sourcelocproto::SourceLoc_SourceFile::~SourceLoc_SourceFile() [clone .cold]
PUBLIC 2b1e2 0 sourcelocproto::SourceLoc::~SourceLoc() [clone .cold]
PUBLIC 2b1f0 0 sourcelocproto::SourceLoc_SourceFile* google::protobuf::Arena::CreateMaybeMessage<sourcelocproto::SourceLoc_SourceFile>(google::protobuf::Arena*) [clone .cold]
PUBLIC 2b206 0 sourcelocproto::SourceLoc* google::protobuf::Arena::CreateMaybeMessage<sourcelocproto::SourceLoc>(google::protobuf::Arena*) [clone .cold]
PUBLIC 2b21c 0 sourcelocproto::SourceLoc_SourceFile::_InternalParse(char const*, google::protobuf::internal::ParseContext*) [clone .cold]
PUBLIC 2b22c 0 sourcelocproto::SourceLoc::_InternalParse(char const*, google::protobuf::internal::ParseContext*) [clone .cold]
PUBLIC 2b23c 0 sourcelocproto::SourceLoc::SourceLoc(sourcelocproto::SourceLoc const&) [clone .cold]
PUBLIC 2b252 0 sourcelocproto::SourceLoc_SourceFile::MergeFrom(sourcelocproto::SourceLoc_SourceFile const&) [clone .cold]
PUBLIC 2b262 0 sourcelocproto::SourceLoc_SourceFile::MergeFrom(google::protobuf::Message const&) [clone .cold]
PUBLIC 2b272 0 sourcelocproto::SourceLoc::MergeFrom(sourcelocproto::SourceLoc const&) [clone .cold]
PUBLIC 2b282 0 sourcelocproto::SourceLoc::MergeFrom(google::protobuf::Message const&) [clone .cold]
PUBLIC 2b292 0 msieproto::TopInstance::~TopInstance() [clone .cold]
PUBLIC 2b2a0 0 msieproto::OoprExtern::~OoprExtern() [clone .cold]
PUBLIC 2b2ae 0 msieproto::Partition::~Partition() [clone .cold]
PUBLIC 2b2bc 0 msieproto::ModuleItemPartition::~ModuleItemPartition() [clone .cold]
PUBLIC 2b2ca 0 msieproto::OoprTarget::~OoprTarget() [clone .cold]
PUBLIC 2b2d8 0 msieproto::Partition* google::protobuf::Arena::CreateMaybeMessage<msieproto::Partition>(google::protobuf::Arena*) [clone .cold]
PUBLIC 2b2ee 0 msieproto::ModuleItemPartition* google::protobuf::Arena::CreateMaybeMessage<msieproto::ModuleItemPartition>(google::protobuf::Arena*) [clone .cold]
PUBLIC 2b304 0 msieproto::StitchPoint* google::protobuf::Arena::CreateMaybeMessage<msieproto::StitchPoint>(google::protobuf::Arena*) [clone .cold]
PUBLIC 2b31a 0 msieproto::TopInstance* google::protobuf::Arena::CreateMaybeMessage<msieproto::TopInstance>(google::protobuf::Arena*) [clone .cold]
PUBLIC 2b330 0 msieproto::OoprExtern* google::protobuf::Arena::CreateMaybeMessage<msieproto::OoprExtern>(google::protobuf::Arena*) [clone .cold]
PUBLIC 2b346 0 msieproto::OoprTarget* google::protobuf::Arena::CreateMaybeMessage<msieproto::OoprTarget>(google::protobuf::Arena*) [clone .cold]
PUBLIC 2b35c 0 msieproto::TopInstance::_InternalParse(char const*, google::protobuf::internal::ParseContext*) [clone .cold]
PUBLIC 2b36c 0 msieproto::Partition::_InternalParse(char const*, google::protobuf::internal::ParseContext*) [clone .cold]
PUBLIC 2b37c 0 msieproto::ModuleItemPartition::_InternalParse(char const*, google::protobuf::internal::ParseContext*) [clone .cold]
PUBLIC 2b38c 0 msieproto::OoprExtern::_InternalParse(char const*, google::protobuf::internal::ParseContext*) [clone .cold]
PUBLIC 2b39c 0 msieproto::OoprTarget::_InternalParse(char const*, google::protobuf::internal::ParseContext*) [clone .cold]
PUBLIC 2b3ac 0 msieproto::TopInstance::MergeFrom(msieproto::TopInstance const&) [clone .cold]
PUBLIC 2b3bc 0 msieproto::TopInstance::MergeFrom(google::protobuf::Message const&) [clone .cold]
PUBLIC 2b3cc 0 msieproto::OoprTarget::MergeFrom(msieproto::OoprTarget const&) [clone .cold]
PUBLIC 2b3dc 0 msieproto::OoprTarget::MergeFrom(google::protobuf::Message const&) [clone .cold]
PUBLIC 2b3ec 0 msieproto::OoprExtern::MergeFrom(msieproto::OoprExtern const&) [clone .cold]
PUBLIC 2b3fc 0 msieproto::OoprExtern::MergeFrom(google::protobuf::Message const&) [clone .cold]
PUBLIC 2b40c 0 msieproto::ModuleItemPartition::MergeFrom(msieproto::ModuleItemPartition const&) [clone .cold]
PUBLIC 2b41c 0 msieproto::ModuleItemPartition::MergeFrom(google::protobuf::Message const&) [clone .cold]
PUBLIC 2b42c 0 msieproto::StitchPoint::MergeFrom(msieproto::StitchPoint const&) [clone .cold]
PUBLIC 2b43c 0 msieproto::StitchPoint::MergeFrom(google::protobuf::Message const&) [clone .cold]
PUBLIC 2b44c 0 msieproto::StitchPoint::StitchPoint(msieproto::StitchPoint const&) [clone .cold]
PUBLIC 2b462 0 msieproto::Partition::MergeFrom(msieproto::Partition const&) [clone .cold]
PUBLIC 2b472 0 msieproto::Partition::MergeFrom(google::protobuf::Message const&) [clone .cold]
PUBLIC 2b482 0 msieproto::StitchPoint::~StitchPoint() [clone .cold]
PUBLIC 2b490 0 msieproto::StitchPoint::_InternalParse(char const*, google::protobuf::internal::ParseContext*) [clone .cold]
PUBLIC 2b4a0 0 common::ByteStream::~ByteStream() [clone .cold]
PUBLIC 2b4ae 0 common::ByteStream* google::protobuf::Arena::CreateMaybeMessage<common::ByteStream>(google::protobuf::Arena*) [clone .cold]
PUBLIC 2b4c4 0 common::ByteStream::MergeFrom(common::ByteStream const&) [clone .cold]
PUBLIC 2b4d4 0 common::ByteStream::MergeFrom(google::protobuf::Message const&) [clone .cold]
PUBLIC 2b4e4 0 common::ByteStream::_InternalParse(char const*, google::protobuf::internal::ParseContext*) [clone .cold]
PUBLIC 2b4f4 0 typeinfoproto::QDAArray::~QDAArray() [clone .cold]
PUBLIC 2b502 0 typeinfoproto::DimensionInfo::~DimensionInfo() [clone .cold]
PUBLIC 2b510 0 typeinfoproto::Struct::~Struct() [clone .cold]
PUBLIC 2b51e 0 typeinfoproto::VirtualInterface::~VirtualInterface() [clone .cold]
PUBLIC 2b52c 0 typeinfoproto::TypeInfoTree::~TypeInfoTree() [clone .cold]
PUBLIC 2b53a 0 typeinfoproto::Field::~Field() [clone .cold]
PUBLIC 2b548 0 typeinfoproto::Close::~Close() [clone .cold]
PUBLIC 2b556 0 typeinfoproto::PredefinedType::~PredefinedType() [clone .cold]
PUBLIC 2b564 0 typeinfoproto::Union::~Union() [clone .cold]
PUBLIC 2b572 0 typeinfoproto::StaticArray::~StaticArray() [clone .cold]
PUBLIC 2b580 0 typeinfoproto::ClassHandle::~ClassHandle() [clone .cold]
PUBLIC 2b58e 0 typeinfoproto::MultiDimensionArray::~MultiDimensionArray() [clone .cold]
PUBLIC 2b59c 0 typeinfoproto::MultiDimensionArray::_InternalSerialize(unsigned char*, google::protobuf::io::EpsCopyOutputStream*) const [clone .cold]
PUBLIC 2b5bc 0 typeinfoproto::TypeInfoTree* google::protobuf::Arena::CreateMaybeMessage<typeinfoproto::TypeInfoTree>(google::protobuf::Arena*) [clone .cold]
PUBLIC 2b5d2 0 typeinfoproto::Enum_LabelInfo* google::protobuf::Arena::CreateMaybeMessage<typeinfoproto::Enum_LabelInfo>(google::protobuf::Arena*) [clone .cold]
PUBLIC 2b5e8 0 typeinfoproto::DimensionInfo* google::protobuf::Arena::CreateMaybeMessage<typeinfoproto::DimensionInfo>(google::protobuf::Arena*) [clone .cold]
PUBLIC 2b5fe 0 typeinfoproto::PredefinedType* google::protobuf::Arena::CreateMaybeMessage<typeinfoproto::PredefinedType>(google::protobuf::Arena*) [clone .cold]
PUBLIC 2b614 0 typeinfoproto::QDAArray* google::protobuf::Arena::CreateMaybeMessage<typeinfoproto::QDAArray>(google::protobuf::Arena*) [clone .cold]
PUBLIC 2b62a 0 typeinfoproto::ClassHandle* google::protobuf::Arena::CreateMaybeMessage<typeinfoproto::ClassHandle>(google::protobuf::Arena*) [clone .cold]
PUBLIC 2b640 0 typeinfoproto::VirtualInterface* google::protobuf::Arena::CreateMaybeMessage<typeinfoproto::VirtualInterface>(google::protobuf::Arena*) [clone .cold]
PUBLIC 2b656 0 typeinfoproto::StaticArray* google::protobuf::Arena::CreateMaybeMessage<typeinfoproto::StaticArray>(google::protobuf::Arena*) [clone .cold]
PUBLIC 2b66c 0 typeinfoproto::Struct* google::protobuf::Arena::CreateMaybeMessage<typeinfoproto::Struct>(google::protobuf::Arena*) [clone .cold]
PUBLIC 2b682 0 typeinfoproto::Field* google::protobuf::Arena::CreateMaybeMessage<typeinfoproto::Field>(google::protobuf::Arena*) [clone .cold]
PUBLIC 2b698 0 typeinfoproto::Union* google::protobuf::Arena::CreateMaybeMessage<typeinfoproto::Union>(google::protobuf::Arena*) [clone .cold]
PUBLIC 2b6ae 0 typeinfoproto::Close* google::protobuf::Arena::CreateMaybeMessage<typeinfoproto::Close>(google::protobuf::Arena*) [clone .cold]
PUBLIC 2b6c4 0 typeinfoproto::MultiDimensionArray::MultiDimensionArray(google::protobuf::Arena*) [clone .cold]
PUBLIC 2b6d6 0 typeinfoproto::MultiDimensionArray* google::protobuf::Arena::CreateMaybeMessage<typeinfoproto::MultiDimensionArray>(google::protobuf::Arena*) [clone .cold]
PUBLIC 2b6ec 0 typeinfoproto::TypeInfoTree::_InternalParse(char const*, google::protobuf::internal::ParseContext*) [clone .cold]
PUBLIC 2b6fc 0 typeinfoproto::DimensionInfo::_InternalParse(char const*, google::protobuf::internal::ParseContext*) [clone .cold]
PUBLIC 2b70c 0 typeinfoproto::VirtualInterface::_InternalParse(char const*, google::protobuf::internal::ParseContext*) [clone .cold]
PUBLIC 2b71c 0 typeinfoproto::Close::_InternalParse(char const*, google::protobuf::internal::ParseContext*) [clone .cold]
PUBLIC 2b72c 0 typeinfoproto::PredefinedType::_InternalParse(char const*, google::protobuf::internal::ParseContext*) [clone .cold]
PUBLIC 2b73c 0 typeinfoproto::QDAArray::_InternalParse(char const*, google::protobuf::internal::ParseContext*) [clone .cold]
PUBLIC 2b74c 0 typeinfoproto::ClassHandle::_InternalParse(char const*, google::protobuf::internal::ParseContext*) [clone .cold]
PUBLIC 2b75c 0 typeinfoproto::StaticArray::_InternalParse(char const*, google::protobuf::internal::ParseContext*) [clone .cold]
PUBLIC 2b76c 0 typeinfoproto::Struct::_InternalParse(char const*, google::protobuf::internal::ParseContext*) [clone .cold]
PUBLIC 2b77c 0 typeinfoproto::Field::_InternalParse(char const*, google::protobuf::internal::ParseContext*) [clone .cold]
PUBLIC 2b78c 0 typeinfoproto::Union::_InternalParse(char const*, google::protobuf::internal::ParseContext*) [clone .cold]
PUBLIC 2b79c 0 typeinfoproto::MultiDimensionArray::_InternalParse(char const*, google::protobuf::internal::ParseContext*) [clone .cold]
PUBLIC 2b7ac 0 typeinfoproto::MultiDimensionArray::InternalSwap(typeinfoproto::MultiDimensionArray*) [clone .cold]
PUBLIC 2b7cc 0 typeinfoproto::Enum::InternalSwap(typeinfoproto::Enum*) [clone .cold]
PUBLIC 2b7ec 0 typeinfoproto::Close::MergeFrom(typeinfoproto::Close const&) [clone .cold]
PUBLIC 2b7fc 0 typeinfoproto::Close::MergeFrom(google::protobuf::Message const&) [clone .cold]
PUBLIC 2b80c 0 typeinfoproto::TypeInfoTree::MergeFrom(typeinfoproto::TypeInfoTree const&) [clone .cold]
PUBLIC 2b81c 0 typeinfoproto::TypeInfoTree::MergeFrom(google::protobuf::Message const&) [clone .cold]
PUBLIC 2b82c 0 typeinfoproto::Field::MergeFrom(typeinfoproto::Field const&) [clone .cold]
PUBLIC 2b83c 0 typeinfoproto::Field::MergeFrom(google::protobuf::Message const&) [clone .cold]
PUBLIC 2b84c 0 typeinfoproto::VirtualInterface::MergeFrom(typeinfoproto::VirtualInterface const&) [clone .cold]
PUBLIC 2b85c 0 typeinfoproto::VirtualInterface::MergeFrom(google::protobuf::Message const&) [clone .cold]
PUBLIC 2b86c 0 typeinfoproto::Enum_LabelInfo::Enum_LabelInfo(typeinfoproto::Enum_LabelInfo const&) [clone .cold]
PUBLIC 2b882 0 typeinfoproto::Struct::Struct(typeinfoproto::Struct const&) [clone .cold]
PUBLIC 2b898 0 typeinfoproto::Union::Union(typeinfoproto::Union const&) [clone .cold]
PUBLIC 2b8ae 0 typeinfoproto::StaticArray::StaticArray(typeinfoproto::StaticArray const&) [clone .cold]
PUBLIC 2b8c4 0 typeinfoproto::QDAArray::MergeFrom(typeinfoproto::QDAArray const&) [clone .cold]
PUBLIC 2b8d4 0 typeinfoproto::QDAArray::MergeFrom(google::protobuf::Message const&) [clone .cold]
PUBLIC 2b8e4 0 typeinfoproto::DimensionInfo::MergeFrom(typeinfoproto::DimensionInfo const&) [clone .cold]
PUBLIC 2b8f4 0 typeinfoproto::DimensionInfo::MergeFrom(google::protobuf::Message const&) [clone .cold]
PUBLIC 2b904 0 typeinfoproto::Union::MergeFrom(typeinfoproto::Union const&) [clone .cold]
PUBLIC 2b914 0 typeinfoproto::Union::MergeFrom(google::protobuf::Message const&) [clone .cold]
PUBLIC 2b924 0 typeinfoproto::Enum_LabelInfo::MergeFrom(typeinfoproto::Enum_LabelInfo const&) [clone .cold]
PUBLIC 2b934 0 typeinfoproto::Enum_LabelInfo::MergeFrom(google::protobuf::Message const&) [clone .cold]
PUBLIC 2b944 0 typeinfoproto::ClassHandle::MergeFrom(typeinfoproto::ClassHandle const&) [clone .cold]
PUBLIC 2b954 0 typeinfoproto::ClassHandle::MergeFrom(google::protobuf::Message const&) [clone .cold]
PUBLIC 2b964 0 typeinfoproto::PredefinedType::MergeFrom(typeinfoproto::PredefinedType const&) [clone .cold]
PUBLIC 2b974 0 typeinfoproto::PredefinedType::MergeFrom(google::protobuf::Message const&) [clone .cold]
PUBLIC 2b984 0 typeinfoproto::StaticArray::MergeFrom(typeinfoproto::StaticArray const&) [clone .cold]
PUBLIC 2b994 0 typeinfoproto::StaticArray::MergeFrom(google::protobuf::Message const&) [clone .cold]
PUBLIC 2b9a4 0 typeinfoproto::Struct::MergeFrom(typeinfoproto::Struct const&) [clone .cold]
PUBLIC 2b9b4 0 typeinfoproto::Struct::MergeFrom(google::protobuf::Message const&) [clone .cold]
PUBLIC 2b9c4 0 typeinfoproto::Enum::MergeFrom(typeinfoproto::Enum const&) [clone .cold]
PUBLIC 2b9e4 0 typeinfoproto::Enum::MergeFrom(google::protobuf::Message const&) [clone .cold]
PUBLIC 2b9f4 0 typeinfoproto::MultiDimensionArray::MergeFrom(typeinfoproto::MultiDimensionArray const&) [clone .cold]
PUBLIC 2ba14 0 typeinfoproto::MultiDimensionArray::MergeFrom(google::protobuf::Message const&) [clone .cold]
PUBLIC 2ba24 0 typeinfoproto::MultiDimensionArray::MultiDimensionArray(typeinfoproto::MultiDimensionArray const&) [clone .cold]
PUBLIC 2ba54 0 typeinfoproto::Enum_LabelInfo::~Enum_LabelInfo() [clone .cold]
PUBLIC 2ba62 0 typeinfoproto::Enum::Enum(google::protobuf::Arena*) [clone .cold]
PUBLIC 2ba74 0 typeinfoproto::Enum* google::protobuf::Arena::CreateMaybeMessage<typeinfoproto::Enum>(google::protobuf::Arena*) [clone .cold]
PUBLIC 2ba8a 0 typeinfoproto::Enum::Enum(typeinfoproto::Enum const&) [clone .cold]
PUBLIC 2baba 0 typeinfoproto::Enum::~Enum() [clone .cold]
PUBLIC 2bac8 0 typeinfoproto::Enum_LabelInfo::_InternalParse(char const*, google::protobuf::internal::ParseContext*) [clone .cold]
PUBLIC 2bae8 0 typeinfoproto::Enum::_InternalParse(char const*, google::protobuf::internal::ParseContext*) [clone .cold]
PUBLIC 2bb08 0 typeinfoproto::Enum::_InternalSerialize(unsigned char*, google::protobuf::io::EpsCopyOutputStream*) const [clone .cold]
PUBLIC 2bb28 0 parameterproto::ParameterValue* google::protobuf::Arena::CreateMaybeMessage<parameterproto::ParameterValue>(google::protobuf::Arena*) [clone .cold]
PUBLIC 2bb3e 0 parameterproto::ParameterBasicInfo::InternalSwap(parameterproto::ParameterBasicInfo*) [clone .cold]
PUBLIC 2bb5e 0 parameterproto::ValuePack::InternalSwap(parameterproto::ValuePack*) [clone .cold]
PUBLIC 2bb7e 0 parameterproto::ParameterValue::ParameterValue(parameterproto::ParameterValue const&) [clone .cold]
PUBLIC 2bb94 0 parameterproto::ParameterValue::MergeFrom(parameterproto::ParameterValue const&) [clone .cold]
PUBLIC 2bba4 0 parameterproto::ParameterValue::MergeFrom(google::protobuf::Message const&) [clone .cold]
PUBLIC 2bbb4 0 parameterproto::ValuePack::MergeFrom(parameterproto::ValuePack const&) [clone .cold]
PUBLIC 2bbd4 0 parameterproto::ValuePack::MergeFrom(google::protobuf::Message const&) [clone .cold]
PUBLIC 2bbe4 0 parameterproto::ParameterValue::~ParameterValue() [clone .cold]
PUBLIC 2bbf2 0 parameterproto::ValuePack::ValuePack(google::protobuf::Arena*) [clone .cold]
PUBLIC 2bc04 0 parameterproto::ValuePack* google::protobuf::Arena::CreateMaybeMessage<parameterproto::ValuePack>(google::protobuf::Arena*) [clone .cold]
PUBLIC 2bc1a 0 parameterproto::ParameterBasicInfo::MergeFrom(parameterproto::ParameterBasicInfo const&) [clone .cold]
PUBLIC 2bc3a 0 parameterproto::ParameterBasicInfo::MergeFrom(google::protobuf::Message const&) [clone .cold]
PUBLIC 2bc4a 0 parameterproto::ValuePack::ValuePack(parameterproto::ValuePack const&) [clone .cold]
PUBLIC 2bc88 0 parameterproto::ParameterValue::_InternalParse(char const*, google::protobuf::internal::ParseContext*) [clone .cold]
PUBLIC 2bca8 0 parameterproto::ValuePack::~ValuePack() [clone .cold]
PUBLIC 2bcb6 0 parameterproto::ParameterBasicInfo::ParameterBasicInfo(google::protobuf::Arena*) [clone .cold]
PUBLIC 2bcc8 0 parameterproto::ParameterBasicInfo* google::protobuf::Arena::CreateMaybeMessage<parameterproto::ParameterBasicInfo>(google::protobuf::Arena*) [clone .cold]
PUBLIC 2bcde 0 parameterproto::ParameterBasicInfo::ParameterBasicInfo(parameterproto::ParameterBasicInfo const&) [clone .cold]
PUBLIC 2bd1c 0 parameterproto::ValuePack::_InternalParse(char const*, google::protobuf::internal::ParseContext*) [clone .cold]
PUBLIC 2bd4c 0 parameterproto::ValuePack::_InternalSerialize(unsigned char*, google::protobuf::io::EpsCopyOutputStream*) const [clone .cold]
PUBLIC 2bd6c 0 parameterproto::ParameterBasicInfo::~ParameterBasicInfo() [clone .cold]
PUBLIC 2bd7a 0 parameterproto::ParameterBasicInfo::_InternalParse(char const*, google::protobuf::internal::ParseContext*) [clone .cold]
PUBLIC 2bdaa 0 parameterproto::ParameterBasicInfo::_InternalSerialize(unsigned char*, google::protobuf::io::EpsCopyOutputStream*) const [clone .cold]
PUBLIC 2bdca 0 hegproto::TextRef::_InternalSerialize(unsigned char*, google::protobuf::io::EpsCopyOutputStream*) const [clone .cold]
PUBLIC 2bdda 0 hegproto::Data::~Data() [clone .cold]
PUBLIC 2bde8 0 hegproto::UnhandledConstruct::~UnhandledConstruct() [clone .cold]
PUBLIC 2bdf6 0 hegproto::TextRef::~TextRef() [clone .cold]
PUBLIC 2be04 0 hegproto::UnhandledConstruct::_InternalSerialize(unsigned char*, google::protobuf::io::EpsCopyOutputStream*) const [clone .cold]
PUBLIC 2be14 0 hegproto::Block::Block(google::protobuf::Arena*) [clone .cold]
PUBLIC 2be26 0 hegproto::EventCtrlStmt::EventCtrlStmt(google::protobuf::Arena*) [clone .cold]
PUBLIC 2be38 0 hegproto::EventExpression::EventExpression(google::protobuf::Arena*) [clone .cold]
PUBLIC 2be4a 0 hegproto::ModuleInstantiation::ModuleInstantiation(google::protobuf::Arena*) [clone .cold]
PUBLIC 2be64 0 hegproto::InstantiationInfo::InstantiationInfo(google::protobuf::Arena*) [clone .cold]
PUBLIC 2be76 0 hegproto::IndexedExpression::IndexedExpression(google::protobuf::Arena*) [clone .cold]
PUBLIC 2be88 0 hegproto::Module::Module(google::protobuf::Arena*) [clone .cold]
PUBLIC 2be9a 0 hegproto::Variable* google::protobuf::Arena::CreateMaybeMessage<hegproto::Variable>(google::protobuf::Arena*) [clone .cold]
PUBLIC 2beb0 0 hegproto::Constant* google::protobuf::Arena::CreateMaybeMessage<hegproto::Constant>(google::protobuf::Arena*) [clone .cold]
PUBLIC 2bec6 0 hegproto::Parameter* google::protobuf::Arena::CreateMaybeMessage<hegproto::Parameter>(google::protobuf::Arena*) [clone .cold]
PUBLIC 2bedc 0 hegproto::UnhandledType* google::protobuf::Arena::CreateMaybeMessage<hegproto::UnhandledType>(google::protobuf::Arena*) [clone .cold]
PUBLIC 2bef2 0 hegproto::ElemRef* google::protobuf::Arena::CreateMaybeMessage<hegproto::ElemRef>(google::protobuf::Arena*) [clone .cold]
PUBLIC 2bf08 0 hegproto::Block* google::protobuf::Arena::CreateMaybeMessage<hegproto::Block>(google::protobuf::Arena*) [clone .cold]
PUBLIC 2bf1e 0 hegproto::EventCtrlStmt* google::protobuf::Arena::CreateMaybeMessage<hegproto::EventCtrlStmt>(google::protobuf::Arena*) [clone .cold]
PUBLIC 2bf34 0 hegproto::EventExpression* google::protobuf::Arena::CreateMaybeMessage<hegproto::EventExpression>(google::protobuf::Arena*) [clone .cold]
PUBLIC 2bf4a 0 hegproto::AlwaysConstruct* google::protobuf::Arena::CreateMaybeMessage<hegproto::AlwaysConstruct>(google::protobuf::Arena*) [clone .cold]
PUBLIC 2bf60 0 hegproto::Assign* google::protobuf::Arena::CreateMaybeMessage<hegproto::Assign>(google::protobuf::Arena*) [clone .cold]
PUBLIC 2bf76 0 hegproto::ConditionalStmt* google::protobuf::Arena::CreateMaybeMessage<hegproto::ConditionalStmt>(google::protobuf::Arena*) [clone .cold]
PUBLIC 2bf8c 0 hegproto::BinaryOperator* google::protobuf::Arena::CreateMaybeMessage<hegproto::BinaryOperator>(google::protobuf::Arena*) [clone .cold]
PUBLIC 2bfa2 0 hegproto::ModuleInstantiation* google::protobuf::Arena::CreateMaybeMessage<hegproto::ModuleInstantiation>(google::protobuf::Arena*) [clone .cold]
PUBLIC 2bfb8 0 hegproto::InstantiationInfo* google::protobuf::Arena::CreateMaybeMessage<hegproto::InstantiationInfo>(google::protobuf::Arena*) [clone .cold]
PUBLIC 2bfce 0 hegproto::PortDecl* google::protobuf::Arena::CreateMaybeMessage<hegproto::PortDecl>(google::protobuf::Arena*) [clone .cold]
PUBLIC 2bfe4 0 hegproto::IndexedExpression* google::protobuf::Arena::CreateMaybeMessage<hegproto::IndexedExpression>(google::protobuf::Arena*) [clone .cold]
PUBLIC 2bffa 0 hegproto::DimensionInfo* google::protobuf::Arena::CreateMaybeMessage<hegproto::DimensionInfo>(google::protobuf::Arena*) [clone .cold]
PUBLIC 2c010 0 hegproto::NamePrefix* google::protobuf::Arena::CreateMaybeMessage<hegproto::NamePrefix>(google::protobuf::Arena*) [clone .cold]
PUBLIC 2c026 0 hegproto::Module* google::protobuf::Arena::CreateMaybeMessage<hegproto::Module>(google::protobuf::Arena*) [clone .cold]
PUBLIC 2c03c 0 hegproto::UnhandledConstruct* google::protobuf::Arena::CreateMaybeMessage<hegproto::UnhandledConstruct>(google::protobuf::Arena*) [clone .cold]
PUBLIC 2c052 0 hegproto::Data* google::protobuf::Arena::CreateMaybeMessage<hegproto::Data>(google::protobuf::Arena*) [clone .cold]
PUBLIC 2c068 0 hegproto::SourceChunk* google::protobuf::Arena::CreateMaybeMessage<hegproto::SourceChunk>(google::protobuf::Arena*) [clone .cold]
PUBLIC 2c07e 0 hegproto::IncludeRef* google::protobuf::Arena::CreateMaybeMessage<hegproto::IncludeRef>(google::protobuf::Arena*) [clone .cold]
PUBLIC 2c094 0 hegproto::MacroElement* google::protobuf::Arena::CreateMaybeMessage<hegproto::MacroElement>(google::protobuf::Arena*) [clone .cold]
PUBLIC 2c0aa 0 hegproto::MacroArg* google::protobuf::Arena::CreateMaybeMessage<hegproto::MacroArg>(google::protobuf::Arena*) [clone .cold]
PUBLIC 2c0c0 0 hegproto::MacroDefinition* google::protobuf::Arena::CreateMaybeMessage<hegproto::MacroDefinition>(google::protobuf::Arena*) [clone .cold]
PUBLIC 2c0d6 0 hegproto::TextRef* google::protobuf::Arena::CreateMaybeMessage<hegproto::TextRef>(google::protobuf::Arena*) [clone .cold]
PUBLIC 2c0ec 0 hegproto::UnhandledConstruct::_InternalParse(char const*, google::protobuf::internal::ParseContext*) [clone .cold]
PUBLIC 2c0fc 0 hegproto::Data::_InternalParse(char const*, google::protobuf::internal::ParseContext*) [clone .cold]
PUBLIC 2c10c 0 hegproto::TextRef::_InternalParse(char const*, google::protobuf::internal::ParseContext*) [clone .cold]
PUBLIC 2c11c 0 hegproto::NamePrefix::MergeFrom(hegproto::NamePrefix const&) [clone .cold]
PUBLIC 2c12c 0 hegproto::NamePrefix::MergeFrom(google::protobuf::Message const&) [clone .cold]
PUBLIC 2c13c 0 hegproto::TextRef::TextRef(hegproto::TextRef const&) [clone .cold]
PUBLIC 2c19c 0 hegproto::UnhandledConstruct::UnhandledConstruct(hegproto::UnhandledConstruct const&) [clone .cold]
PUBLIC 2c1fc 0 hegproto::TextRef::InternalSwap(hegproto::TextRef*) [clone .cold]
PUBLIC 2c23c 0 hegproto::UnhandledConstruct::InternalSwap(hegproto::UnhandledConstruct*) [clone .cold]
PUBLIC 2c27c 0 hegproto::EventCtrlStmt::InternalSwap(hegproto::EventCtrlStmt*) [clone .cold]
PUBLIC 2c2bc 0 hegproto::EventExpression::InternalSwap(hegproto::EventExpression*) [clone .cold]
PUBLIC 2c2fc 0 hegproto::IndexedExpression::InternalSwap(hegproto::IndexedExpression*) [clone .cold]
PUBLIC 2c33c 0 hegproto::ModuleInstantiation::InternalSwap(hegproto::ModuleInstantiation*) [clone .cold]
PUBLIC 2c3bc 0 hegproto::TextRef::MergeFrom(hegproto::TextRef const&) [clone .cold]
PUBLIC 2c43c 0 hegproto::TextRef::MergeFrom(google::protobuf::Message const&) [clone .cold]
PUBLIC 2c44c 0 hegproto::AlwaysConstruct::AlwaysConstruct(hegproto::AlwaysConstruct const&) [clone .cold]
PUBLIC 2c462 0 hegproto::UnhandledType::UnhandledType(hegproto::UnhandledType const&) [clone .cold]
PUBLIC 2c478 0 hegproto::ElemRef::ElemRef(hegproto::ElemRef const&) [clone .cold]
PUBLIC 2c48e 0 hegproto::Assign::Assign(hegproto::Assign const&) [clone .cold]
PUBLIC 2c4a4 0 hegproto::BinaryOperator::BinaryOperator(hegproto::BinaryOperator const&) [clone .cold]
PUBLIC 2c4ba 0 hegproto::SourceChunk::SourceChunk(hegproto::SourceChunk const&) [clone .cold]
PUBLIC 2c4d0 0 hegproto::ConditionalStmt::ConditionalStmt(hegproto::ConditionalStmt const&) [clone .cold]
PUBLIC 2c4e6 0 hegproto::UnhandledConstruct::MergeFrom(hegproto::UnhandledConstruct const&) [clone .cold]
PUBLIC 2c566 0 hegproto::UnhandledConstruct::MergeFrom(google::protobuf::Message const&) [clone .cold]
PUBLIC 2c576 0 hegproto::Data::MergeFrom(hegproto::Data const&) [clone .cold]
PUBLIC 2c586 0 hegproto::Data::MergeFrom(google::protobuf::Message const&) [clone .cold]
PUBLIC 2c596 0 hegproto::DimensionInfo::DimensionInfo(hegproto::DimensionInfo const&) [clone .cold]
PUBLIC 2c5ac 0 hegproto::EventExpression::EventExpression(hegproto::EventExpression const&) [clone .cold]
PUBLIC 2c61a 0 hegproto::EventCtrlStmt::EventCtrlStmt(hegproto::EventCtrlStmt const&) [clone .cold]
PUBLIC 2c688 0 hegproto::IndexedExpression::IndexedExpression(hegproto::IndexedExpression const&) [clone .cold]
PUBLIC 2c6f6 0 hegproto::Constant::Constant(hegproto::Constant const&) [clone .cold]
PUBLIC 2c70c 0 hegproto::Variable::Variable(hegproto::Variable const&) [clone .cold]
PUBLIC 2c722 0 hegproto::MacroElement::MacroElement(hegproto::MacroElement const&) [clone .cold]
PUBLIC 2c738 0 hegproto::Parameter::Parameter(hegproto::Parameter const&) [clone .cold]
PUBLIC 2c74e 0 hegproto::ModuleInstantiation::ModuleInstantiation(hegproto::ModuleInstantiation const&) [clone .cold]
PUBLIC 2c7ce 0 hegproto::PortDecl::PortDecl(hegproto::PortDecl const&) [clone .cold]
PUBLIC 2c7e4 0 hegproto::MacroArg::MacroArg(hegproto::MacroArg const&) [clone .cold]
PUBLIC 2c80e 0 hegproto::UnhandledType::MergeFrom(hegproto::UnhandledType const&) [clone .cold]
PUBLIC 2c81e 0 hegproto::UnhandledType::MergeFrom(google::protobuf::Message const&) [clone .cold]
PUBLIC 2c82e 0 hegproto::IncludeRef::IncludeRef(hegproto::IncludeRef const&) [clone .cold]
PUBLIC 2c858 0 hegproto::InstantiationInfo::InstantiationInfo(hegproto::InstantiationInfo const&) [clone .cold]
PUBLIC 2c8c6 0 hegproto::Block::Block(hegproto::Block const&) [clone .cold]
PUBLIC 2c934 0 hegproto::ModuleInstantiation::MergeFrom(hegproto::ModuleInstantiation const&) [clone .cold]
PUBLIC 2ca24 0 hegproto::ModuleInstantiation::MergeFrom(google::protobuf::Message const&) [clone .cold]
PUBLIC 2ca34 0 hegproto::EventCtrlStmt::MergeFrom(hegproto::EventCtrlStmt const&) [clone .cold]
PUBLIC 2ca84 0 hegproto::EventCtrlStmt::MergeFrom(google::protobuf::Message const&) [clone .cold]
PUBLIC 2ca94 0 hegproto::IndexedExpression::MergeFrom(hegproto::IndexedExpression const&) [clone .cold]
PUBLIC 2cb14 0 hegproto::IndexedExpression::MergeFrom(google::protobuf::Message const&) [clone .cold]
PUBLIC 2cb24 0 hegproto::EventExpression::MergeFrom(hegproto::EventExpression const&) [clone .cold]
PUBLIC 2cb34 0 hegproto::EventExpression::MergeFrom(google::protobuf::Message const&) [clone .cold]
PUBLIC 2cb44 0 hegproto::Module::Module(hegproto::Module const&) [clone .cold]
PUBLIC 2cbb2 0 hegproto::ElemRef::MergeFrom(hegproto::ElemRef const&) [clone .cold]
PUBLIC 2cbc2 0 hegproto::ElemRef::MergeFrom(google::protobuf::Message const&) [clone .cold]
PUBLIC 2cbd2 0 hegproto::AlwaysConstruct::MergeFrom(hegproto::AlwaysConstruct const&) [clone .cold]
PUBLIC 2cbe2 0 hegproto::AlwaysConstruct::MergeFrom(google::protobuf::Message const&) [clone .cold]
PUBLIC 2cbf2 0 hegproto::SourceChunk::MergeFrom(hegproto::SourceChunk const&) [clone .cold]
PUBLIC 2cc02 0 hegproto::SourceChunk::MergeFrom(google::protobuf::Message const&) [clone .cold]
PUBLIC 2cc12 0 hegproto::Parameter::MergeFrom(hegproto::Parameter const&) [clone .cold]
PUBLIC 2cc22 0 hegproto::Parameter::MergeFrom(google::protobuf::Message const&) [clone .cold]
PUBLIC 2cc32 0 hegproto::Variable::MergeFrom(hegproto::Variable const&) [clone .cold]
PUBLIC 2cc42 0 hegproto::Variable::MergeFrom(google::protobuf::Message const&) [clone .cold]
PUBLIC 2cc52 0 hegproto::Constant::MergeFrom(hegproto::Constant const&) [clone .cold]
PUBLIC 2cc62 0 hegproto::Constant::MergeFrom(google::protobuf::Message const&) [clone .cold]
PUBLIC 2cc72 0 hegproto::MacroRef::InternalSwap(hegproto::MacroRef*) [clone .cold]
PUBLIC 2ccb2 0 hegproto::Block::MergeFrom(hegproto::Block const&) [clone .cold]
PUBLIC 2ccc2 0 hegproto::Block::MergeFrom(google::protobuf::Message const&) [clone .cold]
PUBLIC 2ccd2 0 hegproto::InstantiationInfo::MergeFrom(hegproto::InstantiationInfo const&) [clone .cold]
PUBLIC 2cce2 0 hegproto::InstantiationInfo::MergeFrom(google::protobuf::Message const&) [clone .cold]
PUBLIC 2ccf2 0 hegproto::MacroElement::MergeFrom(hegproto::MacroElement const&) [clone .cold]
PUBLIC 2cd02 0 hegproto::MacroElement::MergeFrom(google::protobuf::Message const&) [clone .cold]
PUBLIC 2cd12 0 hegproto::MacroArg::MergeFrom(hegproto::MacroArg const&) [clone .cold]
PUBLIC 2cd22 0 hegproto::MacroArg::MergeFrom(google::protobuf::Message const&) [clone .cold]
PUBLIC 2cd32 0 hegproto::MacroDefinition::MacroDefinition(hegproto::MacroDefinition const&) [clone .cold]
PUBLIC 2cd48 0 hegproto::IncludeRef::MergeFrom(hegproto::IncludeRef const&) [clone .cold]
PUBLIC 2cd58 0 hegproto::IncludeRef::MergeFrom(google::protobuf::Message const&) [clone .cold]
PUBLIC 2cd68 0 hegproto::Module::MergeFrom(hegproto::Module const&) [clone .cold]
PUBLIC 2cd78 0 hegproto::Module::MergeFrom(google::protobuf::Message const&) [clone .cold]
PUBLIC 2cd88 0 hegproto::MacroDefinition::MergeFrom(hegproto::MacroDefinition const&) [clone .cold]
PUBLIC 2cd98 0 hegproto::MacroDefinition::MergeFrom(google::protobuf::Message const&) [clone .cold]
PUBLIC 2cda8 0 hegproto::PortDecl::MergeFrom(hegproto::PortDecl const&) [clone .cold]
PUBLIC 2cdb8 0 hegproto::PortDecl::MergeFrom(google::protobuf::Message const&) [clone .cold]
PUBLIC 2cdc8 0 hegproto::Assign::MergeFrom(hegproto::Assign const&) [clone .cold]
PUBLIC 2cdd8 0 hegproto::Assign::MergeFrom(google::protobuf::Message const&) [clone .cold]
PUBLIC 2cde8 0 hegproto::BinaryOperator::MergeFrom(hegproto::BinaryOperator const&) [clone .cold]
PUBLIC 2cdf8 0 hegproto::BinaryOperator::MergeFrom(google::protobuf::Message const&) [clone .cold]
PUBLIC 2ce08 0 hegproto::DimensionInfo::MergeFrom(hegproto::DimensionInfo const&) [clone .cold]
PUBLIC 2ce18 0 hegproto::DimensionInfo::MergeFrom(google::protobuf::Message const&) [clone .cold]
PUBLIC 2ce28 0 hegproto::ConditionalStmt::MergeFrom(hegproto::ConditionalStmt const&) [clone .cold]
PUBLIC 2ce38 0 hegproto::ConditionalStmt::MergeFrom(google::protobuf::Message const&) [clone .cold]
PUBLIC 2ce48 0 hegproto::NamePrefix::NamePrefix(hegproto::NamePrefix const&) [clone .cold]
PUBLIC 2ce5e 0 hegproto::MacroRef::MergeFrom(hegproto::MacroRef const&) [clone .cold]
PUBLIC 2ce8e 0 hegproto::MacroRef::MergeFrom(google::protobuf::Message const&) [clone .cold]
PUBLIC 2ce9e 0 hegproto::Variable::~Variable() [clone .cold]
PUBLIC 2ceac 0 hegproto::Constant::~Constant() [clone .cold]
PUBLIC 2ceba 0 hegproto::Parameter::~Parameter() [clone .cold]
PUBLIC 2cec8 0 hegproto::UnhandledType::~UnhandledType() [clone .cold]
PUBLIC 2ced6 0 hegproto::ElemRef::~ElemRef() [clone .cold]
PUBLIC 2cee4 0 hegproto::Block::~Block() [clone .cold]
PUBLIC 2cef2 0 hegproto::EventCtrlStmt::~EventCtrlStmt() [clone .cold]
PUBLIC 2cf00 0 hegproto::EventExpression::~EventExpression() [clone .cold]
PUBLIC 2cf0e 0 hegproto::AlwaysConstruct::~AlwaysConstruct() [clone .cold]
PUBLIC 2cf1c 0 hegproto::Assign::~Assign() [clone .cold]
PUBLIC 2cf2a 0 hegproto::ConditionalStmt::~ConditionalStmt() [clone .cold]
PUBLIC 2cf38 0 hegproto::BinaryOperator::~BinaryOperator() [clone .cold]
PUBLIC 2cf46 0 hegproto::ModuleInstantiation::~ModuleInstantiation() [clone .cold]
PUBLIC 2cf54 0 hegproto::InstantiationInfo::~InstantiationInfo() [clone .cold]
PUBLIC 2cf62 0 hegproto::PortDecl::~PortDecl() [clone .cold]
PUBLIC 2cf70 0 hegproto::IndexedExpression::~IndexedExpression() [clone .cold]
PUBLIC 2cf7e 0 hegproto::DimensionInfo::~DimensionInfo() [clone .cold]
PUBLIC 2cf8c 0 hegproto::NamePrefix::~NamePrefix() [clone .cold]
PUBLIC 2cf9a 0 hegproto::Module::~Module() [clone .cold]
PUBLIC 2cfa8 0 hegproto::MacroElement::~MacroElement() [clone .cold]
PUBLIC 2cfb6 0 hegproto::MacroArg::~MacroArg() [clone .cold]
PUBLIC 2cfc4 0 hegproto::MacroRef::MacroRef(google::protobuf::Arena*) [clone .cold]
PUBLIC 2cfde 0 hegproto::MacroRef* google::protobuf::Arena::CreateMaybeMessage<hegproto::MacroRef>(google::protobuf::Arena*) [clone .cold]
PUBLIC 2cff4 0 hegproto::MacroRef::MacroRef(hegproto::MacroRef const&) [clone .cold]
PUBLIC 2d054 0 hegproto::MacroRef::~MacroRef() [clone .cold]
PUBLIC 2d062 0 hegproto::MacroDefinition::~MacroDefinition() [clone .cold]
PUBLIC 2d070 0 hegproto::Variable::_InternalParse(char const*, google::protobuf::internal::ParseContext*) [clone .cold]
PUBLIC 2d080 0 hegproto::Constant::_InternalParse(char const*, google::protobuf::internal::ParseContext*) [clone .cold]
PUBLIC 2d090 0 hegproto::Parameter::_InternalParse(char const*, google::protobuf::internal::ParseContext*) [clone .cold]
PUBLIC 2d0a0 0 hegproto::UnhandledType::_InternalParse(char const*, google::protobuf::internal::ParseContext*) [clone .cold]
PUBLIC 2d0b0 0 hegproto::ElemRef::_InternalParse(char const*, google::protobuf::internal::ParseContext*) [clone .cold]
PUBLIC 2d0c0 0 hegproto::Block::_InternalParse(char const*, google::protobuf::internal::ParseContext*) [clone .cold]
PUBLIC 2d0d0 0 hegproto::EventCtrlStmt::_InternalParse(char const*, google::protobuf::internal::ParseContext*) [clone .cold]
PUBLIC 2d0e0 0 hegproto::EventExpression::_InternalParse(char const*, google::protobuf::internal::ParseContext*) [clone .cold]
PUBLIC 2d0f0 0 hegproto::AlwaysConstruct::_InternalParse(char const*, google::protobuf::internal::ParseContext*) [clone .cold]
PUBLIC 2d100 0 hegproto::Assign::_InternalParse(char const*, google::protobuf::internal::ParseContext*) [clone .cold]
PUBLIC 2d110 0 hegproto::ConditionalStmt::_InternalParse(char const*, google::protobuf::internal::ParseContext*) [clone .cold]
PUBLIC 2d120 0 hegproto::BinaryOperator::_InternalParse(char const*, google::protobuf::internal::ParseContext*) [clone .cold]
PUBLIC 2d130 0 hegproto::ModuleInstantiation::_InternalParse(char const*, google::protobuf::internal::ParseContext*) [clone .cold]
PUBLIC 2d140 0 hegproto::InstantiationInfo::_InternalParse(char const*, google::protobuf::internal::ParseContext*) [clone .cold]
PUBLIC 2d150 0 hegproto::PortDecl::_InternalParse(char const*, google::protobuf::internal::ParseContext*) [clone .cold]
PUBLIC 2d160 0 hegproto::IndexedExpression::_InternalParse(char const*, google::protobuf::internal::ParseContext*) [clone .cold]
PUBLIC 2d170 0 hegproto::DimensionInfo::_InternalParse(char const*, google::protobuf::internal::ParseContext*) [clone .cold]
PUBLIC 2d180 0 hegproto::NamePrefix::_InternalParse(char const*, google::protobuf::internal::ParseContext*) [clone .cold]
PUBLIC 2d190 0 hegproto::Module::_InternalParse(char const*, google::protobuf::internal::ParseContext*) [clone .cold]
PUBLIC 2d1a0 0 hegproto::MacroElement::_InternalParse(char const*, google::protobuf::internal::ParseContext*) [clone .cold]
PUBLIC 2d1b0 0 hegproto::MacroArg::_InternalParse(char const*, google::protobuf::internal::ParseContext*) [clone .cold]
PUBLIC 2d1c0 0 hegproto::MacroRef::_InternalParse(char const*, google::protobuf::internal::ParseContext*) [clone .cold]
PUBLIC 2d1e0 0 hegproto::MacroDefinition::_InternalParse(char const*, google::protobuf::internal::ParseContext*) [clone .cold]
PUBLIC 2d1f0 0 hegproto::Block::_InternalSerialize(unsigned char*, google::protobuf::io::EpsCopyOutputStream*) const [clone .cold]
PUBLIC 2d200 0 hegproto::EventCtrlStmt::_InternalSerialize(unsigned char*, google::protobuf::io::EpsCopyOutputStream*) const [clone .cold]
PUBLIC 2d210 0 hegproto::EventExpression::_InternalSerialize(unsigned char*, google::protobuf::io::EpsCopyOutputStream*) const [clone .cold]
PUBLIC 2d220 0 hegproto::ModuleInstantiation::_InternalSerialize(unsigned char*, google::protobuf::io::EpsCopyOutputStream*) const [clone .cold]
PUBLIC 2d240 0 hegproto::InstantiationInfo::_InternalSerialize(unsigned char*, google::protobuf::io::EpsCopyOutputStream*) const [clone .cold]
PUBLIC 2d250 0 hegproto::IndexedExpression::_InternalSerialize(unsigned char*, google::protobuf::io::EpsCopyOutputStream*) const [clone .cold]
PUBLIC 2d260 0 hegproto::Module::_InternalSerialize(unsigned char*, google::protobuf::io::EpsCopyOutputStream*) const [clone .cold]
PUBLIC 2d270 0 hegproto::MacroRef::_InternalSerialize(unsigned char*, google::protobuf::io::EpsCopyOutputStream*) const [clone .cold]
PUBLIC 2d2b0 0 hegproto::SourceChunk::~SourceChunk() [clone .cold]
PUBLIC 2d2be 0 hegproto::IncludeRef::~IncludeRef() [clone .cold]
PUBLIC 2d2cc 0 hegproto::SourceChunk::_InternalParse(char const*, google::protobuf::internal::ParseContext*) [clone .cold]
PUBLIC 2d2dc 0 hegproto::IncludeRef::_InternalParse(char const*, google::protobuf::internal::ParseContext*) [clone .cold]
PUBLIC 2d2ec 0 hiertreeproto::Attribute::~Attribute() [clone .cold]
PUBLIC 2d2fa 0 hiertreeproto::Edge::~Edge() [clone .cold]
PUBLIC 2d308 0 hiertreeproto::Edge::_InternalSerialize(unsigned char*, google::protobuf::io::EpsCopyOutputStream*) const [clone .cold]
PUBLIC 2d318 0 hiertreeproto::Node* google::protobuf::Arena::CreateMaybeMessage<hiertreeproto::Node>(google::protobuf::Arena*) [clone .cold]
PUBLIC 2d32e 0 hiertreeproto::NamedBlockCore* google::protobuf::Arena::CreateMaybeMessage<hiertreeproto::NamedBlockCore>(google::protobuf::Arena*) [clone .cold]
PUBLIC 2d344 0 hiertreeproto::NamedBlock* google::protobuf::Arena::CreateMaybeMessage<hiertreeproto::NamedBlock>(google::protobuf::Arena*) [clone .cold]
PUBLIC 2d35a 0 hiertreeproto::Edge* google::protobuf::Arena::CreateMaybeMessage<hiertreeproto::Edge>(google::protobuf::Arena*) [clone .cold]
PUBLIC 2d370 0 hiertreeproto::Genvar* google::protobuf::Arena::CreateMaybeMessage<hiertreeproto::Genvar>(google::protobuf::Arena*) [clone .cold]
PUBLIC 2d386 0 hiertreeproto::Attribute* google::protobuf::Arena::CreateMaybeMessage<hiertreeproto::Attribute>(google::protobuf::Arena*) [clone .cold]
PUBLIC 2d39c 0 hiertreeproto::Edge::_InternalParse(char const*, google::protobuf::internal::ParseContext*) [clone .cold]
PUBLIC 2d3bc 0 hiertreeproto::Attribute::_InternalParse(char const*, google::protobuf::internal::ParseContext*) [clone .cold]
PUBLIC 2d3cc 0 hiertreeproto::Edge::InternalSwap(hiertreeproto::Edge*) [clone .cold]
PUBLIC 2d40c 0 hiertreeproto::Signal::InternalSwap(hiertreeproto::Signal*) [clone .cold]
PUBLIC 2d42c 0 hiertreeproto::ModuleItem::InternalSwap(hiertreeproto::ModuleItem*) [clone .cold]
PUBLIC 2d46c 0 hiertreeproto::Edge::Edge(hiertreeproto::Edge const&) [clone .cold]
PUBLIC 2d4cc 0 hiertreeproto::Edge::MergeFrom(hiertreeproto::Edge const&) [clone .cold]
PUBLIC 2d54c 0 hiertreeproto::Edge::MergeFrom(google::protobuf::Message const&) [clone .cold]
PUBLIC 2d55c 0 hiertreeproto::Attribute::MergeFrom(hiertreeproto::Attribute const&) [clone .cold]
PUBLIC 2d56c 0 hiertreeproto::Attribute::MergeFrom(google::protobuf::Message const&) [clone .cold]
PUBLIC 2d57c 0 hiertreeproto::Node::Node(hiertreeproto::Node const&) [clone .cold]
PUBLIC 2d592 0 hiertreeproto::NamedBlockCore::NamedBlockCore(hiertreeproto::NamedBlockCore const&) [clone .cold]
PUBLIC 2d5a8 0 hiertreeproto::NamedBlock::NamedBlock(hiertreeproto::NamedBlock const&) [clone .cold]
PUBLIC 2d5be 0 hiertreeproto::Genvar::Genvar(hiertreeproto::Genvar const&) [clone .cold]
PUBLIC 2d5d4 0 hiertreeproto::NamedBlockCore::MergeFrom(hiertreeproto::NamedBlockCore const&) [clone .cold]
PUBLIC 2d5e4 0 hiertreeproto::NamedBlockCore::MergeFrom(google::protobuf::Message const&) [clone .cold]
PUBLIC 2d5f4 0 hiertreeproto::NamedBlock::MergeFrom(hiertreeproto::NamedBlock const&) [clone .cold]
PUBLIC 2d604 0 hiertreeproto::NamedBlock::MergeFrom(google::protobuf::Message const&) [clone .cold]
PUBLIC 2d614 0 hiertreeproto::Node::MergeFrom(hiertreeproto::Node const&) [clone .cold]
PUBLIC 2d624 0 hiertreeproto::Node::MergeFrom(google::protobuf::Message const&) [clone .cold]
PUBLIC 2d634 0 hiertreeproto::Genvar::MergeFrom(hiertreeproto::Genvar const&) [clone .cold]
PUBLIC 2d644 0 hiertreeproto::Genvar::MergeFrom(google::protobuf::Message const&) [clone .cold]
PUBLIC 2d654 0 hiertreeproto::Signal::MergeFrom(hiertreeproto::Signal const&) [clone .cold]
PUBLIC 2d674 0 hiertreeproto::Signal::MergeFrom(google::protobuf::Message const&) [clone .cold]
PUBLIC 2d684 0 hiertreeproto::Node::~Node() [clone .cold]
PUBLIC 2d692 0 hiertreeproto::NamedBlockCore::~NamedBlockCore() [clone .cold]
PUBLIC 2d6a0 0 hiertreeproto::NamedBlock::~NamedBlock() [clone .cold]
PUBLIC 2d6ae 0 hiertreeproto::Genvar::~Genvar() [clone .cold]
PUBLIC 2d6bc 0 hiertreeproto::Node::_InternalParse(char const*, google::protobuf::internal::ParseContext*) [clone .cold]
PUBLIC 2d6cc 0 hiertreeproto::NamedBlockCore::_InternalParse(char const*, google::protobuf::internal::ParseContext*) [clone .cold]
PUBLIC 2d6dc 0 hiertreeproto::NamedBlock::_InternalParse(char const*, google::protobuf::internal::ParseContext*) [clone .cold]
PUBLIC 2d6ec 0 hiertreeproto::Genvar::_InternalParse(char const*, google::protobuf::internal::ParseContext*) [clone .cold]
PUBLIC 2d6fc 0 hiertreeproto::Signal::Signal(google::protobuf::Arena*) [clone .cold]
PUBLIC 2d70e 0 hiertreeproto::Signal* google::protobuf::Arena::CreateMaybeMessage<hiertreeproto::Signal>(google::protobuf::Arena*) [clone .cold]
PUBLIC 2d724 0 hiertreeproto::ModuleItem::MergeFrom(hiertreeproto::ModuleItem const&) [clone .cold]
PUBLIC 2d754 0 hiertreeproto::ModuleItem::MergeFrom(google::protobuf::Message const&) [clone .cold]
PUBLIC 2d764 0 hiertreeproto::Signal::Signal(hiertreeproto::Signal const&) [clone .cold]
PUBLIC 2d7a2 0 hiertreeproto::Signal::~Signal() [clone .cold]
PUBLIC 2d7b0 0 hiertreeproto::Signal::_InternalParse(char const*, google::protobuf::internal::ParseContext*) [clone .cold]
PUBLIC 2d7d0 0 hiertreeproto::Signal::_InternalSerialize(unsigned char*, google::protobuf::io::EpsCopyOutputStream*) const [clone .cold]
PUBLIC 2d7f0 0 hiertreeproto::ModuleItem::ModuleItem(google::protobuf::Arena*) [clone .cold]
PUBLIC 2d80a 0 hiertreeproto::ModuleItem* google::protobuf::Arena::CreateMaybeMessage<hiertreeproto::ModuleItem>(google::protobuf::Arena*) [clone .cold]
PUBLIC 2d820 0 hiertreeproto::ModuleItem::ModuleItem(hiertreeproto::ModuleItem const&) [clone .cold]
PUBLIC 2d880 0 hiertreeproto::ModuleItem::~ModuleItem() [clone .cold]
PUBLIC 2d88e 0 hiertreeproto::ModuleItem::_InternalParse(char const*, google::protobuf::internal::ParseContext*) [clone .cold]
PUBLIC 2d8be 0 hiertreeproto::ModuleItem::_InternalSerialize(unsigned char*, google::protobuf::io::EpsCopyOutputStream*) const [clone .cold]
PUBLIC 2d900 0 _GLOBAL__sub_I_sagegen.cc
PUBLIC 2e650 0 _GLOBAL__sub_I_logger.cc
PUBLIC 2e6a0 0 _GLOBAL__sub_I_protobuf_producer.cc
PUBLIC 2e890 0 _GLOBAL__sub_I_values.cc
PUBLIC 2e8c0 0 _GLOBAL__sub_I_typeobj.cc
PUBLIC 2e940 0 _GLOBAL__sub_I_hdlgraph.cc
PUBLIC 2e9e0 0 _GLOBAL__sub_I_source_info.cc
PUBLIC 2ea10 0 _GLOBAL__sub_I_io.cc
PUBLIC 2ea40 0 _GLOBAL__sub_I_proto_api.cc
PUBLIC 2ea70 0 _GLOBAL__sub_I_partitioned_design.cc
PUBLIC 2ec50 0 _GLOBAL__sub_I_common.cc
PUBLIC 2ec80 0 _GLOBAL__sub_I_int128.cc
PUBLIC 2ecb0 0 _GLOBAL__sub_I_status.cc
PUBLIC 2ed70 0 _GLOBAL__sub_I_arena.cc
PUBLIC 2eda0 0 _GLOBAL__sub_I_generated_message_util.cc
PUBLIC 2edd0 0 _GLOBAL__sub_I_implicit_weak_message.cc
PUBLIC 2ee00 0 _GLOBAL__sub_I_message_lite.cc
PUBLIC 2ee30 0 _GLOBAL__sub_I_parse_context.cc
PUBLIC 2ee60 0 _GLOBAL__sub_I_repeated_field.cc
PUBLIC 2ee90 0 _GLOBAL__sub_I_wire_format_lite.cc
PUBLIC 2eec0 0 _GLOBAL__sub_I_coded_stream.cc
PUBLIC 2eef0 0 _GLOBAL__sub_I_zero_copy_stream_impl.cc
PUBLIC 2ef20 0 _GLOBAL__sub_I_zero_copy_stream_impl_lite.cc
PUBLIC 2ef50 0 _GLOBAL__sub_I_any.pb.cc
PUBLIC 2ef90 0 _GLOBAL__sub_I_any.cc
PUBLIC 2efc0 0 _GLOBAL__sub_I_descriptor.cc
PUBLIC 2f010 0 _GLOBAL__sub_I_descriptor_database.cc
PUBLIC 2f040 0 _GLOBAL__sub_I_descriptor.pb.cc
PUBLIC 2f080 0 _GLOBAL__sub_I_dynamic_message.cc
PUBLIC 2f0b0 0 _GLOBAL__sub_I_extension_set_heavy.cc
PUBLIC 2f0e0 0 _GLOBAL__sub_I_generated_message_reflection.cc
PUBLIC 2f110 0 _GLOBAL__sub_I_map_field.cc
PUBLIC 2f140 0 _GLOBAL__sub_I_message.cc
PUBLIC 2f170 0 _GLOBAL__sub_I_reflection_ops.cc
PUBLIC 2f1a0 0 _GLOBAL__sub_I_substitute.cc
PUBLIC 2f1d0 0 _GLOBAL__sub_I_text_format.cc
PUBLIC 2f200 0 _GLOBAL__sub_I_unknown_field_set.cc
PUBLIC 2f230 0 _GLOBAL__sub_I_wire_format.cc
PUBLIC 2f260 0 _GLOBAL__sub_I_tokenizer.cc
PUBLIC 2f290 0 _GLOBAL__sub_I_delimited_message_util.cc
PUBLIC 2f2c0 0 _GLOBAL__sub_I_stringprintf.cc
PUBLIC 2f2f0 0 _GLOBAL__sub_I_structurally_valid.cc
PUBLIC 2f330 0 _GLOBAL__sub_I_strutil.cc
PUBLIC 2f360 0 _GLOBAL__sub_I_any_lite.cc
PUBLIC 2f390 0 _GLOBAL__sub_I_extension_set.cc
PUBLIC 2f3c0 0 _GLOBAL__sub_I_strtod.cc
PUBLIC 2f3f0 0 _GLOBAL__sub_I_zero_copy_stream.cc
PUBLIC 2f420 0 _GLOBAL__sub_I_general.pb.cc
PUBLIC 2f460 0 _GLOBAL__sub_I_sourcelocdb.pb.cc
PUBLIC 2f4a0 0 _GLOBAL__sub_I_msiedb.pb.cc
PUBLIC 2f4e0 0 _GLOBAL__sub_I_common.pb.cc
PUBLIC 2f520 0 _GLOBAL__sub_I_typeinfo.pb.cc
PUBLIC 2f560 0 _GLOBAL__sub_I_parameter.pb.cc
PUBLIC 2f5a0 0 _GLOBAL__sub_I_hegdb.pb.cc
PUBLIC 2f5e0 0 _GLOBAL__sub_I_hiertreedb.pb.cc
PUBLIC 2f620 0 deregister_tm_clones
PUBLIC 2f650 0 register_tm_clones
PUBLIC 2f690 0 __do_global_dtors_aux
PUBLIC 2f6d0 0 frame_dummy
PUBLIC 2f6e0 0 (anonymous namespace)::getModule(via_external_s&)
PUBLIC 2f760 0 (anonymous namespace)::isValidScope(xst_s*)
PUBLIC 2f8a0 0 (anonymous namespace)::xmcloneDepDsngenOomrCb(ssl_item_s*, xst_s*, ssl_item_s*, char const*, char const*, char const*, char const*, char const*)
PUBLIC 2f8b0 0 (anonymous namespace)::skipScope(ssl_item_s*)
PUBLIC 2f960 0 std::_Function_handler<._845 (ssl_item_s*, xst_s*, ssl_item_s*, char const*, char const*, char const*, char const*, char const*), ._845 (*)(ssl_item_s*, xst_s*, ssl_item_s*, char const*, char const*, char const*, char const*, char const*)>::_M_invoke(std::_Any_data const&, ssl_item_s*&&, xst_s*&&, ssl_item_s*&&, char const*&&, char const*&&, char const*&&, char const*&&, char const*&&)
PUBLIC 2f9b0 0 std::_Function_base::_Base_manager<._845 (*)(ssl_item_s*, xst_s*, ssl_item_s*, char const*, char const*, char const*, char const*, char const*)>::_M_manager(std::_Any_data&, std::_Any_data const&, std::_Manager_operation)
PUBLIC 2f9f0 0 Sage::FuncLoader<&(anonymous namespace)::dsngenLibName, &(anonymous namespace)::str_dsngen_lcvname, char*, ssl_item_s*, int>::~FuncLoader()
PUBLIC 2fa00 0 (anonymous namespace)::OocrInfo::~OocrInfo()
PUBLIC 2fa90 0 __tcf_0
PUBLIC 2fae0 0 (anonymous namespace)::msieDsngenOomrCb(ssl_item_s*, xst_s*, ssl_item_s*, char const*, char const*, char const*, char const*, char const*)
PUBLIC 2fb40 0 (anonymous namespace)::getSvBindInst(ssl_item_s*) [clone .isra.0] [clone .part.0]
PUBLIC 2fc20 0 Sage::LibLoader<&(anonymous namespace)::dsngenLibName>::libInit() [clone .isra.0] [clone .part.0]
PUBLIC 2fc40 0 std::function<._845 (ssl_item_s*, xst_s*, ssl_item_s*, char const*, char const*, char const*, char const*, char const*)>::function<std::_Bind<._845 (*(std::unordered_map<std::__cxx11::basic_string<char, std::char_traits<char>, std::allocator<char> >, int, std::hash<std::__cxx11::basic_string<char, std::char_traits<char>, std::allocator<char> > >, std::equal_to<std::__cxx11::basic_string<char, std::char_traits<char>, std::allocator<char> > >, std::allocator<std::pair<std::__cxx11::basic_string<char, std::char_traits<char>, std::allocator<char> > const, int> > >, std::_Placeholder<1>, std::_Placeholder<2>, std::_Placeholder<3>, std::_Placeholder<4>, std::_Placeholder<5>, std::_Placeholder<6>, std::_Placeholder<7>, std::_Placeholder<8>))(std::unordered_map<std::__cxx11::basic_string<char, std::char_traits<char>, std::allocator<char> >, int, std::hash<std::__cxx11::basic_string<char, std::char_traits<char>, std::allocator<char> > >, std::equal_to<std::__cxx11::basic_string<char, std::char_traits<char>, std::allocator<char> > >, std::allocator<std::pair<std::__cxx11::basic_string<char, std::char_traits<char>, std::allocator<char> > const, int> > >&, ssl_item_s*, xst_s*, ssl_item_s*, char const*, char const*, char const*, char const*, char const*)>, void, void>(std::_Bind<._845 (*(std::unordered_map<std::__cxx11::basic_string<char, std::char_traits<char>, std::allocator<char> >, int, std::hash<std::__cxx11::basic_string<char, std::char_traits<char>, std::allocator<char> > >, std::equal_to<std::__cxx11::basic_string<char, std::char_traits<char>, std::allocator<char> > >, std::allocator<std::pair<std::__cxx11::basic_string<char, std::char_traits<char>, std::allocator<char> > const, int> > >, std::_Placeholder<1>, std::_Placeholder<2>, std::_Placeholder<3>, std::_Placeholder<4>, std::_Placeholder<5>, std::_Placeholder<6>, std::_Placeholder<7>, std::_Placeholder<8>))(std::unordered_map<std::__cxx11::basic_string<char, std::char_traits<char>, std::allocator<char> >, int, std::hash<std::__cxx11::basic_string<char, std::char_traits<char>, std::allocator<char> > >, std::equal_to<std::__cxx11::basic_string<char, std::char_traits<char>, std::allocator<char> > >, std::allocator<std::pair<std::__cxx11::basic_string<char, std::char_traits<char>, std::allocator<char> > const, int> > >&, ssl_item_s*, xst_s*, ssl_item_s*, char const*, char const*, char const*, char const*, char const*)>)
PUBLIC 2fd30 0 std::_Function_handler<._845 (ssl_item_s*, xst_s*, ssl_item_s*, char const*, char const*, char const*, char const*, char const*), std::_Bind<._845 (*(std::unordered_map<std::__cxx11::basic_string<char, std::char_traits<char>, std::allocator<char> >, int, std::hash<std::__cxx11::basic_string<char, std::char_traits<char>, std::allocator<char> > >, std::equal_to<std::__cxx11::basic_string<char, std::char_traits<char>, std::allocator<char> > >, std::allocator<std::pair<std::__cxx11::basic_string<char, std::char_traits<char>, std::allocator<char> > const, int> > >, std::_Placeholder<1>, std::_Placeholder<2>, std::_Placeholder<3>, std::_Placeholder<4>, std::_Placeholder<5>, std::_Placeholder<6>, std::_Placeholder<7>, std::_Placeholder<8>))(std::unordered_map<std::__cxx11::basic_string<char, std::char_traits<char>, std::allocator<char> >, int, std::hash<std::__cxx11::basic_string<char, std::char_traits<char>, std::allocator<char> > >, std::equal_to<std::__cxx11::basic_string<char, std::char_traits<char>, std::allocator<char> > >, std::allocator<std::pair<std::__cxx11::basic_string<char, std::char_traits<char>, std::allocator<char> > const, int> > >&, ssl_item_s*, xst_s*, ssl_item_s*, char const*, char const*, char const*, char const*, char const*)> >::_M_invoke(std::_Any_data const&, ssl_item_s*&&, xst_s*&&, ssl_item_s*&&, char const*&&, char const*&&, char const*&&, char const*&&, char const*&&)
PUBLIC 2fd80 0 void std::__cxx11::basic_string<char, std::char_traits<char>, std::allocator<char> >::_M_construct<char*>(char*, char*, std::forward_iterator_tag) [clone .constprop.0]
PUBLIC 2fe20 0 std::unordered_map<std::pair<xst_s*, long*>, int, (anonymous namespace)::PointerPairHash, std::equal_to<std::pair<xst_s*, long*> >, std::allocator<std::pair<std::pair<xst_s*, long*> const, int> > >::~unordered_map()
PUBLIC 2fea0 0 std::_Hashtable<std::__cxx11::basic_string<char, std::char_traits<char>, std::allocator<char> >, std::pair<std::__cxx11::basic_string<char, std::char_traits<char>, std::allocator<char> > const, (anonymous namespace)::OocrInfo>, std::allocator<std::pair<std::__cxx11::basic_string<char, std::char_traits<char>, std::allocator<char> > const, (anonymous namespace)::OocrInfo> >, std::__detail::_Select1st, std::equal_to<std::__cxx11::basic_string<char, std::char_traits<char>, std::allocator<char> > >, std::hash<std::__cxx11::basic_string<char, std::char_traits<char>, std::allocator<char> > >, std::__detail::_Mod_range_hashing, std::__detail::_Default_ranged_hash, std::__detail::_Prime_rehash_policy, std::__detail::_Hashtable_traits<true, false, true> >::find(std::__cxx11::basic_string<char, std::char_traits<char>, std::allocator<char> > const&)
PUBLIC 2ff50 0 std::unordered_map<xst_s*, std::unordered_map<std::__cxx11::basic_string<char, std::char_traits<char>, std::allocator<char> >, (anonymous namespace)::OocrInfo, std::hash<std::__cxx11::basic_string<char, std::char_traits<char>, std::allocator<char> > >, std::equal_to<std::__cxx11::basic_string<char, std::char_traits<char>, std::allocator<char> > >, std::allocator<std::pair<std::__cxx11::basic_string<char, std::char_traits<char>, std::allocator<char> > const, (anonymous namespace)::OocrInfo> > >, std::hash<xst_s*>, std::equal_to<xst_s*>, std::allocator<std::pair<xst_s* const, std::unordered_map<std::__cxx11::basic_string<char, std::char_traits<char>, std::allocator<char> >, (anonymous namespace)::OocrInfo, std::hash<std::__cxx11::basic_string<char, std::char_traits<char>, std::allocator<char> > >, std::equal_to<std::__cxx11::basic_string<char, std::char_traits<char>, std::allocator<char> > >, std::allocator<std::pair<std::__cxx11::basic_string<char, std::char_traits<char>, std::allocator<char> > const, (anonymous namespace)::OocrInfo> > > > > >::~unordered_map()
PUBLIC 30110 0 std::_Hashtable<std::pair<xst_s*, long*>, std::pair<std::pair<xst_s*, long*> const, int>, std::allocator<std::pair<std::pair<xst_s*, long*> const, int> >, std::__detail::_Select1st, std::equal_to<std::pair<xst_s*, long*> >, (anonymous namespace)::PointerPairHash, std::__detail::_Mod_range_hashing, std::__detail::_Default_ranged_hash, std::__detail::_Prime_rehash_policy, std::__detail::_Hashtable_traits<true, false, true> >::find(std::pair<xst_s*, long*> const&) [clone .constprop.0]
PUBLIC 301a0 0 std::__cxx11::basic_string<char, std::char_traits<char>, std::allocator<char> >::basic_string(char const*, std::allocator<char> const&) [clone .isra.0]
PUBLIC 30260 0 std::vector<(anonymous namespace)::OocrInfo, std::allocator<(anonymous namespace)::OocrInfo> >::~vector()
PUBLIC 30350 0 std::_Rb_tree<std::__cxx11::basic_string<char, std::char_traits<char>, std::allocator<char> >, std::pair<std::__cxx11::basic_string<char, std::char_traits<char>, std::allocator<char> > const, (anonymous namespace)::OocrInfo>, std::_Select1st<std::pair<std::__cxx11::basic_string<char, std::char_traits<char>, std::allocator<char> > const, (anonymous namespace)::OocrInfo> >, std::less<std::__cxx11::basic_string<char, std::char_traits<char>, std::allocator<char> > >, std::allocator<std::pair<std::__cxx11::basic_string<char, std::char_traits<char>, std::allocator<char> > const, (anonymous namespace)::OocrInfo> > >::_M_erase(std::_Rb_tree_node<std::pair<std::__cxx11::basic_string<char, std::char_traits<char>, std::allocator<char> > const, (anonymous namespace)::OocrInfo> >*)
PUBLIC 30450 0 Sage::FuncLoader<&(anonymous namespace)::dsngenLibName, &(anonymous namespace)::str_dsngen_lcvname, char*, ssl_item_s*, int>::funcInit() [clone .isra.0]
PUBLIC 304b0 0 Sage::FuncLoader<&(anonymous namespace)::dsngenLibName, &(anonymous namespace)::str_dsngen_process_scope_oomrs_internal, void, ssl_item_s*, char*, char*, std::function<._845 (ssl_item_s*, xst_s*, ssl_item_s*, char const*, char const*, char const*, char const*, char const*)>*, bool>::funcInit() [clone .isra.0]
PUBLIC 30510 0 Sage::FuncLoader<&(anonymous namespace)::dsngenLibName, &(anonymous namespace)::str_dsngen_idaDesignRecordHierarchyEntry, idaStatusCodeT, char const*, char const*, char const*, idaHierarchyKindT, idaHierarchySubKindT, int, char const*, char const*, char const*, int, int>::funcInit() [clone .isra.0]
PUBLIC 30570 0 Sage::FuncLoader<&(anonymous namespace)::dsngenLibName, &(anonymous namespace)::str_dsngen_print_scope_path_to_buf, char const*, char*, ssl_item_s*, char const*>::funcInit() [clone .isra.0]
PUBLIC 305d0 0 Sage::FuncLoader<&(anonymous namespace)::dsngenLibName, &(anonymous namespace)::str_dsngen_process_coercion, idaHierarchySubKindT, ssl_item_s*, vst_s*, char*, int>::funcInit() [clone .isra.0]
PUBLIC 30630 0 Sage::FuncLoader<&(anonymous namespace)::dsngenLibName, &(anonymous namespace)::str_dsngen_record_aname_to_db, void, char*, ssl_item_s*>::funcInit() [clone .isra.0]
PUBLIC 30690 0 (anonymous namespace)::escapeWrap(std::__cxx11::basic_string<char, std::char_traits<char>, std::allocator<char> > const&, std::__cxx11::basic_string<char, std::char_traits<char>, std::allocator<char> >&)
PUBLIC 30700 0 std::_Hashtable<std::pair<xst_s*, long*>, std::pair<std::pair<xst_s*, long*> const, int>, std::allocator<std::pair<std::pair<xst_s*, long*> const, int> >, std::__detail::_Select1st, std::equal_to<std::pair<xst_s*, long*> >, (anonymous namespace)::PointerPairHash, std::__detail::_Mod_range_hashing, std::__detail::_Default_ranged_hash, std::__detail::_Prime_rehash_policy, std::__detail::_Hashtable_traits<true, false, true> >::_M_insert_unique_node(unsigned long, unsigned long, std::__detail::_Hash_node<std::pair<std::pair<xst_s*, long*> const, int>, true>*, unsigned long) [clone .constprop.0]
PUBLIC 30920 0 std::__detail::_Map_base<std::pair<xst_s*, long*>, std::pair<std::pair<xst_s*, long*> const, int>, std::allocator<std::pair<std::pair<xst_s*, long*> const, int> >, std::__detail::_Select1st, std::equal_to<std::pair<xst_s*, long*> >, (anonymous namespace)::PointerPairHash, std::__detail::_Mod_range_hashing, std::__detail::_Default_ranged_hash, std::__detail::_Prime_rehash_policy, std::__detail::_Hashtable_traits<true, false, true>, true>::operator[](std::pair<xst_s*, long*>&&) [clone .constprop.0]
PUBLIC 309f0 0 std::pair<std::__detail::_Node_iterator<std::pair<std::pair<xst_s*, long*> const, int>, false, true>, bool> std::_Hashtable<std::pair<xst_s*, long*>, std::pair<std::pair<xst_s*, long*> const, int>, std::allocator<std::pair<std::pair<xst_s*, long*> const, int> >, std::__detail::_Select1st, std::equal_to<std::pair<xst_s*, long*> >, (anonymous namespace)::PointerPairHash, std::__detail::_Mod_range_hashing, std::__detail::_Default_ranged_hash, std::__detail::_Prime_rehash_policy, std::__detail::_Hashtable_traits<true, false, true> >::_M_emplace<std::pair<std::pair<xst_s*, long*> const, int> >(std::integral_constant<bool, true>, std::pair<std::pair<xst_s*, long*> const, int>&&) [clone .isra.0] [clone .constprop.0]
PUBLIC 30ad0 0 std::_Rb_tree<std::__cxx11::basic_string<char, std::char_traits<char>, std::allocator<char> >, std::pair<std::__cxx11::basic_string<char, std::char_traits<char>, std::allocator<char> > const, (anonymous namespace)::OocrInfo>, std::_Select1st<std::pair<std::__cxx11::basic_string<char, std::char_traits<char>, std::allocator<char> > const, (anonymous namespace)::OocrInfo> >, std::less<std::__cxx11::basic_string<char, std::char_traits<char>, std::allocator<char> > >, std::allocator<std::pair<std::__cxx11::basic_string<char, std::char_traits<char>, std::allocator<char> > const, (anonymous namespace)::OocrInfo> > >::_M_get_insert_unique_pos(std::__cxx11::basic_string<char, std::char_traits<char>, std::allocator<char> > const&)
PUBLIC 30c30 0 (anonymous namespace)::createOoprForOocr((anonymous namespace)::OocrInfo&)
PUBLIC 316a0 0 (anonymous namespace)::comparePibInstancesDirect(long*, long*)
PUBLIC 31a10 0 (anonymous namespace)::comparePibInstances(void const*, void const*)
PUBLIC 31a20 0 (anonymous namespace)::compareRoots(void const*, void const*)
PUBLIC 31b50 0 (anonymous namespace)::getPrimTypeName(vst_s*, bool)
PUBLIC 320a0 0 (anonymous namespace)::fileSysErr(std::__cxx11::basic_string<char, std::char_traits<char>, std::allocator<char> > const&, std::__cxx11::basic_string<char, std::char_traits<char>, std::allocator<char> > const&)
PUBLIC 32340 0 (anonymous namespace)::getNodeId(xst_s*, long*, bool*)
PUBLIC 32720 0 std::__cxx11::basic_string<char, std::char_traits<char>, std::allocator<char> > __gnu_cxx::__to_xstring<std::__cxx11::basic_string<char, std::char_traits<char>, std::allocator<char> >, char>(int (*)(char*, unsigned long, char const*, __va_list_tag*), unsigned long, char const*, ...) [clone .constprop.0]
PUBLIC 32850 0 (anonymous namespace)::prepareOoprForSvBindOomr(ssl_item_s*, xst_s*, std::__cxx11::basic_string<char, std::char_traits<char>, std::allocator<char> > const&, std::__cxx11::basic_string<char, std::char_traits<char>, std::allocator<char> > const&, xst_s*, std::__cxx11::basic_string<char, std::char_traits<char>, std::allocator<char> > const&)
PUBLIC 33590 0 (anonymous namespace)::getXmclonePartitionPath(char const*, char const*, char const*, char const*, char const*, bool) [clone .constprop.0]
PUBLIC 33a90 0 (anonymous namespace)::getXmclonePartitionPath(char const*, char const*, char const*, char const*, char const*, bool)
PUBLIC 34020 0 Sage::getSvStringData(unsigned char*, unsigned long&)
PUBLIC 34130 0 Sage::catLCVSName[abi:cxx11](char const*, char const*, char const*, char const*)
PUBLIC 34360 0 Sage::catLCVSName(std::__cxx11::basic_string<char, std::char_traits<char>, std::allocator<char> > const&, std::__cxx11::basic_string<char, std::char_traits<char>, std::allocator<char> > const&, std::__cxx11::basic_string<char, std::char_traits<char>, std::allocator<char> > const&, std::__cxx11::basic_string<char, std::char_traits<char>, std::allocator<char> > const&)
PUBLIC 34380 0 Sage::getIdCounter()
PUBLIC 34390 0 Sage::getPartInfo()
PUBLIC 343a0 0 Sage::getTypeIdMap[abi:cxx11]()
PUBLIC 343b0 0 Sage::sagegenProfPush(int)
PUBLIC 34410 0 Sage::sagegenProfPop()
PUBLIC 34480 0 (anonymous namespace)::recordHierNodeTypeSignals(ssl_item_s*, hiertreeproto::ModuleItem&) [clone .isra.0]
PUBLIC 346a0 0 (anonymous namespace)::sagegenIePropagateCoercion()
PUBLIC 34760 0 sagegen_xmclone_start_cb
PUBLIC 34780 0 sagegen_ie_propagate_coercion
PUBLIC 34790 0 (anonymous namespace)::getPaddedHexStr(long)
PUBLIC 34be0 0 Sage::getSignature[abi:cxx11](ssl_item_s const*)
PUBLIC 34d40 0 Sage::buildUnknownLcvName[abi:cxx11](ssl_item_s*, bool)
PUBLIC 34ec0 0 Sage::getLcvName[abi:cxx11](ssl_item_s*, bool)
PUBLIC 35170 0 Sage::getLcvName[abi:cxx11](xst_s*, long*, bool)
PUBLIC 351a0 0 (anonymous namespace)::getXmclonePartDef(long*)
PUBLIC 35390 0 (anonymous namespace)::getOocrTargetValue(xst_s*, long*, bool&) [clone .constprop.0]
PUBLIC 35820 0 (anonymous namespace)::isCurrentXmcloneTop(ssl_item_s*)
PUBLIC 35940 0 (anonymous namespace)::logVlogObj(char const*, xst_s*, long*, std::__cxx11::basic_string<char, std::char_traits<char>, std::allocator<char> > const&)
PUBLIC 36330 0 sagegen_xmclone_bind_cb
PUBLIC 36450 0 (anonymous namespace)::xmcloneDsngenOomrCb(ssl_item_s*, xst_s*, ssl_item_s*, char const*, char const*, char const*, char const*, char const*)
PUBLIC 36e80 0 std::_Rb_tree_iterator<std::pair<std::pair<std::__cxx11::basic_string<char, std::char_traits<char>, std::allocator<char> >, int> const, int> > std::_Rb_tree<std::pair<std::__cxx11::basic_string<char, std::char_traits<char>, std::allocator<char> >, int>, std::pair<std::pair<std::__cxx11::basic_string<char, std::char_traits<char>, std::allocator<char> >, int> const, int>, std::_Select1st<std::pair<std::pair<std::__cxx11::basic_string<char, std::char_traits<char>, std::allocator<char> >, int> const, int> >, std::less<std::pair<std::__cxx11::basic_string<char, std::char_traits<char>, std::allocator<char> >, int> >, std::allocator<std::pair<std::pair<std::__cxx11::basic_string<char, std::char_traits<char>, std::allocator<char> >, int> const, int> > >::_M_emplace_hint_unique<std::piecewise_construct_t const&, std::tuple<std::pair<std::__cxx11::basic_string<char, std::char_traits<char>, std::allocator<char> >, int>&&>, std::tuple<> >(std::_Rb_tree_const_iterator<std::pair<std::pair<std::__cxx11::basic_string<char, std::char_traits<char>, std::allocator<char> >, int> const, int> >, std::piecewise_construct_t const&, std::tuple<std::pair<std::__cxx11::basic_string<char, std::char_traits<char>, std::allocator<char> >, int>&&>&&, std::tuple<>&&) [clone .isra.0]
PUBLIC 375c0 0 (anonymous namespace)::getImcRoots()
PUBLIC 378c0 0 sagegen_xmclone_prepare
PUBLIC 380f0 0 sagegen_xmclone_end_cb
PUBLIC 38390 0 (anonymous namespace)::getSvBindTops()
PUBLIC 38690 0 (anonymous namespace)::propagationCb(vst_s*, long*, std::unordered_set<std::__cxx11::basic_string<char, std::char_traits<char>, std::allocator<char> >, std::hash<std::__cxx11::basic_string<char, std::char_traits<char>, std::allocator<char> > >, std::equal_to<std::__cxx11::basic_string<char, std::char_traits<char>, std::allocator<char> > >, std::allocator<std::__cxx11::basic_string<char, std::char_traits<char>, std::allocator<char> > > > const&)
PUBLIC 389e0 0 (anonymous namespace)::breakDownPortExpr(vst_s*, ssl_item_s*, std::unordered_set<std::__cxx11::basic_string<char, std::char_traits<char>, std::allocator<char> >, std::hash<std::__cxx11::basic_string<char, std::char_traits<char>, std::allocator<char> > >, std::equal_to<std::__cxx11::basic_string<char, std::char_traits<char>, std::allocator<char> > >, std::allocator<std::__cxx11::basic_string<char, std::char_traits<char>, std::allocator<char> > > > const&, void (*)(vst_s*, long*, std::unordered_set<std::__cxx11::basic_string<char, std::char_traits<char>, std::allocator<char> >, std::hash<std::__cxx11::basic_string<char, std::char_traits<char>, std::allocator<char> > >, std::equal_to<std::__cxx11::basic_string<char, std::char_traits<char>, std::allocator<char> > >, std::allocator<std::__cxx11::basic_string<char, std::char_traits<char>, std::allocator<char> > > > const&)) [clone .constprop.0]
PUBLIC 38af0 0 (anonymous namespace)::getNodeTypeId(std::__cxx11::basic_string<char, std::char_traits<char>, std::allocator<char> > const&, bool*)
PUBLIC 38d40 0 std::__detail::_Map_base<std::__cxx11::basic_string<char, std::char_traits<char>, std::allocator<char> >, std::pair<std::__cxx11::basic_string<char, std::char_traits<char>, std::allocator<char> > const, int>, std::allocator<std::pair<std::__cxx11::basic_string<char, std::char_traits<char>, std::allocator<char> > const, int> >, std::__detail::_Select1st, std::equal_to<std::__cxx11::basic_string<char, std::char_traits<char>, std::allocator<char> > >, std::hash<std::__cxx11::basic_string<char, std::char_traits<char>, std::allocator<char> > >, std::__detail::_Mod_range_hashing, std::__detail::_Default_ranged_hash, std::__detail::_Prime_rehash_policy, std::__detail::_Hashtable_traits<true, false, true>, true>::operator[](std::__cxx11::basic_string<char, std::char_traits<char>, std::allocator<char> > const&) [clone .constprop.0]
PUBLIC 38e50 0 (anonymous namespace)::getMSIEPartitionId(long*)
PUBLIC 38ee0 0 (anonymous namespace)::getXmclonePartitionId(long*)
PUBLIC 39000 0 std::pair<std::__detail::_Node_iterator<xst_s*, true, false>, bool> std::_Hashtable<xst_s*, xst_s*, std::allocator<xst_s*>, std::__detail::_Identity, std::equal_to<xst_s*>, std::hash<xst_s*>, std::__detail::_Mod_range_hashing, std::__detail::_Default_ranged_hash, std::__detail::_Prime_rehash_policy, std::__detail::_Hashtable_traits<false, true, true> >::_M_insert<xst_s*, std::__detail::_AllocNode<std::allocator<std::__detail::_Hash_node<xst_s*, false> > > >(xst_s*&&, std::__detail::_AllocNode<std::allocator<std::__detail::_Hash_node<xst_s*, false> > > const&, std::integral_constant<bool, true>, unsigned long) [clone .constprop.0]
PUBLIC 390b0 0 (anonymous namespace)::sagegenIeGetPartitionCoercion()
PUBLIC 39c90 0 sagegen_ie_get_partition_coercion
PUBLIC 39ca0 0 std::_Function_base::_Base_manager<std::_Bind<._845 (*(std::unordered_map<std::__cxx11::basic_string<char, std::char_traits<char>, std::allocator<char> >, int, std::hash<std::__cxx11::basic_string<char, std::char_traits<char>, std::allocator<char> > >, std::equal_to<std::__cxx11::basic_string<char, std::char_traits<char>, std::allocator<char> > >, std::allocator<std::pair<std::__cxx11::basic_string<char, std::char_traits<char>, std::allocator<char> > const, int> > >, std::_Placeholder<1>, std::_Placeholder<2>, std::_Placeholder<3>, std::_Placeholder<4>, std::_Placeholder<5>, std::_Placeholder<6>, std::_Placeholder<7>, std::_Placeholder<8>))(std::unordered_map<std::__cxx11::basic_string<char, std::char_traits<char>, std::allocator<char> >, int, std::hash<std::__cxx11::basic_string<char, std::char_traits<char>, std::allocator<char> > >, std::equal_to<std::__cxx11::basic_string<char, std::char_traits<char>, std::allocator<char> > >, std::allocator<std::pair<std::__cxx11::basic_string<char, std::char_traits<char>, std::allocator<char> > const, int> > >&, ssl_item_s*, xst_s*, ssl_item_s*, char const*, char const*, char const*, char const*, char const*)> >::_M_manager(std::_Any_data&, std::_Any_data const&, std::_Manager_operation)
PUBLIC 39e20 0 void std::__introsort_loop<__gnu_cxx::__normal_iterator<std::__cxx11::basic_string<char, std::char_traits<char>, std::allocator<char> >*, std::vector<std::__cxx11::basic_string<char, std::char_traits<char>, std::allocator<char> >, std::allocator<std::__cxx11::basic_string<char, std::char_traits<char>, std::allocator<char> > > > >, long, __gnu_cxx::__ops::_Iter_less_iter>(__gnu_cxx::__normal_iterator<std::__cxx11::basic_string<char, std::char_traits<char>, std::allocator<char> >*, std::vector<std::__cxx11::basic_string<char, std::char_traits<char>, std::allocator<char> >, std::allocator<std::__cxx11::basic_string<char, std::char_traits<char>, std::allocator<char> > > > >, __gnu_cxx::__normal_iterator<std::__cxx11::basic_string<char, std::char_traits<char>, std::allocator<char> >*, std::vector<std::__cxx11::basic_string<char, std::char_traits<char>, std::allocator<char> >, std::allocator<std::__cxx11::basic_string<char, std::char_traits<char>, std::allocator<char> > > > >, long, __gnu_cxx::__ops::_Iter_less_iter) [clone .isra.0]
PUBLIC 3a390 0 std::_Rb_tree_iterator<std::pair<std::pair<std::__cxx11::basic_string<char, std::char_traits<char>, std::allocator<char> >, std::__cxx11::basic_string<char, std::char_traits<char>, std::allocator<char> > > const, std::set<std::pair<std::__cxx11::basic_string<char, std::char_traits<char>, std::allocator<char> >, std::__cxx11::basic_string<char, std::char_traits<char>, std::allocator<char> > >, std::less<std::pair<std::__cxx11::basic_string<char, std::char_traits<char>, std::allocator<char> >, std::__cxx11::basic_string<char, std::char_traits<char>, std::allocator<char> > > >, std::allocator<std::pair<std::__cxx11::basic_string<char, std::char_traits<char>, std::allocator<char> >, std::__cxx11::basic_string<char, std::char_traits<char>, std::allocator<char> > > > > > > std::_Rb_tree<std::pair<std::__cxx11::basic_string<char, std::char_traits<char>, std::allocator<char> >, std::__cxx11::basic_string<char, std::char_traits<char>, std::allocator<char> > >, std::pair<std::pair<std::__cxx11::basic_string<char, std::char_traits<char>, std::allocator<char> >, std::__cxx11::basic_string<char, std::char_traits<char>, std::allocator<char> > > const, std::set<std::pair<std::__cxx11::basic_string<char, std::char_traits<char>, std::allocator<char> >, std::__cxx11::basic_string<char, std::char_traits<char>, std::allocator<char> > >, std::less<std::pair<std::__cxx11::basic_string<char, std::char_traits<char>, std::allocator<char> >, std::__cxx11::basic_string<char, std::char_traits<char>, std::allocator<char> > > >, std::allocator<std::pair<std::__cxx11::basic_string<char, std::char_traits<char>, std::allocator<char> >, std::__cxx11::basic_string<char, std::char_traits<char>, std::allocator<char> > > > > >, std::_Select1st<std::pair<std::pair<std::__cxx11::basic_string<char, std::char_traits<char>, std::allocator<char> >, std::__cxx11::basic_string<char, std::char_traits<char>, std::allocator<char> > > const, std::set<std::pair<std::__cxx11::basic_string<char, std::char_traits<char>, std::allocator<char> >, std::__cxx11::basic_string<char, std::char_traits<char>, std::allocator<char> > >, std::less<std::pair<std::__cxx11::basic_string<char, std::char_traits<char>, std::allocator<char> >, std::__cxx11::basic_string<char, std::char_traits<char>, std::allocator<char> > > >, std::allocator<std::pair<std::__cxx11::basic_string<char, std::char_traits<char>, std::allocator<char> >, std::__cxx11::basic_string<char, std::char_traits<char>, std::allocator<char> > > > > > >, std::less<std::pair<std::__cxx11::basic_string<char, std::char_traits<char>, std::allocator<char> >, std::__cxx11::basic_string<char, std::char_traits<char>, std::allocator<char> > > >, std::allocator<std::pair<std::pair<std::__cxx11::basic_string<char, std::char_traits<char>, std::allocator<char> >, std::__cxx11::basic_string<char, std::char_traits<char>, std::allocator<char> > > const, std::set<std::pair<std::__cxx11::basic_string<char, std::char_traits<char>, std::allocator<char> >, std::__cxx11::basic_string<char, std::char_traits<char>, std::allocator<char> > >, std::less<std::pair<std::__cxx11::basic_string<char, std::char_traits<char>, std::allocator<char> >, std::__cxx11::basic_string<char, std::char_traits<char>, std::allocator<char> > > >, std::allocator<std::pair<std::__cxx11::basic_string<char, std::char_traits<char>, std::allocator<char> >, std::__cxx11::basic_string<char, std::char_traits<char>, std::allocator<char> > > > > > > >::_M_emplace_hint_unique<std::piecewise_construct_t const&, std::tuple<std::pair<std::__cxx11::basic_string<char, std::char_traits<char>, std::allocator<char> >, std::__cxx11::basic_string<char, std::char_traits<char>, std::allocator<char> > >&&>, std::tuple<> >(std::_Rb_tree_const_iterator<std::pair<std::pair<std::__cxx11::basic_string<char, std::char_traits<char>, std::allocator<char> >, std::__cxx11::basic_string<char, std::char_traits<char>, std::allocator<char> > > const, std::set<std::pair<std::__cxx11::basic_string<char, std::char_traits<char>, std::allocator<char> >, std::__cxx11::basic_string<char, std::char_traits<char>, std::allocator<char> > >, std::less<std::pair<std::__cxx11::basic_string<char, std::char_traits<char>, std::allocator<char> >, std::__cxx11::basic_string<char, std::char_traits<char>, std::allocator<char> > > >, std::allocator<std::pair<std::__cxx11::basic_string<char, std::char_traits<char>, std::allocator<char> >, std::__cxx11::basic_string<char, std::char_traits<char>, std::allocator<char> > > > > > >, std::piecewise_construct_t const&, std::tuple<std::pair<std::__cxx11::basic_string<char, std::char_traits<char>, std::allocator<char> >, std::__cxx11::basic_string<char, std::char_traits<char>, std::allocator<char> > >&&>&&, std::tuple<>&&) [clone .isra.0]
PUBLIC 3a5a0 0 (anonymous namespace)::sagegenXmcloneOocrCb(vst_s*, long*, vst_s*, long*)
PUBLIC 3aa10 0 sagegen_wait_and_cleanup
PUBLIC 3add0 0 (anonymous namespace)::exitHandler(long*, int)
PUBLIC 3ae00 0 (anonymous namespace)::recordModuleItemPartition(std::__cxx11::basic_string<char, std::char_traits<char>, std::allocator<char> > const&, std::__cxx11::basic_string<char, std::char_traits<char>, std::allocator<char> > const&, std::__cxx11::basic_string<char, std::char_traits<char>, std::allocator<char> > const&, std::__cxx11::basic_string<char, std::char_traits<char>, std::allocator<char> > const&, std::__cxx11::basic_string<char, std::char_traits<char>, std::allocator<char> > const&, std::__cxx11::basic_string<char, std::char_traits<char>, std::allocator<char> > const&, bool)
PUBLIC 3b5a0 0 (anonymous namespace)::recordHierParent(int, ssl_item_s*, ssl_item_s const*, int*, std::__cxx11::basic_string<char, std::char_traits<char>, std::allocator<char> > const&) [clone .isra.0]
PUBLIC 3ba40 0 (anonymous namespace)::recordHierNodeType(int, ssl_item_s*, bool)
PUBLIC 3c8a0 0 (anonymous namespace)::sagegenRecordTopInstance(long*, bool)
PUBLIC 3cb80 0 (anonymous namespace)::topInstanceCallback(ssl_item_s*)
PUBLIC 3cba0 0 sagegen_top_instance
PUBLIC 3cbb0 0 (anonymous namespace)::sagegenBeginShutdown(bool)
PUBLIC 3d6f0 0 sagegen_begin_shutdown
PUBLIC 3d700 0 (anonymous namespace)::sagegenIeStitchPair(long*, long*, bool)
PUBLIC 3e740 0 sagegen_ie_stitch_pair
PUBLIC 3e750 0 (anonymous namespace)::xmcloneBindScopeDsngenOomrCb(std::unordered_map<std::__cxx11::basic_string<char, std::char_traits<char>, std::allocator<char> >, int, std::hash<std::__cxx11::basic_string<char, std::char_traits<char>, std::allocator<char> > >, std::equal_to<std::__cxx11::basic_string<char, std::char_traits<char>, std::allocator<char> > >, std::allocator<std::pair<std::__cxx11::basic_string<char, std::char_traits<char>, std::allocator<char> > const, int> > >&, ssl_item_s*, xst_s*, ssl_item_s*, char const*, char const*, char const*, char const*, char const*)
PUBLIC 3ec30 0 (anonymous namespace)::xmcloneConnectBindInstOoprs(xst_s*, std::vector<long*, std::allocator<long*> >&)
PUBLIC 40280 0 sagegen_ie_connect_oopr
PUBLIC 40a80 0 (anonymous namespace)::recordScope(xst_s*, long*, std::__cxx11::basic_string<char, std::char_traits<char>, std::allocator<char> > const&) [clone .constprop.0]
PUBLIC 417e0 0 (anonymous namespace)::processXstItems(ssl_item_s*, idaStatusCodeT, char*, char*, std::__cxx11::basic_string<char, std::char_traits<char>, std::allocator<char> > const&)
PUBLIC 43300 0 (anonymous namespace)::traverseDesignCallback(ssl_item_s*, bool, ._845 (*)(ssl_item_s*, xst_s*, ssl_item_s*, char const*, char const*, char const*, char const*, char const*))
PUBLIC 44060 0 (anonymous namespace)::traverseDesignCallbackMonolithic(ssl_item_s*)
PUBLIC 44070 0 (anonymous namespace)::traverseDesignCallbackXmclone(ssl_item_s*)
PUBLIC 44090 0 (anonymous namespace)::xmcloneDepInterfaceCallback(ssl_item_s*)
PUBLIC 44150 0 (anonymous namespace)::traverseDesignCallbackXmcloneDep(ssl_item_s*)
PUBLIC 44170 0 (anonymous namespace)::xmcloneDepCallback(ssl_item_s*)
PUBLIC 442d0 0 (anonymous namespace)::sagegenGenerate(char*, char*, char*, char*, char*, char*, int, bool, bool, bool, void*, void*, ssl_item_s*)
PUBLIC 46ea0 0 sagegen_generate
PUBLIC 46ed0 0 (anonymous namespace)::sagegenGenerateXmclone(char*, char*, char*, char*, char*, char*, int, bool, void*)
PUBLIC 48cd0 0 sagegen_generate_xmclone
PUBLIC 48ce0 0 sagegen_xmclone_complete
PUBLIC 48e20 0 std::ctype<char>::do_widen(char) const
PUBLIC 48e30 0 Sage::ProtoAPI::commInit(char const*, bool, bool)
PUBLIC 48e40 0 Sage::ProtoAPI::commSignalShutdown(bool)
PUBLIC 48e50 0 Sage::ProtoAPI::commWaitAndCleanup()
PUBLIC 48e60 0 Sage::ProtoAPI::recordHierEdge(int, int, hiertreeproto::Edge_EdgeKind)
PUBLIC 48e70 0 Sage::ProtoAPI::recordHierNode(int, std::__cxx11::basic_string<char, std::char_traits<char>, std::allocator<char> > const&, Sage::GenSrcLoc const&)
PUBLIC 48e80 0 Sage::ProtoAPI::startHierNodeType(int, int, std::__cxx11::basic_string<char, std::char_traits<char>, std::allocator<char> > const&, std::__cxx11::basic_string<char, std::char_traits<char>, std::allocator<char> > const&, Sage::GenSrcLoc const&, hiertreeproto::NamedBlockCore_NamedBlockKind)
PUBLIC 48e90 0 Sage::ProtoAPI::finishHierNodeType(hiertreeproto::ModuleItem&)
PUBLIC 48ea0 0 Sage::ProtoAPI::startParam(hiertreeproto::ModuleItem&, int, std::__cxx11::basic_string<char, std::char_traits<char>, std::allocator<char> > const&, Sage::GenSrcLoc const&)
PUBLIC 48eb0 0 Sage::ProtoAPI::finishType(Sage::Wrapper<parameterproto::ParameterBasicInfo>&)
PUBLIC 48ec0 0 Sage::ProtoAPI::finishType(Sage::Wrapper<hiertreeproto::Signal>&)
PUBLIC 48ed0 0 Sage::ProtoAPI::startSignal(hiertreeproto::ModuleItem&, int, std::__cxx11::basic_string<char, std::char_traits<char>, std::allocator<char> > const&, Sage::GenSrcLoc const&, bool, bool, bool, hiertreeproto::Signal_SigVis)
PUBLIC 48ee0 0 Sage::ProtoAPI::addPredefinedType(std::__cxx11::basic_string<char, std::char_traits<char>, std::allocator<char> > const&, bool, bool, bool, typeinfoproto::PredefinedType_Type, Sage::Wrapper<parameterproto::ParameterBasicInfo>&)
PUBLIC 48ef0 0 Sage::ProtoAPI::addPredefinedType(std::__cxx11::basic_string<char, std::char_traits<char>, std::allocator<char> > const&, bool, bool, bool, typeinfoproto::PredefinedType_Type, Sage::Wrapper<hiertreeproto::Signal>&)
PUBLIC 48f00 0 Sage::ProtoAPI::addStruct(std::__cxx11::basic_string<char, std::char_traits<char>, std::allocator<char> > const&, bool, bool, bool, bool, std::tuple<bool, bool, long, long>&, Sage::Wrapper<parameterproto::ParameterBasicInfo>&)
PUBLIC 48f10 0 Sage::ProtoAPI::addStruct(std::__cxx11::basic_string<char, std::char_traits<char>, std::allocator<char> > const&, bool, bool, bool, bool, std::tuple<bool, bool, long, long>&, Sage::Wrapper<hiertreeproto::Signal>&)
PUBLIC 48f20 0 Sage::ProtoAPI::addUnion(std::__cxx11::basic_string<char, std::char_traits<char>, std::allocator<char> > const&, bool, bool, bool, bool, std::tuple<bool, bool, long, long>&, Sage::Wrapper<parameterproto::ParameterBasicInfo>&)
PUBLIC 48f30 0 Sage::ProtoAPI::addUnion(std::__cxx11::basic_string<char, std::char_traits<char>, std::allocator<char> > const&, bool, bool, bool, bool, std::tuple<bool, bool, long, long>&, Sage::Wrapper<hiertreeproto::Signal>&)
PUBLIC 48f40 0 Sage::ProtoAPI::finishComposite(Sage::Wrapper<parameterproto::ParameterBasicInfo>&)
PUBLIC 48f50 0 Sage::ProtoAPI::finishComposite(Sage::Wrapper<hiertreeproto::Signal>&)
PUBLIC 48f60 0 Sage::ProtoAPI::addField(std::__cxx11::basic_string<char, std::char_traits<char>, std::allocator<char> > const&, typeinfoproto::TypeInfoTree_Type, Sage::Wrapper<parameterproto::ParameterBasicInfo>&)
PUBLIC 48f70 0 Sage::ProtoAPI::addField(std::__cxx11::basic_string<char, std::char_traits<char>, std::allocator<char> > const&, typeinfoproto::TypeInfoTree_Type, Sage::Wrapper<hiertreeproto::Signal>&)
PUBLIC 48f80 0 Sage::ProtoAPI::getByteStream(unsigned char*, unsigned long)
PUBLIC 48f90 0 Sage::ProtoAPI::addEnum(std::__cxx11::basic_string<char, std::char_traits<char>, std::allocator<char> > const&, std::vector<std::pair<std::__cxx11::basic_string<char, std::char_traits<char>, std::allocator<char> >, common::ByteStream*>, std::allocator<std::pair<std::__cxx11::basic_string<char, std::char_traits<char>, std::allocator<char> >, common::ByteStream*> > > const&, unsigned long, bool, bool, bool, Sage::Wrapper<parameterproto::ParameterBasicInfo>&)
PUBLIC 48fa0 0 Sage::ProtoAPI::addEnum(std::__cxx11::basic_string<char, std::char_traits<char>, std::allocator<char> > const&, std::vector<std::pair<std::__cxx11::basic_string<char, std::char_traits<char>, std::allocator<char> >, common::ByteStream*>, std::allocator<std::pair<std::__cxx11::basic_string<char, std::char_traits<char>, std::allocator<char> >, common::ByteStream*> > > const&, unsigned long, bool, bool, bool, Sage::Wrapper<hiertreeproto::Signal>&)
PUBLIC 48fb0 0 Sage::ProtoAPI::addArray(std::__cxx11::basic_string<char, std::char_traits<char>, std::allocator<char> > const&, std::vector<std::tuple<bool, bool, long, long>, std::allocator<std::tuple<bool, bool, long, long> > > const&, typeinfoproto::TypeInfoTree_Type, bool, bool, Sage::Wrapper<parameterproto::ParameterBasicInfo>&)
PUBLIC 48fc0 0 Sage::ProtoAPI::addArray(std::__cxx11::basic_string<char, std::char_traits<char>, std::allocator<char> > const&, std::vector<std::tuple<bool, bool, long, long>, std::allocator<std::tuple<bool, bool, long, long> > > const&, typeinfoproto::TypeInfoTree_Type, bool, bool, Sage::Wrapper<hiertreeproto::Signal>&)
PUBLIC 48fd0 0 Sage::ProtoAPI::addQDA(std::__cxx11::basic_string<char, std::char_traits<char>, std::allocator<char> > const&, typeinfoproto::QDAArray_Type, typeinfoproto::TypeInfoTree_Type, typeinfoproto::TypeInfoTree_Type, Sage::Wrapper<parameterproto::ParameterBasicInfo>&)
PUBLIC 48fe0 0 Sage::ProtoAPI::addQDA(std::__cxx11::basic_string<char, std::char_traits<char>, std::allocator<char> > const&, typeinfoproto::QDAArray_Type, typeinfoproto::TypeInfoTree_Type, typeinfoproto::TypeInfoTree_Type, Sage::Wrapper<hiertreeproto::Signal>&)
PUBLIC 48ff0 0 Sage::ProtoAPI::addClassHandle(std::__cxx11::basic_string<char, std::char_traits<char>, std::allocator<char> > const&, int, int, typeinfoproto::ClassHandle_Type, typeinfoproto::TypeInfoTree_Type, Sage::Wrapper<parameterproto::ParameterBasicInfo>&)
PUBLIC 49000 0 Sage::ProtoAPI::addClassHandle(std::__cxx11::basic_string<char, std::char_traits<char>, std::allocator<char> > const&, int, int, typeinfoproto::ClassHandle_Type, typeinfoproto::TypeInfoTree_Type, Sage::Wrapper<hiertreeproto::Signal>&)
PUBLIC 49010 0 Sage::ProtoAPI::addVirtualInterface(std::__cxx11::basic_string<char, std::char_traits<char>, std::allocator<char> > const&, int, int, Sage::Wrapper<parameterproto::ParameterBasicInfo>&)
PUBLIC 49020 0 Sage::ProtoAPI::addVirtualInterface(std::__cxx11::basic_string<char, std::char_traits<char>, std::allocator<char> > const&, int, int, Sage::Wrapper<hiertreeproto::Signal>&)
PUBLIC 49030 0 Sage::ProtoAPI::markTypeParam(parameterproto::ValuePack&)
PUBLIC 49040 0 Sage::ProtoAPI::addByteStream(unsigned char*, bool, unsigned long, parameterproto::ValuePack&)
PUBLIC 49050 0 Sage::ProtoAPI::addStringValue(char*, unsigned long, parameterproto::ValuePack&)
PUBLIC 49060 0 Sage::ProtoAPI::recordPrimitiveType(int, std::__cxx11::basic_string<char, std::char_traits<char>, std::allocator<char> > const&, Sage::GenSrcLoc const&, hiertreeproto::NamedBlockCore_NamedBlockKind)
PUBLIC 49070 0 Sage::ProtoAPI::recordGenvar(int, std::__cxx11::basic_string<char, std::char_traits<char>, std::allocator<char> > const&, Sage::GenSrcLoc const&, int)
PUBLIC 49080 0 Sage::ProtoAPI::recordPartitionInfo(int, std::__cxx11::basic_string<char, std::char_traits<char>, std::allocator<char> > const&, std::__cxx11::basic_string<char, std::char_traits<char>, std::allocator<char> > const&, std::__cxx11::basic_string<char, std::char_traits<char>, std::allocator<char> > const&, std::__cxx11::basic_string<char, std::char_traits<char>, std::allocator<char> > const&, std::__cxx11::basic_string<char, std::char_traits<char>, std::allocator<char> > const&, std::__cxx11::basic_string<char, std::char_traits<char>, std::allocator<char> > const&)
PUBLIC 49090 0 Sage::ProtoAPI::recordStitchPoint(int, std::__cxx11::basic_string<char, std::char_traits<char>, std::allocator<char> > const&, std::__cxx11::basic_string<char, std::char_traits<char>, std::allocator<char> > const&, std::__cxx11::basic_string<char, std::char_traits<char>, std::allocator<char> > const&, int, Sage::GenSrcLoc const&)
PUBLIC 490a0 0 Sage::ProtoAPI::recordModuleItemPartition(int, std::__cxx11::basic_string<char, std::char_traits<char>, std::allocator<char> > const&, std::__cxx11::basic_string<char, std::char_traits<char>, std::allocator<char> > const&, std::__cxx11::basic_string<char, std::char_traits<char>, std::allocator<char> > const&, std::__cxx11::basic_string<char, std::char_traits<char>, std::allocator<char> > const&, int)
PUBLIC 490b0 0 Sage::ProtoAPI::recordTopInstance(int)
PUBLIC 490c0 0 Sage::ProtoAPI::recordAttribute(std::__cxx11::basic_string<char, std::char_traits<char>, std::allocator<char> > const&, std::__cxx11::basic_string<char, std::char_traits<char>, std::allocator<char> > const&)
PUBLIC 490d0 0 Sage::ProtoAPI::recordOoprExtern(int, std::__cxx11::basic_string<char, std::char_traits<char>, std::allocator<char> > const&, std::__cxx11::basic_string<char, std::char_traits<char>, std::allocator<char> > const&, bool, int)
PUBLIC 490e0 0 Sage::ProtoAPI::recordOoprTarget(std::__cxx11::basic_string<char, std::char_traits<char>, std::allocator<char> > const&, std::__cxx11::basic_string<char, std::char_traits<char>, std::allocator<char> > const&, int)
PUBLIC 490f0 0 Sage::ProtoAPI::recordHegDataMsg(hegproto::Data_Type)
PUBLIC 49100 0 Sage::ProtoAPI::recordHegVariable(int, std::__cxx11::basic_string<char, std::char_traits<char>, std::allocator<char> > const&, Sage::GenSrcLoc const&)
PUBLIC 49110 0 Sage::ProtoAPI::recordHegParameter(int, std::__cxx11::basic_string<char, std::char_traits<char>, std::allocator<char> > const&, Sage::GenSrcLoc const&)
PUBLIC 49120 0 Sage::ProtoAPI::recordHegPortDecl(int, std::__cxx11::basic_string<char, std::char_traits<char>, std::allocator<char> > const&, hegproto::PortDecl_Direction, int, Sage::GenSrcLoc const&)
PUBLIC 49130 0 Sage::ProtoAPI::startHegModule(int, std::__cxx11::basic_string<char, std::char_traits<char>, std::allocator<char> > const&, Sage::GenSrcLoc const&, std::vector<int, std::allocator<int> > const&, bool)
PUBLIC 49140 0 Sage::ProtoAPI::recordHegElemRef(int, int, Sage::GenSrcLoc const&)
PUBLIC 49150 0 Sage::ProtoAPI::recordHegConstant(int, std::__cxx11::basic_string<char, std::char_traits<char>, std::allocator<char> > const&, Sage::GenSrcLoc const&)
PUBLIC 49160 0 Sage::ProtoAPI::recordHegInstance(int, int, std::__cxx11::basic_string<char, std::char_traits<char>, std::allocator<char> > const&, std::vector<int, std::allocator<int> > const&, std::vector<int, std::allocator<int> > const&, Sage::GenSrcLoc const&)
PUBLIC 49170 0 Sage::ProtoAPI::recordHegAssignment(int, hegproto::Assign_Type, int, int, Sage::GenSrcLoc const&)
PUBLIC 49180 0 Sage::ProtoAPI::recordHegConditional(int, hegproto::ConditionalStmt_Type, int, int, int, Sage::GenSrcLoc const&)
PUBLIC 49190 0 Sage::ProtoAPI::recordHegSeqBlock(int, std::__cxx11::basic_string<char, std::char_traits<char>, std::allocator<char> > const&, std::vector<int, std::allocator<int> > const&, Sage::GenSrcLoc const&)
PUBLIC 491a0 0 Sage::ProtoAPI::recordHegAlways(int, int, Sage::GenSrcLoc const&)
PUBLIC 491b0 0 Sage::ProtoAPI::recordHegAlwaysEventControl(int, std::vector<int, std::allocator<int> > const&, int, Sage::GenSrcLoc const&)
PUBLIC 491c0 0 Sage::ProtoAPI::recordHegEventExpression(int, hegproto::EventExpression_Type, int, Sage::GenSrcLoc const&)
PUBLIC 491d0 0 Sage::ProtoAPI::recordHegBinaryOp(int, int, int, hegproto::BinaryOperator_Type, Sage::GenSrcLoc const&)
PUBLIC 491e0 0 Sage::ProtoAPI::recordHegIncludeRef(std::__cxx11::basic_string<char, std::char_traits<char>, std::allocator<char> > const&, Sage::GenSrcLoc const&)
PUBLIC 491f0 0 Sage::ProtoAPI::recordHegSourceChunk(std::__cxx11::basic_string<char, std::char_traits<char>, std::allocator<char> > const&, int, int)
PUBLIC 49200 0 Sage::ProtoAPI::startHegMacroRef(int, Sage::GenSrcLoc const&, int, int, int, std::__cxx11::basic_string<char, std::char_traits<char>, std::allocator<char> > const&, bool)
PUBLIC 49210 0 Sage::ProtoAPI::finishHegMacroRef(hegproto::MacroRef&)
PUBLIC 49220 0 Sage::ProtoAPI::startHegMacroArg(Sage::GenSrcLoc const&, hegproto::MacroRef&)
PUBLIC 49230 0 Sage::ProtoAPI::recordHegMacroDef(int, std::__cxx11::basic_string<char, std::char_traits<char>, std::allocator<char> > const&, Sage::GenSrcLoc const&, std::__cxx11::basic_string<char, std::char_traits<char>, std::allocator<char> > const&)
PUBLIC 49240 0 Sage::ProtoAPI::addHegMacroElem(std::__cxx11::basic_string<char, std::char_traits<char>, std::allocator<char> > const&, hegproto::MacroElement_Type, Sage::GenSrcLoc const&, int, hegproto::MacroRef&)
PUBLIC 49250 0 Sage::ProtoAPI::addHegMacroElem(std::__cxx11::basic_string<char, std::char_traits<char>, std::allocator<char> > const&, hegproto::MacroElement_Type, Sage::GenSrcLoc const&, int, hegproto::MacroArg&)
PUBLIC 49260 0 Sage::ProtoAPI::startHegTextRef()
PUBLIC 49270 0 Sage::ProtoAPI::addHegTextRef(int, hegproto::TextRef&)
PUBLIC 49280 0 Sage::ProtoAPI::finishHegTextRef(hegproto::TextRef&)
PUBLIC 49290 0 Sage::ProtoAPI::recordHegUnhandledType(int, Sage::GenSrcLoc const&)
PUBLIC 492a0 0 std::vector<unsigned long, std::allocator<unsigned long> >::~vector()
PUBLIC 492c0 0 std::vector<sss_root_s*, std::allocator<sss_root_s*> >::~vector()
PUBLIC 492e0 0 std::vector<long*, std::allocator<long*> >::~vector()
PUBLIC 49300 0 std::vector<std::__cxx11::basic_string<char, std::char_traits<char>, std::allocator<char> >, std::allocator<std::__cxx11::basic_string<char, std::char_traits<char>, std::allocator<char> > > >::~vector()
PUBLIC 49370 0 std::vector<std::pair<vst_s*, long*>, std::allocator<std::pair<vst_s*, long*> > >::~vector()
PUBLIC 49390 0 Sage::CompleteProtoAPI::commSignalShutdown(bool)
PUBLIC 493a0 0 Sage::CompleteProtoAPI::commWaitAndCleanup()
PUBLIC 493b0 0 Sage::CompleteProtoAPI::commInit(char const*, bool, bool)
PUBLIC 493d0 0 Sage::CompleteProtoAPI::recordHegUnhandledType(int, Sage::GenSrcLoc const&)
PUBLIC 493e0 0 Sage::CompleteProtoAPI::finishHegTextRef(hegproto::TextRef&)
PUBLIC 493f0 0 Sage::CompleteProtoAPI::addHegTextRef(int, hegproto::TextRef&)
PUBLIC 49400 0 Sage::CompleteProtoAPI::startHegTextRef()
PUBLIC 49410 0 Sage::CompleteProtoAPI::addHegMacroElem(std::__cxx11::basic_string<char, std::char_traits<char>, std::allocator<char> > const&, hegproto::MacroElement_Type, Sage::GenSrcLoc const&, int, hegproto::MacroArg&)
PUBLIC 49430 0 Sage::CompleteProtoAPI::addHegMacroElem(std::__cxx11::basic_string<char, std::char_traits<char>, std::allocator<char> > const&, hegproto::MacroElement_Type, Sage::GenSrcLoc const&, int, hegproto::MacroRef&)
PUBLIC 49450 0 Sage::CompleteProtoAPI::recordHegMacroDef(int, std::__cxx11::basic_string<char, std::char_traits<char>, std::allocator<char> > const&, Sage::GenSrcLoc const&, std::__cxx11::basic_string<char, std::char_traits<char>, std::allocator<char> > const&)
PUBLIC 49460 0 Sage::CompleteProtoAPI::startHegMacroArg(Sage::GenSrcLoc const&, hegproto::MacroRef&)
PUBLIC 49470 0 Sage::CompleteProtoAPI::finishHegMacroRef(hegproto::MacroRef&)
PUBLIC 49480 0 Sage::CompleteProtoAPI::startHegMacroRef(int, Sage::GenSrcLoc const&, int, int, int, std::__cxx11::basic_string<char, std::char_traits<char>, std::allocator<char> > const&, bool)
PUBLIC 494a0 0 Sage::CompleteProtoAPI::recordHegSourceChunk(std::__cxx11::basic_string<char, std::char_traits<char>, std::allocator<char> > const&, int, int)
PUBLIC 494b0 0 Sage::CompleteProtoAPI::recordHegIncludeRef(std::__cxx11::basic_string<char, std::char_traits<char>, std::allocator<char> > const&, Sage::GenSrcLoc const&)
PUBLIC 494c0 0 Sage::CompleteProtoAPI::recordHegBinaryOp(int, int, int, hegproto::BinaryOperator_Type, Sage::GenSrcLoc const&)
PUBLIC 494e0 0 Sage::CompleteProtoAPI::recordHegEventExpression(int, hegproto::EventExpression_Type, int, Sage::GenSrcLoc const&)
PUBLIC 494f0 0 Sage::CompleteProtoAPI::recordHegAlwaysEventControl(int, std::vector<int, std::allocator<int> > const&, int, Sage::GenSrcLoc const&)
PUBLIC 49500 0 Sage::CompleteProtoAPI::recordHegAlways(int, int, Sage::GenSrcLoc const&)
PUBLIC 49510 0 Sage::CompleteProtoAPI::recordHegSeqBlock(int, std::__cxx11::basic_string<char, std::char_traits<char>, std::allocator<char> > const&, std::vector<int, std::allocator<int> > const&, Sage::GenSrcLoc const&)
PUBLIC 49520 0 Sage::CompleteProtoAPI::recordHegConditional(int, hegproto::ConditionalStmt_Type, int, int, int, Sage::GenSrcLoc const&)
PUBLIC 49540 0 Sage::CompleteProtoAPI::recordHegAssignment(int, hegproto::Assign_Type, int, int, Sage::GenSrcLoc const&)
PUBLIC 49560 0 Sage::CompleteProtoAPI::recordHegInstance(int, int, std::__cxx11::basic_string<char, std::char_traits<char>, std::allocator<char> > const&, std::vector<int, std::allocator<int> > const&, std::vector<int, std::allocator<int> > const&, Sage::GenSrcLoc const&)
PUBLIC 49580 0 Sage::CompleteProtoAPI::recordHegConstant(int, std::__cxx11::basic_string<char, std::char_traits<char>, std::allocator<char> > const&, Sage::GenSrcLoc const&)
PUBLIC 49590 0 Sage::CompleteProtoAPI::recordHegElemRef(int, int, Sage::GenSrcLoc const&)
PUBLIC 495a0 0 Sage::CompleteProtoAPI::startHegModule(int, std::__cxx11::basic_string<char, std::char_traits<char>, std::allocator<char> > const&, Sage::GenSrcLoc const&, std::vector<int, std::allocator<int> > const&, bool)
PUBLIC 495c0 0 Sage::CompleteProtoAPI::recordHegPortDecl(int, std::__cxx11::basic_string<char, std::char_traits<char>, std::allocator<char> > const&, hegproto::PortDecl_Direction, int, Sage::GenSrcLoc const&)
PUBLIC 495e0 0 Sage::CompleteProtoAPI::recordHegParameter(int, std::__cxx11::basic_string<char, std::char_traits<char>, std::allocator<char> > const&, Sage::GenSrcLoc const&)
PUBLIC 495f0 0 Sage::CompleteProtoAPI::recordHegVariable(int, std::__cxx11::basic_string<char, std::char_traits<char>, std::allocator<char> > const&, Sage::GenSrcLoc const&)
PUBLIC 49600 0 Sage::CompleteProtoAPI::recordHegDataMsg(hegproto::Data_Type)
PUBLIC 49610 0 Sage::CompleteProtoAPI::recordOoprTarget(std::__cxx11::basic_string<char, std::char_traits<char>, std::allocator<char> > const&, std::__cxx11::basic_string<char, std::char_traits<char>, std::allocator<char> > const&, int)
PUBLIC 49620 0 Sage::CompleteProtoAPI::recordOoprExtern(int, std::__cxx11::basic_string<char, std::char_traits<char>, std::allocator<char> > const&, std::__cxx11::basic_string<char, std::char_traits<char>, std::allocator<char> > const&, bool, int)
PUBLIC 49640 0 Sage::CompleteProtoAPI::recordAttribute(std::__cxx11::basic_string<char, std::char_traits<char>, std::allocator<char> > const&, std::__cxx11::basic_string<char, std::char_traits<char>, std::allocator<char> > const&)
PUBLIC 49650 0 Sage::CompleteProtoAPI::recordTopInstance(int)
PUBLIC 49660 0 Sage::CompleteProtoAPI::recordModuleItemPartition(int, std::__cxx11::basic_string<char, std::char_traits<char>, std::allocator<char> > const&, std::__cxx11::basic_string<char, std::char_traits<char>, std::allocator<char> > const&, std::__cxx11::basic_string<char, std::char_traits<char>, std::allocator<char> > const&, std::__cxx11::basic_string<char, std::char_traits<char>, std::allocator<char> > const&, int)
PUBLIC 49680 0 Sage::CompleteProtoAPI::recordStitchPoint(int, std::__cxx11::basic_string<char, std::char_traits<char>, std::allocator<char> > const&, std::__cxx11::basic_string<char, std::char_traits<char>, std::allocator<char> > const&, std::__cxx11::basic_string<char, std::char_traits<char>, std::allocator<char> > const&, int, Sage::GenSrcLoc const&)
PUBLIC 496a0 0 Sage::CompleteProtoAPI::recordPartitionInfo(int, std::__cxx11::basic_string<char, std::char_traits<char>, std::allocator<char> > const&, std::__cxx11::basic_string<char, std::char_traits<char>, std::allocator<char> > const&, std::__cxx11::basic_string<char, std::char_traits<char>, std::allocator<char> > const&, std::__cxx11::basic_string<char, std::char_traits<char>, std::allocator<char> > const&, std::__cxx11::basic_string<char, std::char_traits<char>, std::allocator<char> > const&, std::__cxx11::basic_string<char, std::char_traits<char>, std::allocator<char> > const&)
PUBLIC 496d0 0 Sage::CompleteProtoAPI::recordGenvar(int, std::__cxx11::basic_string<char, std::char_traits<char>, std::allocator<char> > const&, Sage::GenSrcLoc const&, int)
PUBLIC 496e0 0 Sage::CompleteProtoAPI::recordPrimitiveType(int, std::__cxx11::basic_string<char, std::char_traits<char>, std::allocator<char> > const&, Sage::GenSrcLoc const&, hiertreeproto::NamedBlockCore_NamedBlockKind)
PUBLIC 496f0 0 Sage::CompleteProtoAPI::addStringValue(char*, unsigned long, parameterproto::ValuePack&)
PUBLIC 49700 0 Sage::CompleteProtoAPI::addByteStream(unsigned char*, bool, unsigned long, parameterproto::ValuePack&)
PUBLIC 49720 0 Sage::CompleteProtoAPI::markTypeParam(parameterproto::ValuePack&)
PUBLIC 49730 0 Sage::CompleteProtoAPI::addVirtualInterface(std::__cxx11::basic_string<char, std::char_traits<char>, std::allocator<char> > const&, int, int, Sage::Wrapper<hiertreeproto::Signal>&)
PUBLIC 49740 0 Sage::CompleteProtoAPI::addVirtualInterface(std::__cxx11::basic_string<char, std::char_traits<char>, std::allocator<char> > const&, int, int, Sage::Wrapper<parameterproto::ParameterBasicInfo>&)
PUBLIC 49750 0 Sage::CompleteProtoAPI::addClassHandle(std::__cxx11::basic_string<char, std::char_traits<char>, std::allocator<char> > const&, int, int, typeinfoproto::ClassHandle_Type, typeinfoproto::TypeInfoTree_Type, Sage::Wrapper<hiertreeproto::Signal>&)
PUBLIC 49770 0 Sage::CompleteProtoAPI::addClassHandle(std::__cxx11::basic_string<char, std::char_traits<char>, std::allocator<char> > const&, int, int, typeinfoproto::ClassHandle_Type, typeinfoproto::TypeInfoTree_Type, Sage::Wrapper<parameterproto::ParameterBasicInfo>&)
PUBLIC 49790 0 Sage::CompleteProtoAPI::addQDA(std::__cxx11::basic_string<char, std::char_traits<char>, std::allocator<char> > const&, typeinfoproto::QDAArray_Type, typeinfoproto::TypeInfoTree_Type, typeinfoproto::TypeInfoTree_Type, Sage::Wrapper<hiertreeproto::Signal>&)
PUBLIC 497b0 0 Sage::CompleteProtoAPI::addQDA(std::__cxx11::basic_string<char, std::char_traits<char>, std::allocator<char> > const&, typeinfoproto::QDAArray_Type, typeinfoproto::TypeInfoTree_Type, typeinfoproto::TypeInfoTree_Type, Sage::Wrapper<parameterproto::ParameterBasicInfo>&)
PUBLIC 497d0 0 Sage::CompleteProtoAPI::addArray(std::__cxx11::basic_string<char, std::char_traits<char>, std::allocator<char> > const&, std::vector<std::tuple<bool, bool, long, long>, std::allocator<std::tuple<bool, bool, long, long> > > const&, typeinfoproto::TypeInfoTree_Type, bool, bool, Sage::Wrapper<hiertreeproto::Signal>&)
PUBLIC 497f0 0 Sage::CompleteProtoAPI::addArray(std::__cxx11::basic_string<char, std::char_traits<char>, std::allocator<char> > const&, std::vector<std::tuple<bool, bool, long, long>, std::allocator<std::tuple<bool, bool, long, long> > > const&, typeinfoproto::TypeInfoTree_Type, bool, bool, Sage::Wrapper<parameterproto::ParameterBasicInfo>&)
PUBLIC 49810 0 Sage::CompleteProtoAPI::addEnum(std::__cxx11::basic_string<char, std::char_traits<char>, std::allocator<char> > const&, std::vector<std::pair<std::__cxx11::basic_string<char, std::char_traits<char>, std::allocator<char> >, common::ByteStream*>, std::allocator<std::pair<std::__cxx11::basic_string<char, std::char_traits<char>, std::allocator<char> >, common::ByteStream*> > > const&, unsigned long, bool, bool, bool, Sage::Wrapper<hiertreeproto::Signal>&)
PUBLIC 49840 0 Sage::CompleteProtoAPI::addEnum(std::__cxx11::basic_string<char, std::char_traits<char>, std::allocator<char> > const&, std::vector<std::pair<std::__cxx11::basic_string<char, std::char_traits<char>, std::allocator<char> >, common::ByteStream*>, std::allocator<std::pair<std::__cxx11::basic_string<char, std::char_traits<char>, std::allocator<char> >, common::ByteStream*> > > const&, unsigned long, bool, bool, bool, Sage::Wrapper<parameterproto::ParameterBasicInfo>&)
PUBLIC 49870 0 Sage::CompleteProtoAPI::getByteStream(unsigned char*, unsigned long)
PUBLIC 49880 0 Sage::CompleteProtoAPI::addField(std::__cxx11::basic_string<char, std::char_traits<char>, std::allocator<char> > const&, typeinfoproto::TypeInfoTree_Type, Sage::Wrapper<hiertreeproto::Signal>&)
PUBLIC 49890 0 Sage::CompleteProtoAPI::addField(std::__cxx11::basic_string<char, std::char_traits<char>, std::allocator<char> > const&, typeinfoproto::TypeInfoTree_Type, Sage::Wrapper<parameterproto::ParameterBasicInfo>&)
PUBLIC 498a0 0 Sage::CompleteProtoAPI::finishComposite(Sage::Wrapper<hiertreeproto::Signal>&)
PUBLIC 498b0 0 Sage::CompleteProtoAPI::finishComposite(Sage::Wrapper<parameterproto::ParameterBasicInfo>&)
PUBLIC 498c0 0 Sage::CompleteProtoAPI::addUnion(std::__cxx11::basic_string<char, std::char_traits<char>, std::allocator<char> > const&, bool, bool, bool, bool, std::tuple<bool, bool, long, long>&, Sage::Wrapper<hiertreeproto::Signal>&)
PUBLIC 498f0 0 Sage::CompleteProtoAPI::addUnion(std::__cxx11::basic_string<char, std::char_traits<char>, std::allocator<char> > const&, bool, bool, bool, bool, std::tuple<bool, bool, long, long>&, Sage::Wrapper<parameterproto::ParameterBasicInfo>&)
PUBLIC 49920 0 Sage::CompleteProtoAPI::addStruct(std::__cxx11::basic_string<char, std::char_traits<char>, std::allocator<char> > const&, bool, bool, bool, bool, std::tuple<bool, bool, long, long>&, Sage::Wrapper<hiertreeproto::Signal>&)
PUBLIC 49950 0 Sage::CompleteProtoAPI::addStruct(std::__cxx11::basic_string<char, std::char_traits<char>, std::allocator<char> > const&, bool, bool, bool, bool, std::tuple<bool, bool, long, long>&, Sage::Wrapper<parameterproto::ParameterBasicInfo>&)
PUBLIC 49980 0 Sage::CompleteProtoAPI::addPredefinedType(std::__cxx11::basic_string<char, std::char_traits<char>, std::allocator<char> > const&, bool, bool, bool, typeinfoproto::PredefinedType_Type, Sage::Wrapper<hiertreeproto::Signal>&)
PUBLIC 499b0 0 Sage::CompleteProtoAPI::addPredefinedType(std::__cxx11::basic_string<char, std::char_traits<char>, std::allocator<char> > const&, bool, bool, bool, typeinfoproto::PredefinedType_Type, Sage::Wrapper<parameterproto::ParameterBasicInfo>&)
PUBLIC 499e0 0 Sage::CompleteProtoAPI::startSignal(hiertreeproto::ModuleItem&, int, std::__cxx11::basic_string<char, std::char_traits<char>, std::allocator<char> > const&, Sage::GenSrcLoc const&, bool, bool, bool, hiertreeproto::Signal_SigVis)
PUBLIC 49a20 0 Sage::CompleteProtoAPI::finishType(Sage::Wrapper<hiertreeproto::Signal>&)
PUBLIC 49a30 0 Sage::CompleteProtoAPI::finishType(Sage::Wrapper<parameterproto::ParameterBasicInfo>&)
PUBLIC 49a40 0 Sage::CompleteProtoAPI::startParam(hiertreeproto::ModuleItem&, int, std::__cxx11::basic_string<char, std::char_traits<char>, std::allocator<char> > const&, Sage::GenSrcLoc const&)
PUBLIC 49a50 0 Sage::CompleteProtoAPI::finishHierNodeType(hiertreeproto::ModuleItem&)
PUBLIC 49a60 0 Sage::CompleteProtoAPI::startHierNodeType(int, int, std::__cxx11::basic_string<char, std::char_traits<char>, std::allocator<char> > const&, std::__cxx11::basic_string<char, std::char_traits<char>, std::allocator<char> > const&, Sage::GenSrcLoc const&, hiertreeproto::NamedBlockCore_NamedBlockKind)
PUBLIC 49a80 0 Sage::CompleteProtoAPI::recordHierNode(int, std::__cxx11::basic_string<char, std::char_traits<char>, std::allocator<char> > const&, Sage::GenSrcLoc const&)
PUBLIC 49a90 0 Sage::CompleteProtoAPI::recordHierEdge(int, int, hiertreeproto::Edge_EdgeKind)
PUBLIC 49aa0 0 std::unordered_map<std::__cxx11::basic_string<char, std::char_traits<char>, std::allocator<char> >, std::unordered_set<std::__cxx11::basic_string<char, std::char_traits<char>, std::allocator<char> >, std::hash<std::__cxx11::basic_string<char, std::char_traits<char>, std::allocator<char> > >, std::equal_to<std::__cxx11::basic_string<char, std::char_traits<char>, std::allocator<char> > >, std::allocator<std::__cxx11::basic_string<char, std::char_traits<char>, std::allocator<char> > > >, std::hash<std::__cxx11::basic_string<char, std::char_traits<char>, std::allocator<char> > >, std::equal_to<std::__cxx11::basic_string<char, std::char_traits<char>, std::allocator<char> > >, std::allocator<std::pair<std::__cxx11::basic_string<char, std::char_traits<char>, std::allocator<char> > const, std::unordered_set<std::__cxx11::basic_string<char, std::char_traits<char>, std::allocator<char> >, std::hash<std::__cxx11::basic_string<char, std::char_traits<char>, std::allocator<char> > >, std::equal_to<std::__cxx11::basic_string<char, std::char_traits<char>, std::allocator<char> > >, std::allocator<std::__cxx11::basic_string<char, std::char_traits<char>, std::allocator<char> > > > > > >::~unordered_map()
PUBLIC 49bd0 0 std::unordered_set<std::__cxx11::basic_string<char, std::char_traits<char>, std::allocator<char> >, std::hash<std::__cxx11::basic_string<char, std::char_traits<char>, std::allocator<char> > >, std::equal_to<std::__cxx11::basic_string<char, std::char_traits<char>, std::allocator<char> > >, std::allocator<std::__cxx11::basic_string<char, std::char_traits<char>, std::allocator<char> > > >::~unordered_set()
PUBLIC 49c70 0 std::unordered_map<std::__cxx11::basic_string<char, std::char_traits<char>, std::allocator<char> >, int, std::hash<std::__cxx11::basic_string<char, std::char_traits<char>, std::allocator<char> > >, std::equal_to<std::__cxx11::basic_string<char, std::char_traits<char>, std::allocator<char> > >, std::allocator<std::pair<std::__cxx11::basic_string<char, std::char_traits<char>, std::allocator<char> > const, int> > >::~unordered_map()
PUBLIC 49d10 0 Sage::XmclonePartitionInfo::~XmclonePartitionInfo()
PUBLIC 49f80 0 Sage::XmclonePartitionInfo::clear()
PUBLIC 4a0c0 0 std::pair<std::__cxx11::basic_string<char, std::char_traits<char>, std::allocator<char> >, std::__cxx11::basic_string<char, std::char_traits<char>, std::allocator<char> > >::~pair()
PUBLIC 4a100 0 std::_Hashtable<std::__cxx11::basic_string<char, std::char_traits<char>, std::allocator<char> >, std::pair<std::__cxx11::basic_string<char, std::char_traits<char>, std::allocator<char> > const, int>, std::allocator<std::pair<std::__cxx11::basic_string<char, std::char_traits<char>, std::allocator<char> > const, int> >, std::__detail::_Select1st, std::equal_to<std::__cxx11::basic_string<char, std::char_traits<char>, std::allocator<char> > >, std::hash<std::__cxx11::basic_string<char, std::char_traits<char>, std::allocator<char> > >, std::__detail::_Mod_range_hashing, std::__detail::_Default_ranged_hash, std::__detail::_Prime_rehash_policy, std::__detail::_Hashtable_traits<true, false, true> >::~_Hashtable()
PUBLIC 4a1a0 0 std::_Rb_tree<std::pair<std::__cxx11::basic_string<char, std::char_traits<char>, std::allocator<char> >, int>, std::pair<std::pair<std::__cxx11::basic_string<char, std::char_traits<char>, std::allocator<char> >, int> const, int>, std::_Select1st<std::pair<std::pair<std::__cxx11::basic_string<char, std::char_traits<char>, std::allocator<char> >, int> const, int> >, std::less<std::pair<std::__cxx11::basic_string<char, std::char_traits<char>, std::allocator<char> >, int> >, std::allocator<std::pair<std::pair<std::__cxx11::basic_string<char, std::char_traits<char>, std::allocator<char> >, int> const, int> > >::_M_erase(std::_Rb_tree_node<std::pair<std::pair<std::__cxx11::basic_string<char, std::char_traits<char>, std::allocator<char> >, int> const, int> >*)
PUBLIC 4a210 0 std::map<std::pair<std::__cxx11::basic_string<char, std::char_traits<char>, std::allocator<char> >, int>, int, std::less<std::pair<std::__cxx11::basic_string<char, std::char_traits<char>, std::allocator<char> >, int> >, std::allocator<std::pair<std::pair<std::__cxx11::basic_string<char, std::char_traits<char>, std::allocator<char> >, int> const, int> > >::~map()
PUBLIC 4a270 0 std::_Hashtable<std::__cxx11::basic_string<char, std::char_traits<char>, std::allocator<char> >, std::pair<std::__cxx11::basic_string<char, std::char_traits<char>, std::allocator<char> > const, std::unordered_set<std::__cxx11::basic_string<char, std::char_traits<char>, std::allocator<char> >, std::hash<std::__cxx11::basic_string<char, std::char_traits<char>, std::allocator<char> > >, std::equal_to<std::__cxx11::basic_string<char, std::char_traits<char>, std::allocator<char> > >, std::allocator<std::__cxx11::basic_string<char, std::char_traits<char>, std::allocator<char> > > > >, std::allocator<std::pair<std::__cxx11::basic_string<char, std::char_traits<char>, std::allocator<char> > const, std::unordered_set<std::__cxx11::basic_string<char, std::char_traits<char>, std::allocator<char> >, std::hash<std::__cxx11::basic_string<char, std::char_traits<char>, std::allocator<char> > >, std::equal_to<std::__cxx11::basic_string<char, std::char_traits<char>, std::allocator<char> > >, std::allocator<std::__cxx11::basic_string<char, std::char_traits<char>, std::allocator<char> > > > > >, std::__detail::_Select1st, std::equal_to<std::__cxx11::basic_string<char, std::char_traits<char>, std::allocator<char> > >, std::hash<std::__cxx11::basic_string<char, std::char_traits<char>, std::allocator<char> > >, std::__detail::_Mod_range_hashing, std::__detail::_Default_ranged_hash, std::__detail::_Prime_rehash_policy, std::__detail::_Hashtable_traits<true, false, true> >::clear()
PUBLIC 4a380 0 std::_Rb_tree<std::tuple<std::__cxx11::basic_string<char, std::char_traits<char>, std::allocator<char> >, std::__cxx11::basic_string<char, std::char_traits<char>, std::allocator<char> >, std::__cxx11::basic_string<char, std::char_traits<char>, std::allocator<char> >, std::__cxx11::basic_string<char, std::char_traits<char>, std::allocator<char> >, std::__cxx11::basic_string<char, std::char_traits<char>, std::allocator<char> > >, std::tuple<std::__cxx11::basic_string<char, std::char_traits<char>, std::allocator<char> >, std::__cxx11::basic_string<char, std::char_traits<char>, std::allocator<char> >, std::__cxx11::basic_string<char, std::char_traits<char>, std::allocator<char> >, std::__cxx11::basic_string<char, std::char_traits<char>, std::allocator<char> >, std::__cxx11::basic_string<char, std::char_traits<char>, std::allocator<char> > >, std::_Identity<std::tuple<std::__cxx11::basic_string<char, std::char_traits<char>, std::allocator<char> >, std::__cxx11::basic_string<char, std::char_traits<char>, std::allocator<char> >, std::__cxx11::basic_string<char, std::char_traits<char>, std::allocator<char> >, std::__cxx11::basic_string<char, std::char_traits<char>, std::allocator<char> >, std::__cxx11::basic_string<char, std::char_traits<char>, std::allocator<char> > > >, std::less<std::tuple<std::__cxx11::basic_string<char, std::char_traits<char>, std::allocator<char> >, std::__cxx11::basic_string<char, std::char_traits<char>, std::allocator<char> >, std::__cxx11::basic_string<char, std::char_traits<char>, std::allocator<char> >, std::__cxx11::basic_string<char, std::char_traits<char>, std::allocator<char> >, std::__cxx11::basic_string<char, std::char_traits<char>, std::allocator<char> > > >, std::allocator<std::tuple<std::__cxx11::basic_string<char, std::char_traits<char>, std::allocator<char> >, std::__cxx11::basic_string<char, std::char_traits<char>, std::allocator<char> >, std::__cxx11::basic_string<char, std::char_traits<char>, std::allocator<char> >, std::__cxx11::basic_string<char, std::char_traits<char>, std::allocator<char> >, std::__cxx11::basic_string<char, std::char_traits<char>, std::allocator<char> > > > >::_M_erase(std::_Rb_tree_node<std::tuple<std::__cxx11::basic_string<char, std::char_traits<char>, std::allocator<char> >, std::__cxx11::basic_string<char, std::char_traits<char>, std::allocator<char> >, std::__cxx11::basic_string<char, std::char_traits<char>, std::allocator<char> >, std::__cxx11::basic_string<char, std::char_traits<char>, std::allocator<char> >, std::__cxx11::basic_string<char, std::char_traits<char>, std::allocator<char> > > >*)
PUBLIC 4a440 0 std::set<std::tuple<std::__cxx11::basic_string<char, std::char_traits<char>, std::allocator<char> >, std::__cxx11::basic_string<char, std::char_traits<char>, std::allocator<char> >, std::__cxx11::basic_string<char, std::char_traits<char>, std::allocator<char> >, std::__cxx11::basic_string<char, std::char_traits<char>, std::allocator<char> >, std::__cxx11::basic_string<char, std::char_traits<char>, std::allocator<char> > >, std::less<std::tuple<std::__cxx11::basic_string<char, std::char_traits<char>, std::allocator<char> >, std::__cxx11::basic_string<char, std::char_traits<char>, std::allocator<char> >, std::__cxx11::basic_string<char, std::char_traits<char>, std::allocator<char> >, std::__cxx11::basic_string<char, std::char_traits<char>, std::allocator<char> >, std::__cxx11::basic_string<char, std::char_traits<char>, std::allocator<char> > > >, std::allocator<std::tuple<std::__cxx11::basic_string<char, std::char_traits<char>, std::allocator<char> >, std::__cxx11::basic_string<char, std::char_traits<char>, std::allocator<char> >, std::__cxx11::basic_string<char, std::char_traits<char>, std::allocator<char> >, std::__cxx11::basic_string<char, std::char_traits<char>, std::allocator<char> >, std::__cxx11::basic_string<char, std::char_traits<char>, std::allocator<char> > > > >::~set()
PUBLIC 4a500 0 std::_Hashtable<std::__cxx11::basic_string<char, std::char_traits<char>, std::allocator<char> >, std::pair<std::__cxx11::basic_string<char, std::char_traits<char>, std::allocator<char> > const, int>, std::allocator<std::pair<std::__cxx11::basic_string<char, std::char_traits<char>, std::allocator<char> > const, int> >, std::__detail::_Select1st, std::equal_to<std::__cxx11::basic_string<char, std::char_traits<char>, std::allocator<char> > >, std::hash<std::__cxx11::basic_string<char, std::char_traits<char>, std::allocator<char> > >, std::__detail::_Mod_range_hashing, std::__detail::_Default_ranged_hash, std::__detail::_Prime_rehash_policy, std::__detail::_Hashtable_traits<true, false, true> >::find(std::__cxx11::basic_string<char, std::char_traits<char>, std::allocator<char> > const&)
PUBLIC 4a5a0 0 void std::vector<std::__cxx11::basic_string<char, std::char_traits<char>, std::allocator<char> >, std::allocator<std::__cxx11::basic_string<char, std::char_traits<char>, std::allocator<char> > > >::_M_realloc_insert<std::__cxx11::basic_string<char, std::char_traits<char>, std::allocator<char> > const&>(__gnu_cxx::__normal_iterator<std::__cxx11::basic_string<char, std::char_traits<char>, std::allocator<char> >*, std::vector<std::__cxx11::basic_string<char, std::char_traits<char>, std::allocator<char> >, std::allocator<std::__cxx11::basic_string<char, std::char_traits<char>, std::allocator<char> > > > >, std::__cxx11::basic_string<char, std::char_traits<char>, std::allocator<char> > const&)
PUBLIC 4a7f0 0 void std::vector<sss_root_s*, std::allocator<sss_root_s*> >::_M_realloc_insert<sss_root_s* const&>(__gnu_cxx::__normal_iterator<sss_root_s**, std::vector<sss_root_s*, std::allocator<sss_root_s*> > >, sss_root_s* const&)
PUBLIC 4a960 0 void std::vector<long*, std::allocator<long*> >::_M_realloc_insert<long* const&>(__gnu_cxx::__normal_iterator<long**, std::vector<long*, std::allocator<long*> > >, long* const&)
PUBLIC 4aad0 0 void std::vector<unsigned long, std::allocator<unsigned long> >::_M_realloc_insert<unsigned long const&>(__gnu_cxx::__normal_iterator<unsigned long*, std::vector<unsigned long, std::allocator<unsigned long> > >, unsigned long const&)
PUBLIC 4ac40 0 void std::vector<xst_s*, std::allocator<xst_s*> >::_M_realloc_insert<xst_s* const&>(__gnu_cxx::__normal_iterator<xst_s**, std::vector<xst_s*, std::allocator<xst_s*> > >, xst_s* const&)
PUBLIC 4adb0 0 bool std::operator< <std::__cxx11::basic_string<char, std::char_traits<char>, std::allocator<char> >, std::__cxx11::basic_string<char, std::char_traits<char>, std::allocator<char> > >(std::pair<std::__cxx11::basic_string<char, std::char_traits<char>, std::allocator<char> >, std::__cxx11::basic_string<char, std::char_traits<char>, std::allocator<char> > > const&, std::pair<std::__cxx11::basic_string<char, std::char_traits<char>, std::allocator<char> >, std::__cxx11::basic_string<char, std::char_traits<char>, std::allocator<char> > > const&)
PUBLIC 4af00 0 std::pair<std::_Rb_tree_iterator<std::pair<std::__cxx11::basic_string<char, std::char_traits<char>, std::allocator<char> >, std::__cxx11::basic_string<char, std::char_traits<char>, std::allocator<char> > > >, bool> std::_Rb_tree<std::pair<std::__cxx11::basic_string<char, std::char_traits<char>, std::allocator<char> >, std::__cxx11::basic_string<char, std::char_traits<char>, std::allocator<char> > >, std::pair<std::__cxx11::basic_string<char, std::char_traits<char>, std::allocator<char> >, std::__cxx11::basic_string<char, std::char_traits<char>, std::allocator<char> > >, std::_Identity<std::pair<std::__cxx11::basic_string<char, std::char_traits<char>, std::allocator<char> >, std::__cxx11::basic_string<char, std::char_traits<char>, std::allocator<char> > > >, std::less<std::pair<std::__cxx11::basic_string<char, std::char_traits<char>, std::allocator<char> >, std::__cxx11::basic_string<char, std::char_traits<char>, std::allocator<char> > > >, std::allocator<std::pair<std::__cxx11::basic_string<char, std::char_traits<char>, std::allocator<char> >, std::__cxx11::basic_string<char, std::char_traits<char>, std::allocator<char> > > > >::_M_insert_unique<std::pair<std::__cxx11::basic_string<char, std::char_traits<char>, std::allocator<char> >, std::__cxx11::basic_string<char, std::char_traits<char>, std::allocator<char> > > >(std::pair<std::__cxx11::basic_string<char, std::char_traits<char>, std::allocator<char> >, std::__cxx11::basic_string<char, std::char_traits<char>, std::allocator<char> > >&&)
PUBLIC 4b330 0 std::_Rb_tree<std::pair<std::__cxx11::basic_string<char, std::char_traits<char>, std::allocator<char> >, int>, std::pair<std::pair<std::__cxx11::basic_string<char, std::char_traits<char>, std::allocator<char> >, int> const, int>, std::_Select1st<std::pair<std::pair<std::__cxx11::basic_string<char, std::char_traits<char>, std::allocator<char> >, int> const, int> >, std::less<std::pair<std::__cxx11::basic_string<char, std::char_traits<char>, std::allocator<char> >, int> >, std::allocator<std::pair<std::pair<std::__cxx11::basic_string<char, std::char_traits<char>, std::allocator<char> >, int> const, int> > >::_M_get_insert_unique_pos(std::pair<std::__cxx11::basic_string<char, std::char_traits<char>, std::allocator<char> >, int> const&)
PUBLIC 4b580 0 std::map<std::pair<std::__cxx11::basic_string<char, std::char_traits<char>, std::allocator<char> >, int>, int, std::less<std::pair<std::__cxx11::basic_string<char, std::char_traits<char>, std::allocator<char> >, int> >, std::allocator<std::pair<std::pair<std::__cxx11::basic_string<char, std::char_traits<char>, std::allocator<char> >, int> const, int> > >::operator[](std::pair<std::__cxx11::basic_string<char, std::char_traits<char>, std::allocator<char> >, int>&&)
PUBLIC 4b770 0 std::pair<std::_Rb_tree_iterator<std::pair<std::pair<std::__cxx11::basic_string<char, std::char_traits<char>, std::allocator<char> >, int> const, int> >, bool> std::_Rb_tree<std::pair<std::__cxx11::basic_string<char, std::char_traits<char>, std::allocator<char> >, int>, std::pair<std::pair<std::__cxx11::basic_string<char, std::char_traits<char>, std::allocator<char> >, int> const, int>, std::_Select1st<std::pair<std::pair<std::__cxx11::basic_string<char, std::char_traits<char>, std::allocator<char> >, int> const, int> >, std::less<std::pair<std::__cxx11::basic_string<char, std::char_traits<char>, std::allocator<char> >, int> >, std::allocator<std::pair<std::pair<std::__cxx11::basic_string<char, std::char_traits<char>, std::allocator<char> >, int> const, int> > >::_M_insert_unique<std::pair<std::pair<std::__cxx11::basic_string<char, std::char_traits<char>, std::allocator<char> >, int> const, int> >(std::pair<std::pair<std::__cxx11::basic_string<char, std::char_traits<char>, std::allocator<char> >, int> const, int>&&)
PUBLIC 4b940 0 std::_Rb_tree_iterator<std::tuple<std::__cxx11::basic_string<char, std::char_traits<char>, std::allocator<char> >, std::__cxx11::basic_string<char, std::char_traits<char>, std::allocator<char> >, std::__cxx11::basic_string<char, std::char_traits<char>, std::allocator<char> >, std::__cxx11::basic_string<char, std::char_traits<char>, std::allocator<char> >, std::__cxx11::basic_string<char, std::char_traits<char>, std::allocator<char> > > > std::_Rb_tree<std::tuple<std::__cxx11::basic_string<char, std::char_traits<char>, std::allocator<char> >, std::__cxx11::basic_string<char, std::char_traits<char>, std::allocator<char> >, std::__cxx11::basic_string<char, std::char_traits<char>, std::allocator<char> >, std::__cxx11::basic_string<char, std::char_traits<char>, std::allocator<char> >, std::__cxx11::basic_string<char, std::char_traits<char>, std::allocator<char> > >, std::tuple<std::__cxx11::basic_string<char, std::char_traits<char>, std::allocator<char> >, std::__cxx11::basic_string<char, std::char_traits<char>, std::allocator<char> >, std::__cxx11::basic_string<char, std::char_traits<char>, std::allocator<char> >, std::__cxx11::basic_string<char, std::char_traits<char>, std::allocator<char> >, std::__cxx11::basic_string<char, std::char_traits<char>, std::allocator<char> > >, std::_Identity<std::tuple<std::__cxx11::basic_string<char, std::char_traits<char>, std::allocator<char> >, std::__cxx11::basic_string<char, std::char_traits<char>, std::allocator<char> >, std::__cxx11::basic_string<char, std::char_traits<char>, std::allocator<char> >, std::__cxx11::basic_string<char, std::char_traits<char>, std::allocator<char> >, std::__cxx11::basic_string<char, std::char_traits<char>, std::allocator<char> > > >, std::less<std::tuple<std::__cxx11::basic_string<char, std::char_traits<char>, std::allocator<char> >, std::__cxx11::basic_string<char, std::char_traits<char>, std::allocator<char> >, std::__cxx11::basic_string<char, std::char_traits<char>, std::allocator<char> >, std::__cxx11::basic_string<char, std::char_traits<char>, std::allocator<char> >, std::__cxx11::basic_string<char, std::char_traits<char>, std::allocator<char> > > >, std::allocator<std::tuple<std::__cxx11::basic_string<char, std::char_traits<char>, std::allocator<char> >, std::__cxx11::basic_string<char, std::char_traits<char>, std::allocator<char> >, std::__cxx11::basic_string<char, std::char_traits<char>, std::allocator<char> >, std::__cxx11::basic_string<char, std::char_traits<char>, std::allocator<char> >, std::__cxx11::basic_string<char, std::char_traits<char>, std::allocator<char> > > > >::_M_insert_<std::tuple<std::__cxx11::basic_string<char, std::char_traits<char>, std::allocator<char> >, std::__cxx11::basic_string<char, std::char_traits<char>, std::allocator<char> >, std::__cxx11::basic_string<char, std::char_traits<char>, std::allocator<char> >, std::__cxx11::basic_string<char, std::char_traits<char>, std::allocator<char> >, std::__cxx11::basic_string<char, std::char_traits<char>, std::allocator<char> > >, std::_Rb_tree<std::tuple<std::__cxx11::basic_string<char, std::char_traits<char>, std::allocator<char> >, std::__cxx11::basic_string<char, std::char_traits<char>, std::allocator<char> >, std::__cxx11::basic_string<char, std::char_traits<char>, std::allocator<char> >, std::__cxx11::basic_string<char, std::char_traits<char>, std::allocator<char> >, std::__cxx11::basic_string<char, std::char_traits<char>, std::allocator<char> > >, std::tuple<std::__cxx11::basic_string<char, std::char_traits<char>, std::allocator<char> >, std::__cxx11::basic_string<char, std::char_traits<char>, std::allocator<char> >, std::__cxx11::basic_string<char, std::char_traits<char>, std::allocator<char> >, std::__cxx11::basic_string<char, std::char_traits<char>, std::allocator<char> >, std::__cxx11::basic_string<char, std::char_traits<char>, std::allocator<char> > >, std::_Identity<std::tuple<std::__cxx11::basic_string<char, std::char_traits<char>, std::allocator<char> >, std::__cxx11::basic_string<char, std::char_traits<char>, std::allocator<char> >, std::__cxx11::basic_string<char, std::char_traits<char>, std::allocator<char> >, std::__cxx11::basic_string<char, std::char_traits<char>, std::allocator<char> >, std::__cxx11::basic_string<char, std::char_traits<char>, std::allocator<char> > > >, std::less<std::tuple<std::__cxx11::basic_string<char, std::char_traits<char>, std::allocator<char> >, std::__cxx11::basic_string<char, std::char_traits<char>, std::allocator<char> >, std::__cxx11::basic_string<char, std::char_traits<char>, std::allocator<char> >, std::__cxx11::basic_string<char, std::char_traits<char>, std::allocator<char> >, std::__cxx11::basic_string<char, std::char_traits<char>, std::allocator<char> > > >, std::allocator<std::tuple<std::__cxx11::basic_string<char, std::char_traits<char>, std::allocator<char> >, std::__cxx11::basic_string<char, std::char_traits<char>, std::allocator<char> >, std::__cxx11::basic_string<char, std::char_traits<char>, std::allocator<char> >, std::__cxx11::basic_string<char, std::char_traits<char>, std::allocator<char> >, std::__cxx11::basic_string<char, std::char_traits<char>, std::allocator<char> > > > >::_Alloc_node>(std::_Rb_tree_node_base*, std::_Rb_tree_node_base*, std::tuple<std::__cxx11::basic_string<char, std::char_traits<char>, std::allocator<char> >, std::__cxx11::basic_string<char, std::char_traits<char>, std::allocator<char> >, std::__cxx11::basic_string<char, std::char_traits<char>, std::allocator<char> >, std::__cxx11::basic_string<char, std::char_traits<char>, std::allocator<char> >, std::__cxx11::basic_string<char, std::char_traits<char>, std::allocator<char> > >&&, std::_Rb_tree<std::tuple<std::__cxx11::basic_string<char, std::char_traits<char>, std::allocator<char> >, std::__cxx11::basic_string<char, std::char_traits<char>, std::allocator<char> >, std::__cxx11::basic_string<char, std::char_traits<char>, std::allocator<char> >, std::__cxx11::basic_string<char, std::char_traits<char>, std::allocator<char> >, std::__cxx11::basic_string<char, std::char_traits<char>, std::allocator<char> > >, std::tuple<std::__cxx11::basic_string<char, std::char_traits<char>, std::allocator<char> >, std::__cxx11::basic_string<char, std::char_traits<char>, std::allocator<char> >, std::__cxx11::basic_string<char, std::char_traits<char>, std::allocator<char> >, std::__cxx11::basic_string<char, std::char_traits<char>, std::allocator<char> >, std::__cxx11::basic_string<char, std::char_traits<char>, std::allocator<char> > >, std::_Identity<std::tuple<std::__cxx11::basic_string<char, std::char_traits<char>, std::allocator<char> >, std::__cxx11::basic_string<char, std::char_traits<char>, std::allocator<char> >, std::__cxx11::basic_string<char, std::char_traits<char>, std::allocator<char> >, std::__cxx11::basic_string<char, std::char_traits<char>, std::allocator<char> >, std::__cxx11::basic_string<char, std::char_traits<char>, std::allocator<char> > > >, std::less<std::tuple<std::__cxx11::basic_string<char, std::char_traits<char>, std::allocator<char> >, std::__cxx11::basic_string<char, std::char_traits<char>, std::allocator<char> >, std::__cxx11::basic_string<char, std::char_traits<char>, std::allocator<char> >, std::__cxx11::basic_string<char, std::char_traits<char>, std::allocator<char> >, std::__cxx11::basic_string<char, std::char_traits<char>, std::allocator<char> > > >, std::allocator<std::tuple<std::__cxx11::basic_string<char, std::char_traits<char>, std::allocator<char> >, std::__cxx11::basic_string<char, std::char_traits<char>, std::allocator<char> >, std::__cxx11::basic_string<char, std::char_traits<char>, std::allocator<char> >, std::__cxx11::basic_string<char, std::char_traits<char>, std::allocator<char> >, std::__cxx11::basic_string<char, std::char_traits<char>, std::allocator<char> > > > >::_Alloc_node&)
PUBLIC 4bd80 0 std::pair<std::_Rb_tree_iterator<std::tuple<std::__cxx11::basic_string<char, std::char_traits<char>, std::allocator<char> >, std::__cxx11::basic_string<char, std::char_traits<char>, std::allocator<char> >, std::__cxx11::basic_string<char, std::char_traits<char>, std::allocator<char> >, std::__cxx11::basic_string<char, std::char_traits<char>, std::allocator<char> >, std::__cxx11::basic_string<char, std::char_traits<char>, std::allocator<char> > > >, bool> std::_Rb_tree<std::tuple<std::__cxx11::basic_string<char, std::char_traits<char>, std::allocator<char> >, std::__cxx11::basic_string<char, std::char_traits<char>, std::allocator<char> >, std::__cxx11::basic_string<char, std::char_traits<char>, std::allocator<char> >, std::__cxx11::basic_string<char, std::char_traits<char>, std::allocator<char> >, std::__cxx11::basic_string<char, std::char_traits<char>, std::allocator<char> > >, std::tuple<std::__cxx11::basic_string<char, std::char_traits<char>, std::allocator<char> >, std::__cxx11::basic_string<char, std::char_traits<char>, std::allocator<char> >, std::__cxx11::basic_string<char, std::char_traits<char>, std::allocator<char> >, std::__cxx11::basic_string<char, std::char_traits<char>, std::allocator<char> >, std::__cxx11::basic_string<char, std::char_traits<char>, std::allocator<char> > >, std::_Identity<std::tuple<std::__cxx11::basic_string<char, std::char_traits<char>, std::allocator<char> >, std::__cxx11::basic_string<char, std::char_traits<char>, std::allocator<char> >, std::__cxx11::basic_string<char, std::char_traits<char>, std::allocator<char> >, std::__cxx11::basic_string<char, std::char_traits<char>, std::allocator<char> >, std::__cxx11::basic_string<char, std::char_traits<char>, std::allocator<char> > > >, std::less<std::tuple<std::__cxx11::basic_string<char, std::char_traits<char>, std::allocator<char> >, std::__cxx11::basic_string<char, std::char_traits<char>, std::allocator<char> >, std::__cxx11::basic_string<char, std::char_traits<char>, std::allocator<char> >, std::__cxx11::basic_string<char, std::char_traits<char>, std::allocator<char> >, std::__cxx11::basic_string<char, std::char_traits<char>, std::allocator<char> > > >, std::allocator<std::tuple<std::__cxx11::basic_string<char, std::char_traits<char>, std::allocator<char> >, std::__cxx11::basic_string<char, std::char_traits<char>, std::allocator<char> >, std::__cxx11::basic_string<char, std::char_traits<char>, std::allocator<char> >, std::__cxx11::basic_string<char, std::char_traits<char>, std::allocator<char> >, std::__cxx11::basic_string<char, std::char_traits<char>, std::allocator<char> > > > >::_M_insert_unique<std::tuple<std::__cxx11::basic_string<char, std::char_traits<char>, std::allocator<char> >, std::__cxx11::basic_string<char, std::char_traits<char>, std::allocator<char> >, std::__cxx11::basic_string<char, std::char_traits<char>, std::allocator<char> >, std::__cxx11::basic_string<char, std::char_traits<char>, std::allocator<char> >, std::__cxx11::basic_string<char, std::char_traits<char>, std::allocator<char> > > >(std::tuple<std::__cxx11::basic_string<char, std::char_traits<char>, std::allocator<char> >, std::__cxx11::basic_string<char, std::char_traits<char>, std::allocator<char> >, std::__cxx11::basic_string<char, std::char_traits<char>, std::allocator<char> >, std::__cxx11::basic_string<char, std::char_traits<char>, std::allocator<char> >, std::__cxx11::basic_string<char, std::char_traits<char>, std::allocator<char> > >&&)
PUBLIC 4c4d0 0 void std::vector<sss_root_s*, std::allocator<sss_root_s*> >::_M_realloc_insert<sss_root_s*>(__gnu_cxx::__normal_iterator<sss_root_s**, std::vector<sss_root_s*, std::allocator<sss_root_s*> > >, sss_root_s*&&)
PUBLIC 4c640 0 void std::vector<long*, std::allocator<long*> >::_M_realloc_insert<long*>(__gnu_cxx::__normal_iterator<long**, std::vector<long*, std::allocator<long*> > >, long*&&)
PUBLIC 4c7b0 0 void std::vector<std::pair<vst_s*, long*>, std::allocator<std::pair<vst_s*, long*> > >::_M_realloc_insert<std::pair<vst_s*, long*> >(__gnu_cxx::__normal_iterator<std::pair<vst_s*, long*>*, std::vector<std::pair<vst_s*, long*>, std::allocator<std::pair<vst_s*, long*> > > >, std::pair<vst_s*, long*>&&)
PUBLIC 4c970 0 std::_Hashtable<std::__cxx11::basic_string<char, std::char_traits<char>, std::allocator<char> >, std::pair<std::__cxx11::basic_string<char, std::char_traits<char>, std::allocator<char> > const, int>, std::allocator<std::pair<std::__cxx11::basic_string<char, std::char_traits<char>, std::allocator<char> > const, int> >, std::__detail::_Select1st, std::equal_to<std::__cxx11::basic_string<char, std::char_traits<char>, std::allocator<char> > >, std::hash<std::__cxx11::basic_string<char, std::char_traits<char>, std::allocator<char> > >, std::__detail::_Mod_range_hashing, std::__detail::_Default_ranged_hash, std::__detail::_Prime_rehash_policy, std::__detail::_Hashtable_traits<true, false, true> >::_M_rehash(unsigned long, unsigned long const&)
PUBLIC 4caa0 0 std::_Hashtable<std::__cxx11::basic_string<char, std::char_traits<char>, std::allocator<char> >, std::pair<std::__cxx11::basic_string<char, std::char_traits<char>, std::allocator<char> > const, int>, std::allocator<std::pair<std::__cxx11::basic_string<char, std::char_traits<char>, std::allocator<char> > const, int> >, std::__detail::_Select1st, std::equal_to<std::__cxx11::basic_string<char, std::char_traits<char>, std::allocator<char> > >, std::hash<std::__cxx11::basic_string<char, std::char_traits<char>, std::allocator<char> > >, std::__detail::_Mod_range_hashing, std::__detail::_Default_ranged_hash, std::__detail::_Prime_rehash_policy, std::__detail::_Hashtable_traits<true, false, true> >::_M_insert_unique_node(unsigned long, unsigned long, std::__detail::_Hash_node<std::pair<std::__cxx11::basic_string<char, std::char_traits<char>, std::allocator<char> > const, int>, true>*, unsigned long)
PUBLIC 4cba0 0 std::__detail::_Map_base<std::__cxx11::basic_string<char, std::char_traits<char>, std::allocator<char> >, std::pair<std::__cxx11::basic_string<char, std::char_traits<char>, std::allocator<char> > const, int>, std::allocator<std::pair<std::__cxx11::basic_string<char, std::char_traits<char>, std::allocator<char> > const, int> >, std::__detail::_Select1st, std::equal_to<std::__cxx11::basic_string<char, std::char_traits<char>, std::allocator<char> > >, std::hash<std::__cxx11::basic_string<char, std::char_traits<char>, std::allocator<char> > >, std::__detail::_Mod_range_hashing, std::__detail::_Default_ranged_hash, std::__detail::_Prime_rehash_policy, std::__detail::_Hashtable_traits<true, false, true>, true>::operator[](std::__cxx11::basic_string<char, std::char_traits<char>, std::allocator<char> > const&)
PUBLIC 4ccd0 0 std::pair<std::__detail::_Node_iterator<std::pair<std::__cxx11::basic_string<char, std::char_traits<char>, std::allocator<char> > const, int>, false, true>, bool> std::_Hashtable<std::__cxx11::basic_string<char, std::char_traits<char>, std::allocator<char> >, std::pair<std::__cxx11::basic_string<char, std::char_traits<char>, std::allocator<char> > const, int>, std::allocator<std::pair<std::__cxx11::basic_string<char, std::char_traits<char>, std::allocator<char> > const, int> >, std::__detail::_Select1st, std::equal_to<std::__cxx11::basic_string<char, std::char_traits<char>, std::allocator<char> > >, std::hash<std::__cxx11::basic_string<char, std::char_traits<char>, std::allocator<char> > >, std::__detail::_Mod_range_hashing, std::__detail::_Default_ranged_hash, std::__detail::_Prime_rehash_policy, std::__detail::_Hashtable_traits<true, false, true> >::_M_emplace<std::pair<std::__cxx11::basic_string<char, std::char_traits<char>, std::allocator<char> > const, int> >(std::integral_constant<bool, true>, std::pair<std::__cxx11::basic_string<char, std::char_traits<char>, std::allocator<char> > const, int>&&)
PUBLIC 4ce20 0 std::__detail::_Map_base<std::__cxx11::basic_string<char, std::char_traits<char>, std::allocator<char> >, std::pair<std::__cxx11::basic_string<char, std::char_traits<char>, std::allocator<char> > const, int>, std::allocator<std::pair<std::__cxx11::basic_string<char, std::char_traits<char>, std::allocator<char> > const, int> >, std::__detail::_Select1st, std::equal_to<std::__cxx11::basic_string<char, std::char_traits<char>, std::allocator<char> > >, std::hash<std::__cxx11::basic_string<char, std::char_traits<char>, std::allocator<char> > >, std::__detail::_Mod_range_hashing, std::__detail::_Default_ranged_hash, std::__detail::_Prime_rehash_policy, std::__detail::_Hashtable_traits<true, false, true>, true>::operator[](std::__cxx11::basic_string<char, std::char_traits<char>, std::allocator<char> >&&)
PUBLIC 4cf60 0 std::_Hashtable<std::__cxx11::basic_string<char, std::char_traits<char>, std::allocator<char> >, std::pair<std::__cxx11::basic_string<char, std::char_traits<char>, std::allocator<char> > const, std::unordered_set<std::__cxx11::basic_string<char, std::char_traits<char>, std::allocator<char> >, std::hash<std::__cxx11::basic_string<char, std::char_traits<char>, std::allocator<char> > >, std::equal_to<std::__cxx11::basic_string<char, std::char_traits<char>, std::allocator<char> > >, std::allocator<std::__cxx11::basic_string<char, std::char_traits<char>, std::allocator<char> > > > >, std::allocator<std::pair<std::__cxx11::basic_string<char, std::char_traits<char>, std::allocator<char> > const, std::unordered_set<std::__cxx11::basic_string<char, std::char_traits<char>, std::allocator<char> >, std::hash<std::__cxx11::basic_string<char, std::char_traits<char>, std::allocator<char> > >, std::equal_to<std::__cxx11::basic_string<char, std::char_traits<char>, std::allocator<char> > >, std::allocator<std::__cxx11::basic_string<char, std::char_traits<char>, std::allocator<char> > > > > >, std::__detail::_Select1st, std::equal_to<std::__cxx11::basic_string<char, std::char_traits<char>, std::allocator<char> > >, std::hash<std::__cxx11::basic_string<char, std::char_traits<char>, std::allocator<char> > >, std::__detail::_Mod_range_hashing, std::__detail::_Default_ranged_hash, std::__detail::_Prime_rehash_policy, std::__detail::_Hashtable_traits<true, false, true> >::_M_rehash(unsigned long, unsigned long const&)
PUBLIC 4d090 0 std::_Hashtable<std::__cxx11::basic_string<char, std::char_traits<char>, std::allocator<char> >, std::pair<std::__cxx11::basic_string<char, std::char_traits<char>, std::allocator<char> > const, std::unordered_set<std::__cxx11::basic_string<char, std::char_traits<char>, std::allocator<char> >, std::hash<std::__cxx11::basic_string<char, std::char_traits<char>, std::allocator<char> > >, std::equal_to<std::__cxx11::basic_string<char, std::char_traits<char>, std::allocator<char> > >, std::allocator<std::__cxx11::basic_string<char, std::char_traits<char>, std::allocator<char> > > > >, std::allocator<std::pair<std::__cxx11::basic_string<char, std::char_traits<char>, std::allocator<char> > const, std::unordered_set<std::__cxx11::basic_string<char, std::char_traits<char>, std::allocator<char> >, std::hash<std::__cxx11::basic_string<char, std::char_traits<char>, std::allocator<char> > >, std::equal_to<std::__cxx11::basic_string<char, std::char_traits<char>, std::allocator<char> > >, std::allocator<std::__cxx11::basic_string<char, std::char_traits<char>, std::allocator<char> > > > > >, std::__detail::_Select1st, std::equal_to<std::__cxx11::basic_string<char, std::char_traits<char>, std::allocator<char> > >, std::hash<std::__cxx11::basic_string<char, std::char_traits<char>, std::allocator<char> > >, std::__detail::_Mod_range_hashing, std::__detail::_Default_ranged_hash, std::__detail::_Prime_rehash_policy, std::__detail::_Hashtable_traits<true, false, true> >::_M_insert_unique_node(unsigned long, unsigned long, std::__detail::_Hash_node<std::pair<std::__cxx11::basic_string<char, std::char_traits<char>, std::allocator<char> > const, std::unordered_set<std::__cxx11::basic_string<char, std::char_traits<char>, std::allocator<char> >, std::hash<std::__cxx11::basic_string<char, std::char_traits<char>, std::allocator<char> > >, std::equal_to<std::__cxx11::basic_string<char, std::char_traits<char>, std::allocator<char> > >, std::allocator<std::__cxx11::basic_string<char, std::char_traits<char>, std::allocator<char> > > > >, true>*, unsigned long)
PUBLIC 4d200 0 std::__detail::_Map_base<std::__cxx11::basic_string<char, std::char_traits<char>, std::allocator<char> >, std::pair<std::__cxx11::basic_string<char, std::char_traits<char>, std::allocator<char> > const, std::unordered_set<std::__cxx11::basic_string<char, std::char_traits<char>, std::allocator<char> >, std::hash<std::__cxx11::basic_string<char, std::char_traits<char>, std::allocator<char> > >, std::equal_to<std::__cxx11::basic_string<char, std::char_traits<char>, std::allocator<char> > >, std::allocator<std::__cxx11::basic_string<char, std::char_traits<char>, std::allocator<char> > > > >, std::allocator<std::pair<std::__cxx11::basic_string<char, std::char_traits<char>, std::allocator<char> > const, std::unordered_set<std::__cxx11::basic_string<char, std::char_traits<char>, std::allocator<char> >, std::hash<std::__cxx11::basic_string<char, std::char_traits<char>, std::allocator<char> > >, std::equal_to<std::__cxx11::basic_string<char, std::char_traits<char>, std::allocator<char> > >, std::allocator<std::__cxx11::basic_string<char, std::char_traits<char>, std::allocator<char> > > > > >, std::__detail::_Select1st, std::equal_to<std::__cxx11::basic_string<char, std::char_traits<char>, std::allocator<char> > >, std::hash<std::__cxx11::basic_string<char, std::char_traits<char>, std::allocator<char> > >, std::__detail::_Mod_range_hashing, std::__detail::_Default_ranged_hash, std::__detail::_Prime_rehash_policy, std::__detail::_Hashtable_traits<true, false, true>, true>::operator[](std::__cxx11::basic_string<char, std::char_traits<char>, std::allocator<char> >&&)
PUBLIC 4d380 0 std::_Hashtable<xst_s*, std::pair<xst_s* const, std::vector<long*, std::allocator<long*> > >, std::allocator<std::pair<xst_s* const, std::vector<long*, std::allocator<long*> > > >, std::__detail::_Select1st, std::equal_to<xst_s*>, std::hash<xst_s*>, std::__detail::_Mod_range_hashing, std::__detail::_Default_ranged_hash, std::__detail::_Prime_rehash_policy, std::__detail::_Hashtable_traits<false, false, true> >::_M_rehash(unsigned long, unsigned long const&)
PUBLIC 4d4b0 0 std::_Hashtable<xst_s*, std::pair<xst_s* const, std::vector<long*, std::allocator<long*> > >, std::allocator<std::pair<xst_s* const, std::vector<long*, std::allocator<long*> > > >, std::__detail::_Select1st, std::equal_to<xst_s*>, std::hash<xst_s*>, std::__detail::_Mod_range_hashing, std::__detail::_Default_ranged_hash, std::__detail::_Prime_rehash_policy, std::__detail::_Hashtable_traits<false, false, true> >::_M_insert_unique_node(unsigned long, unsigned long, std::__detail::_Hash_node<std::pair<xst_s* const, std::vector<long*, std::allocator<long*> > >, false>*, unsigned long)
PUBLIC 4d5b0 0 std::__detail::_Map_base<xst_s*, std::pair<xst_s* const, std::vector<long*, std::allocator<long*> > >, std::allocator<std::pair<xst_s* const, std::vector<long*, std::allocator<long*> > > >, std::__detail::_Select1st, std::equal_to<xst_s*>, std::hash<xst_s*>, std::__detail::_Mod_range_hashing, std::__detail::_Default_ranged_hash, std::__detail::_Prime_rehash_policy, std::__detail::_Hashtable_traits<false, false, true>, true>::operator[](xst_s* const&)
PUBLIC 4d680 0 std::_Rb_tree<std::pair<std::__cxx11::basic_string<char, std::char_traits<char>, std::allocator<char> >, std::__cxx11::basic_string<char, std::char_traits<char>, std::allocator<char> > >, std::pair<std::pair<std::__cxx11::basic_string<char, std::char_traits<char>, std::allocator<char> >, std::__cxx11::basic_string<char, std::char_traits<char>, std::allocator<char> > > const, std::set<std::pair<std::__cxx11::basic_string<char, std::char_traits<char>, std::allocator<char> >, std::__cxx11::basic_string<char, std::char_traits<char>, std::allocator<char> > >, std::less<std::pair<std::__cxx11::basic_string<char, std::char_traits<char>, std::allocator<char> >, std::__cxx11::basic_string<char, std::char_traits<char>, std::allocator<char> > > >, std::allocator<std::pair<std::__cxx11::basic_string<char, std::char_traits<char>, std::allocator<char> >, std::__cxx11::basic_string<char, std::char_traits<char>, std::allocator<char> > > > > >, std::_Select1st<std::pair<std::pair<std::__cxx11::basic_string<char, std::char_traits<char>, std::allocator<char> >, std::__cxx11::basic_string<char, std::char_traits<char>, std::allocator<char> > > const, std::set<std::pair<std::__cxx11::basic_string<char, std::char_traits<char>, std::allocator<char> >, std::__cxx11::basic_string<char, std::char_traits<char>, std::allocator<char> > >, std::less<std::pair<std::__cxx11::basic_string<char, std::char_traits<char>, std::allocator<char> >, std::__cxx11::basic_string<char, std::char_traits<char>, std::allocator<char> > > >, std::allocator<std::pair<std::__cxx11::basic_string<char, std::char_traits<char>, std::allocator<char> >, std::__cxx11::basic_string<char, std::char_traits<char>, std::allocator<char> > > > > > >, std::less<std::pair<std::__cxx11::basic_string<char, std::char_traits<char>, std::allocator<char> >, std::__cxx11::basic_string<char, std::char_traits<char>, std::allocator<char> > > >, std::allocator<std::pair<std::pair<std::__cxx11::basic_string<char, std::char_traits<char>, std::allocator<char> >, std::__cxx11::basic_string<char, std::char_traits<char>, std::allocator<char> > > const, std::set<std::pair<std::__cxx11::basic_string<char, std::char_traits<char>, std::allocator<char> >, std::__cxx11::basic_string<char, std::char_traits<char>, std::allocator<char> > >, std::less<std::pair<std::__cxx11::basic_string<char, std::char_traits<char>, std::allocator<char> >, std::__cxx11::basic_string<char, std::char_traits<char>, std::allocator<char> > > >, std::allocator<std::pair<std::__cxx11::basic_string<char, std::char_traits<char>, std::allocator<char> >, std::__cxx11::basic_string<char, std::char_traits<char>, std::allocator<char> > > > > > > >::_M_get_insert_unique_pos(std::pair<std::__cxx11::basic_string<char, std::char_traits<char>, std::allocator<char> >, std::__cxx11::basic_string<char, std::char_traits<char>, std::allocator<char> > > const&)
PUBLIC 4d960 0 std::_Rb_tree<std::pair<std::__cxx11::basic_string<char, std::char_traits<char>, std::allocator<char> >, std::__cxx11::basic_string<char, std::char_traits<char>, std::allocator<char> > >, std::pair<std::pair<std::__cxx11::basic_string<char, std::char_traits<char>, std::allocator<char> >, std::__cxx11::basic_string<char, std::char_traits<char>, std::allocator<char> > > const, std::set<std::pair<std::__cxx11::basic_string<char, std::char_traits<char>, std::allocator<char> >, std::__cxx11::basic_string<char, std::char_traits<char>, std::allocator<char> > >, std::less<std::pair<std::__cxx11::basic_string<char, std::char_traits<char>, std::allocator<char> >, std::__cxx11::basic_string<char, std::char_traits<char>, std::allocator<char> > > >, std::allocator<std::pair<std::__cxx11::basic_string<char, std::char_traits<char>, std::allocator<char> >, std::__cxx11::basic_string<char, std::char_traits<char>, std::allocator<char> > > > > >, std::_Select1st<std::pair<std::pair<std::__cxx11::basic_string<char, std::char_traits<char>, std::allocator<char> >, std::__cxx11::basic_string<char, std::char_traits<char>, std::allocator<char> > > const, std::set<std::pair<std::__cxx11::basic_string<char, std::char_traits<char>, std::allocator<char> >, std::__cxx11::basic_string<char, std::char_traits<char>, std::allocator<char> > >, std::less<std::pair<std::__cxx11::basic_string<char, std::char_traits<char>, std::allocator<char> >, std::__cxx11::basic_string<char, std::char_traits<char>, std::allocator<char> > > >, std::allocator<std::pair<std::__cxx11::basic_string<char, std::char_traits<char>, std::allocator<char> >, std::__cxx11::basic_string<char, std::char_traits<char>, std::allocator<char> > > > > > >, std::less<std::pair<std::__cxx11::basic_string<char, std::char_traits<char>, std::allocator<char> >, std::__cxx11::basic_string<char, std::char_traits<char>, std::allocator<char> > > >, std::allocator<std::pair<std::pair<std::__cxx11::basic_string<char, std::char_traits<char>, std::allocator<char> >, std::__cxx11::basic_string<char, std::char_traits<char>, std::allocator<char> > > const, std::set<std::pair<std::__cxx11::basic_string<char, std::char_traits<char>, std::allocator<char> >, std::__cxx11::basic_string<char, std::char_traits<char>, std::allocator<char> > >, std::less<std::pair<std::__cxx11::basic_string<char, std::char_traits<char>, std::allocator<char> >, std::__cxx11::basic_string<char, std::char_traits<char>, std::allocator<char> > > >, std::allocator<std::pair<std::__cxx11::basic_string<char, std::char_traits<char>, std::allocator<char> >, std::__cxx11::basic_string<char, std::char_traits<char>, std::allocator<char> > > > > > > >::_M_get_insert_hint_unique_pos(std::_Rb_tree_const_iterator<std::pair<std::pair<std::__cxx11::basic_string<char, std::char_traits<char>, std::allocator<char> >, std::__cxx11::basic_string<char, std::char_traits<char>, std::allocator<char> > > const, std::set<std::pair<std::__cxx11::basic_string<char, std::char_traits<char>, std::allocator<char> >, std::__cxx11::basic_string<char, std::char_traits<char>, std::allocator<char> > >, std::less<std::pair<std::__cxx11::basic_string<char, std::char_traits<char>, std::allocator<char> >, std::__cxx11::basic_string<char, std::char_traits<char>, std::allocator<char> > > >, std::allocator<std::pair<std::__cxx11::basic_string<char, std::char_traits<char>, std::allocator<char> >, std::__cxx11::basic_string<char, std::char_traits<char>, std::allocator<char> > > > > > >, std::pair<std::__cxx11::basic_string<char, std::char_traits<char>, std::allocator<char> >, std::__cxx11::basic_string<char, std::char_traits<char>, std::allocator<char> > > const&)
PUBLIC 4dbb0 0 std::_Hashtable<xst_s*, xst_s*, std::allocator<xst_s*>, std::__detail::_Identity, std::equal_to<xst_s*>, std::hash<xst_s*>, std::__detail::_Mod_range_hashing, std::__detail::_Default_ranged_hash, std::__detail::_Prime_rehash_policy, std::__detail::_Hashtable_traits<false, true, true> >::_M_rehash(unsigned long, unsigned long const&)
PUBLIC 4dce0 0 std::_Hashtable<xst_s*, xst_s*, std::allocator<xst_s*>, std::__detail::_Identity, std::equal_to<xst_s*>, std::hash<xst_s*>, std::__detail::_Mod_range_hashing, std::__detail::_Default_ranged_hash, std::__detail::_Prime_rehash_policy, std::__detail::_Hashtable_traits<false, true, true> >::_M_insert_unique_node(unsigned long, unsigned long, std::__detail::_Hash_node<xst_s*, false>*, unsigned long)
PUBLIC 4ddd0 0 void std::__unguarded_linear_insert<__gnu_cxx::__normal_iterator<std::__cxx11::basic_string<char, std::char_traits<char>, std::allocator<char> >*, std::vector<std::__cxx11::basic_string<char, std::char_traits<char>, std::allocator<char> >, std::allocator<std::__cxx11::basic_string<char, std::char_traits<char>, std::allocator<char> > > > >, __gnu_cxx::__ops::_Val_less_iter>(__gnu_cxx::__normal_iterator<std::__cxx11::basic_string<char, std::char_traits<char>, std::allocator<char> >*, std::vector<std::__cxx11::basic_string<char, std::char_traits<char>, std::allocator<char> >, std::allocator<std::__cxx11::basic_string<char, std::char_traits<char>, std::allocator<char> > > > >, __gnu_cxx::__ops::_Val_less_iter)
PUBLIC 4e050 0 void std::__insertion_sort<__gnu_cxx::__normal_iterator<std::__cxx11::basic_string<char, std::char_traits<char>, std::allocator<char> >*, std::vector<std::__cxx11::basic_string<char, std::char_traits<char>, std::allocator<char> >, std::allocator<std::__cxx11::basic_string<char, std::char_traits<char>, std::allocator<char> > > > >, __gnu_cxx::__ops::_Iter_less_iter>(__gnu_cxx::__normal_iterator<std::__cxx11::basic_string<char, std::char_traits<char>, std::allocator<char> >*, std::vector<std::__cxx11::basic_string<char, std::char_traits<char>, std::allocator<char> >, std::allocator<std::__cxx11::basic_string<char, std::char_traits<char>, std::allocator<char> > > > >, __gnu_cxx::__normal_iterator<std::__cxx11::basic_string<char, std::char_traits<char>, std::allocator<char> >*, std::vector<std::__cxx11::basic_string<char, std::char_traits<char>, std::allocator<char> >, std::allocator<std::__cxx11::basic_string<char, std::char_traits<char>, std::allocator<char> > > > >, __gnu_cxx::__ops::_Iter_less_iter)
PUBLIC 4e370 0 std::_Hashtable<void*, void*, std::allocator<void*>, std::__detail::_Identity, std::equal_to<void*>, std::hash<void*>, std::__detail::_Mod_range_hashing, std::__detail::_Default_ranged_hash, std::__detail::_Prime_rehash_policy, std::__detail::_Hashtable_traits<false, true, true> >::_M_rehash(unsigned long, unsigned long const&)
PUBLIC 4e4a0 0 std::_Hashtable<void*, void*, std::allocator<void*>, std::__detail::_Identity, std::equal_to<void*>, std::hash<void*>, std::__detail::_Mod_range_hashing, std::__detail::_Default_ranged_hash, std::__detail::_Prime_rehash_policy, std::__detail::_Hashtable_traits<false, true, true> >::_M_insert_unique_node(unsigned long, unsigned long, std::__detail::_Hash_node<void*, false>*, unsigned long)
PUBLIC 4e590 0 std::pair<std::__detail::_Node_iterator<void*, true, false>, bool> std::_Hashtable<void*, void*, std::allocator<void*>, std::__detail::_Identity, std::equal_to<void*>, std::hash<void*>, std::__detail::_Mod_range_hashing, std::__detail::_Default_ranged_hash, std::__detail::_Prime_rehash_policy, std::__detail::_Hashtable_traits<false, true, true> >::_M_insert<void*, std::__detail::_AllocNode<std::allocator<std::__detail::_Hash_node<void*, false> > > >(void*&&, std::__detail::_AllocNode<std::allocator<std::__detail::_Hash_node<void*, false> > > const&, std::integral_constant<bool, true>, unsigned long)
PUBLIC 4e640 0 std::_Hashtable<std::__cxx11::basic_string<char, std::char_traits<char>, std::allocator<char> >, std::__cxx11::basic_string<char, std::char_traits<char>, std::allocator<char> >, std::allocator<std::__cxx11::basic_string<char, std::char_traits<char>, std::allocator<char> > >, std::__detail::_Identity, std::equal_to<std::__cxx11::basic_string<char, std::char_traits<char>, std::allocator<char> > >, std::hash<std::__cxx11::basic_string<char, std::char_traits<char>, std::allocator<char> > >, std::__detail::_Mod_range_hashing, std::__detail::_Default_ranged_hash, std::__detail::_Prime_rehash_policy, std::__detail::_Hashtable_traits<true, true, true> >::_M_rehash(unsigned long, unsigned long const&)
PUBLIC 4e770 0 std::_Hashtable<std::__cxx11::basic_string<char, std::char_traits<char>, std::allocator<char> >, std::__cxx11::basic_string<char, std::char_traits<char>, std::allocator<char> >, std::allocator<std::__cxx11::basic_string<char, std::char_traits<char>, std::allocator<char> > >, std::__detail::_Identity, std::equal_to<std::__cxx11::basic_string<char, std::char_traits<char>, std::allocator<char> > >, std::hash<std::__cxx11::basic_string<char, std::char_traits<char>, std::allocator<char> > >, std::__detail::_Mod_range_hashing, std::__detail::_Default_ranged_hash, std::__detail::_Prime_rehash_policy, std::__detail::_Hashtable_traits<true, true, true> >::_M_insert_unique_node(unsigned long, unsigned long, std::__detail::_Hash_node<std::__cxx11::basic_string<char, std::char_traits<char>, std::allocator<char> >, true>*, unsigned long)
PUBLIC 4e870 0 std::pair<std::__detail::_Node_iterator<std::__cxx11::basic_string<char, std::char_traits<char>, std::allocator<char> >, true, true>, bool> std::_Hashtable<std::__cxx11::basic_string<char, std::char_traits<char>, std::allocator<char> >, std::__cxx11::basic_string<char, std::char_traits<char>, std::allocator<char> >, std::allocator<std::__cxx11::basic_string<char, std::char_traits<char>, std::allocator<char> > >, std::__detail::_Identity, std::equal_to<std::__cxx11::basic_string<char, std::char_traits<char>, std::allocator<char> > >, std::hash<std::__cxx11::basic_string<char, std::char_traits<char>, std::allocator<char> > >, std::__detail::_Mod_range_hashing, std::__detail::_Default_ranged_hash, std::__detail::_Prime_rehash_policy, std::__detail::_Hashtable_traits<true, true, true> >::_M_insert<std::__cxx11::basic_string<char, std::char_traits<char>, std::allocator<char> > const&, std::__detail::_AllocNode<std::allocator<std::__detail::_Hash_node<std::__cxx11::basic_string<char, std::char_traits<char>, std::allocator<char> >, true> > > >(std::__cxx11::basic_string<char, std::char_traits<char>, std::allocator<char> > const&, std::__detail::_AllocNode<std::allocator<std::__detail::_Hash_node<std::__cxx11::basic_string<char, std::char_traits<char>, std::allocator<char> >, true> > > const&, std::integral_constant<bool, true>, unsigned long)
PUBLIC 4e9b0 0 void std::_Hashtable<std::__cxx11::basic_string<char, std::char_traits<char>, std::allocator<char> >, std::pair<std::__cxx11::basic_string<char, std::char_traits<char>, std::allocator<char> > const, int>, std::allocator<std::pair<std::__cxx11::basic_string<char, std::char_traits<char>, std::allocator<char> > const, int> >, std::__detail::_Select1st, std::equal_to<std::__cxx11::basic_string<char, std::char_traits<char>, std::allocator<char> > >, std::hash<std::__cxx11::basic_string<char, std::char_traits<char>, std::allocator<char> > >, std::__detail::_Mod_range_hashing, std::__detail::_Default_ranged_hash, std::__detail::_Prime_rehash_policy, std::__detail::_Hashtable_traits<true, false, true> >::_M_assign<std::_Hashtable<std::__cxx11::basic_string<char, std::char_traits<char>, std::allocator<char> >, std::pair<std::__cxx11::basic_string<char, std::char_traits<char>, std::allocator<char> > const, int>, std::allocator<std::pair<std::__cxx11::basic_string<char, std::char_traits<char>, std::allocator<char> > const, int> >, std::__detail::_Select1st, std::equal_to<std::__cxx11::basic_string<char, std::char_traits<char>, std::allocator<char> > >, std::hash<std::__cxx11::basic_string<char, std::char_traits<char>, std::allocator<char> > >, std::__detail::_Mod_range_hashing, std::__detail::_Default_ranged_hash, std::__detail::_Prime_rehash_policy, std::__detail::_Hashtable_traits<true, false, true> >::_M_assign(std::_Hashtable<std::__cxx11::basic_string<char, std::char_traits<char>, std::allocator<char> >, std::pair<std::__cxx11::basic_string<char, std::char_traits<char>, std::allocator<char> > const, int>, std::allocator<std::pair<std::__cxx11::basic_string<char, std::char_traits<char>, std::allocator<char> > const, int> >, std::__detail::_Select1st, std::equal_to<std::__cxx11::basic_string<char, std::char_traits<char>, std::allocator<char> > >, std::hash<std::__cxx11::basic_string<char, std::char_traits<char>, std::allocator<char> > >, std::__detail::_Mod_range_hashing, std::__detail::_Default_ranged_hash, std::__detail::_Prime_rehash_policy, std::__detail::_Hashtable_traits<true, false, true> > const&)::{lambda(std::__detail::_Hash_node<std::pair<std::__cxx11::basic_string<char, std::char_traits<char>, std::allocator<char> > const, int>, true> const*)#1}>(std::_Hashtable<std::__cxx11::basic_string<char, std::char_traits<char>, std::allocator<char> >, std::pair<std::__cxx11::basic_string<char, std::char_traits<char>, std::allocator<char> > const, int>, std::allocator<std::pair<std::__cxx11::basic_string<char, std::char_traits<char>, std::allocator<char> > const, int> >, std::__detail::_Select1st, std::equal_to<std::__cxx11::basic_string<char, std::char_traits<char>, std::allocator<char> > >, std::hash<std::__cxx11::basic_string<char, std::char_traits<char>, std::allocator<char> > >, std::__detail::_Mod_range_hashing, std::__detail::_Default_ranged_hash, std::__detail::_Prime_rehash_policy, std::__detail::_Hashtable_traits<true, false, true> > const&, std::_Hashtable<std::__cxx11::basic_string<char, std::char_traits<char>, std::allocator<char> >, std::pair<std::__cxx11::basic_string<char, std::char_traits<char>, std::allocator<char> > const, int>, std::allocator<std::pair<std::__cxx11::basic_string<char, std::char_traits<char>, std::allocator<char> > const, int> >, std::__detail::_Select1st, std::equal_to<std::__cxx11::basic_string<char, std::char_traits<char>, std::allocator<char> > >, std::hash<std::__cxx11::basic_string<char, std::char_traits<char>, std::allocator<char> > >, std::__detail::_Mod_range_hashing, std::__detail::_Default_ranged_hash, std::__detail::_Prime_rehash_policy, std::__detail::_Hashtable_traits<true, false, true> >::_M_assign(std::_Hashtable<std::__cxx11::basic_string<char, std::char_traits<char>, std::allocator<char> >, std::pair<std::__cxx11::basic_string<char, std::char_traits<char>, std::allocator<char> > const, int>, std::allocator<std::pair<std::__cxx11::basic_string<char, std::char_traits<char>, std::allocator<char> > const, int> >, std::__detail::_Select1st, std::equal_to<std::__cxx11::basic_string<char, std::char_traits<char>, std::allocator<char> > >, std::hash<std::__cxx11::basic_string<char, std::char_traits<char>, std::allocator<char> > >, std::__detail::_Mod_range_hashing, std::__detail::_Default_ranged_hash, std::__detail::_Prime_rehash_policy, std::__detail::_Hashtable_traits<true, false, true> > const&)::{lambda(std::__detail::_Hash_node<std::pair<std::__cxx11::basic_string<char, std::char_traits<char>, std::allocator<char> > const, int>, true> const*)#1} const&)
PUBLIC 4eca0 0 void std::__adjust_heap<__gnu_cxx::__normal_iterator<std::__cxx11::basic_string<char, std::char_traits<char>, std::allocator<char> >*, std::vector<std::__cxx11::basic_string<char, std::char_traits<char>, std::allocator<char> >, std::allocator<std::__cxx11::basic_string<char, std::char_traits<char>, std::allocator<char> > > > >, long, std::__cxx11::basic_string<char, std::char_traits<char>, std::allocator<char> >, __gnu_cxx::__ops::_Iter_less_iter>(__gnu_cxx::__normal_iterator<std::__cxx11::basic_string<char, std::char_traits<char>, std::allocator<char> >*, std::vector<std::__cxx11::basic_string<char, std::char_traits<char>, std::allocator<char> >, std::allocator<std::__cxx11::basic_string<char, std::char_traits<char>, std::allocator<char> > > > >, long, long, std::__cxx11::basic_string<char, std::char_traits<char>, std::allocator<char> >, __gnu_cxx::__ops::_Iter_less_iter)
PUBLIC 4f240 0 void std::__make_heap<__gnu_cxx::__normal_iterator<std::__cxx11::basic_string<char, std::char_traits<char>, std::allocator<char> >*, std::vector<std::__cxx11::basic_string<char, std::char_traits<char>, std::allocator<char> >, std::allocator<std::__cxx11::basic_string<char, std::char_traits<char>, std::allocator<char> > > > >, __gnu_cxx::__ops::_Iter_less_iter>(__gnu_cxx::__normal_iterator<std::__cxx11::basic_string<char, std::char_traits<char>, std::allocator<char> >*, std::vector<std::__cxx11::basic_string<char, std::char_traits<char>, std::allocator<char> >, std::allocator<std::__cxx11::basic_string<char, std::char_traits<char>, std::allocator<char> > > > >, __gnu_cxx::__normal_iterator<std::__cxx11::basic_string<char, std::char_traits<char>, std::allocator<char> >*, std::vector<std::__cxx11::basic_string<char, std::char_traits<char>, std::allocator<char> >, std::allocator<std::__cxx11::basic_string<char, std::char_traits<char>, std::allocator<char> > > > >, __gnu_cxx::__ops::_Iter_less_iter&)
PUBLIC 4f3a0 0 std::_Rb_tree<std::pair<std::__cxx11::basic_string<char, std::char_traits<char>, std::allocator<char> >, std::__cxx11::basic_string<char, std::char_traits<char>, std::allocator<char> > >, std::pair<std::__cxx11::basic_string<char, std::char_traits<char>, std::allocator<char> >, std::__cxx11::basic_string<char, std::char_traits<char>, std::allocator<char> > >, std::_Identity<std::pair<std::__cxx11::basic_string<char, std::char_traits<char>, std::allocator<char> >, std::__cxx11::basic_string<char, std::char_traits<char>, std::allocator<char> > > >, std::less<std::pair<std::__cxx11::basic_string<char, std::char_traits<char>, std::allocator<char> >, std::__cxx11::basic_string<char, std::char_traits<char>, std::allocator<char> > > >, std::allocator<std::pair<std::__cxx11::basic_string<char, std::char_traits<char>, std::allocator<char> >, std::__cxx11::basic_string<char, std::char_traits<char>, std::allocator<char> > > > >::_M_erase(std::_Rb_tree_node<std::pair<std::__cxx11::basic_string<char, std::char_traits<char>, std::allocator<char> >, std::__cxx11::basic_string<char, std::char_traits<char>, std::allocator<char> > > >*)
PUBLIC 4f420 0 std::_Rb_tree<std::pair<std::__cxx11::basic_string<char, std::char_traits<char>, std::allocator<char> >, std::__cxx11::basic_string<char, std::char_traits<char>, std::allocator<char> > >, std::pair<std::pair<std::__cxx11::basic_string<char, std::char_traits<char>, std::allocator<char> >, std::__cxx11::basic_string<char, std::char_traits<char>, std::allocator<char> > > const, std::set<std::pair<std::__cxx11::basic_string<char, std::char_traits<char>, std::allocator<char> >, std::__cxx11::basic_string<char, std::char_traits<char>, std::allocator<char> > >, std::less<std::pair<std::__cxx11::basic_string<char, std::char_traits<char>, std::allocator<char> >, std::__cxx11::basic_string<char, std::char_traits<char>, std::allocator<char> > > >, std::allocator<std::pair<std::__cxx11::basic_string<char, std::char_traits<char>, std::allocator<char> >, std::__cxx11::basic_string<char, std::char_traits<char>, std::allocator<char> > > > > >, std::_Select1st<std::pair<std::pair<std::__cxx11::basic_string<char, std::char_traits<char>, std::allocator<char> >, std::__cxx11::basic_string<char, std::char_traits<char>, std::allocator<char> > > const, std::set<std::pair<std::__cxx11::basic_string<char, std::char_traits<char>, std::allocator<char> >, std::__cxx11::basic_string<char, std::char_traits<char>, std::allocator<char> > >, std::less<std::pair<std::__cxx11::basic_string<char, std::char_traits<char>, std::allocator<char> >, std::__cxx11::basic_string<char, std::char_traits<char>, std::allocator<char> > > >, std::allocator<std::pair<std::__cxx11::basic_string<char, std::char_traits<char>, std::allocator<char> >, std::__cxx11::basic_string<char, std::char_traits<char>, std::allocator<char> > > > > > >, std::less<std::pair<std::__cxx11::basic_string<char, std::char_traits<char>, std::allocator<char> >, std::__cxx11::basic_string<char, std::char_traits<char>, std::allocator<char> > > >, std::allocator<std::pair<std::pair<std::__cxx11::basic_string<char, std::char_traits<char>, std::allocator<char> >, std::__cxx11::basic_string<char, std::char_traits<char>, std::allocator<char> > > const, std::set<std::pair<std::__cxx11::basic_string<char, std::char_traits<char>, std::allocator<char> >, std::__cxx11::basic_string<char, std::char_traits<char>, std::allocator<char> > >, std::less<std::pair<std::__cxx11::basic_string<char, std::char_traits<char>, std::allocator<char> >, std::__cxx11::basic_string<char, std::char_traits<char>, std::allocator<char> > > >, std::allocator<std::pair<std::__cxx11::basic_string<char, std::char_traits<char>, std::allocator<char> >, std::__cxx11::basic_string<char, std::char_traits<char>, std::allocator<char> > > > > > > >::_M_erase(std::_Rb_tree_node<std::pair<std::pair<std::__cxx11::basic_string<char, std::char_traits<char>, std::allocator<char> >, std::__cxx11::basic_string<char, std::char_traits<char>, std::allocator<char> > > const, std::set<std::pair<std::__cxx11::basic_string<char, std::char_traits<char>, std::allocator<char> >, std::__cxx11::basic_string<char, std::char_traits<char>, std::allocator<char> > >, std::less<std::pair<std::__cxx11::basic_string<char, std::char_traits<char>, std::allocator<char> >, std::__cxx11::basic_string<char, std::char_traits<char>, std::allocator<char> > > >, std::allocator<std::pair<std::__cxx11::basic_string<char, std::char_traits<char>, std::allocator<char> >, std::__cxx11::basic_string<char, std::char_traits<char>, std::allocator<char> > > > > > >*)
PUBLIC 4f520 0 std::map<std::pair<std::__cxx11::basic_string<char, std::char_traits<char>, std::allocator<char> >, std::__cxx11::basic_string<char, std::char_traits<char>, std::allocator<char> > >, std::set<std::pair<std::__cxx11::basic_string<char, std::char_traits<char>, std::allocator<char> >, std::__cxx11::basic_string<char, std::char_traits<char>, std::allocator<char> > >, std::less<std::pair<std::__cxx11::basic_string<char, std::char_traits<char>, std::allocator<char> >, std::__cxx11::basic_string<char, std::char_traits<char>, std::allocator<char> > > >, std::allocator<std::pair<std::__cxx11::basic_string<char, std::char_traits<char>, std::allocator<char> >, std::__cxx11::basic_string<char, std::char_traits<char>, std::allocator<char> > > > >, std::less<std::pair<std::__cxx11::basic_string<char, std::char_traits<char>, std::allocator<char> >, std::__cxx11::basic_string<char, std::char_traits<char>, std::allocator<char> > > >, std::allocator<std::pair<std::pair<std::__cxx11::basic_string<char, std::char_traits<char>, std::allocator<char> >, std::__cxx11::basic_string<char, std::char_traits<char>, std::allocator<char> > > const, std::set<std::pair<std::__cxx11::basic_string<char, std::char_traits<char>, std::allocator<char> >, std::__cxx11::basic_string<char, std::char_traits<char>, std::allocator<char> > >, std::less<std::pair<std::__cxx11::basic_string<char, std::char_traits<char>, std::allocator<char> >, std::__cxx11::basic_string<char, std::char_traits<char>, std::allocator<char> > > >, std::allocator<std::pair<std::__cxx11::basic_string<char, std::char_traits<char>, std::allocator<char> >, std::__cxx11::basic_string<char, std::char_traits<char>, std::allocator<char> > > > > > > >::~map()
PUBLIC 4f530 0 Sage::ProtoAPI::get()
PUBLIC 4f820 0 Sage::Logger::~Logger()
PUBLIC 4f870 0 Sage::Logger::Logger(bool)
PUBLIC 4f8a0 0 Sage::Logger::Logger()
PUBLIC 4ffd0 0 std::__cxx11::basic_string<char, std::char_traits<char>, std::allocator<char> > __gnu_cxx::__to_xstring<std::__cxx11::basic_string<char, std::char_traits<char>, std::allocator<char> >, char>(int (*)(char*, unsigned long, char const*, __va_list_tag*), unsigned long, char const*, ...)
PUBLIC 50100 0 void (anonymous namespace)::hash_combine<unsigned int>(unsigned int&, unsigned int const&)
PUBLIC 50160 0 (anonymous namespace)::emptyFilter(std::__cxx11::basic_string<char, std::char_traits<char>, std::allocator<char> > const&)
PUBLIC 50180 0 std::__cxx11::basic_string<char, std::char_traits<char>, std::allocator<char> >::basic_string(char const*, std::allocator<char> const&) [clone .isra.0]
PUBLIC 50240 0 (anonymous namespace)::dumpMsgStr(std::__cxx11::basic_string<char, std::char_traits<char>, std::allocator<char> > const&, google::protobuf::Message&)
PUBLIC 50410 0 Sage::checkAllocFailure(void const*, char const*)
PUBLIC 50450 0 (anonymous namespace)::packAnyMsg(google::protobuf::Message&)
PUBLIC 504b0 0 Sage::Proto::markTypeParam(parameterproto::ValuePack&)
PUBLIC 50600 0 Sage::Proto::startHegTextRef()
PUBLIC 506e0 0 Sage::Proto::commWaitAndCleanup()
PUBLIC 50720 0 (anonymous namespace)::trimPath(std::__cxx11::basic_string<char, std::char_traits<char>, std::allocator<char> > const&, int)
PUBLIC 50a50 0 (anonymous namespace)::pathTrimFilter(std::__cxx11::basic_string<char, std::char_traits<char>, std::allocator<char> > const&)
PUBLIC 50a70 0 (anonymous namespace)::passThroughFilter(std::__cxx11::basic_string<char, std::char_traits<char>, std::allocator<char> > const&)
PUBLIC 50aa0 0 Sage::Proto::getByteStream(unsigned char*, unsigned long)
PUBLIC 50c20 0 Sage::Proto::addByteStream(unsigned char*, bool, unsigned long, parameterproto::ValuePack&)
PUBLIC 50e30 0 (anonymous namespace)::createNamedBlockCore(std::__cxx11::basic_string<char, std::char_traits<char>, std::allocator<char> > const&, sourcelocproto::SourceLoc*, hiertreeproto::NamedBlockCore_NamedBlockKind, bool)
PUBLIC 50f50 0 Sage::Proto::addStringValue(char*, unsigned long, parameterproto::ValuePack&)
PUBLIC 511f0 0 std::__detail::_Map_base<std::__cxx11::basic_string<char, std::char_traits<char>, std::allocator<char> >, std::pair<std::__cxx11::basic_string<char, std::char_traits<char>, std::allocator<char> > const, std::__cxx11::basic_string<char, std::char_traits<char>, std::allocator<char> > (*)(std::__cxx11::basic_string<char, std::char_traits<char>, std::allocator<char> > const&)>, std::allocator<std::pair<std::__cxx11::basic_string<char, std::char_traits<char>, std::allocator<char> > const, std::__cxx11::basic_string<char, std::char_traits<char>, std::allocator<char> > (*)(std::__cxx11::basic_string<char, std::char_traits<char>, std::allocator<char> > const&)> >, std::__detail::_Select1st, std::equal_to<std::__cxx11::basic_string<char, std::char_traits<char>, std::allocator<char> > >, std::hash<std::__cxx11::basic_string<char, std::char_traits<char>, std::allocator<char> > >, std::__detail::_Mod_range_hashing, std::__detail::_Default_ranged_hash, std::__detail::_Prime_rehash_policy, std::__detail::_Hashtable_traits<true, false, true>, true>::operator[](std::__cxx11::basic_string<char, std::char_traits<char>, std::allocator<char> >&&) [clone .constprop.0]
PUBLIC 51320 0 Sage::Proto::commInit(char const*, bool, bool)
PUBLIC 52050 0 Sage::Proto::finishType(Sage::Wrapper<parameterproto::ParameterBasicInfo>&)
PUBLIC 521e0 0 Sage::Proto::finishType(Sage::Wrapper<hiertreeproto::Signal>&)
PUBLIC 52370 0 (anonymous namespace)::dumpHegDelayedRefs(int)
PUBLIC 524c0 0 (anonymous namespace)::dumpHegRef(int, int, std::__cxx11::basic_string<char, std::char_traits<char>, std::allocator<char> > const&, unsigned int) [clone .constprop.0]
PUBLIC 526b0 0 Sage::Proto::addHegTextRef(int, hegproto::TextRef&)
PUBLIC 527b0 0 (anonymous namespace)::send(google::protobuf::Message&, bool)
PUBLIC 52ad0 0 (anonymous namespace)::processHierEdgeMsg(int, int, hiertreeproto::Edge_EdgeKind, bool)
PUBLIC 52db0 0 Sage::Proto::recordHierEdge(int, int, hiertreeproto::Edge_EdgeKind)
PUBLIC 52df0 0 (anonymous namespace)::send(google::protobuf::Message&, bool) [clone .constprop.0]
PUBLIC 53000 0 Sage::Proto::recordHegDataMsg(hegproto::Data_Type)
PUBLIC 53080 0 (anonymous namespace)::processOoprTargetMsg(std::__cxx11::basic_string<char, std::char_traits<char>, std::allocator<char> > const&, std::__cxx11::basic_string<char, std::char_traits<char>, std::allocator<char> > const&, int, bool)
PUBLIC 532f0 0 Sage::Proto::recordOoprTarget(std::__cxx11::basic_string<char, std::char_traits<char>, std::allocator<char> > const&, std::__cxx11::basic_string<char, std::char_traits<char>, std::allocator<char> > const&, int)
PUBLIC 53330 0 (anonymous namespace)::processOoprExternMsg(int, std::__cxx11::basic_string<char, std::char_traits<char>, std::allocator<char> > const&, std::__cxx11::basic_string<char, std::char_traits<char>, std::allocator<char> > const&, bool, int, bool)
PUBLIC 536f0 0 Sage::Proto::recordOoprExtern(int, std::__cxx11::basic_string<char, std::char_traits<char>, std::allocator<char> > const&, std::__cxx11::basic_string<char, std::char_traits<char>, std::allocator<char> > const&, bool, int)
PUBLIC 53750 0 (anonymous namespace)::processTopInstanceMsg(int, bool)
PUBLIC 538e0 0 Sage::Proto::recordTopInstance(int)
PUBLIC 53910 0 (anonymous namespace)::processModuleItemPartitionMsg(int, std::__cxx11::basic_string<char, std::char_traits<char>, std::allocator<char> > const&, std::__cxx11::basic_string<char, std::char_traits<char>, std::allocator<char> > const&, std::__cxx11::basic_string<char, std::char_traits<char>, std::allocator<char> > const&, std::__cxx11::basic_string<char, std::char_traits<char>, std::allocator<char> > const&, int, bool)
PUBLIC 53c80 0 Sage::Proto::recordModuleItemPartition(int, std::__cxx11::basic_string<char, std::char_traits<char>, std::allocator<char> > const&, std::__cxx11::basic_string<char, std::char_traits<char>, std::allocator<char> > const&, std::__cxx11::basic_string<char, std::char_traits<char>, std::allocator<char> > const&, std::__cxx11::basic_string<char, std::char_traits<char>, std::allocator<char> > const&, int)
PUBLIC 53cf0 0 (anonymous namespace)::processPartitionInfoMsg(int, std::__cxx11::basic_string<char, std::char_traits<char>, std::allocator<char> > const&, std::__cxx11::basic_string<char, std::char_traits<char>, std::allocator<char> > const&, std::__cxx11::basic_string<char, std::char_traits<char>, std::allocator<char> > const&, std::__cxx11::basic_string<char, std::char_traits<char>, std::allocator<char> > const&, std::__cxx11::basic_string<char, std::char_traits<char>, std::allocator<char> > const&, std::__cxx11::basic_string<char, std::char_traits<char>, std::allocator<char> > const&, bool)
PUBLIC 54220 0 Sage::Proto::recordPartitionInfo(int, std::__cxx11::basic_string<char, std::char_traits<char>, std::allocator<char> > const&, std::__cxx11::basic_string<char, std::char_traits<char>, std::allocator<char> > const&, std::__cxx11::basic_string<char, std::char_traits<char>, std::allocator<char> > const&, std::__cxx11::basic_string<char, std::char_traits<char>, std::allocator<char> > const&, std::__cxx11::basic_string<char, std::char_traits<char>, std::allocator<char> > const&, std::__cxx11::basic_string<char, std::char_traits<char>, std::allocator<char> > const&)
PUBLIC 54290 0 Sage::Proto::finishHegTextRef(hegproto::TextRef&)
PUBLIC 54340 0 Sage::Proto::finishHegMacroRef(hegproto::MacroRef&)
PUBLIC 543f0 0 (anonymous namespace)::processAttributeMsg(std::__cxx11::basic_string<char, std::char_traits<char>, std::allocator<char> > const&, std::__cxx11::basic_string<char, std::char_traits<char>, std::allocator<char> > const&, bool)
PUBLIC 54740 0 Sage::Proto::recordAttribute(std::__cxx11::basic_string<char, std::char_traits<char>, std::allocator<char> > const&, std::__cxx11::basic_string<char, std::char_traits<char>, std::allocator<char> > const&)
PUBLIC 54780 0 Sage::Proto::finishHierNodeType(hiertreeproto::ModuleItem&)
PUBLIC 547a0 0 (anonymous namespace)::dumpSrcLoc(Sage::GenSrcLoc const&)
PUBLIC 54cf0 0 (anonymous namespace)::dumpRegressionMsg(int, std::__cxx11::basic_string<char, std::char_traits<char>, std::allocator<char> > const&, google::protobuf::Message&, Sage::GenSrcLoc const&)
PUBLIC 54ea0 0 (anonymous namespace)::dumpRegressionMsg(int, std::__cxx11::basic_string<char, std::char_traits<char>, std::allocator<char> > const&, Sage::GenSrcLoc const&)
PUBLIC 55160 0 (anonymous namespace)::createSourceLoc(Sage::GenSrcLoc const&, bool) [clone .constprop.0]
PUBLIC 55310 0 (anonymous namespace)::processHierNodeMsg(int, std::__cxx11::basic_string<char, std::char_traits<char>, std::allocator<char> > const&, Sage::GenSrcLoc const&, bool)
PUBLIC 555f0 0 Sage::Proto::recordHierNode(int, std::__cxx11::basic_string<char, std::char_traits<char>, std::allocator<char> > const&, Sage::GenSrcLoc const&)
PUBLIC 55630 0 (anonymous namespace)::processHierNodeTypeMsg(int, int, std::__cxx11::basic_string<char, std::char_traits<char>, std::allocator<char> > const&, std::__cxx11::basic_string<char, std::char_traits<char>, std::allocator<char> > const&, Sage::GenSrcLoc const&, hiertreeproto::NamedBlockCore_NamedBlockKind, bool)
PUBLIC 55940 0 Sage::Proto::startHierNodeType(int, int, std::__cxx11::basic_string<char, std::char_traits<char>, std::allocator<char> > const&, std::__cxx11::basic_string<char, std::char_traits<char>, std::allocator<char> > const&, Sage::GenSrcLoc const&, hiertreeproto::NamedBlockCore_NamedBlockKind)
PUBLIC 559b0 0 (anonymous namespace)::processPrimitiveTypeMsg(int, std::__cxx11::basic_string<char, std::char_traits<char>, std::allocator<char> > const&, Sage::GenSrcLoc const&, hiertreeproto::NamedBlockCore_NamedBlockKind, bool)
PUBLIC 55bf0 0 Sage::Proto::recordPrimitiveType(int, std::__cxx11::basic_string<char, std::char_traits<char>, std::allocator<char> > const&, Sage::GenSrcLoc const&, hiertreeproto::NamedBlockCore_NamedBlockKind)
PUBLIC 55c40 0 (anonymous namespace)::processGenvarMsg(int, std::__cxx11::basic_string<char, std::char_traits<char>, std::allocator<char> > const&, Sage::GenSrcLoc const&, int, bool)
PUBLIC 55f30 0 Sage::Proto::recordGenvar(int, std::__cxx11::basic_string<char, std::char_traits<char>, std::allocator<char> > const&, Sage::GenSrcLoc const&, int)
PUBLIC 55f80 0 (anonymous namespace)::processStitchPointMsg(int, std::__cxx11::basic_string<char, std::char_traits<char>, std::allocator<char> > const&, std::__cxx11::basic_string<char, std::char_traits<char>, std::allocator<char> > const&, std::__cxx11::basic_string<char, std::char_traits<char>, std::allocator<char> > const&, int, Sage::GenSrcLoc const&, bool)
PUBLIC 56480 0 Sage::Proto::recordStitchPoint(int, std::__cxx11::basic_string<char, std::char_traits<char>, std::allocator<char> > const&, std::__cxx11::basic_string<char, std::char_traits<char>, std::allocator<char> > const&, std::__cxx11::basic_string<char, std::char_traits<char>, std::allocator<char> > const&, int, Sage::GenSrcLoc const&)
PUBLIC 564f0 0 (anonymous namespace)::processHegMacroElem(std::__cxx11::basic_string<char, std::char_traits<char>, std::allocator<char> > const&, hegproto::MacroElement_Type, Sage::GenSrcLoc const&, int, hegproto::MacroElement*)
PUBLIC 569e0 0 Sage::Proto::addHegMacroElem(std::__cxx11::basic_string<char, std::char_traits<char>, std::allocator<char> > const&, hegproto::MacroElement_Type, Sage::GenSrcLoc const&, int, hegproto::MacroRef&)
PUBLIC 56aa0 0 Sage::Proto::addHegMacroElem(std::__cxx11::basic_string<char, std::char_traits<char>, std::allocator<char> > const&, hegproto::MacroElement_Type, Sage::GenSrcLoc const&, int, hegproto::MacroArg&)
PUBLIC 56b90 0 Sage::Proto::startParam(hiertreeproto::ModuleItem&, int, std::__cxx11::basic_string<char, std::char_traits<char>, std::allocator<char> > const&, Sage::GenSrcLoc const&)
PUBLIC 56e90 0 Sage::Proto::startSignal(hiertreeproto::ModuleItem&, int, std::__cxx11::basic_string<char, std::char_traits<char>, std::allocator<char> > const&, Sage::GenSrcLoc const&, bool, bool, bool, hiertreeproto::Signal_SigVis)
PUBLIC 571d0 0 Sage::Proto::startHegMacroRef(int, Sage::GenSrcLoc const&, int, int, int, std::__cxx11::basic_string<char, std::char_traits<char>, std::allocator<char> > const&, bool)
PUBLIC 573c0 0 Sage::Proto::startHegMacroArg(Sage::GenSrcLoc const&, hegproto::MacroRef&)
PUBLIC 576b0 0 Sage::Proto::addPredefinedType(std::__cxx11::basic_string<char, std::char_traits<char>, std::allocator<char> > const&, bool, bool, bool, typeinfoproto::PredefinedType_Type, Sage::Wrapper<parameterproto::ParameterBasicInfo>&)
PUBLIC 57940 0 Sage::Proto::addPredefinedType(std::__cxx11::basic_string<char, std::char_traits<char>, std::allocator<char> > const&, bool, bool, bool, typeinfoproto::PredefinedType_Type, Sage::Wrapper<hiertreeproto::Signal>&)
PUBLIC 57b00 0 Sage::Proto::addStruct(std::__cxx11::basic_string<char, std::char_traits<char>, std::allocator<char> > const&, bool, bool, bool, bool, std::tuple<bool, bool, long, long>&, Sage::Wrapper<parameterproto::ParameterBasicInfo>&)
PUBLIC 57e40 0 Sage::Proto::addStruct(std::__cxx11::basic_string<char, std::char_traits<char>, std::allocator<char> > const&, bool, bool, bool, bool, std::tuple<bool, bool, long, long>&, Sage::Wrapper<hiertreeproto::Signal>&)
PUBLIC 580e0 0 Sage::Proto::addUnion(std::__cxx11::basic_string<char, std::char_traits<char>, std::allocator<char> > const&, bool, bool, bool, bool, std::tuple<bool, bool, long, long>&, Sage::Wrapper<parameterproto::ParameterBasicInfo>&)
PUBLIC 58410 0 Sage::Proto::addUnion(std::__cxx11::basic_string<char, std::char_traits<char>, std::allocator<char> > const&, bool, bool, bool, bool, std::tuple<bool, bool, long, long>&, Sage::Wrapper<hiertreeproto::Signal>&)
PUBLIC 586a0 0 Sage::Proto::finishComposite(Sage::Wrapper<parameterproto::ParameterBasicInfo>&)
PUBLIC 58910 0 Sage::Proto::finishComposite(Sage::Wrapper<hiertreeproto::Signal>&)
PUBLIC 58aa0 0 Sage::Proto::addField(std::__cxx11::basic_string<char, std::char_traits<char>, std::allocator<char> > const&, typeinfoproto::TypeInfoTree_Type, Sage::Wrapper<parameterproto::ParameterBasicInfo>&)
PUBLIC 58cf0 0 Sage::Proto::addField(std::__cxx11::basic_string<char, std::char_traits<char>, std::allocator<char> > const&, typeinfoproto::TypeInfoTree_Type, Sage::Wrapper<hiertreeproto::Signal>&)
PUBLIC 58e70 0 Sage::Proto::addEnum(std::__cxx11::basic_string<char, std::char_traits<char>, std::allocator<char> > const&, std::vector<std::pair<std::__cxx11::basic_string<char, std::char_traits<char>, std::allocator<char> >, common::ByteStream*>, std::allocator<std::pair<std::__cxx11::basic_string<char, std::char_traits<char>, std::allocator<char> >, common::ByteStream*> > > const&, unsigned long, bool, bool, bool, Sage::Wrapper<hiertreeproto::Signal>&)
PUBLIC 591a0 0 Sage::Proto::addEnum(std::__cxx11::basic_string<char, std::char_traits<char>, std::allocator<char> > const&, std::vector<std::pair<std::__cxx11::basic_string<char, std::char_traits<char>, std::allocator<char> >, common::ByteStream*>, std::allocator<std::pair<std::__cxx11::basic_string<char, std::char_traits<char>, std::allocator<char> >, common::ByteStream*> > > const&, unsigned long, bool, bool, bool, Sage::Wrapper<parameterproto::ParameterBasicInfo>&)
PUBLIC 59570 0 Sage::Proto::addArray(std::__cxx11::basic_string<char, std::char_traits<char>, std::allocator<char> > const&, std::vector<std::tuple<bool, bool, long, long>, std::allocator<std::tuple<bool, bool, long, long> > > const&, typeinfoproto::TypeInfoTree_Type, bool, bool, Sage::Wrapper<parameterproto::ParameterBasicInfo>&)
PUBLIC 59a10 0 Sage::Proto::addArray(std::__cxx11::basic_string<char, std::char_traits<char>, std::allocator<char> > const&, std::vector<std::tuple<bool, bool, long, long>, std::allocator<std::tuple<bool, bool, long, long> > > const&, typeinfoproto::TypeInfoTree_Type, bool, bool, Sage::Wrapper<hiertreeproto::Signal>&)
PUBLIC 59e80 0 Sage::Proto::addQDA(std::__cxx11::basic_string<char, std::char_traits<char>, std::allocator<char> > const&, typeinfoproto::QDAArray_Type, typeinfoproto::TypeInfoTree_Type, typeinfoproto::TypeInfoTree_Type, Sage::Wrapper<parameterproto::ParameterBasicInfo>&)
PUBLIC 5a0f0 0 Sage::Proto::addQDA(std::__cxx11::basic_string<char, std::char_traits<char>, std::allocator<char> > const&, typeinfoproto::QDAArray_Type, typeinfoproto::TypeInfoTree_Type, typeinfoproto::TypeInfoTree_Type, Sage::Wrapper<hiertreeproto::Signal>&)
PUBLIC 5a280 0 Sage::Proto::addClassHandle(std::__cxx11::basic_string<char, std::char_traits<char>, std::allocator<char> > const&, int, int, typeinfoproto::ClassHandle_Type, typeinfoproto::TypeInfoTree_Type, Sage::Wrapper<parameterproto::ParameterBasicInfo>&)
PUBLIC 5a5c0 0 Sage::Proto::addClassHandle(std::__cxx11::basic_string<char, std::char_traits<char>, std::allocator<char> > const&, int, int, typeinfoproto::ClassHandle_Type, typeinfoproto::TypeInfoTree_Type, Sage::Wrapper<hiertreeproto::Signal>&)
PUBLIC 5a8e0 0 Sage::Proto::addVirtualInterface(std::__cxx11::basic_string<char, std::char_traits<char>, std::allocator<char> > const&, int, int, Sage::Wrapper<parameterproto::ParameterBasicInfo>&)
PUBLIC 5ac00 0 Sage::Proto::addVirtualInterface(std::__cxx11::basic_string<char, std::char_traits<char>, std::allocator<char> > const&, int, int, Sage::Wrapper<hiertreeproto::Signal>&)
PUBLIC 5af00 0 Sage::Proto::recordHegVariable(int, std::__cxx11::basic_string<char, std::char_traits<char>, std::allocator<char> > const&, Sage::GenSrcLoc const&)
PUBLIC 5b070 0 Sage::Proto::recordHegParameter(int, std::__cxx11::basic_string<char, std::char_traits<char>, std::allocator<char> > const&, Sage::GenSrcLoc const&)
PUBLIC 5b1e0 0 Sage::Proto::startHegModule(int, std::__cxx11::basic_string<char, std::char_traits<char>, std::allocator<char> > const&, Sage::GenSrcLoc const&, std::vector<int, std::allocator<int> > const&, bool)
PUBLIC 5b4d0 0 Sage::Proto::recordHegPortDecl(int, std::__cxx11::basic_string<char, std::char_traits<char>, std::allocator<char> > const&, hegproto::PortDecl_Direction, int, Sage::GenSrcLoc const&)
PUBLIC 5b690 0 Sage::Proto::recordHegElemRef(int, int, Sage::GenSrcLoc const&)
PUBLIC 5b7e0 0 Sage::Proto::recordHegConstant(int, std::__cxx11::basic_string<char, std::char_traits<char>, std::allocator<char> > const&, Sage::GenSrcLoc const&)
PUBLIC 5b950 0 Sage::Proto::recordHegInstance(int, int, std::__cxx11::basic_string<char, std::char_traits<char>, std::allocator<char> > const&, std::vector<int, std::allocator<int> > const&, std::vector<int, std::allocator<int> > const&, Sage::GenSrcLoc const&)
PUBLIC 5c010 0 Sage::Proto::recordHegAssignment(int, hegproto::Assign_Type, int, int, Sage::GenSrcLoc const&)
PUBLIC 5c1c0 0 Sage::Proto::recordHegConditional(int, hegproto::ConditionalStmt_Type, int, int, int, Sage::GenSrcLoc const&)
PUBLIC 5c3a0 0 Sage::Proto::recordHegSeqBlock(int, std::__cxx11::basic_string<char, std::char_traits<char>, std::allocator<char> > const&, std::vector<int, std::allocator<int> > const&, Sage::GenSrcLoc const&)
PUBLIC 5c6a0 0 Sage::Proto::recordHegAlways(int, int, Sage::GenSrcLoc const&)
PUBLIC 5c7f0 0 Sage::Proto::recordHegAlwaysEventControl(int, std::vector<int, std::allocator<int> > const&, int, Sage::GenSrcLoc const&)
PUBLIC 5cac0 0 Sage::Proto::recordHegEventExpression(int, hegproto::EventExpression_Type, int, Sage::GenSrcLoc const&)
PUBLIC 5cce0 0 Sage::Proto::recordHegBinaryOp(int, int, int, hegproto::BinaryOperator_Type, Sage::GenSrcLoc const&)
PUBLIC 5ce90 0 Sage::Proto::recordHegIncludeRef(std::__cxx11::basic_string<char, std::char_traits<char>, std::allocator<char> > const&, Sage::GenSrcLoc const&)
PUBLIC 5d2c0 0 Sage::Proto::recordHegSourceChunk(std::__cxx11::basic_string<char, std::char_traits<char>, std::allocator<char> > const&, int, int)
PUBLIC 5d570 0 Sage::Proto::recordHegMacroDef(int, std::__cxx11::basic_string<char, std::char_traits<char>, std::allocator<char> > const&, Sage::GenSrcLoc const&, std::__cxx11::basic_string<char, std::char_traits<char>, std::allocator<char> > const&)
PUBLIC 5d750 0 Sage::Proto::recordHegUnhandledType(int, Sage::GenSrcLoc const&)
PUBLIC 5d8a0 0 Sage::Proto::commSignalShutdown(bool)
PUBLIC 5da00 0 void google::protobuf::internal::arena_destruct_object<std::__cxx11::basic_string<char, std::char_traits<char>, std::allocator<char> > >(void*)
PUBLIC 5da20 0 std::unordered_map<int, unsigned int, std::hash<int>, std::equal_to<int>, std::allocator<std::pair<int const, unsigned int> > >::~unordered_map()
PUBLIC 5daa0 0 std::unordered_set<unsigned int, std::hash<unsigned int>, std::equal_to<unsigned int>, std::allocator<unsigned int> >::~unordered_set()
PUBLIC 5db20 0 std::unordered_map<int, std::vector<unsigned int, std::allocator<unsigned int> >, std::hash<int>, std::equal_to<int>, std::allocator<std::pair<int const, std::vector<unsigned int, std::allocator<unsigned int> > > > >::~unordered_map()
PUBLIC 5dbb0 0 std::unordered_map<std::__cxx11::basic_string<char, std::char_traits<char>, std::allocator<char> >, std::__cxx11::basic_string<char, std::char_traits<char>, std::allocator<char> > (*)(std::__cxx11::basic_string<char, std::char_traits<char>, std::allocator<char> > const&), std::hash<std::__cxx11::basic_string<char, std::char_traits<char>, std::allocator<char> > >, std::equal_to<std::__cxx11::basic_string<char, std::char_traits<char>, std::allocator<char> > >, std::allocator<std::pair<std::__cxx11::basic_string<char, std::char_traits<char>, std::allocator<char> > const, std::__cxx11::basic_string<char, std::char_traits<char>, std::allocator<char> > (*)(std::__cxx11::basic_string<char, std::char_traits<char>, std::allocator<char> > const&)> > >::~unordered_map()
PUBLIC 5dc50 0 google::protobuf::MessageLite::GetArena() const
PUBLIC 5dc70 0 parameterproto::ValuePack::set_allocated_typeinfo(google::protobuf::Any*)
PUBLIC 5dcf0 0 void std::vector<unsigned int, std::allocator<unsigned int> >::_M_realloc_insert<unsigned int const&>(__gnu_cxx::__normal_iterator<unsigned int*, std::vector<unsigned int, std::allocator<unsigned int> > >, unsigned int const&)
PUBLIC 5de60 0 void std::__cxx11::basic_string<char, std::char_traits<char>, std::allocator<char> >::_M_construct<char*>(char*, char*, std::forward_iterator_tag)
PUBLIC 5df00 0 google::protobuf::internal::ArenaStringPtr::CreateInstance(google::protobuf::Arena*, std::__cxx11::basic_string<char, std::char_traits<char>, std::allocator<char> > const*)
PUBLIC 5e050 0 std::_Hashtable<std::__cxx11::basic_string<char, std::char_traits<char>, std::allocator<char> >, std::pair<std::__cxx11::basic_string<char, std::char_traits<char>, std::allocator<char> > const, std::__cxx11::basic_string<char, std::char_traits<char>, std::allocator<char> > (*)(std::__cxx11::basic_string<char, std::char_traits<char>, std::allocator<char> > const&)>, std::allocator<std::pair<std::__cxx11::basic_string<char, std::char_traits<char>, std::allocator<char> > const, std::__cxx11::basic_string<char, std::char_traits<char>, std::allocator<char> > (*)(std::__cxx11::basic_string<char, std::char_traits<char>, std::allocator<char> > const&)> >, std::__detail::_Select1st, std::equal_to<std::__cxx11::basic_string<char, std::char_traits<char>, std::allocator<char> > >, std::hash<std::__cxx11::basic_string<char, std::char_traits<char>, std::allocator<char> > >, std::__detail::_Mod_range_hashing, std::__detail::_Default_ranged_hash, std::__detail::_Prime_rehash_policy, std::__detail::_Hashtable_traits<true, false, true> >::_M_rehash(unsigned long, unsigned long const&)
PUBLIC 5e180 0 std::_Hashtable<std::__cxx11::basic_string<char, std::char_traits<char>, std::allocator<char> >, std::pair<std::__cxx11::basic_string<char, std::char_traits<char>, std::allocator<char> > const, std::__cxx11::basic_string<char, std::char_traits<char>, std::allocator<char> > (*)(std::__cxx11::basic_string<char, std::char_traits<char>, std::allocator<char> > const&)>, std::allocator<std::pair<std::__cxx11::basic_string<char, std::char_traits<char>, std::allocator<char> > const, std::__cxx11::basic_string<char, std::char_traits<char>, std::allocator<char> > (*)(std::__cxx11::basic_string<char, std::char_traits<char>, std::allocator<char> > const&)> >, std::__detail::_Select1st, std::equal_to<std::__cxx11::basic_string<char, std::char_traits<char>, std::allocator<char> > >, std::hash<std::__cxx11::basic_string<char, std::char_traits<char>, std::allocator<char> > >, std::__detail::_Mod_range_hashing, std::__detail::_Default_ranged_hash, std::__detail::_Prime_rehash_policy, std::__detail::_Hashtable_traits<true, false, true> >::_M_insert_unique_node(unsigned long, unsigned long, std::__detail::_Hash_node<std::pair<std::__cxx11::basic_string<char, std::char_traits<char>, std::allocator<char> > const, std::__cxx11::basic_string<char, std::char_traits<char>, std::allocator<char> > (*)(std::__cxx11::basic_string<char, std::char_traits<char>, std::allocator<char> > const&)>, true>*, unsigned long)
PUBLIC 5e280 0 std::__detail::_Map_base<std::__cxx11::basic_string<char, std::char_traits<char>, std::allocator<char> >, std::pair<std::__cxx11::basic_string<char, std::char_traits<char>, std::allocator<char> > const, std::__cxx11::basic_string<char, std::char_traits<char>, std::allocator<char> > (*)(std::__cxx11::basic_string<char, std::char_traits<char>, std::allocator<char> > const&)>, std::allocator<std::pair<std::__cxx11::basic_string<char, std::char_traits<char>, std::allocator<char> > const, std::__cxx11::basic_string<char, std::char_traits<char>, std::allocator<char> > (*)(std::__cxx11::basic_string<char, std::char_traits<char>, std::allocator<char> > const&)> >, std::__detail::_Select1st, std::equal_to<std::__cxx11::basic_string<char, std::char_traits<char>, std::allocator<char> > >, std::hash<std::__cxx11::basic_string<char, std::char_traits<char>, std::allocator<char> > >, std::__detail::_Mod_range_hashing, std::__detail::_Default_ranged_hash, std::__detail::_Prime_rehash_policy, std::__detail::_Hashtable_traits<true, false, true>, true>::operator[](std::__cxx11::basic_string<char, std::char_traits<char>, std::allocator<char> > const&)
PUBLIC 5e3b0 0 std::_Hashtable<int, std::pair<int const, unsigned int>, std::allocator<std::pair<int const, unsigned int> >, std::__detail::_Select1st, std::equal_to<int>, std::hash<int>, std::__detail::_Mod_range_hashing, std::__detail::_Default_ranged_hash, std::__detail::_Prime_rehash_policy, std::__detail::_Hashtable_traits<false, false, true> >::_M_rehash(unsigned long, unsigned long const&)
PUBLIC 5e4e0 0 std::_Hashtable<int, std::pair<int const, unsigned int>, std::allocator<std::pair<int const, unsigned int> >, std::__detail::_Select1st, std::equal_to<int>, std::hash<int>, std::__detail::_Mod_range_hashing, std::__detail::_Default_ranged_hash, std::__detail::_Prime_rehash_policy, std::__detail::_Hashtable_traits<false, false, true> >::_M_insert_unique_node(unsigned long, unsigned long, std::__detail::_Hash_node<std::pair<int const, unsigned int>, false>*, unsigned long)
PUBLIC 5e5d0 0 std::__detail::_Map_base<int, std::pair<int const, unsigned int>, std::allocator<std::pair<int const, unsigned int> >, std::__detail::_Select1st, std::equal_to<int>, std::hash<int>, std::__detail::_Mod_range_hashing, std::__detail::_Default_ranged_hash, std::__detail::_Prime_rehash_policy, std::__detail::_Hashtable_traits<false, false, true>, true>::operator[](int const&)
PUBLIC 5e690 0 std::__detail::_Map_base<int, std::pair<int const, unsigned int>, std::allocator<std::pair<int const, unsigned int> >, std::__detail::_Select1st, std::equal_to<int>, std::hash<int>, std::__detail::_Mod_range_hashing, std::__detail::_Default_ranged_hash, std::__detail::_Prime_rehash_policy, std::__detail::_Hashtable_traits<false, false, true>, true>::operator[](int&&)
PUBLIC 5e750 0 std::_Hashtable<int, std::pair<int const, std::vector<unsigned int, std::allocator<unsigned int> > >, std::allocator<std::pair<int const, std::vector<unsigned int, std::allocator<unsigned int> > > >, std::__detail::_Select1st, std::equal_to<int>, std::hash<int>, std::__detail::_Mod_range_hashing, std::__detail::_Default_ranged_hash, std::__detail::_Prime_rehash_policy, std::__detail::_Hashtable_traits<false, false, true> >::_M_rehash(unsigned long, unsigned long const&)
PUBLIC 5e880 0 std::_Hashtable<int, std::pair<int const, std::vector<unsigned int, std::allocator<unsigned int> > >, std::allocator<std::pair<int const, std::vector<unsigned int, std::allocator<unsigned int> > > >, std::__detail::_Select1st, std::equal_to<int>, std::hash<int>, std::__detail::_Mod_range_hashing, std::__detail::_Default_ranged_hash, std::__detail::_Prime_rehash_policy, std::__detail::_Hashtable_traits<false, false, true> >::_M_insert_unique_node(unsigned long, unsigned long, std::__detail::_Hash_node<std::pair<int const, std::vector<unsigned int, std::allocator<unsigned int> > >, false>*, unsigned long)
PUBLIC 5e980 0 std::__detail::_Map_base<int, std::pair<int const, std::vector<unsigned int, std::allocator<unsigned int> > >, std::allocator<std::pair<int const, std::vector<unsigned int, std::allocator<unsigned int> > > >, std::__detail::_Select1st, std::equal_to<int>, std::hash<int>, std::__detail::_Mod_range_hashing, std::__detail::_Default_ranged_hash, std::__detail::_Prime_rehash_policy, std::__detail::_Hashtable_traits<false, false, true>, true>::operator[](int const&)
PUBLIC 5ea40 0 std::_Hashtable<unsigned int, unsigned int, std::allocator<unsigned int>, std::__detail::_Identity, std::equal_to<unsigned int>, std::hash<unsigned int>, std::__detail::_Mod_range_hashing, std::__detail::_Default_ranged_hash, std::__detail::_Prime_rehash_policy, std::__detail::_Hashtable_traits<false, true, true> >::_M_rehash(unsigned long, unsigned long const&)
PUBLIC 5eb70 0 std::_Hashtable<unsigned int, unsigned int, std::allocator<unsigned int>, std::__detail::_Identity, std::equal_to<unsigned int>, std::hash<unsigned int>, std::__detail::_Mod_range_hashing, std::__detail::_Default_ranged_hash, std::__detail::_Prime_rehash_policy, std::__detail::_Hashtable_traits<false, true, true> >::_M_insert_unique_node(unsigned long, unsigned long, std::__detail::_Hash_node<unsigned int, false>*, unsigned long)
PUBLIC 5ec60 0 Sage::loadLib(char const*)
PUBLIC 5eff0 0 Sage::loadFunc(void*, char const*)
PUBLIC 5f090 0 Sage::ArrayValue::record(unsigned char*, unsigned long)
PUBLIC 5f100 0 Sage::StructValue::record(unsigned char*, unsigned long)
PUBLIC 5f150 0 Sage::CompoundValue::~CompoundValue()
PUBLIC 5f160 0 Sage::ArrayValue::~ArrayValue()
PUBLIC 5f190 0 Sage::ArrayValue::~ArrayValue()
PUBLIC 5f1b0 0 Sage::StructValue::~StructValue()
PUBLIC 5f210 0 Sage::StructValue::~StructValue()
PUBLIC 5f230 0 Sage::CompoundValue::~CompoundValue()
PUBLIC 5f250 0 Sage::StringValue::record(unsigned char*, unsigned long)
PUBLIC 5f570 0 Sage::BasicValue::record(unsigned char*, unsigned long)
PUBLIC 5f8b0 0 Sage::StringValue::~StringValue()
PUBLIC 5f8d0 0 Sage::StringValue::~StringValue()
PUBLIC 5f900 0 Sage::BasicValue::~BasicValue()
PUBLIC 5f920 0 Sage::BasicValue::~BasicValue()
PUBLIC 5f950 0 (anonymous namespace)::doVectorType<Sage::Wrapper<parameterproto::ParameterBasicInfo> >(std::__cxx11::basic_string<char, std::char_traits<char>, std::allocator<char> > const&, via_external_s, bool, (anonymous namespace)::TypeObj<Sage::Wrapper<parameterproto::ParameterBasicInfo> >&, xst_s*, long*, unsigned long, bool, unsigned char*, unsigned long, bool, bool)::{lambda(via_external_s)#1}::_FUN(via_external_s)
PUBLIC 5f970 0 (anonymous namespace)::doVectorType<Sage::Wrapper<parameterproto::ParameterBasicInfo> >(std::__cxx11::basic_string<char, std::char_traits<char>, std::allocator<char> > const&, via_external_s, bool, (anonymous namespace)::TypeObj<Sage::Wrapper<parameterproto::ParameterBasicInfo> >&, xst_s*, long*, unsigned long, bool, unsigned char*, unsigned long, bool, bool)::{lambda(via_external_s)#2}::_FUN(via_external_s)
PUBLIC 5f9c0 0 (anonymous namespace)::doStaticArrayType<Sage::Wrapper<parameterproto::ParameterBasicInfo> >(std::__cxx11::basic_string<char, std::char_traits<char>, std::allocator<char> > const&, via_external_s, bool, (anonymous namespace)::TypeObj<Sage::Wrapper<parameterproto::ParameterBasicInfo> >&, xst_s*, long*, unsigned char*, unsigned long, bool, bool)::{lambda(via_external_s)#2}::_FUN(via_external_s)
PUBLIC 5f9e0 0 (anonymous namespace)::doVectorType<Sage::Wrapper<hiertreeproto::Signal> >(std::__cxx11::basic_string<char, std::char_traits<char>, std::allocator<char> > const&, via_external_s, bool, (anonymous namespace)::TypeObj<Sage::Wrapper<hiertreeproto::Signal> >&, xst_s*, long*, unsigned long, bool, unsigned char*, unsigned long, bool, bool)::{lambda(via_external_s)#1}::_FUN(via_external_s)
PUBLIC 5fa00 0 (anonymous namespace)::doStaticArrayType<Sage::Wrapper<hiertreeproto::Signal> >(std::__cxx11::basic_string<char, std::char_traits<char>, std::allocator<char> > const&, via_external_s, bool, (anonymous namespace)::TypeObj<Sage::Wrapper<hiertreeproto::Signal> >&, xst_s*, long*, unsigned char*, unsigned long, bool, bool)::{lambda(via_external_s)#2}::_FUN(via_external_s)
PUBLIC 5fa20 0 (anonymous namespace)::doVectorType<Sage::Wrapper<hiertreeproto::Signal> >(std::__cxx11::basic_string<char, std::char_traits<char>, std::allocator<char> > const&, via_external_s, bool, (anonymous namespace)::TypeObj<Sage::Wrapper<hiertreeproto::Signal> >&, xst_s*, long*, unsigned long, bool, unsigned char*, unsigned long, bool, bool)::{lambda(via_external_s)#2}::_FUN(via_external_s)
PUBLIC 5fa70 0 std::__cxx11::basic_string<char, std::char_traits<char>, std::allocator<char> >::basic_string(char const*, std::allocator<char> const&) [clone .isra.0] [clone .constprop.0]
PUBLIC 5fa90 0 (anonymous namespace)::getTypeName(vst_s*, via_external_s, long*)
PUBLIC 5fc90 0 (anonymous namespace)::getTypeInfoType(via_external_s)
PUBLIC 5fef0 0 Sage::Type::getVisibility(via_external_s)
PUBLIC 5ff30 0 (anonymous namespace)::doDimensions(via_external_s, bool, bool, vst_s*&, via_external_s&, std::vector<std::tuple<bool, bool, long, long>, std::allocator<std::tuple<bool, bool, long, long> > >&, bool (&)(via_external_s), bool (*)(via_external_s), Sage::ArrayValue**) [clone .constprop.0]
PUBLIC 60110 0 Sage::Type::recordDanglingTypeRefs(int, std::__cxx11::basic_string<char, std::char_traits<char>, std::allocator<char> > const&, long*)
PUBLIC 60750 0 (anonymous namespace)::TypeObj<Sage::Wrapper<parameterproto::ParameterBasicInfo> >::finishComposite() [clone .isra.0]
PUBLIC 60a50 0 (anonymous namespace)::TypeObj<Sage::Wrapper<hiertreeproto::Signal> >::finishComposite() [clone .isra.0]
PUBLIC 60d50 0 Sage::CompoundValue* (anonymous namespace)::doPredefType<Sage::Wrapper<parameterproto::ParameterBasicInfo> >(std::__cxx11::basic_string<char, std::char_traits<char>, std::allocator<char> > const&, bool, typeinfoproto::PredefinedType_Type, (anonymous namespace)::TypeObj<Sage::Wrapper<parameterproto::ParameterBasicInfo> >&, bool, bool, unsigned long, bool, unsigned char*)
PUBLIC 61190 0 Sage::CompoundValue* (anonymous namespace)::doPredefType<Sage::Wrapper<hiertreeproto::Signal> >(std::__cxx11::basic_string<char, std::char_traits<char>, std::allocator<char> > const&, bool, typeinfoproto::PredefinedType_Type, (anonymous namespace)::TypeObj<Sage::Wrapper<hiertreeproto::Signal> >&, bool, bool, unsigned long, bool, unsigned char*)
PUBLIC 615d0 0 Sage::CompoundValue* (anonymous namespace)::doStructUnionType<Sage::Wrapper<parameterproto::ParameterBasicInfo> >(std::__cxx11::basic_string<char, std::char_traits<char>, std::allocator<char> > const&, via_external_s, bool, bool, (anonymous namespace)::TypeObj<Sage::Wrapper<parameterproto::ParameterBasicInfo> >&, unsigned long, bool, unsigned char*, unsigned long, bool, bool)
PUBLIC 62990 0 Sage::CompoundValue* (anonymous namespace)::doObjTypeAndValue<Sage::Wrapper<parameterproto::ParameterBasicInfo> >(vst_s*, via_external_s, (anonymous namespace)::TypeObj<Sage::Wrapper<parameterproto::ParameterBasicInfo> >&, bool, std::__cxx11::basic_string<char, std::char_traits<char>, std::allocator<char> >, unsigned char*, unsigned long, bool)
PUBLIC 653e0 0 Sage::Type::recordParameter(xst_s*, long*, hiertreeproto::ModuleItem&)
PUBLIC 662c0 0 Sage::CompoundValue* (anonymous namespace)::doObjTypeAndValue<Sage::Wrapper<hiertreeproto::Signal> >(vst_s*, via_external_s, (anonymous namespace)::TypeObj<Sage::Wrapper<hiertreeproto::Signal> >&, bool, std::__cxx11::basic_string<char, std::char_traits<char>, std::allocator<char> >, unsigned char*, unsigned long, bool) [clone .constprop.0]
PUBLIC 689e0 0 void (anonymous namespace)::doClassType<Sage::Wrapper<hiertreeproto::Signal> >(std::__cxx11::basic_string<char, std::char_traits<char>, std::allocator<char> > const&, via_external_s, (anonymous namespace)::TypeObj<Sage::Wrapper<hiertreeproto::Signal> >&, typeinfoproto::ClassHandle_Type, bool)
PUBLIC 69440 0 Sage::CompoundValue* (anonymous namespace)::doVectorType<Sage::Wrapper<hiertreeproto::Signal> >(std::__cxx11::basic_string<char, std::char_traits<char>, std::allocator<char> > const&, via_external_s, bool, (anonymous namespace)::TypeObj<Sage::Wrapper<hiertreeproto::Signal> >&, xst_s*, long*, unsigned long, bool, unsigned char*, unsigned long, bool, bool) [clone .constprop.0]
PUBLIC 69cd0 0 void (anonymous namespace)::doWireType<Sage::Wrapper<hiertreeproto::Signal> >(xst_s*, long*, vst_s*, via_external_s, (anonymous namespace)::TypeObj<Sage::Wrapper<hiertreeproto::Signal> >&)
PUBLIC 6a730 0 Sage::Type::recordSignal(xst_s*, long*, hiertreeproto::ModuleItem&, bool, bool)
PUBLIC 6b570 0 Sage::CompoundValue* (anonymous namespace)::doStaticArrayType<Sage::Wrapper<hiertreeproto::Signal> >(std::__cxx11::basic_string<char, std::char_traits<char>, std::allocator<char> > const&, via_external_s, bool, (anonymous namespace)::TypeObj<Sage::Wrapper<hiertreeproto::Signal> >&, xst_s*, long*, unsigned char*, unsigned long, bool, bool) [clone .constprop.0]
PUBLIC 6be80 0 std::unordered_map<std::__cxx11::basic_string<char, std::char_traits<char>, std::allocator<char> >, std::vector<int, std::allocator<int> >, std::hash<std::__cxx11::basic_string<char, std::char_traits<char>, std::allocator<char> > >, std::equal_to<std::__cxx11::basic_string<char, std::char_traits<char>, std::allocator<char> > >, std::allocator<std::pair<std::__cxx11::basic_string<char, std::char_traits<char>, std::allocator<char> > const, std::vector<int, std::allocator<int> > > > >::~unordered_map()
PUBLIC 6bf20 0 std::vector<std::pair<std::__cxx11::basic_string<char, std::char_traits<char>, std::allocator<char> >, common::ByteStream*>, std::allocator<std::pair<std::__cxx11::basic_string<char, std::char_traits<char>, std::allocator<char> >, common::ByteStream*> > >::~vector()
PUBLIC 6bf90 0 void std::vector<std::pair<Sage::CompoundValue*, unsigned long>, std::allocator<std::pair<Sage::CompoundValue*, unsigned long> > >::_M_realloc_insert<std::pair<Sage::CompoundValue*, unsigned long> >(__gnu_cxx::__normal_iterator<std::pair<Sage::CompoundValue*, unsigned long>*, std::vector<std::pair<Sage::CompoundValue*, unsigned long>, std::allocator<std::pair<Sage::CompoundValue*, unsigned long> > > >, std::pair<Sage::CompoundValue*, unsigned long>&&)
PUBLIC 6c120 0 void std::vector<std::tuple<bool, bool, long, long>, std::allocator<std::tuple<bool, bool, long, long> > >::_M_realloc_insert<std::tuple<bool, bool, long, long> >(__gnu_cxx::__normal_iterator<std::tuple<bool, bool, long, long>*, std::vector<std::tuple<bool, bool, long, long>, std::allocator<std::tuple<bool, bool, long, long> > > >, std::tuple<bool, bool, long, long>&&)
PUBLIC 6c2e0 0 void std::vector<std::pair<std::__cxx11::basic_string<char, std::char_traits<char>, std::allocator<char> >, common::ByteStream*>, std::allocator<std::pair<std::__cxx11::basic_string<char, std::char_traits<char>, std::allocator<char> >, common::ByteStream*> > >::_M_realloc_insert<std::pair<std::__cxx11::basic_string<char, std::char_traits<char>, std::allocator<char> >, common::ByteStream*> >(__gnu_cxx::__normal_iterator<std::pair<std::__cxx11::basic_string<char, std::char_traits<char>, std::allocator<char> >, common::ByteStream*>*, std::vector<std::pair<std::__cxx11::basic_string<char, std::char_traits<char>, std::allocator<char> >, common::ByteStream*>, std::allocator<std::pair<std::__cxx11::basic_string<char, std::char_traits<char>, std::allocator<char> >, common::ByteStream*> > > >, std::pair<std::__cxx11::basic_string<char, std::char_traits<char>, std::allocator<char> >, common::ByteStream*>&&)
PUBLIC 6c5f0 0 void std::vector<int, std::allocator<int> >::_M_realloc_insert<int const&>(__gnu_cxx::__normal_iterator<int*, std::vector<int, std::allocator<int> > >, int const&)
PUBLIC 6c760 0 std::_Hashtable<std::__cxx11::basic_string<char, std::char_traits<char>, std::allocator<char> >, std::pair<std::__cxx11::basic_string<char, std::char_traits<char>, std::allocator<char> > const, std::vector<int, std::allocator<int> > >, std::allocator<std::pair<std::__cxx11::basic_string<char, std::char_traits<char>, std::allocator<char> > const, std::vector<int, std::allocator<int> > > >, std::__detail::_Select1st, std::equal_to<std::__cxx11::basic_string<char, std::char_traits<char>, std::allocator<char> > >, std::hash<std::__cxx11::basic_string<char, std::char_traits<char>, std::allocator<char> > >, std::__detail::_Mod_range_hashing, std::__detail::_Default_ranged_hash, std::__detail::_Prime_rehash_policy, std::__detail::_Hashtable_traits<true, false, true> >::_M_rehash(unsigned long, unsigned long const&)
PUBLIC 6c890 0 std::_Hashtable<std::__cxx11::basic_string<char, std::char_traits<char>, std::allocator<char> >, std::pair<std::__cxx11::basic_string<char, std::char_traits<char>, std::allocator<char> > const, std::vector<int, std::allocator<int> > >, std::allocator<std::pair<std::__cxx11::basic_string<char, std::char_traits<char>, std::allocator<char> > const, std::vector<int, std::allocator<int> > > >, std::__detail::_Select1st, std::equal_to<std::__cxx11::basic_string<char, std::char_traits<char>, std::allocator<char> > >, std::hash<std::__cxx11::basic_string<char, std::char_traits<char>, std::allocator<char> > >, std::__detail::_Mod_range_hashing, std::__detail::_Default_ranged_hash, std::__detail::_Prime_rehash_policy, std::__detail::_Hashtable_traits<true, false, true> >::_M_insert_unique_node(unsigned long, unsigned long, std::__detail::_Hash_node<std::pair<std::__cxx11::basic_string<char, std::char_traits<char>, std::allocator<char> > const, std::vector<int, std::allocator<int> > >, true>*, unsigned long)
PUBLIC 6c9a0 0 std::__detail::_Map_base<std::__cxx11::basic_string<char, std::char_traits<char>, std::allocator<char> >, std::pair<std::__cxx11::basic_string<char, std::char_traits<char>, std::allocator<char> > const, std::vector<int, std::allocator<int> > >, std::allocator<std::pair<std::__cxx11::basic_string<char, std::char_traits<char>, std::allocator<char> > const, std::vector<int, std::allocator<int> > > >, std::__detail::_Select1st, std::equal_to<std::__cxx11::basic_string<char, std::char_traits<char>, std::allocator<char> > >, std::hash<std::__cxx11::basic_string<char, std::char_traits<char>, std::allocator<char> > >, std::__detail::_Mod_range_hashing, std::__detail::_Default_ranged_hash, std::__detail::_Prime_rehash_policy, std::__detail::_Hashtable_traits<true, false, true>, true>::operator[](std::__cxx11::basic_string<char, std::char_traits<char>, std::allocator<char> > const&)
PUBLIC 6cb70 0 std::_Hashtable<long*, std::pair<long* const, long*>, std::allocator<std::pair<long* const, long*> >, std::__detail::_Select1st, std::equal_to<long*>, std::hash<long*>, std::__detail::_Mod_range_hashing, std::__detail::_Default_ranged_hash, std::__detail::_Prime_rehash_policy, std::__detail::_Hashtable_traits<false, false, true> >::_M_rehash(unsigned long, unsigned long const&)
PUBLIC 6cca0 0 std::_Hashtable<long*, std::pair<long* const, long*>, std::allocator<std::pair<long* const, long*> >, std::__detail::_Select1st, std::equal_to<long*>, std::hash<long*>, std::__detail::_Mod_range_hashing, std::__detail::_Default_ranged_hash, std::__detail::_Prime_rehash_policy, std::__detail::_Hashtable_traits<false, false, true> >::_M_insert_unique_node(unsigned long, unsigned long, std::__detail::_Hash_node<std::pair<long* const, long*>, false>*, unsigned long)
PUBLIC 6cd90 0 std::__detail::_Map_base<long*, std::pair<long* const, long*>, std::allocator<std::pair<long* const, long*> >, std::__detail::_Select1st, std::equal_to<long*>, std::hash<long*>, std::__detail::_Mod_range_hashing, std::__detail::_Default_ranged_hash, std::__detail::_Prime_rehash_policy, std::__detail::_Hashtable_traits<false, false, true>, true>::operator[](long* const&)
PUBLIC 6ce50 0 Sage::HDLGraph::hasHegId(void*)
PUBLIC 6ceb0 0 Sage::HDLGraph::getHegId(void*, bool*, bool)
PUBLIC 6d300 0 Sage::HDLGraph::doUnhandledType(vst_s*, long*, int)
PUBLIC 6d870 0 (anonymous namespace)::doElemRef(vst_s*, long*)
PUBLIC 6dd30 0 (anonymous namespace)::doExpr(vst_s*, long*)
PUBLIC 6ed00 0 (anonymous namespace)::doAssignment(vst_s*, long*, hegproto::Assign_Type)
PUBLIC 6f100 0 (anonymous namespace)::doStatement(vst_s*, long*)
PUBLIC 6fc50 0 (anonymous namespace)::doEventControls(vst_s*, std::vector<int, std::allocator<int> >&, long*)
PUBLIC 703b0 0 (anonymous namespace)::doDeclarativeItems(ssl_item_s*) [clone .isra.0]
PUBLIC 71dc0 0 Sage::HDLGraph::recordHDLGraph(ssl_item_s*)
PUBLIC 72dc0 0 std::unordered_map<void*, int, std::hash<void*>, std::equal_to<void*>, std::allocator<std::pair<void* const, int> > >::~unordered_map()
PUBLIC 72e40 0 void std::vector<vst_s*, std::allocator<vst_s*> >::_M_realloc_insert<vst_s* const&>(__gnu_cxx::__normal_iterator<vst_s**, std::vector<vst_s*, std::allocator<vst_s*> > >, vst_s* const&)
PUBLIC 72fb0 0 void std::vector<int, std::allocator<int> >::_M_realloc_insert<int>(__gnu_cxx::__normal_iterator<int*, std::vector<int, std::allocator<int> > >, int&&)
PUBLIC 73120 0 std::_Hashtable<void*, std::pair<void* const, int>, std::allocator<std::pair<void* const, int> >, std::__detail::_Select1st, std::equal_to<void*>, std::hash<void*>, std::__detail::_Mod_range_hashing, std::__detail::_Default_ranged_hash, std::__detail::_Prime_rehash_policy, std::__detail::_Hashtable_traits<false, false, true> >::_M_rehash(unsigned long, unsigned long const&)
PUBLIC 73250 0 std::_Hashtable<void*, std::pair<void* const, int>, std::allocator<std::pair<void* const, int> >, std::__detail::_Select1st, std::equal_to<void*>, std::hash<void*>, std::__detail::_Mod_range_hashing, std::__detail::_Default_ranged_hash, std::__detail::_Prime_rehash_policy, std::__detail::_Hashtable_traits<false, false, true> >::_M_insert_unique_node(unsigned long, unsigned long, std::__detail::_Hash_node<std::pair<void* const, int>, false>*, unsigned long)
PUBLIC 73340 0 (anonymous namespace)::getPrefixOrDecl(vst_s*)
PUBLIC 734c0 0 (anonymous namespace)::getDatatypeFromTypespec(vst_s*, long*, long**)
PUBLIC 735d0 0 (anonymous namespace)::isTaskFuncBuiltin(vst_s*)
PUBLIC 73770 0 (anonymous namespace)::sourceLocation32bitFallback(xst_s*)
PUBLIC 73870 0 (anonymous namespace)::getNameFromVst(vst_s*)
PUBLIC 73960 0 (anonymous namespace)::resolveReference(vst_s*, long*, long**)
PUBLIC 73cc0 0 (anonymous namespace)::getDeclItem(vst_s*, long*, ssl_item_s*) [clone .isra.0]
PUBLIC 73ec0 0 (anonymous namespace)::isTextRefOfInterest(xst_s*, long*, bool, bool) [clone .constprop.0]
PUBLIC 753e0 0 (anonymous namespace)::getTypespecAndPib(vst_s*, long*, long**)
PUBLIC 75be0 0 (anonymous namespace)::getDatatypeAndPib(vst_s*, long*, long**)
PUBLIC 75d90 0 (anonymous namespace)::getElementTypespecAndPib(vst_s*, long*, long**)
PUBLIC 75e70 0 Sage::Text::getSrcLoc(xst_s*, long*)
PUBLIC 787f0 0 Sage::Text::getSrcLoc(ssl_item_s*)
PUBLIC 78810 0 Sage::Text::getSrcLoc(vst_s*, long*)
PUBLIC 78820 0 Sage::Text::recordSourceChunks(xst_s*)
PUBLIC 78f40 0 Sage::Text::recordIncludeRefs(xst_s*)
PUBLIC 79c00 0 Sage::Text::recordTextRefs(ssl_item_s*)
PUBLIC 7a860 0 (anonymous namespace)::doMacroDef(mac_def_s*)
PUBLIC 7b380 0 (anonymous namespace)::doMacroRef(mac_ref_s*, long*)
PUBLIC 7e2f0 0 Sage::Text::recordMacroRefs(ssl_item_s*)
PUBLIC 7e3c0 0 (anonymous namespace)::launchConsumer(char const*, char const*, char const*, bool, bool, bool, char const*)
PUBLIC 7e4c0 0 Sage::IO::IpcStream::close()
PUBLIC 7e510 0 Sage::IO::IpcStream::~IpcStream()
PUBLIC 7e8f0 0 Sage::IO::cleanFifo()
PUBLIC 7e960 0 Sage::IO::handleConsumerStatus(bool)
PUBLIC 7ea70 0 Sage::IO::IpcStream::connect()
PUBLIC 7ec20 0 Sage::IO::IpcStream::IpcStream()
PUBLIC 7ef00 0 Sage::IO::connectWriter(std::__cxx11::basic_string<char, std::char_traits<char>, std::allocator<char> >, char const*, bool, bool)
PUBLIC 7f240 0 Sage::IO::IpcStream::IpcStream(std::__cxx11::basic_string<char, std::char_traits<char>, std::allocator<char> > const&)
PUBLIC 7f550 0 __tcf_0
PUBLIC 7f5a0 0 std::istreambuf_iterator<char, std::char_traits<char> >::_M_get() const [clone .isra.0]
PUBLIC 7f5f0 0 void std::__cxx11::basic_string<char, std::char_traits<char>, std::allocator<char> >::_M_construct<char*>(char*, char*, std::forward_iterator_tag) [clone .constprop.0]
PUBLIC 7f690 0 std::__cxx11::basic_string<char, std::char_traits<char>, std::allocator<char> >::basic_string(char const*, std::allocator<char> const&) [clone .isra.0]
PUBLIC 7f750 0 boost::disable_if<boost::property_tree::detail::is_translator<std::__cxx11::basic_string<char, std::char_traits<char>, std::allocator<char> > >, std::__cxx11::basic_string<char, std::char_traits<char>, std::allocator<char> > >::type boost::property_tree::basic_ptree<std::__cxx11::basic_string<char, std::char_traits<char>, std::allocator<char> >, std::__cxx11::basic_string<char, std::char_traits<char>, std::allocator<char> >, std::less<std::__cxx11::basic_string<char, std::char_traits<char>, std::allocator<char> > > >::get<std::__cxx11::basic_string<char, std::char_traits<char>, std::allocator<char> > >(boost::property_tree::string_path<std::__cxx11::basic_string<char, std::char_traits<char>, std::allocator<char> >, boost::property_tree::id_translator<std::__cxx11::basic_string<char, std::char_traits<char>, std::allocator<char> > > > const&, std::__cxx11::basic_string<char, std::char_traits<char>, std::allocator<char> > const&) const [clone .constprop.0]
PUBLIC 7f860 0 bool boost::property_tree::json_parser::detail::source<boost::property_tree::json_parser::detail::encoding<char>, std::istreambuf_iterator<char, std::char_traits<char> >, std::istreambuf_iterator<char, std::char_traits<char> > >::have<boost::property_tree::json_parser::detail::source<boost::property_tree::json_parser::detail::encoding<char>, std::istreambuf_iterator<char, std::char_traits<char> >, std::istreambuf_iterator<char, std::char_traits<char> > >::DoNothing>(bool (boost::property_tree::json_parser::detail::encoding<char>::*)(char) const, boost::property_tree::json_parser::detail::source<boost::property_tree::json_parser::detail::encoding<char>, std::istreambuf_iterator<char, std::char_traits<char> >, std::istreambuf_iterator<char, std::char_traits<char> > >::DoNothing&) [clone .constprop.0]
PUBLIC 7f910 0 boost::property_tree::basic_ptree<std::__cxx11::basic_string<char, std::char_traits<char>, std::allocator<char> >, std::__cxx11::basic_string<char, std::char_traits<char>, std::allocator<char> >, std::less<std::__cxx11::basic_string<char, std::char_traits<char>, std::allocator<char> > > >& boost::property_tree::basic_ptree<std::__cxx11::basic_string<char, std::char_traits<char>, std::allocator<char> >, std::__cxx11::basic_string<char, std::char_traits<char>, std::allocator<char> >, std::less<std::__cxx11::basic_string<char, std::char_traits<char>, std::allocator<char> > > >::put<std::__cxx11::basic_string<char, std::char_traits<char>, std::allocator<char> >, boost::property_tree::id_translator<std::__cxx11::basic_string<char, std::char_traits<char>, std::allocator<char> > > >(boost::property_tree::string_path<std::__cxx11::basic_string<char, std::char_traits<char>, std::allocator<char> >, boost::property_tree::id_translator<std::__cxx11::basic_string<char, std::char_traits<char>, std::allocator<char> > > > const&, std::__cxx11::basic_string<char, std::char_traits<char>, std::allocator<char> > const&, boost::property_tree::id_translator<std::__cxx11::basic_string<char, std::char_traits<char>, std::allocator<char> > >) [clone .constprop.0]
PUBLIC 7f9e0 0 Sage::PartDsgn::readXmclonePrepareData(char*, std::vector<std::array<std::__cxx11::basic_string<char, std::char_traits<char>, std::allocator<char> >, 6ul>, std::allocator<std::array<std::__cxx11::basic_string<char, std::char_traits<char>, std::allocator<char> >, 6ul> > >&, std::vector<unsigned long, std::allocator<unsigned long> >&, std::map<std::pair<std::__cxx11::basic_string<char, std::char_traits<char>, std::allocator<char> >, std::__cxx11::basic_string<char, std::char_traits<char>, std::allocator<char> > >, std::set<std::pair<std::__cxx11::basic_string<char, std::char_traits<char>, std::allocator<char> >, std::__cxx11::basic_string<char, std::char_traits<char>, std::allocator<char> > >, std::less<std::pair<std::__cxx11::basic_string<char, std::char_traits<char>, std::allocator<char> >, std::__cxx11::basic_string<char, std::char_traits<char>, std::allocator<char> > > >, std::allocator<std::pair<std::__cxx11::basic_string<char, std::char_traits<char>, std::allocator<char> >, std::__cxx11::basic_string<char, std::char_traits<char>, std::allocator<char> > > > >, std::less<std::pair<std::__cxx11::basic_string<char, std::char_traits<char>, std::allocator<char> >, std::__cxx11::basic_string<char, std::char_traits<char>, std::allocator<char> > > >, std::allocator<std::pair<std::pair<std::__cxx11::basic_string<char, std::char_traits<char>, std::allocator<char> >, std::__cxx11::basic_string<char, std::char_traits<char>, std::allocator<char> > > const, std::set<std::pair<std::__cxx11::basic_string<char, std::char_traits<char>, std::allocator<char> >, std::__cxx11::basic_string<char, std::char_traits<char>, std::allocator<char> > >, std::less<std::pair<std::__cxx11::basic_string<char, std::char_traits<char>, std::allocator<char> >, std::__cxx11::basic_string<char, std::char_traits<char>, std::allocator<char> > > >, std::allocator<std::pair<std::__cxx11::basic_string<char, std::char_traits<char>, std::allocator<char> >, std::__cxx11::basic_string<char, std::char_traits<char>, std::allocator<char> > > > > > > >&, std::vector<std::__cxx11::basic_string<char, std::char_traits<char>, std::allocator<char> >, std::allocator<std::__cxx11::basic_string<char, std::char_traits<char>, std::allocator<char> > > >&)
PUBLIC 82320 0 Sage::PartDsgn::xmclonePrepare(char*, void*, std::vector<unsigned long, std::allocator<unsigned long> >&, std::map<std::pair<std::__cxx11::basic_string<char, std::char_traits<char>, std::allocator<char> >, std::__cxx11::basic_string<char, std::char_traits<char>, std::allocator<char> > >, std::set<std::pair<std::__cxx11::basic_string<char, std::char_traits<char>, std::allocator<char> >, std::__cxx11::basic_string<char, std::char_traits<char>, std::allocator<char> > >, std::less<std::pair<std::__cxx11::basic_string<char, std::char_traits<char>, std::allocator<char> >, std::__cxx11::basic_string<char, std::char_traits<char>, std::allocator<char> > > >, std::allocator<std::pair<std::__cxx11::basic_string<char, std::char_traits<char>, std::allocator<char> >, std::__cxx11::basic_string<char, std::char_traits<char>, std::allocator<char> > > > >, std::less<std::pair<std::__cxx11::basic_string<char, std::char_traits<char>, std::allocator<char> >, std::__cxx11::basic_string<char, std::char_traits<char>, std::allocator<char> > > >, std::allocator<std::pair<std::pair<std::__cxx11::basic_string<char, std::char_traits<char>, std::allocator<char> >, std::__cxx11::basic_string<char, std::char_traits<char>, std::allocator<char> > > const, std::set<std::pair<std::__cxx11::basic_string<char, std::char_traits<char>, std::allocator<char> >, std::__cxx11::basic_string<char, std::char_traits<char>, std::allocator<char> > >, std::less<std::pair<std::__cxx11::basic_string<char, std::char_traits<char>, std::allocator<char> >, std::__cxx11::basic_string<char, std::char_traits<char>, std::allocator<char> > > >, std::allocator<std::pair<std::__cxx11::basic_string<char, std::char_traits<char>, std::allocator<char> >, std::__cxx11::basic_string<char, std::char_traits<char>, std::allocator<char> > > > > > > >&, std::vector<std::__cxx11::basic_string<char, std::char_traits<char>, std::allocator<char> >, std::allocator<std::__cxx11::basic_string<char, std::char_traits<char>, std::allocator<char> > > >&)
PUBLIC 83670 0 boost::property_tree::json_parser::detail::external_ascii_superset_encoding::is_ws(char) const
PUBLIC 836a0 0 boost::property_tree::json_parser::detail::external_ascii_superset_encoding::is_minus(char) const
PUBLIC 836b0 0 boost::property_tree::json_parser::detail::external_ascii_superset_encoding::is_plusminus(char) const
PUBLIC 836c0 0 boost::property_tree::json_parser::detail::external_ascii_superset_encoding::is_dot(char) const
PUBLIC 836d0 0 boost::property_tree::json_parser::detail::external_ascii_superset_encoding::is_eE(char) const
PUBLIC 836e0 0 boost::property_tree::json_parser::detail::external_ascii_superset_encoding::is_0(char) const
PUBLIC 836f0 0 boost::property_tree::json_parser::detail::external_ascii_superset_encoding::is_digit(char) const
PUBLIC 83700 0 boost::property_tree::json_parser::detail::external_ascii_superset_encoding::is_digit0(char) const
PUBLIC 83710 0 boost::property_tree::json_parser::detail::external_ascii_superset_encoding::is_quote(char) const
PUBLIC 83720 0 boost::property_tree::json_parser::detail::external_ascii_superset_encoding::is_backslash(char) const
PUBLIC 83730 0 boost::property_tree::json_parser::detail::external_ascii_superset_encoding::is_slash(char) const
PUBLIC 83740 0 boost::property_tree::json_parser::detail::external_ascii_superset_encoding::is_comma(char) const
PUBLIC 83750 0 boost::property_tree::json_parser::detail::external_ascii_superset_encoding::is_open_bracket(char) const
PUBLIC 83760 0 boost::property_tree::json_parser::detail::external_ascii_superset_encoding::is_close_bracket(char) const
PUBLIC 83770 0 boost::property_tree::json_parser::detail::external_ascii_superset_encoding::is_colon(char) const
PUBLIC 83780 0 boost::property_tree::json_parser::detail::external_ascii_superset_encoding::is_open_brace(char) const
PUBLIC 83790 0 boost::property_tree::json_parser::detail::external_ascii_superset_encoding::is_close_brace(char) const
PUBLIC 837a0 0 boost::property_tree::json_parser::detail::external_ascii_superset_encoding::is_a(char) const
PUBLIC 837b0 0 boost::property_tree::json_parser::detail::external_ascii_superset_encoding::is_b(char) const
PUBLIC 837c0 0 boost::property_tree::json_parser::detail::external_ascii_superset_encoding::is_e(char) const
PUBLIC 837d0 0 boost::property_tree::json_parser::detail::external_ascii_superset_encoding::is_f(char) const
PUBLIC 837e0 0 boost::property_tree::json_parser::detail::external_ascii_superset_encoding::is_l(char) const
PUBLIC 837f0 0 boost::property_tree::json_parser::detail::external_ascii_superset_encoding::is_n(char) const
PUBLIC 83800 0 boost::property_tree::json_parser::detail::external_ascii_superset_encoding::is_r(char) const
PUBLIC 83810 0 boost::property_tree::json_parser::detail::external_ascii_superset_encoding::is_s(char) const
PUBLIC 83820 0 boost::property_tree::json_parser::detail::external_ascii_superset_encoding::is_t(char) const
PUBLIC 83830 0 boost::property_tree::json_parser::detail::external_ascii_superset_encoding::is_u(char) const
PUBLIC 83840 0 boost::property_tree::json_parser::detail::standard_callbacks<boost::property_tree::basic_ptree<std::__cxx11::basic_string<char, std::char_traits<char>, std::allocator<char> >, std::__cxx11::basic_string<char, std::char_traits<char>, std::allocator<char> >, std::less<std::__cxx11::basic_string<char, std::char_traits<char>, std::allocator<char> > > > >::on_code_unit(char)
PUBLIC 83860 0 boost::any::holder<std::__cxx11::basic_string<char, std::char_traits<char>, std::allocator<char> > >::type() const
PUBLIC 83870 0 boost::any::holder<boost::property_tree::string_path<std::__cxx11::basic_string<char, std::char_traits<char>, std::allocator<char> >, boost::property_tree::id_translator<std::__cxx11::basic_string<char, std::char_traits<char>, std::allocator<char> > > > >::type() const
PUBLIC 83880 0 boost::any::holder<std::__cxx11::basic_string<char, std::char_traits<char>, std::allocator<char> > >::~holder()
PUBLIC 838b0 0 boost::any::holder<std::__cxx11::basic_string<char, std::char_traits<char>, std::allocator<char> > >::~holder()
PUBLIC 838f0 0 boost::any::holder<boost::property_tree::string_path<std::__cxx11::basic_string<char, std::char_traits<char>, std::allocator<char> >, boost::property_tree::id_translator<std::__cxx11::basic_string<char, std::char_traits<char>, std::allocator<char> > > > >::~holder()
PUBLIC 83920 0 boost::any::holder<boost::property_tree::string_path<std::__cxx11::basic_string<char, std::char_traits<char>, std::allocator<char> >, boost::property_tree::id_translator<std::__cxx11::basic_string<char, std::char_traits<char>, std::allocator<char> > > > >::~holder()
PUBLIC 83960 0 boost::property_tree::ptree_error::~ptree_error()
PUBLIC 83980 0 boost::property_tree::ptree_error::~ptree_error()
PUBLIC 839b0 0 boost::property_tree::ptree_bad_path::~ptree_bad_path()
PUBLIC 839f0 0 boost::property_tree::ptree_bad_data::~ptree_bad_data()
PUBLIC 83a30 0 boost::property_tree::file_parser_error::~file_parser_error()
PUBLIC 83a80 0 boost::any::holder<std::__cxx11::basic_string<char, std::char_traits<char>, std::allocator<char> > >::clone() const
PUBLIC 83af0 0 boost::property_tree::ptree_bad_path::~ptree_bad_path()
PUBLIC 83b40 0 boost::exception_detail::error_info_injector<boost::property_tree::ptree_bad_path>::~error_info_injector()
PUBLIC 83bb0 0 non-virtual thunk to boost::exception_detail::error_info_injector<boost::property_tree::ptree_bad_path>::~error_info_injector()
PUBLIC 83c30 0 boost::property_tree::ptree_bad_data::~ptree_bad_data()
PUBLIC 83c80 0 boost::exception_detail::error_info_injector<boost::property_tree::ptree_bad_data>::~error_info_injector()
PUBLIC 83cf0 0 non-virtual thunk to boost::exception_detail::error_info_injector<boost::property_tree::ptree_bad_data>::~error_info_injector()
PUBLIC 83d70 0 non-virtual thunk to boost::exception_detail::error_info_injector<boost::property_tree::json_parser::json_parser_error>::~error_info_injector()
PUBLIC 83e10 0 boost::exception_detail::error_info_injector<boost::property_tree::json_parser::json_parser_error>::~error_info_injector()
PUBLIC 83ea0 0 virtual thunk to boost::exception_detail::clone_impl<boost::exception_detail::error_info_injector<boost::property_tree::json_parser::json_parser_error> >::~clone_impl()
PUBLIC 83f40 0 non-virtual thunk to boost::exception_detail::clone_impl<boost::exception_detail::error_info_injector<boost::property_tree::json_parser::json_parser_error> >::~clone_impl()
PUBLIC 83fe0 0 boost::exception_detail::clone_impl<boost::exception_detail::error_info_injector<boost::property_tree::json_parser::json_parser_error> >::~clone_impl()
PUBLIC 84070 0 virtual thunk to boost::exception_detail::clone_impl<boost::exception_detail::error_info_injector<boost::property_tree::json_parser::json_parser_error> >::~clone_impl()
PUBLIC 84120 0 non-virtual thunk to boost::exception_detail::clone_impl<boost::exception_detail::error_info_injector<boost::property_tree::json_parser::json_parser_error> >::~clone_impl()
PUBLIC 841d0 0 boost::exception_detail::clone_impl<boost::exception_detail::error_info_injector<boost::property_tree::json_parser::json_parser_error> >::~clone_impl()
PUBLIC 84270 0 boost::property_tree::json_parser::json_parser_error::~json_parser_error()
PUBLIC 842c0 0 boost::property_tree::file_parser_error::~file_parser_error()
PUBLIC 84320 0 boost::property_tree::json_parser::json_parser_error::~json_parser_error()
PUBLIC 84380 0 non-virtual thunk to boost::exception_detail::error_info_injector<boost::property_tree::json_parser::json_parser_error>::~error_info_injector()
PUBLIC 84410 0 boost::exception_detail::error_info_injector<boost::property_tree::json_parser::json_parser_error>::~error_info_injector()
PUBLIC 84490 0 non-virtual thunk to boost::exception_detail::error_info_injector<boost::property_tree::ptree_bad_path>::~error_info_injector()
PUBLIC 84520 0 boost::exception_detail::error_info_injector<boost::property_tree::ptree_bad_path>::~error_info_injector()
PUBLIC 845a0 0 non-virtual thunk to boost::exception_detail::error_info_injector<boost::property_tree::ptree_bad_data>::~error_info_injector()
PUBLIC 84630 0 boost::exception_detail::error_info_injector<boost::property_tree::ptree_bad_data>::~error_info_injector()
PUBLIC 846b0 0 virtual thunk to boost::exception_detail::clone_impl<boost::exception_detail::error_info_injector<boost::property_tree::ptree_bad_path> >::~clone_impl()
PUBLIC 84730 0 non-virtual thunk to boost::exception_detail::clone_impl<boost::exception_detail::error_info_injector<boost::property_tree::ptree_bad_path> >::~clone_impl()
PUBLIC 847c0 0 boost::exception_detail::clone_impl<boost::exception_detail::error_info_injector<boost::property_tree::ptree_bad_path> >::~clone_impl()
PUBLIC 84840 0 virtual thunk to boost::exception_detail::clone_impl<boost::exception_detail::error_info_injector<boost::property_tree::ptree_bad_data> >::~clone_impl()
PUBLIC 848c0 0 non-virtual thunk to boost::exception_detail::clone_impl<boost::exception_detail::error_info_injector<boost::property_tree::ptree_bad_data> >::~clone_impl()
PUBLIC 84950 0 boost::exception_detail::clone_impl<boost::exception_detail::error_info_injector<boost::property_tree::ptree_bad_data> >::~clone_impl()
PUBLIC 849d0 0 non-virtual thunk to boost::exception_detail::clone_impl<boost::exception_detail::error_info_injector<boost::property_tree::ptree_bad_data> >::~clone_impl()
PUBLIC 84a70 0 virtual thunk to boost::exception_detail::clone_impl<boost::exception_detail::error_info_injector<boost::property_tree::ptree_bad_data> >::~clone_impl()
PUBLIC 84b00 0 boost::exception_detail::clone_impl<boost::exception_detail::error_info_injector<boost::property_tree::ptree_bad_data> >::~clone_impl()
PUBLIC 84b90 0 non-virtual thunk to boost::exception_detail::clone_impl<boost::exception_detail::error_info_injector<boost::property_tree::ptree_bad_path> >::~clone_impl()
PUBLIC 84c30 0 virtual thunk to boost::exception_detail::clone_impl<boost::exception_detail::error_info_injector<boost::property_tree::ptree_bad_path> >::~clone_impl()
PUBLIC 84cc0 0 boost::exception_detail::clone_impl<boost::exception_detail::error_info_injector<boost::property_tree::ptree_bad_path> >::~clone_impl()
PUBLIC 84d50 0 boost::any::holder<boost::property_tree::string_path<std::__cxx11::basic_string<char, std::char_traits<char>, std::allocator<char> >, boost::property_tree::id_translator<std::__cxx11::basic_string<char, std::char_traits<char>, std::allocator<char> > > > >::clone() const
PUBLIC 84dd0 0 boost::exception_detail::copy_boost_exception(boost::exception*, boost::exception const*)
PUBLIC 84f20 0 boost::exception_detail::clone_impl<boost::exception_detail::error_info_injector<boost::property_tree::ptree_bad_data> >::clone() const
PUBLIC 85040 0 virtual thunk to boost::exception_detail::clone_impl<boost::exception_detail::error_info_injector<boost::property_tree::ptree_bad_data> >::clone() const
PUBLIC 85160 0 boost::exception_detail::clone_impl<boost::exception_detail::error_info_injector<boost::property_tree::ptree_bad_path> >::clone() const
PUBLIC 85280 0 virtual thunk to boost::exception_detail::clone_impl<boost::exception_detail::error_info_injector<boost::property_tree::ptree_bad_path> >::clone() const
PUBLIC 853a0 0 boost::exception_detail::clone_impl<boost::exception_detail::error_info_injector<boost::property_tree::json_parser::json_parser_error> >::clone() const
PUBLIC 85520 0 virtual thunk to boost::exception_detail::clone_impl<boost::exception_detail::error_info_injector<boost::property_tree::json_parser::json_parser_error> >::clone() const
PUBLIC 856b0 0 std::__cxx11::basic_stringbuf<char, std::char_traits<char>, std::allocator<char> >::~basic_stringbuf()
PUBLIC 856f0 0 std::__cxx11::basic_stringbuf<char, std::char_traits<char>, std::allocator<char> >::~basic_stringbuf()
PUBLIC 85740 0 boost::property_tree::file_parser_error::format_what(std::__cxx11::basic_string<char, std::char_traits<char>, std::allocator<char> > const&, std::__cxx11::basic_string<char, std::char_traits<char>, std::allocator<char> > const&, unsigned long)
PUBLIC 85c40 0 boost::property_tree::file_parser_error::file_parser_error(std::__cxx11::basic_string<char, std::char_traits<char>, std::allocator<char> > const&, std::__cxx11::basic_string<char, std::char_traits<char>, std::allocator<char> > const&, unsigned long)
PUBLIC 85d40 0 boost::property_tree::basic_ptree<std::__cxx11::basic_string<char, std::char_traits<char>, std::allocator<char> >, std::__cxx11::basic_string<char, std::char_traits<char>, std::allocator<char> >, std::less<std::__cxx11::basic_string<char, std::char_traits<char>, std::allocator<char> > > >::basic_ptree()
PUBLIC 85df0 0 boost::property_tree::basic_ptree<std::__cxx11::basic_string<char, std::char_traits<char>, std::allocator<char> >, std::__cxx11::basic_string<char, std::char_traits<char>, std::allocator<char> >, std::less<std::__cxx11::basic_string<char, std::char_traits<char>, std::allocator<char> > > >::~basic_ptree()
PUBLIC 85eb0 0 std::pair<std::__cxx11::basic_string<char, std::char_traits<char>, std::allocator<char> > const, boost::property_tree::basic_ptree<std::__cxx11::basic_string<char, std::char_traits<char>, std::allocator<char> >, std::__cxx11::basic_string<char, std::char_traits<char>, std::allocator<char> >, std::less<std::__cxx11::basic_string<char, std::char_traits<char>, std::allocator<char> > > > >::~pair()
PUBLIC 85ee0 0 std::pair<std::__cxx11::basic_string<char, std::char_traits<char>, std::allocator<char> >, boost::property_tree::basic_ptree<std::__cxx11::basic_string<char, std::char_traits<char>, std::allocator<char> >, std::__cxx11::basic_string<char, std::char_traits<char>, std::allocator<char> >, std::less<std::__cxx11::basic_string<char, std::char_traits<char>, std::allocator<char> > > > >::~pair()
PUBLIC 85f10 0 void std::vector<std::array<std::__cxx11::basic_string<char, std::char_traits<char>, std::allocator<char> >, 6ul>, std::allocator<std::array<std::__cxx11::basic_string<char, std::char_traits<char>, std::allocator<char> >, 6ul> > >::_M_realloc_insert<std::array<std::__cxx11::basic_string<char, std::char_traits<char>, std::allocator<char> >, 6ul> const&>(__gnu_cxx::__normal_iterator<std::array<std::__cxx11::basic_string<char, std::char_traits<char>, std::allocator<char> >, 6ul>*, std::vector<std::array<std::__cxx11::basic_string<char, std::char_traits<char>, std::allocator<char> >, 6ul>, std::allocator<std::array<std::__cxx11::basic_string<char, std::char_traits<char>, std::allocator<char> >, 6ul> > > >, std::array<std::__cxx11::basic_string<char, std::char_traits<char>, std::allocator<char> >, 6ul> const&)
PUBLIC 86700 0 boost::enable_if<boost::property_tree::detail::is_translator<boost::property_tree::id_translator<std::__cxx11::basic_string<char, std::char_traits<char>, std::allocator<char> > > >, std::__cxx11::basic_string<char, std::char_traits<char>, std::allocator<char> > >::type boost::property_tree::basic_ptree<std::__cxx11::basic_string<char, std::char_traits<char>, std::allocator<char> >, std::__cxx11::basic_string<char, std::char_traits<char>, std::allocator<char> >, std::less<std::__cxx11::basic_string<char, std::char_traits<char>, std::allocator<char> > > >::get_value<std::__cxx11::basic_string<char, std::char_traits<char>, std::allocator<char> >, boost::property_tree::id_translator<std::__cxx11::basic_string<char, std::char_traits<char>, std::allocator<char> > > >(boost::property_tree::id_translator<std::__cxx11::basic_string<char, std::char_traits<char>, std::allocator<char> > >) const
PUBLIC 867a0 0 boost::property_tree::string_path<std::__cxx11::basic_string<char, std::char_traits<char>, std::allocator<char> >, boost::property_tree::id_translator<std::__cxx11::basic_string<char, std::char_traits<char>, std::allocator<char> > > >::reduce()
PUBLIC 86a50 0 boost::property_tree::basic_ptree<std::__cxx11::basic_string<char, std::char_traits<char>, std::allocator<char> >, std::__cxx11::basic_string<char, std::char_traits<char>, std::allocator<char> >, std::less<std::__cxx11::basic_string<char, std::char_traits<char>, std::allocator<char> > > >::walk_path(boost::property_tree::string_path<std::__cxx11::basic_string<char, std::char_traits<char>, std::allocator<char> >, boost::property_tree::id_translator<std::__cxx11::basic_string<char, std::char_traits<char>, std::allocator<char> > > >&) const
PUBLIC 86bb0 0 boost::property_tree::ptree_bad_path::ptree_bad_path<boost::property_tree::string_path<std::__cxx11::basic_string<char, std::char_traits<char>, std::allocator<char> >, boost::property_tree::id_translator<std::__cxx11::basic_string<char, std::char_traits<char>, std::allocator<char> > > > >(std::__cxx11::basic_string<char, std::char_traits<char>, std::allocator<char> > const&, boost::property_tree::string_path<std::__cxx11::basic_string<char, std::char_traits<char>, std::allocator<char> >, boost::property_tree::id_translator<std::__cxx11::basic_string<char, std::char_traits<char>, std::allocator<char> > > > const&)
PUBLIC 86ef0 0 std::__cxx11::basic_string<char, std::char_traits<char>, std::allocator<char> > std::operator+<char, std::char_traits<char>, std::allocator<char> >(std::__cxx11::basic_string<char, std::char_traits<char>, std::allocator<char> >&&, char const*)
PUBLIC 86f90 0 void boost::property_tree::basic_ptree<std::__cxx11::basic_string<char, std::char_traits<char>, std::allocator<char> >, std::__cxx11::basic_string<char, std::char_traits<char>, std::allocator<char> >, std::less<std::__cxx11::basic_string<char, std::char_traits<char>, std::allocator<char> > > >::put_value<std::__cxx11::basic_string<char, std::char_traits<char>, std::allocator<char> >, boost::property_tree::id_translator<std::__cxx11::basic_string<char, std::char_traits<char>, std::allocator<char> > > >(std::__cxx11::basic_string<char, std::char_traits<char>, std::allocator<char> > const&, boost::property_tree::id_translator<std::__cxx11::basic_string<char, std::char_traits<char>, std::allocator<char> > >)
PUBLIC 87010 0 boost::exception_detail::error_info_injector<boost::property_tree::json_parser::json_parser_error>::error_info_injector(boost::exception_detail::error_info_injector<boost::property_tree::json_parser::json_parser_error> const&)
PUBLIC 87130 0 bool boost::property_tree::json_parser::verify_json<boost::property_tree::basic_ptree<std::__cxx11::basic_string<char, std::char_traits<char>, std::allocator<char> >, std::__cxx11::basic_string<char, std::char_traits<char>, std::allocator<char> >, std::less<std::__cxx11::basic_string<char, std::char_traits<char>, std::allocator<char> > > > >(boost::property_tree::basic_ptree<std::__cxx11::basic_string<char, std::char_traits<char>, std::allocator<char> >, std::__cxx11::basic_string<char, std::char_traits<char>, std::allocator<char> >, std::less<std::__cxx11::basic_string<char, std::char_traits<char>, std::allocator<char> > > > const&, int)
PUBLIC 87270 0 boost::exception_detail::error_info_injector<boost::property_tree::ptree_bad_path>::error_info_injector(boost::exception_detail::error_info_injector<boost::property_tree::ptree_bad_path> const&)
PUBLIC 87330 0 boost::exception_detail::error_info_injector<boost::property_tree::ptree_bad_data>::error_info_injector(boost::exception_detail::error_info_injector<boost::property_tree::ptree_bad_data> const&)
PUBLIC 873f0 0 std::_Hashtable<std::__cxx11::basic_string<char, std::char_traits<char>, std::allocator<char> >, std::pair<std::__cxx11::basic_string<char, std::char_traits<char>, std::allocator<char> > const, boost::property_tree::basic_ptree<std::__cxx11::basic_string<char, std::char_traits<char>, std::allocator<char> >, std::__cxx11::basic_string<char, std::char_traits<char>, std::allocator<char> >, std::less<std::__cxx11::basic_string<char, std::char_traits<char>, std::allocator<char> > > > >, std::allocator<std::pair<std::__cxx11::basic_string<char, std::char_traits<char>, std::allocator<char> > const, boost::property_tree::basic_ptree<std::__cxx11::basic_string<char, std::char_traits<char>, std::allocator<char> >, std::__cxx11::basic_string<char, std::char_traits<char>, std::allocator<char> >, std::less<std::__cxx11::basic_string<char, std::char_traits<char>, std::allocator<char> > > > > >, std::__detail::_Select1st, std::equal_to<std::__cxx11::basic_string<char, std::char_traits<char>, std::allocator<char> > >, std::hash<std::__cxx11::basic_string<char, std::char_traits<char>, std::allocator<char> > >, std::__detail::_Mod_range_hashing, std::__detail::_Default_ranged_hash, std::__detail::_Prime_rehash_policy, std::__detail::_Hashtable_traits<true, false, true> >::_M_rehash(unsigned long, unsigned long const&)
PUBLIC 87520 0 std::_Hashtable<std::__cxx11::basic_string<char, std::char_traits<char>, std::allocator<char> >, std::pair<std::__cxx11::basic_string<char, std::char_traits<char>, std::allocator<char> > const, boost::property_tree::basic_ptree<std::__cxx11::basic_string<char, std::char_traits<char>, std::allocator<char> >, std::__cxx11::basic_string<char, std::char_traits<char>, std::allocator<char> >, std::less<std::__cxx11::basic_string<char, std::char_traits<char>, std::allocator<char> > > > >, std::allocator<std::pair<std::__cxx11::basic_string<char, std::char_traits<char>, std::allocator<char> > const, boost::property_tree::basic_ptree<std::__cxx11::basic_string<char, std::char_traits<char>, std::allocator<char> >, std::__cxx11::basic_string<char, std::char_traits<char>, std::allocator<char> >, std::less<std::__cxx11::basic_string<char, std::char_traits<char>, std::allocator<char> > > > > >, std::__detail::_Select1st, std::equal_to<std::__cxx11::basic_string<char, std::char_traits<char>, std::allocator<char> > >, std::hash<std::__cxx11::basic_string<char, std::char_traits<char>, std::allocator<char> > >, std::__detail::_Mod_range_hashing, std::__detail::_Default_ranged_hash, std::__detail::_Prime_rehash_policy, std::__detail::_Hashtable_traits<true, false, true> >::_M_insert_unique_node(unsigned long, unsigned long, std::__detail::_Hash_node<std::pair<std::__cxx11::basic_string<char, std::char_traits<char>, std::allocator<char> > const, boost::property_tree::basic_ptree<std::__cxx11::basic_string<char, std::char_traits<char>, std::allocator<char> >, std::__cxx11::basic_string<char, std::char_traits<char>, std::allocator<char> >, std::less<std::__cxx11::basic_string<char, std::char_traits<char>, std::allocator<char> > > > >, true>*, unsigned long)
PUBLIC 87620 0 std::__cxx11::basic_string<char, std::char_traits<char>, std::allocator<char> > boost::property_tree::json_parser::create_escapes<char>(std::__cxx11::basic_string<char, std::char_traits<char>, std::allocator<char> > const&)
PUBLIC 87890 0 void boost::property_tree::json_parser::write_json_helper<boost::property_tree::basic_ptree<std::__cxx11::basic_string<char, std::char_traits<char>, std::allocator<char> >, std::__cxx11::basic_string<char, std::char_traits<char>, std::allocator<char> >, std::less<std::__cxx11::basic_string<char, std::char_traits<char>, std::allocator<char> > > > >(std::basic_ostream<boost::property_tree::basic_ptree<std::__cxx11::basic_string<char, std::char_traits<char>, std::allocator<char> >, std::__cxx11::basic_string<char, std::char_traits<char>, std::allocator<char> >, std::less<std::__cxx11::basic_string<char, std::char_traits<char>, std::allocator<char> > > >::key_type::value_type, std::char_traits<boost::property_tree::basic_ptree<std::__cxx11::basic_string<char, std::char_traits<char>, std::allocator<char> >, std::__cxx11::basic_string<char, std::char_traits<char>, std::allocator<char> >, std::less<std::__cxx11::basic_string<char, std::char_traits<char>, std::allocator<char> > > >::key_type::value_type> >&, boost::property_tree::basic_ptree<std::__cxx11::basic_string<char, std::char_traits<char>, std::allocator<char> >, std::__cxx11::basic_string<char, std::char_traits<char>, std::allocator<char> >, std::less<std::__cxx11::basic_string<char, std::char_traits<char>, std::allocator<char> > > > const&, int, bool)
PUBLIC 87fd0 0 boost::exception_detail::clone_impl<boost::exception_detail::error_info_injector<boost::property_tree::json_parser::json_parser_error> >::clone_impl(boost::exception_detail::error_info_injector<boost::property_tree::json_parser::json_parser_error> const&)
PUBLIC 88130 0 void boost::exception_detail::throw_exception_<boost::property_tree::json_parser::json_parser_error>(boost::property_tree::json_parser::json_parser_error const&, char const*, char const*, int)
PUBLIC 88240 0 void boost::property_tree::json_parser::write_json_internal<boost::property_tree::basic_ptree<std::__cxx11::basic_string<char, std::char_traits<char>, std::allocator<char> >, std::__cxx11::basic_string<char, std::char_traits<char>, std::allocator<char> >, std::less<std::__cxx11::basic_string<char, std::char_traits<char>, std::allocator<char> > > > >(std::basic_ostream<boost::property_tree::basic_ptree<std::__cxx11::basic_string<char, std::char_traits<char>, std::allocator<char> >, std::__cxx11::basic_string<char, std::char_traits<char>, std::allocator<char> >, std::less<std::__cxx11::basic_string<char, std::char_traits<char>, std::allocator<char> > > >::key_type::value_type, std::char_traits<boost::property_tree::basic_ptree<std::__cxx11::basic_string<char, std::char_traits<char>, std::allocator<char> >, std::__cxx11::basic_string<char, std::char_traits<char>, std::allocator<char> >, std::less<std::__cxx11::basic_string<char, std::char_traits<char>, std::allocator<char> > > >::key_type::value_type> >&, boost::property_tree::basic_ptree<std::__cxx11::basic_string<char, std::char_traits<char>, std::allocator<char> >, std::__cxx11::basic_string<char, std::char_traits<char>, std::allocator<char> >, std::less<std::__cxx11::basic_string<char, std::char_traits<char>, std::allocator<char> > > > const&, std::__cxx11::basic_string<char, std::char_traits<char>, std::allocator<char> > const&, bool)
PUBLIC 88380 0 void boost::property_tree::json_parser::write_json<boost::property_tree::basic_ptree<std::__cxx11::basic_string<char, std::char_traits<char>, std::allocator<char> >, std::__cxx11::basic_string<char, std::char_traits<char>, std::allocator<char> >, std::less<std::__cxx11::basic_string<char, std::char_traits<char>, std::allocator<char> > > > >(std::__cxx11::basic_string<char, std::char_traits<char>, std::allocator<char> > const&, boost::property_tree::basic_ptree<std::__cxx11::basic_string<char, std::char_traits<char>, std::allocator<char> >, std::__cxx11::basic_string<char, std::char_traits<char>, std::allocator<char> >, std::less<std::__cxx11::basic_string<char, std::char_traits<char>, std::allocator<char> > > > const&, std::locale const&, bool)
PUBLIC 886c0 0 boost::exception_detail::clone_impl<boost::exception_detail::error_info_injector<boost::property_tree::ptree_bad_path> >::clone_impl(boost::exception_detail::error_info_injector<boost::property_tree::ptree_bad_path> const&)
PUBLIC 887c0 0 boost::property_tree::basic_ptree<std::__cxx11::basic_string<char, std::char_traits<char>, std::allocator<char> >, std::__cxx11::basic_string<char, std::char_traits<char>, std::allocator<char> >, std::less<std::__cxx11::basic_string<char, std::char_traits<char>, std::allocator<char> > > >::get_child(boost::property_tree::string_path<std::__cxx11::basic_string<char, std::char_traits<char>, std::allocator<char> >, boost::property_tree::id_translator<std::__cxx11::basic_string<char, std::char_traits<char>, std::allocator<char> > > > const&)
PUBLIC 88970 0 boost::exception_detail::clone_impl<boost::exception_detail::error_info_injector<boost::property_tree::ptree_bad_data> >::clone_impl(boost::exception_detail::error_info_injector<boost::property_tree::ptree_bad_data> const&)
PUBLIC 88a70 0 void boost::exception_detail::throw_exception_<boost::property_tree::ptree_bad_data>(boost::property_tree::ptree_bad_data const&, char const*, char const*, int)
PUBLIC 88b30 0 void boost::property_tree::basic_ptree<std::__cxx11::basic_string<char, std::char_traits<char>, std::allocator<char> >, std::__cxx11::basic_string<char, std::char_traits<char>, std::allocator<char> >, std::less<std::__cxx11::basic_string<char, std::char_traits<char>, std::allocator<char> > > >::put_value<unsigned long, boost::property_tree::stream_translator<char, std::char_traits<char>, std::allocator<char>, unsigned long> >(unsigned long const&, boost::property_tree::stream_translator<char, std::char_traits<char>, std::allocator<char>, unsigned long>)
PUBLIC 89000 0 boost::enable_if<boost::property_tree::detail::is_translator<boost::property_tree::stream_translator<char, std::char_traits<char>, std::allocator<char>, unsigned long> >, unsigned long>::type boost::property_tree::basic_ptree<std::__cxx11::basic_string<char, std::char_traits<char>, std::allocator<char> >, std::__cxx11::basic_string<char, std::char_traits<char>, std::allocator<char> >, std::less<std::__cxx11::basic_string<char, std::char_traits<char>, std::allocator<char> > > >::get_value<unsigned long, boost::property_tree::stream_translator<char, std::char_traits<char>, std::allocator<char>, unsigned long> >(boost::property_tree::stream_translator<char, std::char_traits<char>, std::allocator<char>, unsigned long>) const
PUBLIC 89620 0 boost::property_tree::json_parser::detail::source<boost::property_tree::json_parser::detail::encoding<char>, std::istreambuf_iterator<char, std::char_traits<char> >, std::istreambuf_iterator<char, std::char_traits<char> > >::parse_error(char const*)
PUBLIC 896c0 0 boost::property_tree::json_parser::detail::parser<boost::property_tree::json_parser::detail::standard_callbacks<boost::property_tree::basic_ptree<std::__cxx11::basic_string<char, std::char_traits<char>, std::allocator<char> >, std::__cxx11::basic_string<char, std::char_traits<char>, std::allocator<char> >, std::less<std::__cxx11::basic_string<char, std::char_traits<char>, std::allocator<char> > > > >, boost::property_tree::json_parser::detail::encoding<char>, std::istreambuf_iterator<char, std::char_traits<char> >, std::istreambuf_iterator<char, std::char_traits<char> > >::parse_error(char const*)
PUBLIC 896d0 0 boost::property_tree::json_parser::detail::source<boost::property_tree::json_parser::detail::encoding<char>, std::istreambuf_iterator<char, std::char_traits<char> >, std::istreambuf_iterator<char, std::char_traits<char> > >::next()
PUBLIC 89730 0 std::istreambuf_iterator<char, std::char_traits<char> >::equal(std::istreambuf_iterator<char, std::char_traits<char> > const&) const
PUBLIC 89770 0 void std::__insertion_sort<boost::multi_index::detail::copy_map_entry<boost::multi_index::detail::sequenced_index_node<boost::multi_index::detail::ordered_index_node<boost::multi_index::detail::null_augment_policy, boost::multi_index::detail::index_node_base<std::pair<std::__cxx11::basic_string<char, std::char_traits<char>, std::allocator<char> > const, boost::property_tree::basic_ptree<std::__cxx11::basic_string<char, std::char_traits<char>, std::allocator<char> >, std::__cxx11::basic_string<char, std::char_traits<char>, std::allocator<char> >, std::less<std::__cxx11::basic_string<char, std::char_traits<char>, std::allocator<char> > > > >, std::allocator<std::pair<std::__cxx11::basic_string<char, std::char_traits<char>, std::allocator<char> > const, boost::property_tree::basic_ptree<std::__cxx11::basic_string<char, std::char_traits<char>, std::allocator<char> >, std::__cxx11::basic_string<char, std::char_traits<char>, std::allocator<char> >, std::less<std::__cxx11::basic_string<char, std::char_traits<char>, std::allocator<char> > > > > > > > > >*, __gnu_cxx::__ops::_Iter_less_iter>(boost::multi_index::detail::copy_map_entry<boost::multi_index::detail::sequenced_index_node<boost::multi_index::detail::ordered_index_node<boost::multi_index::detail::null_augment_policy, boost::multi_index::detail::index_node_base<std::pair<std::__cxx11::basic_string<char, std::char_traits<char>, std::allocator<char> > const, boost::property_tree::basic_ptree<std::__cxx11::basic_string<char, std::char_traits<char>, std::allocator<char> >, std::__cxx11::basic_string<char, std::char_traits<char>, std::allocator<char> >, std::less<std::__cxx11::basic_string<char, std::char_traits<char>, std::allocator<char> > > > >, std::allocator<std::pair<std::__cxx11::basic_string<char, std::char_traits<char>, std::allocator<char> > const, boost::property_tree::basic_ptree<std::__cxx11::basic_string<char, std::char_traits<char>, std::allocator<char> >, std::__cxx11::basic_string<char, std::char_traits<char>, std::allocator<char> >, std::less<std::__cxx11::basic_string<char, std::char_traits<char>, std::allocator<char> > > > > > > > > >*, boost::multi_index::detail::copy_map_entry<boost::multi_index::detail::sequenced_index_node<boost::multi_index::detail::ordered_index_node<boost::multi_index::detail::null_augment_policy, boost::multi_index::detail::index_node_base<std::pair<std::__cxx11::basic_string<char, std::char_traits<char>, std::allocator<char> > const, boost::property_tree::basic_ptree<std::__cxx11::basic_string<char, std::char_traits<char>, std::allocator<char> >, std::__cxx11::basic_string<char, std::char_traits<char>, std::allocator<char> >, std::less<std::__cxx11::basic_string<char, std::char_traits<char>, std::allocator<char> > > > >, std::allocator<std::pair<std::__cxx11::basic_string<char, std::char_traits<char>, std::allocator<char> > const, boost::property_tree::basic_ptree<std::__cxx11::basic_string<char, std::char_traits<char>, std::allocator<char> >, std::__cxx11::basic_string<char, std::char_traits<char>, std::allocator<char> >, std::less<std::__cxx11::basic_string<char, std::char_traits<char>, std::allocator<char> > > > > > > > > >*, __gnu_cxx::__ops::_Iter_less_iter)
PUBLIC 89830 0 void boost::property_tree::json_parser::detail::source<boost::property_tree::json_parser::detail::encoding<char>, std::istreambuf_iterator<char, std::char_traits<char> >, std::istreambuf_iterator<char, std::char_traits<char> > >::expect<boost::property_tree::json_parser::detail::source<boost::property_tree::json_parser::detail::encoding<char>, std::istreambuf_iterator<char, std::char_traits<char> >, std::istreambuf_iterator<char, std::char_traits<char> > >::DoNothing>(bool (boost::property_tree::json_parser::detail::encoding<char>::*)(char) const, char const*, boost::property_tree::json_parser::detail::source<boost::property_tree::json_parser::detail::encoding<char>, std::istreambuf_iterator<char, std::char_traits<char> >, std::istreambuf_iterator<char, std::char_traits<char> > >::DoNothing&)
PUBLIC 898e0 0 boost::property_tree::json_parser::detail::parser<boost::property_tree::json_parser::detail::standard_callbacks<boost::property_tree::basic_ptree<std::__cxx11::basic_string<char, std::char_traits<char>, std::allocator<char> >, std::__cxx11::basic_string<char, std::char_traits<char>, std::allocator<char> >, std::less<std::__cxx11::basic_string<char, std::char_traits<char>, std::allocator<char> > > > >, boost::property_tree::json_parser::detail::encoding<char>, std::istreambuf_iterator<char, std::char_traits<char> >, std::istreambuf_iterator<char, std::char_traits<char> > >::parse_codepoint_ref()
PUBLIC 89ca0 0 boost::property_tree::json_parser::detail::parser<boost::property_tree::json_parser::detail::standard_callbacks<boost::property_tree::basic_ptree<std::__cxx11::basic_string<char, std::char_traits<char>, std::allocator<char> >, std::__cxx11::basic_string<char, std::char_traits<char>, std::allocator<char> >, std::less<std::__cxx11::basic_string<char, std::char_traits<char>, std::allocator<char> > > > >, boost::property_tree::json_parser::detail::encoding<char>, std::istreambuf_iterator<char, std::char_traits<char> >, std::istreambuf_iterator<char, std::char_traits<char> > >::parse_escape()
PUBLIC 89dd0 0 void std::vector<boost::property_tree::json_parser::detail::standard_callbacks<boost::property_tree::basic_ptree<std::__cxx11::basic_string<char, std::char_traits<char>, std::allocator<char> >, std::__cxx11::basic_string<char, std::char_traits<char>, std::allocator<char> >, std::less<std::__cxx11::basic_string<char, std::char_traits<char>, std::allocator<char> > > > >::layer, std::allocator<boost::property_tree::json_parser::detail::standard_callbacks<boost::property_tree::basic_ptree<std::__cxx11::basic_string<char, std::char_traits<char>, std::allocator<char> >, std::__cxx11::basic_string<char, std::char_traits<char>, std::allocator<char> >, std::less<std::__cxx11::basic_string<char, std::char_traits<char>, std::allocator<char> > > > >::layer> >::_M_realloc_insert<boost::property_tree::json_parser::detail::standard_callbacks<boost::property_tree::basic_ptree<std::__cxx11::basic_string<char, std::char_traits<char>, std::allocator<char> >, std::__cxx11::basic_string<char, std::char_traits<char>, std::allocator<char> >, std::less<std::__cxx11::basic_string<char, std::char_traits<char>, std::allocator<char> > > > >::layer const&>(__gnu_cxx::__normal_iterator<boost::property_tree::json_parser::detail::standard_callbacks<boost::property_tree::basic_ptree<std::__cxx11::basic_string<char, std::char_traits<char>, std::allocator<char> >, std::__cxx11::basic_string<char, std::char_traits<char>, std::allocator<char> >, std::less<std::__cxx11::basic_string<char, std::char_traits<char>, std::allocator<char> > > > >::layer*, std::vector<boost::property_tree::json_parser::detail::standard_callbacks<boost::property_tree::basic_ptree<std::__cxx11::basic_string<char, std::char_traits<char>, std::allocator<char> >, std::__cxx11::basic_string<char, std::char_traits<char>, std::allocator<char> >, std::less<std::__cxx11::basic_string<char, std::char_traits<char>, std::allocator<char> > > > >::layer, std::allocator<boost::property_tree::json_parser::detail::standard_callbacks<boost::property_tree::basic_ptree<std::__cxx11::basic_string<char, std::char_traits<char>, std::allocator<char> >, std::__cxx11::basic_string<char, std::char_traits<char>, std::allocator<char> >, std::less<std::__cxx11::basic_string<char, std::char_traits<char>, std::allocator<char> > > > >::layer> > >, boost::property_tree::json_parser::detail::standard_callbacks<boost::property_tree::basic_ptree<std::__cxx11::basic_string<char, std::char_traits<char>, std::allocator<char> >, std::__cxx11::basic_string<char, std::char_traits<char>, std::allocator<char> >, std::less<std::__cxx11::basic_string<char, std::char_traits<char>, std::allocator<char> > > > >::layer const&)
PUBLIC 89f40 0 boost::multi_index::detail::ordered_index_node_impl<boost::multi_index::detail::null_augment_policy, std::allocator<char> >::rebalance(boost::multi_index::detail::ordered_index_node_impl<boost::multi_index::detail::null_augment_policy, std::allocator<char> >*, boost::multi_index::detail::ordered_index_node_compressed_base<boost::multi_index::detail::null_augment_policy, std::allocator<char> >::parent_ref)
PUBLIC 8a2d0 0 void std::__adjust_heap<boost::multi_index::detail::copy_map_entry<boost::multi_index::detail::sequenced_index_node<boost::multi_index::detail::ordered_index_node<boost::multi_index::detail::null_augment_policy, boost::multi_index::detail::index_node_base<std::pair<std::__cxx11::basic_string<char, std::char_traits<char>, std::allocator<char> > const, boost::property_tree::basic_ptree<std::__cxx11::basic_string<char, std::char_traits<char>, std::allocator<char> >, std::__cxx11::basic_string<char, std::char_traits<char>, std::allocator<char> >, std::less<std::__cxx11::basic_string<char, std::char_traits<char>, std::allocator<char> > > > >, std::allocator<std::pair<std::__cxx11::basic_string<char, std::char_traits<char>, std::allocator<char> > const, boost::property_tree::basic_ptree<std::__cxx11::basic_string<char, std::char_traits<char>, std::allocator<char> >, std::__cxx11::basic_string<char, std::char_traits<char>, std::allocator<char> >, std::less<std::__cxx11::basic_string<char, std::char_traits<char>, std::allocator<char> > > > > > > > > >*, long, boost::multi_index::detail::copy_map_entry<boost::multi_index::detail::sequenced_index_node<boost::multi_index::detail::ordered_index_node<boost::multi_index::detail::null_augment_policy, boost::multi_index::detail::index_node_base<std::pair<std::__cxx11::basic_string<char, std::char_traits<char>, std::allocator<char> > const, boost::property_tree::basic_ptree<std::__cxx11::basic_string<char, std::char_traits<char>, std::allocator<char> >, std::__cxx11::basic_string<char, std::char_traits<char>, std::allocator<char> >, std::less<std::__cxx11::basic_string<char, std::char_traits<char>, std::allocator<char> > > > >, std::allocator<std::pair<std::__cxx11::basic_string<char, std::char_traits<char>, std::allocator<char> > const, boost::property_tree::basic_ptree<std::__cxx11::basic_string<char, std::char_traits<char>, std::allocator<char> >, std::__cxx11::basic_string<char, std::char_traits<char>, std::allocator<char> >, std::less<std::__cxx11::basic_string<char, std::char_traits<char>, std::allocator<char> > > > > > > > > >, __gnu_cxx::__ops::_Iter_less_iter>(boost::multi_index::detail::copy_map_entry<boost::multi_index::detail::sequenced_index_node<boost::multi_index::detail::ordered_index_node<boost::multi_index::detail::null_augment_policy, boost::multi_index::detail::index_node_base<std::pair<std::__cxx11::basic_string<char, std::char_traits<char>, std::allocator<char> > const, boost::property_tree::basic_ptree<std::__cxx11::basic_string<char, std::char_traits<char>, std::allocator<char> >, std::__cxx11::basic_string<char, std::char_traits<char>, std::allocator<char> >, std::less<std::__cxx11::basic_string<char, std::char_traits<char>, std::allocator<char> > > > >, std::allocator<std::pair<std::__cxx11::basic_string<char, std::char_traits<char>, std::allocator<char> > const, boost::property_tree::basic_ptree<std::__cxx11::basic_string<char, std::char_traits<char>, std::allocator<char> >, std::__cxx11::basic_string<char, std::char_traits<char>, std::allocator<char> >, std::less<std::__cxx11::basic_string<char, std::char_traits<char>, std::allocator<char> > > > > > > > > >*, long, long, boost::multi_index::detail::copy_map_entry<boost::multi_index::detail::sequenced_index_node<boost::multi_index::detail::ordered_index_node<boost::multi_index::detail::null_augment_policy, boost::multi_index::detail::index_node_base<std::pair<std::__cxx11::basic_string<char, std::char_traits<char>, std::allocator<char> > const, boost::property_tree::basic_ptree<std::__cxx11::basic_string<char, std::char_traits<char>, std::allocator<char> >, std::__cxx11::basic_string<char, std::char_traits<char>, std::allocator<char> >, std::less<std::__cxx11::basic_string<char, std::char_traits<char>, std::allocator<char> > > > >, std::allocator<std::pair<std::__cxx11::basic_string<char, std::char_traits<char>, std::allocator<char> > const, boost::property_tree::basic_ptree<std::__cxx11::basic_string<char, std::char_traits<char>, std::allocator<char> >, std::__cxx11::basic_string<char, std::char_traits<char>, std::allocator<char> >, std::less<std::__cxx11::basic_string<char, std::char_traits<char>, std::allocator<char> > > > > > > > > >, __gnu_cxx::__ops::_Iter_less_iter)
PUBLIC 8a430 0 void std::__introsort_loop<boost::multi_index::detail::copy_map_entry<boost::multi_index::detail::sequenced_index_node<boost::multi_index::detail::ordered_index_node<boost::multi_index::detail::null_augment_policy, boost::multi_index::detail::index_node_base<std::pair<std::__cxx11::basic_string<char, std::char_traits<char>, std::allocator<char> > const, boost::property_tree::basic_ptree<std::__cxx11::basic_string<char, std::char_traits<char>, std::allocator<char> >, std::__cxx11::basic_string<char, std::char_traits<char>, std::allocator<char> >, std::less<std::__cxx11::basic_string<char, std::char_traits<char>, std::allocator<char> > > > >, std::allocator<std::pair<std::__cxx11::basic_string<char, std::char_traits<char>, std::allocator<char> > const, boost::property_tree::basic_ptree<std::__cxx11::basic_string<char, std::char_traits<char>, std::allocator<char> >, std::__cxx11::basic_string<char, std::char_traits<char>, std::allocator<char> >, std::less<std::__cxx11::basic_string<char, std::char_traits<char>, std::allocator<char> > > > > > > > > >*, long, __gnu_cxx::__ops::_Iter_less_iter>(boost::multi_index::detail::copy_map_entry<boost::multi_index::detail::sequenced_index_node<boost::multi_index::detail::ordered_index_node<boost::multi_index::detail::null_augment_policy, boost::multi_index::detail::index_node_base<std::pair<std::__cxx11::basic_string<char, std::char_traits<char>, std::allocator<char> > const, boost::property_tree::basic_ptree<std::__cxx11::basic_string<char, std::char_traits<char>, std::allocator<char> >, std::__cxx11::basic_string<char, std::char_traits<char>, std::allocator<char> >, std::less<std::__cxx11::basic_string<char, std::char_traits<char>, std::allocator<char> > > > >, std::allocator<std::pair<std::__cxx11::basic_string<char, std::char_traits<char>, std::allocator<char> > const, boost::property_tree::basic_ptree<std::__cxx11::basic_string<char, std::char_traits<char>, std::allocator<char> >, std::__cxx11::basic_string<char, std::char_traits<char>, std::allocator<char> >, std::less<std::__cxx11::basic_string<char, std::char_traits<char>, std::allocator<char> > > > > > > > > >*, boost::multi_index::detail::copy_map_entry<boost::multi_index::detail::sequenced_index_node<boost::multi_index::detail::ordered_index_node<boost::multi_index::detail::null_augment_policy, boost::multi_index::detail::index_node_base<std::pair<std::__cxx11::basic_string<char, std::char_traits<char>, std::allocator<char> > const, boost::property_tree::basic_ptree<std::__cxx11::basic_string<char, std::char_traits<char>, std::allocator<char> >, std::__cxx11::basic_string<char, std::char_traits<char>, std::allocator<char> >, std::less<std::__cxx11::basic_string<char, std::char_traits<char>, std::allocator<char> > > > >, std::allocator<std::pair<std::__cxx11::basic_string<char, std::char_traits<char>, std::allocator<char> > const, boost::property_tree::basic_ptree<std::__cxx11::basic_string<char, std::char_traits<char>, std::allocator<char> >, std::__cxx11::basic_string<char, std::char_traits<char>, std::allocator<char> >, std::less<std::__cxx11::basic_string<char, std::char_traits<char>, std::allocator<char> > > > > > > > > >*, long, __gnu_cxx::__ops::_Iter_less_iter) [clone .isra.0]
PUBLIC 8a670 0 boost::property_tree::basic_ptree<std::__cxx11::basic_string<char, std::char_traits<char>, std::allocator<char> >, std::__cxx11::basic_string<char, std::char_traits<char>, std::allocator<char> >, std::less<std::__cxx11::basic_string<char, std::char_traits<char>, std::allocator<char> > > >::basic_ptree(boost::property_tree::basic_ptree<std::__cxx11::basic_string<char, std::char_traits<char>, std::allocator<char> >, std::__cxx11::basic_string<char, std::char_traits<char>, std::allocator<char> >, std::less<std::__cxx11::basic_string<char, std::char_traits<char>, std::allocator<char> > > > const&)
PUBLIC 8ade0 0 boost::multi_index::detail::sequenced_index<boost::multi_index::detail::nth_layer<1, std::pair<std::__cxx11::basic_string<char, std::char_traits<char>, std::allocator<char> > const, boost::property_tree::basic_ptree<std::__cxx11::basic_string<char, std::char_traits<char>, std::allocator<char> >, std::__cxx11::basic_string<char, std::char_traits<char>, std::allocator<char> >, std::less<std::__cxx11::basic_string<char, std::char_traits<char>, std::allocator<char> > > > >, boost::multi_index::indexed_by<boost::multi_index::sequenced<boost::multi_index::tag<mpl_::na, mpl_::na, mpl_::na, mpl_::na, mpl_::na, mpl_::na, mpl_::na, mpl_::na, mpl_::na, mpl_::na, mpl_::na, mpl_::na, mpl_::na, mpl_::na, mpl_::na, mpl_::na, mpl_::na, mpl_::na, mpl_::na, mpl_::na> >, boost::multi_index::ordered_non_unique<boost::multi_index::tag<boost::property_tree::basic_ptree<std::__cxx11::basic_string<char, std::char_traits<char>, std::allocator<char> >, std::__cxx11::basic_string<char, std::char_traits<char>, std::allocator<char> >, std::less<std::__cxx11::basic_string<char, std::char_traits<char>, std::allocator<char> > > >::subs::by_name, mpl_::na, mpl_::na, mpl_::na, mpl_::na, mpl_::na, mpl_::na, mpl_::na, mpl_::na, mpl_::na, mpl_::na, mpl_::na, mpl_::na, mpl_::na, mpl_::na, mpl_::na, mpl_::na, mpl_::na, mpl_::na, mpl_::na>, boost::multi_index::member<std::pair<std::__cxx11::basic_string<char, std::char_traits<char>, std::allocator<char> > const, boost::property_tree::basic_ptree<std::__cxx11::basic_string<char, std::char_traits<char>, std::allocator<char> >, std::__cxx11::basic_string<char, std::char_traits<char>, std::allocator<char> >, std::less<std::__cxx11::basic_string<char, std::char_traits<char>, std::allocator<char> > > > >, std::__cxx11::basic_string<char, std::char_traits<char>, std::allocator<char> > const, &std::pair<std::__cxx11::basic_string<char, std::char_traits<char>, std::allocator<char> > const, boost::property_tree::basic_ptree<std::__cxx11::basic_string<char, std::char_traits<char>, std::allocator<char> >, std::__cxx11::basic_string<char, std::char_traits<char>, std::allocator<char> >, std::less<std::__cxx11::basic_string<char, std::char_traits<char>, std::allocator<char> > > > >::first>, std::less<std::__cxx11::basic_string<char, std::char_traits<char>, std::allocator<char> > > >, mpl_::na, mpl_::na, mpl_::na, mpl_::na, mpl_::na, mpl_::na, mpl_::na, mpl_::na, mpl_::na, mpl_::na, mpl_::na, mpl_::na, mpl_::na, mpl_::na, mpl_::na, mpl_::na, mpl_::na, mpl_::na>, std::allocator<std::pair<std::__cxx11::basic_string<char, std::char_traits<char>, std::allocator<char> > const, boost::property_tree::basic_ptree<std::__cxx11::basic_string<char, std::char_traits<char>, std::allocator<char> >, std::__cxx11::basic_string<char, std::char_traits<char>, std::allocator<char> >, std::less<std::__cxx11::basic_string<char, std::char_traits<char>, std::allocator<char> > > > > > >, boost::mpl::vector0<mpl_::na> >::insert(boost::multi_index::detail::bidir_node_iterator<boost::multi_index::detail::sequenced_index_node<boost::multi_index::detail::ordered_index_node<boost::multi_index::detail::null_augment_policy, boost::multi_index::detail::index_node_base<std::pair<std::__cxx11::basic_string<char, std::char_traits<char>, std::allocator<char> > const, boost::property_tree::basic_ptree<std::__cxx11::basic_string<char, std::char_traits<char>, std::allocator<char> >, std::__cxx11::basic_string<char, std::char_traits<char>, std::allocator<char> >, std::less<std::__cxx11::basic_string<char, std::char_traits<char>, std::allocator<char> > > > >, std::allocator<std::pair<std::__cxx11::basic_string<char, std::char_traits<char>, std::allocator<char> > const, boost::property_tree::basic_ptree<std::__cxx11::basic_string<char, std::char_traits<char>, std::allocator<char> >, std::__cxx11::basic_string<char, std::char_traits<char>, std::allocator<char> >, std::less<std::__cxx11::basic_string<char, std::char_traits<char>, std::allocator<char> > > > > > > > > >, std::pair<std::__cxx11::basic_string<char, std::char_traits<char>, std::allocator<char> > const, boost::property_tree::basic_ptree<std::__cxx11::basic_string<char, std::char_traits<char>, std::allocator<char> >, std::__cxx11::basic_string<char, std::char_traits<char>, std::allocator<char> >, std::less<std::__cxx11::basic_string<char, std::char_traits<char>, std::allocator<char> > > > > const&)
PUBLIC 8b030 0 boost::property_tree::basic_ptree<std::__cxx11::basic_string<char, std::char_traits<char>, std::allocator<char> >, std::__cxx11::basic_string<char, std::char_traits<char>, std::allocator<char> >, std::less<std::__cxx11::basic_string<char, std::char_traits<char>, std::allocator<char> > > >::force_path(boost::property_tree::string_path<std::__cxx11::basic_string<char, std::char_traits<char>, std::allocator<char> >, boost::property_tree::id_translator<std::__cxx11::basic_string<char, std::char_traits<char>, std::allocator<char> > > >&)
PUBLIC 8b350 0 boost::property_tree::basic_ptree<std::__cxx11::basic_string<char, std::char_traits<char>, std::allocator<char> >, std::__cxx11::basic_string<char, std::char_traits<char>, std::allocator<char> >, std::less<std::__cxx11::basic_string<char, std::char_traits<char>, std::allocator<char> > > >::operator=(boost::property_tree::basic_ptree<std::__cxx11::basic_string<char, std::char_traits<char>, std::allocator<char> >, std::__cxx11::basic_string<char, std::char_traits<char>, std::allocator<char> >, std::less<std::__cxx11::basic_string<char, std::char_traits<char>, std::allocator<char> > > > const&)
PUBLIC 8b3a0 0 boost::property_tree::basic_ptree<std::__cxx11::basic_string<char, std::char_traits<char>, std::allocator<char> >, std::__cxx11::basic_string<char, std::char_traits<char>, std::allocator<char> >, std::less<std::__cxx11::basic_string<char, std::char_traits<char>, std::allocator<char> > > >::add_child(boost::property_tree::string_path<std::__cxx11::basic_string<char, std::char_traits<char>, std::allocator<char> >, boost::property_tree::id_translator<std::__cxx11::basic_string<char, std::char_traits<char>, std::allocator<char> > > > const&, boost::property_tree::basic_ptree<std::__cxx11::basic_string<char, std::char_traits<char>, std::allocator<char> >, std::__cxx11::basic_string<char, std::char_traits<char>, std::allocator<char> >, std::less<std::__cxx11::basic_string<char, std::char_traits<char>, std::allocator<char> > > > const&)
PUBLIC 8b500 0 boost::property_tree::basic_ptree<std::__cxx11::basic_string<char, std::char_traits<char>, std::allocator<char> >, std::__cxx11::basic_string<char, std::char_traits<char>, std::allocator<char> >, std::less<std::__cxx11::basic_string<char, std::char_traits<char>, std::allocator<char> > > >::put_child(boost::property_tree::string_path<std::__cxx11::basic_string<char, std::char_traits<char>, std::allocator<char> >, boost::property_tree::id_translator<std::__cxx11::basic_string<char, std::char_traits<char>, std::allocator<char> > > > const&, boost::property_tree::basic_ptree<std::__cxx11::basic_string<char, std::char_traits<char>, std::allocator<char> >, std::__cxx11::basic_string<char, std::char_traits<char>, std::allocator<char> >, std::less<std::__cxx11::basic_string<char, std::char_traits<char>, std::allocator<char> > > > const&)
PUBLIC 8b770 0 boost::property_tree::json_parser::detail::standard_callbacks<boost::property_tree::basic_ptree<std::__cxx11::basic_string<char, std::char_traits<char>, std::allocator<char> >, std::__cxx11::basic_string<char, std::char_traits<char>, std::allocator<char> >, std::less<std::__cxx11::basic_string<char, std::char_traits<char>, std::allocator<char> > > > >::new_tree()
PUBLIC 8bbe0 0 boost::property_tree::json_parser::detail::standard_callbacks<boost::property_tree::basic_ptree<std::__cxx11::basic_string<char, std::char_traits<char>, std::allocator<char> >, std::__cxx11::basic_string<char, std::char_traits<char>, std::allocator<char> >, std::less<std::__cxx11::basic_string<char, std::char_traits<char>, std::allocator<char> > > > >::new_value()
PUBLIC 8bc40 0 boost::property_tree::json_parser::detail::parser<boost::property_tree::json_parser::detail::standard_callbacks<boost::property_tree::basic_ptree<std::__cxx11::basic_string<char, std::char_traits<char>, std::allocator<char> >, std::__cxx11::basic_string<char, std::char_traits<char>, std::allocator<char> >, std::less<std::__cxx11::basic_string<char, std::char_traits<char>, std::allocator<char> > > > >, boost::property_tree::json_parser::detail::encoding<char>, std::istreambuf_iterator<char, std::char_traits<char> >, std::istreambuf_iterator<char, std::char_traits<char> > >::parse_string()
PUBLIC 8c1e0 0 boost::property_tree::json_parser::detail::parser<boost::property_tree::json_parser::detail::standard_callbacks<boost::property_tree::basic_ptree<std::__cxx11::basic_string<char, std::char_traits<char>, std::allocator<char> >, std::__cxx11::basic_string<char, std::char_traits<char>, std::allocator<char> >, std::less<std::__cxx11::basic_string<char, std::char_traits<char>, std::allocator<char> > > > >, boost::property_tree::json_parser::detail::encoding<char>, std::istreambuf_iterator<char, std::char_traits<char> >, std::istreambuf_iterator<char, std::char_traits<char> > >::parse_boolean()
PUBLIC 8c440 0 boost::property_tree::json_parser::detail::number_callback_adapter<boost::property_tree::json_parser::detail::standard_callbacks<boost::property_tree::basic_ptree<std::__cxx11::basic_string<char, std::char_traits<char>, std::allocator<char> >, std::__cxx11::basic_string<char, std::char_traits<char>, std::allocator<char> >, std::less<std::__cxx11::basic_string<char, std::char_traits<char>, std::allocator<char> > > > >, boost::property_tree::json_parser::detail::encoding<char>, std::istreambuf_iterator<char, std::char_traits<char> >, std::input_iterator_tag>::operator()(char)
PUBLIC 8c4b0 0 bool boost::property_tree::json_parser::detail::source<boost::property_tree::json_parser::detail::encoding<char>, std::istreambuf_iterator<char, std::char_traits<char> >, std::istreambuf_iterator<char, std::char_traits<char> > >::have<boost::property_tree::json_parser::detail::number_callback_adapter<boost::property_tree::json_parser::detail::standard_callbacks<boost::property_tree::basic_ptree<std::__cxx11::basic_string<char, std::char_traits<char>, std::allocator<char> >, std::__cxx11::basic_string<char, std::char_traits<char>, std::allocator<char> >, std::less<std::__cxx11::basic_string<char, std::char_traits<char>, std::allocator<char> > > > >, boost::property_tree::json_parser::detail::encoding<char>, std::istreambuf_iterator<char, std::char_traits<char> >, std::input_iterator_tag> >(bool (boost::property_tree::json_parser::detail::encoding<char>::*)(char) const, boost::property_tree::json_parser::detail::number_callback_adapter<boost::property_tree::json_parser::detail::standard_callbacks<boost::property_tree::basic_ptree<std::__cxx11::basic_string<char, std::char_traits<char>, std::allocator<char> >, std::__cxx11::basic_string<char, std::char_traits<char>, std::allocator<char> >, std::less<std::__cxx11::basic_string<char, std::char_traits<char>, std::allocator<char> > > > >, boost::property_tree::json_parser::detail::encoding<char>, std::istreambuf_iterator<char, std::char_traits<char> >, std::input_iterator_tag>&) [clone .constprop.3]
PUBLIC 8c540 0 boost::property_tree::json_parser::detail::parser<boost::property_tree::json_parser::detail::standard_callbacks<boost::property_tree::basic_ptree<std::__cxx11::basic_string<char, std::char_traits<char>, std::allocator<char> >, std::__cxx11::basic_string<char, std::char_traits<char>, std::allocator<char> >, std::less<std::__cxx11::basic_string<char, std::char_traits<char>, std::allocator<char> > > > >, boost::property_tree::json_parser::detail::encoding<char>, std::istreambuf_iterator<char, std::char_traits<char> >, std::istreambuf_iterator<char, std::char_traits<char> > >::parse_number()
PUBLIC 8cb40 0 boost::property_tree::json_parser::detail::parser<boost::property_tree::json_parser::detail::standard_callbacks<boost::property_tree::basic_ptree<std::__cxx11::basic_string<char, std::char_traits<char>, std::allocator<char> >, std::__cxx11::basic_string<char, std::char_traits<char>, std::allocator<char> >, std::less<std::__cxx11::basic_string<char, std::char_traits<char>, std::allocator<char> > > > >, boost::property_tree::json_parser::detail::encoding<char>, std::istreambuf_iterator<char, std::char_traits<char> >, std::istreambuf_iterator<char, std::char_traits<char> > >::parse_array()
PUBLIC 8cec0 0 boost::property_tree::json_parser::detail::parser<boost::property_tree::json_parser::detail::standard_callbacks<boost::property_tree::basic_ptree<std::__cxx11::basic_string<char, std::char_traits<char>, std::allocator<char> >, std::__cxx11::basic_string<char, std::char_traits<char>, std::allocator<char> >, std::less<std::__cxx11::basic_string<char, std::char_traits<char>, std::allocator<char> > > > >, boost::property_tree::json_parser::detail::encoding<char>, std::istreambuf_iterator<char, std::char_traits<char> >, std::istreambuf_iterator<char, std::char_traits<char> > >::parse_value()
PUBLIC 8cff0 0 void boost::property_tree::json_parser::detail::read_json_internal<std::istreambuf_iterator<char, std::char_traits<char> >, std::istreambuf_iterator<char, std::char_traits<char> >, boost::property_tree::json_parser::detail::encoding<char>, boost::property_tree::json_parser::detail::standard_callbacks<boost::property_tree::basic_ptree<std::__cxx11::basic_string<char, std::char_traits<char>, std::allocator<char> >, std::__cxx11::basic_string<char, std::char_traits<char>, std::allocator<char> >, std::less<std::__cxx11::basic_string<char, std::char_traits<char>, std::allocator<char> > > > > >(std::istreambuf_iterator<char, std::char_traits<char> >, std::istreambuf_iterator<char, std::char_traits<char> >, boost::property_tree::json_parser::detail::encoding<char>&, boost::property_tree::json_parser::detail::standard_callbacks<boost::property_tree::basic_ptree<std::__cxx11::basic_string<char, std::char_traits<char>, std::allocator<char> >, std::__cxx11::basic_string<char, std::char_traits<char>, std::allocator<char> >, std::less<std::__cxx11::basic_string<char, std::char_traits<char>, std::allocator<char> > > > >&, std::__cxx11::basic_string<char, std::char_traits<char>, std::allocator<char> > const&)
PUBLIC 8d350 0 void boost::property_tree::json_parser::read_json<boost::property_tree::basic_ptree<std::__cxx11::basic_string<char, std::char_traits<char>, std::allocator<char> >, std::__cxx11::basic_string<char, std::char_traits<char>, std::allocator<char> >, std::less<std::__cxx11::basic_string<char, std::char_traits<char>, std::allocator<char> > > > >(std::basic_istream<boost::property_tree::basic_ptree<std::__cxx11::basic_string<char, std::char_traits<char>, std::allocator<char> >, std::__cxx11::basic_string<char, std::char_traits<char>, std::allocator<char> >, std::less<std::__cxx11::basic_string<char, std::char_traits<char>, std::allocator<char> > > >::key_type::value_type, std::char_traits<boost::property_tree::basic_ptree<std::__cxx11::basic_string<char, std::char_traits<char>, std::allocator<char> >, std::__cxx11::basic_string<char, std::char_traits<char>, std::allocator<char> >, std::less<std::__cxx11::basic_string<char, std::char_traits<char>, std::allocator<char> > > >::key_type::value_type> >&, boost::property_tree::basic_ptree<std::__cxx11::basic_string<char, std::char_traits<char>, std::allocator<char> >, std::__cxx11::basic_string<char, std::char_traits<char>, std::allocator<char> >, std::less<std::__cxx11::basic_string<char, std::char_traits<char>, std::allocator<char> > > >&)
PUBLIC 8d4a0 0 boost::property_tree::json_parser::detail::parser<boost::property_tree::json_parser::detail::standard_callbacks<boost::property_tree::basic_ptree<std::__cxx11::basic_string<char, std::char_traits<char>, std::allocator<char> >, std::__cxx11::basic_string<char, std::char_traits<char>, std::allocator<char> >, std::less<std::__cxx11::basic_string<char, std::char_traits<char>, std::allocator<char> > > > >, boost::property_tree::json_parser::detail::encoding<char>, std::istreambuf_iterator<char, std::char_traits<char> >, std::istreambuf_iterator<char, std::char_traits<char> > >::parse_object()
PUBLIC 8db60 0 google::protobuf::internal::NullLogHandler(google::protobuf::LogLevel, char const*, int, std::__cxx11::basic_string<char, std::char_traits<char>, std::allocator<char> > const&)
PUBLIC 8db70 0 google::protobuf::FatalException::what() const
PUBLIC 8db80 0 google::protobuf::internal::DefaultLogHandler(google::protobuf::LogLevel, char const*, int, std::__cxx11::basic_string<char, std::char_traits<char>, std::allocator<char> > const&)
PUBLIC 8dbd0 0 google::protobuf::FatalException::~FatalException()
PUBLIC 8dc00 0 google::protobuf::FatalException::~FatalException()
PUBLIC 8dc20 0 google::protobuf::internal::LogMessage::operator<<(std::__cxx11::basic_string<char, std::char_traits<char>, std::allocator<char> > const&)
PUBLIC 8dc40 0 google::protobuf::internal::LogMessage::operator<<(char const*)
PUBLIC 8dc90 0 google::protobuf::internal::LogMessage::operator<<(google::protobuf::util::Status const&)
PUBLIC 8dce0 0 google::protobuf::internal::LogMessage::operator<<(char)
PUBLIC 8dd90 0 google::protobuf::internal::LogMessage::operator<<(int)
PUBLIC 8de40 0 google::protobuf::internal::LogMessage::operator<<(unsigned int)
PUBLIC 8def0 0 google::protobuf::internal::LogMessage::operator<<(long)
PUBLIC 8dfa0 0 google::protobuf::internal::LogMessage::operator<<(unsigned long)
PUBLIC 8e050 0 google::protobuf::internal::LogMessage::operator<<(double)
PUBLIC 8e100 0 google::protobuf::internal::LogMessage::operator<<(void*)
PUBLIC 8e1b0 0 google::protobuf::internal::LogMessage::operator<<(long long)
PUBLIC 8e260 0 google::protobuf::internal::LogMessage::operator<<(unsigned long long)
PUBLIC 8e310 0 google::protobuf::internal::LogMessage::LogMessage(google::protobuf::LogLevel, char const*, int)
PUBLIC 8e330 0 google::protobuf::internal::LogMessage::~LogMessage()
PUBLIC 8e350 0 google::protobuf::internal::LogMessage::Finish()
PUBLIC 8e3a0 0 google::protobuf::internal::LogFinisher::operator=(google::protobuf::internal::LogMessage&)
PUBLIC 8e3b0 0 google::protobuf::SetLogHandler(void (*)(google::protobuf::LogLevel, char const*, int, std::__cxx11::basic_string<char, std::char_traits<char>, std::allocator<char> > const&))
PUBLIC 8e3e0 0 google::protobuf::LogSilencer::LogSilencer()
PUBLIC 8e3f0 0 google::protobuf::LogSilencer::~LogSilencer()
PUBLIC 8e400 0 google::protobuf::Closure::~Closure()
PUBLIC 8e410 0 google::protobuf::internal::FunctionClosure0::~FunctionClosure0()
PUBLIC 8e430 0 google::protobuf::internal::FunctionClosure0::~FunctionClosure0()
PUBLIC 8e450 0 google::protobuf::Closure::~Closure()
PUBLIC 8e470 0 google::protobuf::DoNothing()
PUBLIC 8e480 0 google::protobuf::ghtonl(unsigned int)
PUBLIC 8e490 0 google::protobuf::internal::LogMessage::operator<<(google::protobuf::uint128 const&)
PUBLIC 8e780 0 google::protobuf::internal::VersionString[abi:cxx11](int)
PUBLIC 8e860 0 google::protobuf::internal::VerifyVersion(int, int, char const*)
PUBLIC 8eab0 0 google::protobuf::internal::LogMessage::operator<<(google::protobuf::StringPiece const&)
PUBLIC 8eb40 0 google::protobuf::internal::FunctionClosure0::Run()
PUBLIC 8eb80 0 void std::__cxx11::basic_string<char, std::char_traits<char>, std::allocator<char> >::_M_construct<char const*>(char const*, char const*, std::forward_iterator_tag)
PUBLIC 8ec20 0 google::protobuf::uint128::DivModImpl(google::protobuf::uint128, google::protobuf::uint128, google::protobuf::uint128*, google::protobuf::uint128*)
PUBLIC 8ef80 0 google::protobuf::uint128::operator/=(google::protobuf::uint128 const&)
PUBLIC 8eff0 0 google::protobuf::uint128::operator%=(google::protobuf::uint128 const&)
PUBLIC 8f060 0 google::protobuf::operator<<(std::ostream&, google::protobuf::uint128 const&)
PUBLIC 8f800 0 google::protobuf::util::Status::Status()
PUBLIC 8f820 0 google::protobuf::util::Status::Status(google::protobuf::util::Status const&)
PUBLIC 8f8e0 0 google::protobuf::util::Status::operator=(google::protobuf::util::Status const&)
PUBLIC 8f900 0 google::protobuf::util::Status::operator==(google::protobuf::util::Status const&) const
PUBLIC 8f940 0 google::protobuf::util::Status::Status(google::protobuf::util::error::Code, google::protobuf::StringPiece)
PUBLIC 8fa80 0 google::protobuf::util::Status::ToString[abi:cxx11]() const
PUBLIC 8fc20 0 google::protobuf::util::operator<<(std::ostream&, google::protobuf::util::Status const&)
PUBLIC 8fc70 0 google::protobuf::util::Status::~Status()
PUBLIC 8fc90 0 google::protobuf::util::error::CodeEnumToString[abi:cxx11](google::protobuf::util::error::Code)
PUBLIC 8fe60 0 google::protobuf::internal::ArenaImpl::Block::Block(unsigned long, google::protobuf::internal::ArenaImpl::Block*)
PUBLIC 8fe70 0 google::protobuf::internal::ArenaImpl::NewBlock(google::protobuf::internal::ArenaImpl::Block*, unsigned long)
PUBLIC 8ff60 0 google::protobuf::internal::ArenaImpl::SerialArena::AllocateAlignedFallback(unsigned long)
PUBLIC 8ffd0 0 google::protobuf::internal::ArenaImpl::SerialArena::AddCleanupFallback(void*, void (*)(void*))
PUBLIC 900b0 0 google::protobuf::internal::ArenaImpl::SpaceAllocated() const
PUBLIC 900c0 0 google::protobuf::internal::ArenaImpl::SerialArena::SpaceUsed() const
PUBLIC 90100 0 google::protobuf::internal::ArenaImpl::SpaceUsed() const
PUBLIC 90140 0 google::protobuf::internal::ArenaImpl::SerialArena::Free(google::protobuf::internal::ArenaImpl::SerialArena*, google::protobuf::internal::ArenaImpl::Block*, void (*)(void*, unsigned long))
PUBLIC 901b0 0 google::protobuf::internal::ArenaImpl::FreeBlocks()
PUBLIC 901f0 0 google::protobuf::internal::ArenaImpl::SerialArena::CleanupListFallback()
PUBLIC 90250 0 google::protobuf::internal::ArenaImpl::SerialArena::CleanupList()
PUBLIC 90270 0 google::protobuf::internal::ArenaImpl::CleanupList()
PUBLIC 902a0 0 google::protobuf::internal::ArenaImpl::~ArenaImpl()
PUBLIC 902c0 0 google::protobuf::internal::ArenaImpl::SerialArena::New(google::protobuf::internal::ArenaImpl::Block*, void*, google::protobuf::internal::ArenaImpl*)
PUBLIC 90310 0 google::protobuf::internal::ArenaImpl::Init()
PUBLIC 903b0 0 google::protobuf::internal::ArenaImpl::Reset()
PUBLIC 903e0 0 google::protobuf::internal::ArenaImpl::GetSerialArenaFallback(void*)
PUBLIC 90470 0 google::protobuf::internal::ArenaImpl::GetSerialArena()
PUBLIC 904d0 0 google::protobuf::internal::ArenaImpl::AllocateAlignedFallback(unsigned long)
PUBLIC 90510 0 google::protobuf::internal::ArenaImpl::AllocateAlignedAndAddCleanupFallback(unsigned long, void (*)(void*))
PUBLIC 905a0 0 google::protobuf::internal::ArenaImpl::AllocateAlignedAndAddCleanup(unsigned long, void (*)(void*))
PUBLIC 90670 0 google::protobuf::internal::ArenaImpl::AddCleanupFallback(void*, void (*)(void*))
PUBLIC 906c0 0 google::protobuf::internal::ArenaImpl::AddCleanup(void*, void (*)(void*))
PUBLIC 90760 0 google::protobuf::Arena::AllocateAlignedNoHook(unsigned long)
PUBLIC 907f0 0 google::protobuf::Arena::CallDestructorHooks()
PUBLIC 90840 0 google::protobuf::Arena::OnArenaAllocation(std::type_info const*, unsigned long) const
PUBLIC 90870 0 google::protobuf::internal::DestroyString(void const*)
PUBLIC 90890 0 google::protobuf::internal::(anonymous namespace)::InitSCC_DFS(google::protobuf::internal::SCCInfoBase*)
PUBLIC 90910 0 google::protobuf::io::CodedOutputStream::WriteVarint32ToArray(unsigned int, unsigned char*) [clone .part.0]
PUBLIC 90960 0 google::protobuf::io::CodedOutputStream::WriteVarint64ToArray(unsigned long, unsigned char*) [clone .part.0]
PUBLIC 909c0 0 void google::protobuf::internal::SingularFieldHelper<1>::Serialize<google::protobuf::internal::ArrayOutput>(void const*, google::protobuf::internal::FieldMetadata const&, google::protobuf::internal::ArrayOutput*) [clone .isra.0]
PUBLIC 90a50 0 void google::protobuf::internal::SingularFieldHelper<2>::Serialize<google::protobuf::internal::ArrayOutput>(void const*, google::protobuf::internal::FieldMetadata const&, google::protobuf::internal::ArrayOutput*) [clone .isra.0]
PUBLIC 90ae0 0 void google::protobuf::internal::SingularFieldHelper<1>::Serialize<google::protobuf::io::CodedOutputStream>(void const*, google::protobuf::internal::FieldMetadata const&, google::protobuf::io::CodedOutputStream*) [clone .isra.0]
PUBLIC 90bb0 0 void google::protobuf::internal::SingularFieldHelper<2>::Serialize<google::protobuf::io::CodedOutputStream>(void const*, google::protobuf::internal::FieldMetadata const&, google::protobuf::io::CodedOutputStream*) [clone .isra.0]
PUBLIC 90c80 0 void google::protobuf::internal::SingularFieldHelper<9>::Serialize<google::protobuf::internal::ArrayOutput>(void const*, google::protobuf::internal::FieldMetadata const&, google::protobuf::internal::ArrayOutput*) [clone .isra.0]
PUBLIC 90d20 0 void google::protobuf::internal::SingularFieldHelper<5>::Serialize<google::protobuf::internal::ArrayOutput>(void const*, google::protobuf::internal::FieldMetadata const&, google::protobuf::internal::ArrayOutput*) [clone .isra.0]
PUBLIC 90e10 0 google::protobuf::internal::DestroyMessage(void const*)
PUBLIC 90e20 0 google::protobuf::internal::InitProtobufDefaults()
PUBLIC 90e90 0 google::protobuf::internal::StringSpaceUsedExcludingSelfLong(std::__cxx11::basic_string<char, std::char_traits<char>, std::allocator<char> > const&)
PUBLIC 90ed0 0 google::protobuf::internal::SerializeMessageNoTable(google::protobuf::MessageLite const*, google::protobuf::io::CodedOutputStream*)
PUBLIC 90f50 0 google::protobuf::internal::SerializeMessageNoTable(google::protobuf::MessageLite const*, google::protobuf::internal::ArrayOutput*)
PUBLIC 91030 0 google::protobuf::internal::SerializeNotImplemented(int)
PUBLIC 910a0 0 google::protobuf::internal::FieldMetadata::CalculateType(int, google::protobuf::internal::FieldMetadata::FieldTypeClass)
PUBLIC 910b0 0 bool google::protobuf::internal::IsNull<9>(void const*)
PUBLIC 910c0 0 bool google::protobuf::internal::IsNull<12>(void const*)
PUBLIC 910d0 0 bool google::protobuf::internal::IsNull<10>(void const*)
PUBLIC 910e0 0 bool google::protobuf::internal::IsNull<11>(void const*)
PUBLIC 910f0 0 bool google::protobuf::internal::IsNull<21>(void const*)
PUBLIC 91100 0 google::protobuf::internal::ExtensionSerializer(unsigned char const*, unsigned int, unsigned int, unsigned int, google::protobuf::io::CodedOutputStream*)
PUBLIC 91120 0 google::protobuf::internal::UnknownFieldSerializerLite(unsigned char const*, unsigned int, unsigned int, unsigned int, google::protobuf::io::CodedOutputStream*)
PUBLIC 911a0 0 google::protobuf::internal::DuplicateIfNonNullInternal(google::protobuf::MessageLite*)
PUBLIC 91260 0 google::protobuf::internal::GenericSwap(google::protobuf::MessageLite*, google::protobuf::MessageLite*)
PUBLIC 913f0 0 google::protobuf::internal::InitSCCImpl(google::protobuf::internal::SCCInfoBase*)
PUBLIC 91530 0 google::protobuf::internal::GetOwnedMessageInternal(google::protobuf::Arena*, google::protobuf::MessageLite*, google::protobuf::Arena*)
PUBLIC 915c0 0 google::protobuf::internal::SerializeInternal(unsigned char const*, google::protobuf::internal::FieldMetadata const*, int, google::protobuf::io::CodedOutputStream*)
PUBLIC 94500 0 google::protobuf::internal::SerializeMessageDispatch(google::protobuf::MessageLite const&, google::protobuf::internal::FieldMetadata const*, int, int, google::protobuf::io::CodedOutputStream*)
PUBLIC 94510 0 google::protobuf::internal::SerializeInternalToArray(unsigned char const*, google::protobuf::internal::FieldMetadata const*, int, bool, unsigned char*)
PUBLIC 97200 0 google::protobuf::internal::SerializeMessageDispatch(google::protobuf::MessageLite const&, google::protobuf::internal::FieldMetadata const*, int, int, google::protobuf::internal::ArrayOutput*)
PUBLIC 97220 0 google::protobuf::internal::ImplicitWeakMessage::Clear()
PUBLIC 97230 0 google::protobuf::internal::ImplicitWeakMessage::GetCachedSize() const
PUBLIC 97240 0 void google::protobuf::internal::arena_delete_object<google::protobuf::MessageLite>(void*)
PUBLIC 97260 0 google::protobuf::internal::ImplicitWeakMessage::New() const
PUBLIC 972a0 0 google::protobuf::internal::ImplicitWeakMessage::CheckTypeAndMergeFrom(google::protobuf::MessageLite const&)
PUBLIC 972c0 0 google::protobuf::internal::ImplicitWeakMessage::_InternalSerialize(unsigned char*, google::protobuf::io::EpsCopyOutputStream*) const
PUBLIC 97300 0 google::protobuf::io::CodedOutputStream::WriteVarint32(unsigned int)
PUBLIC 973b0 0 google::protobuf::io::CodedOutputStream::WriteVarint64(unsigned long)
PUBLIC 97470 0 google::protobuf::internal::PrimitiveTypeHelper<9>::Serialize(void const*, google::protobuf::io::CodedOutputStream*)
PUBLIC 97570 0 void google::protobuf::internal::PackedFieldHelper<9>::Serialize<google::protobuf::io::CodedOutputStream>(void const*, google::protobuf::internal::FieldMetadata const&, google::protobuf::io::CodedOutputStream*)
PUBLIC 97600 0 void google::protobuf::internal::PackedFieldHelper<9>::Serialize<google::protobuf::internal::ArrayOutput>(void const*, google::protobuf::internal::FieldMetadata const&, google::protobuf::internal::ArrayOutput*)
PUBLIC 97690 0 void google::protobuf::Arena::Own<google::protobuf::MessageLite>(google::protobuf::MessageLite*)
PUBLIC 976b0 0 void google::protobuf::internal::SerializeMessageTo<google::protobuf::io::CodedOutputStream>(google::protobuf::MessageLite const*, void const*, google::protobuf::io::CodedOutputStream*)
PUBLIC 97870 0 void google::protobuf::internal::SerializeGroupTo<google::protobuf::io::CodedOutputStream>(google::protobuf::MessageLite const*, void const*, google::protobuf::io::CodedOutputStream*)
PUBLIC 978a0 0 void google::protobuf::internal::SerializeMessageTo<google::protobuf::internal::ArrayOutput>(google::protobuf::MessageLite const*, void const*, google::protobuf::internal::ArrayOutput*)
PUBLIC 979d0 0 void google::protobuf::internal::SerializeGroupTo<google::protobuf::internal::ArrayOutput>(google::protobuf::MessageLite const*, void const*, google::protobuf::internal::ArrayOutput*)
PUBLIC 97a00 0 void google::protobuf::internal::SingularFieldHelper<10>::Serialize<google::protobuf::internal::ArrayOutput>(void const*, google::protobuf::internal::FieldMetadata const&, google::protobuf::internal::ArrayOutput*)
PUBLIC 97b10 0 google::protobuf::internal::InitImplicitWeakMessageDefaultInstance()
PUBLIC 97b50 0 google::protobuf::internal::ImplicitWeakMessage::_InternalParse(char const*, google::protobuf::internal::ParseContext*)
PUBLIC 97bf0 0 google::protobuf::internal::ImplicitWeakMessage::default_instance()
PUBLIC 97c70 0 google::protobuf::MessageLite::InternalGetTable() const
PUBLIC 97c80 0 google::protobuf::internal::ImplicitWeakMessage::IsInitialized() const
PUBLIC 97c90 0 google::protobuf::internal::ImplicitWeakMessage::ByteSizeLong() const
PUBLIC 97ca0 0 std::call_once<void (&)()>(std::once_flag&, void (&)())::{lambda()#2}::_FUN()
PUBLIC 97cc0 0 void google::protobuf::internal::arena_destruct_object<google::protobuf::internal::ImplicitWeakMessage>(void*)
PUBLIC 97cd0 0 google::protobuf::internal::ImplicitWeakMessage::~ImplicitWeakMessage()
PUBLIC 97d00 0 google::protobuf::internal::ImplicitWeakMessage::~ImplicitWeakMessage()
PUBLIC 97d40 0 google::protobuf::internal::ImplicitWeakMessage::New(google::protobuf::Arena*) const
PUBLIC 97dc0 0 google::protobuf::internal::ImplicitWeakMessage::GetTypeName[abi:cxx11]() const
PUBLIC 97de0 0 google::protobuf::internal::RunZeroArgFunc(void const*)
PUBLIC 97df0 0 google::protobuf::MessageLite::InitializationErrorString[abi:cxx11]() const [clone .localalias]
PUBLIC 97e70 0 google::protobuf::MessageLite::DebugString[abi:cxx11]() const
PUBLIC 97ec0 0 google::protobuf::MessageLite::LogInitializationErrorMessage() const
PUBLIC 98160 0 google::protobuf::MessageLite::MergeFromImpl(google::protobuf::io::CodedInputStream*, google::protobuf::MessageLite::ParseFlags)
PUBLIC 982f0 0 google::protobuf::MessageLite::MergePartialFromCodedStream(google::protobuf::io::CodedInputStream*)
PUBLIC 98300 0 google::protobuf::MessageLite::MergeFromCodedStream(google::protobuf::io::CodedInputStream*)
PUBLIC 98310 0 google::protobuf::MessageLite::ParseFromCodedStream(google::protobuf::io::CodedInputStream*)
PUBLIC 98370 0 google::protobuf::MessageLite::ParsePartialFromCodedStream(google::protobuf::io::CodedInputStream*)
PUBLIC 983d0 0 google::protobuf::MessageLite::ParseFromZeroCopyStream(google::protobuf::io::ZeroCopyInputStream*)
PUBLIC 98420 0 google::protobuf::MessageLite::ParsePartialFromZeroCopyStream(google::protobuf::io::ZeroCopyInputStream*)
PUBLIC 98470 0 google::protobuf::MessageLite::MergePartialFromBoundedZeroCopyStream(google::protobuf::io::ZeroCopyInputStream*, int)
PUBLIC 98490 0 google::protobuf::MessageLite::MergeFromBoundedZeroCopyStream(google::protobuf::io::ZeroCopyInputStream*, int)
PUBLIC 984b0 0 google::protobuf::MessageLite::ParseFromBoundedZeroCopyStream(google::protobuf::io::ZeroCopyInputStream*, int)
PUBLIC 98510 0 google::protobuf::MessageLite::ParsePartialFromBoundedZeroCopyStream(google::protobuf::io::ZeroCopyInputStream*, int)
PUBLIC 98570 0 google::protobuf::MessageLite::ParseFromString(std::__cxx11::basic_string<char, std::char_traits<char>, std::allocator<char> > const&)
PUBLIC 985c0 0 google::protobuf::MessageLite::ParsePartialFromString(std::__cxx11::basic_string<char, std::char_traits<char>, std::allocator<char> > const&)
PUBLIC 98610 0 google::protobuf::MessageLite::ParseFromArray(void const*, int)
PUBLIC 98670 0 google::protobuf::MessageLite::ParsePartialFromArray(void const*, int)
PUBLIC 986d0 0 google::protobuf::MessageLite::MergeFromString(std::__cxx11::basic_string<char, std::char_traits<char>, std::allocator<char> > const&)
PUBLIC 986f0 0 google::protobuf::MessageLite::SerializeWithCachedSizesToArray(unsigned char*) const
PUBLIC 987d0 0 google::protobuf::MessageLite::SerializePartialToCodedStream(google::protobuf::io::CodedOutputStream*) const
PUBLIC 98c40 0 google::protobuf::MessageLite::SerializeToCodedStream(google::protobuf::io::CodedOutputStream*) const
PUBLIC 98c50 0 google::protobuf::MessageLite::SerializePartialToZeroCopyStream(google::protobuf::io::ZeroCopyOutputStream*) const
PUBLIC 98e20 0 google::protobuf::MessageLite::SerializeToZeroCopyStream(google::protobuf::io::ZeroCopyOutputStream*) const
PUBLIC 98e30 0 google::protobuf::MessageLite::AppendPartialToString(std::__cxx11::basic_string<char, std::char_traits<char>, std::allocator<char> >*) const
PUBLIC 99010 0 google::protobuf::MessageLite::AppendToString(std::__cxx11::basic_string<char, std::char_traits<char>, std::allocator<char> >*) const
PUBLIC 99020 0 google::protobuf::MessageLite::SerializeToString(std::__cxx11::basic_string<char, std::char_traits<char>, std::allocator<char> >*) const
PUBLIC 99040 0 google::protobuf::MessageLite::SerializePartialToString(std::__cxx11::basic_string<char, std::char_traits<char>, std::allocator<char> >*) const
PUBLIC 99060 0 google::protobuf::MessageLite::SerializePartialToArray(void*, int) const
PUBLIC 99250 0 google::protobuf::MessageLite::SerializeToArray(void*, int) const
PUBLIC 99260 0 google::protobuf::MessageLite::SerializeAsString[abi:cxx11]() const
PUBLIC 992b0 0 google::protobuf::MessageLite::SerializePartialAsString[abi:cxx11]() const
PUBLIC 99300 0 google::protobuf::internal::GenericTypeHandler<google::protobuf::MessageLite>::NewFromPrototype(google::protobuf::MessageLite const*, google::protobuf::Arena*)
PUBLIC 99310 0 google::protobuf::internal::GenericTypeHandler<google::protobuf::MessageLite>::Merge(google::protobuf::MessageLite const&, google::protobuf::MessageLite*)
PUBLIC 99350 0 google::protobuf::internal::GenericTypeHandler<std::__cxx11::basic_string<char, std::char_traits<char>, std::allocator<char> > >::Merge(std::__cxx11::basic_string<char, std::char_traits<char>, std::allocator<char> > const&, std::__cxx11::basic_string<char, std::char_traits<char>, std::allocator<char> >*)
PUBLIC 99360 0 google::protobuf::ShutdownProtobufLibrary()
PUBLIC 994a0 0 google::protobuf::MessageLite::New(google::protobuf::Arena*) const
PUBLIC 99520 0 google::protobuf::internal::OnShutdownRun(void (*)(void const*), void const*)
PUBLIC 99640 0 google::protobuf::internal::OnShutdown(void (*)())
PUBLIC 99650 0 google::protobuf::MessageLite::ParseFromFileDescriptor(int)
PUBLIC 996c0 0 google::protobuf::MessageLite::ParsePartialFromFileDescriptor(int)
PUBLIC 99730 0 google::protobuf::MessageLite::ParseFromIstream(std::istream*)
PUBLIC 997b0 0 google::protobuf::MessageLite::ParsePartialFromIstream(std::istream*)
PUBLIC 99830 0 google::protobuf::MessageLite::SerializeToFileDescriptor(int) const
PUBLIC 99890 0 google::protobuf::MessageLite::SerializePartialToFileDescriptor(int) const
PUBLIC 998f0 0 google::protobuf::MessageLite::SerializeToOstream(std::ostream*) const
PUBLIC 99970 0 google::protobuf::MessageLite::SerializePartialToOstream(std::ostream*) const
PUBLIC 999c0 0 google::protobuf::MessageLite::_InternalParse(char const*, google::protobuf::internal::ParseContext*)
PUBLIC 999d0 0 google::protobuf::ZeroCopyCodedInputStream::BackUp(int)
PUBLIC 999e0 0 google::protobuf::ZeroCopyCodedInputStream::ByteCount() const
PUBLIC 999f0 0 google::protobuf::ZeroCopyCodedInputStream::~ZeroCopyCodedInputStream()
PUBLIC 99a00 0 google::protobuf::ZeroCopyCodedInputStream::~ZeroCopyCodedInputStream()
PUBLIC 99a10 0 google::protobuf::ZeroCopyCodedInputStream::Next(void const**, int*)
PUBLIC 99a70 0 google::protobuf::ZeroCopyCodedInputStream::Skip(int)
PUBLIC 99ab0 0 bool google::protobuf::internal::MergeFromImpl<false>(google::protobuf::StringPiece, google::protobuf::MessageLite*, google::protobuf::MessageLite::ParseFlags)
PUBLIC 99c20 0 bool google::protobuf::internal::MergeFromImpl<true>(google::protobuf::StringPiece, google::protobuf::MessageLite*, google::protobuf::MessageLite::ParseFlags)
PUBLIC 99d90 0 bool google::protobuf::internal::MergeFromImpl<false>(google::protobuf::io::ZeroCopyInputStream*, google::protobuf::MessageLite*, google::protobuf::MessageLite::ParseFlags)
PUBLIC 99e80 0 bool google::protobuf::internal::MergeFromImpl<true>(google::protobuf::io::ZeroCopyInputStream*, google::protobuf::MessageLite*, google::protobuf::MessageLite::ParseFlags)
PUBLIC 99f70 0 bool google::protobuf::internal::MergeFromImpl<false>(google::protobuf::internal::BoundedZCIS, google::protobuf::MessageLite*, google::protobuf::MessageLite::ParseFlags)
PUBLIC 9a100 0 bool google::protobuf::internal::MergeFromImpl<true>(google::protobuf::internal::BoundedZCIS, google::protobuf::MessageLite*, google::protobuf::MessageLite::ParseFlags)
PUBLIC 9a290 0 void std::vector<std::pair<void (*)(void const*), void const*>, std::allocator<std::pair<void (*)(void const*), void const*> > >::_M_realloc_insert<std::pair<void (*)(void const*), void const*> >(__gnu_cxx::__normal_iterator<std::pair<void (*)(void const*), void const*>*, std::vector<std::pair<void (*)(void const*), void const*>, std::allocator<std::pair<void (*)(void const*), void const*> > > >, std::pair<void (*)(void const*), void const*>&&)
PUBLIC 9a410 0 void google::protobuf::internal::byteswap<1>(void*)
PUBLIC 9a420 0 void google::protobuf::internal::byteswap<4>(void*)
PUBLIC 9a430 0 void google::protobuf::internal::byteswap<8>(void*)
PUBLIC 9a440 0 google::protobuf::internal::EpsCopyInputStream::InitFrom(google::protobuf::io::ZeroCopyInputStream*)
PUBLIC 9a520 0 google::protobuf::internal::WriteVarint(unsigned int, unsigned long, std::__cxx11::basic_string<char, std::char_traits<char>, std::allocator<char> >*)
PUBLIC 9a710 0 google::protobuf::internal::WriteLengthDelimited(unsigned int, google::protobuf::StringPiece, std::__cxx11::basic_string<char, std::char_traits<char>, std::allocator<char> >*)
PUBLIC 9a970 0 google::protobuf::internal::VarintParseSlow32(char const*, unsigned int)
PUBLIC 9a9c0 0 google::protobuf::internal::VarintParseSlow64(char const*, unsigned int)
PUBLIC 9aa10 0 google::protobuf::internal::ReadTagFallback(char const*, unsigned int)
PUBLIC 9aa50 0 google::protobuf::internal::ReadSizeFallback(char const*, unsigned int)
PUBLIC 9aac0 0 google::protobuf::internal::ParseContext::ParseMessage(google::protobuf::MessageLite*, char const*)
PUBLIC 9ab90 0 google::protobuf::internal::ParseContext::ParseMessage(google::protobuf::Message*, char const*)
PUBLIC 9aba0 0 google::protobuf::internal::StringParser(char const*, char const*, void*, google::protobuf::internal::ParseContext*)
PUBLIC 9abe0 0 google::protobuf::internal::VerifyUTF8(google::protobuf::StringPiece, char const*)
PUBLIC 9ad10 0 google::protobuf::internal::EpsCopyInputStream::Next(int, int)
PUBLIC 9b070 0 google::protobuf::internal::EpsCopyInputStream::DoneFallback(char const*, int)
PUBLIC 9b140 0 google::protobuf::internal::EpsCopyInputStream::SkipFallback(char const*, int)
PUBLIC 9b1b0 0 google::protobuf::internal::EpsCopyInputStream::ReadStringFallback(char const*, int, std::__cxx11::basic_string<char, std::char_traits<char>, std::allocator<char> >*)
PUBLIC 9b2e0 0 google::protobuf::internal::InlineGreedyStringParser(std::__cxx11::basic_string<char, std::char_traits<char>, std::allocator<char> >*, char const*, google::protobuf::internal::ParseContext*)
PUBLIC 9b380 0 google::protobuf::internal::EpsCopyInputStream::AppendStringFallback(char const*, int, std::__cxx11::basic_string<char, std::char_traits<char>, std::allocator<char> >*)
PUBLIC 9b4a0 0 google::protobuf::internal::PackedFixed32Parser(void*, char const*, google::protobuf::internal::ParseContext*)
PUBLIC 9b600 0 google::protobuf::internal::PackedSFixed32Parser(void*, char const*, google::protobuf::internal::ParseContext*)
PUBLIC 9b760 0 google::protobuf::internal::PackedFloatParser(void*, char const*, google::protobuf::internal::ParseContext*)
PUBLIC 9b8c0 0 google::protobuf::internal::PackedDoubleParser(void*, char const*, google::protobuf::internal::ParseContext*)
PUBLIC 9ba20 0 google::protobuf::internal::PackedSFixed64Parser(void*, char const*, google::protobuf::internal::ParseContext*)
PUBLIC 9bb80 0 google::protobuf::internal::PackedFixed64Parser(void*, char const*, google::protobuf::internal::ParseContext*)
PUBLIC 9bce0 0 google::protobuf::internal::PackedInt32Parser(void*, char const*, google::protobuf::internal::ParseContext*) [clone .localalias]
PUBLIC 9be30 0 google::protobuf::internal::PackedEnumParser(void*, char const*, google::protobuf::internal::ParseContext*)
PUBLIC 9be40 0 google::protobuf::internal::PackedUInt32Parser(void*, char const*, google::protobuf::internal::ParseContext*)
PUBLIC 9bf90 0 google::protobuf::internal::PackedInt64Parser(void*, char const*, google::protobuf::internal::ParseContext*)
PUBLIC 9c0e0 0 google::protobuf::internal::PackedUInt64Parser(void*, char const*, google::protobuf::internal::ParseContext*)
PUBLIC 9c230 0 google::protobuf::internal::PackedSInt32Parser(void*, char const*, google::protobuf::internal::ParseContext*)
PUBLIC 9c390 0 google::protobuf::internal::PackedSInt64Parser(void*, char const*, google::protobuf::internal::ParseContext*)
PUBLIC 9c4f0 0 google::protobuf::internal::PackedBoolParser(void*, char const*, google::protobuf::internal::ParseContext*)
PUBLIC 9c640 0 google::protobuf::internal::UnknownGroupLiteParse(std::__cxx11::basic_string<char, std::char_traits<char>, std::allocator<char> >*, char const*, google::protobuf::internal::ParseContext*)
PUBLIC 9c660 0 google::protobuf::internal::UnknownFieldParse(unsigned int, std::__cxx11::basic_string<char, std::char_traits<char>, std::allocator<char> >*, char const*, google::protobuf::internal::ParseContext*)
PUBLIC 9c680 0 char const* google::protobuf::internal::VarintParse<unsigned long>(char const*, unsigned long*)
PUBLIC 9c6d0 0 char const* google::protobuf::internal::FieldParser<google::protobuf::internal::UnknownFieldLiteParserHelper>(unsigned long, google::protobuf::internal::UnknownFieldLiteParserHelper&, char const*, google::protobuf::internal::ParseContext*)
PUBLIC 9d2d0 0 char const* google::protobuf::internal::WireFormatParser<google::protobuf::internal::UnknownFieldLiteParserHelper>(google::protobuf::internal::UnknownFieldLiteParserHelper&, char const*, google::protobuf::internal::ParseContext*)
PUBLIC 9d3c0 0 google::protobuf::internal::RepeatedPtrFieldBase::InternalExtend(int)
PUBLIC 9d4c0 0 google::protobuf::internal::RepeatedPtrFieldBase::Reserve(int)
PUBLIC 9d4e0 0 google::protobuf::internal::RepeatedPtrFieldBase::CloseGap(int, int)
PUBLIC 9d530 0 google::protobuf::internal::RepeatedPtrFieldBase::AddWeak(google::protobuf::MessageLite const*)
PUBLIC 9d640 0 void google::protobuf::internal::arena_delete_object<std::__cxx11::basic_string<char, std::char_traits<char>, std::allocator<char> > >(void*)
PUBLIC 9d680 0 void google::protobuf::internal::RepeatedPtrFieldBase::MergeFromInnerLoop<google::protobuf::RepeatedPtrField<std::__cxx11::basic_string<char, std::char_traits<char>, std::allocator<char> > >::TypeHandler>(void**, void**, int, int)
PUBLIC 9d7a0 0 google::protobuf::RepeatedField<bool>::RepeatedField()
PUBLIC 9d7b0 0 google::protobuf::RepeatedField<bool>::RepeatedField(google::protobuf::Arena*)
PUBLIC 9d7c0 0 google::protobuf::RepeatedField<bool>::~RepeatedField()
PUBLIC 9d7f0 0 google::protobuf::RepeatedField<bool>::empty() const
PUBLIC 9d800 0 google::protobuf::RepeatedField<bool>::size() const
PUBLIC 9d810 0 google::protobuf::RepeatedField<bool>::Get(int) const
PUBLIC 9d820 0 google::protobuf::RepeatedField<bool>::Mutable(int)
PUBLIC 9d830 0 google::protobuf::RepeatedField<bool>::operator[](int) const
PUBLIC 9d840 0 google::protobuf::RepeatedField<bool>::operator[](int)
PUBLIC 9d850 0 google::protobuf::RepeatedField<bool>::at(int) const
PUBLIC 9d940 0 google::protobuf::RepeatedField<bool>::at(int)
PUBLIC 9da30 0 google::protobuf::RepeatedField<bool>::Set(int, bool const&)
PUBLIC 9da40 0 google::protobuf::RepeatedField<bool>::RemoveLast()
PUBLIC 9da50 0 google::protobuf::RepeatedField<bool>::ExtractSubrange(int, int, bool*)
PUBLIC 9dad0 0 google::protobuf::RepeatedField<bool>::Clear()
PUBLIC 9dae0 0 google::protobuf::RepeatedField<bool>::Reserve(int)
PUBLIC 9dc40 0 google::protobuf::RepeatedField<bool>::Add(bool const&)
PUBLIC 9dc90 0 google::protobuf::RepeatedField<bool>::Add()
PUBLIC 9dcd0 0 google::protobuf::RepeatedField<bool>::RepeatedField(google::protobuf::RepeatedField<bool> const&)
PUBLIC 9dd20 0 google::protobuf::RepeatedField<bool>::MergeFrom(google::protobuf::RepeatedField<bool> const&)
PUBLIC 9dd70 0 google::protobuf::RepeatedField<bool>::CopyFrom(google::protobuf::RepeatedField<bool> const&)
PUBLIC 9ddd0 0 google::protobuf::RepeatedField<bool>::operator=(google::protobuf::RepeatedField<bool> const&)
PUBLIC 9de30 0 google::protobuf::RepeatedField<bool>::RepeatedField(google::protobuf::RepeatedField<bool>&&)
PUBLIC 9dec0 0 google::protobuf::RepeatedField<bool>::operator=(google::protobuf::RepeatedField<bool>&&)
PUBLIC 9df90 0 google::protobuf::RepeatedField<bool>::Truncate(int)
PUBLIC 9dfa0 0 google::protobuf::RepeatedField<bool>::AddAlreadyReserved(bool const&)
PUBLIC 9dfc0 0 google::protobuf::RepeatedField<bool>::AddAlreadyReserved()
PUBLIC 9dfd0 0 google::protobuf::RepeatedField<bool>::AddNAlreadyReserved(int)
PUBLIC 9dff0 0 google::protobuf::RepeatedField<bool>::Capacity() const
PUBLIC 9e000 0 google::protobuf::RepeatedField<bool>::Resize(int, bool const&)
PUBLIC 9e060 0 google::protobuf::RepeatedField<bool>::mutable_data()
PUBLIC 9e070 0 google::protobuf::RepeatedField<bool>::data() const
PUBLIC 9e080 0 google::protobuf::RepeatedField<bool>::UnsafeArenaSwap(google::protobuf::RepeatedField<bool>*)
PUBLIC 9e0a0 0 google::protobuf::RepeatedField<bool>::Swap(google::protobuf::RepeatedField<bool>*)
PUBLIC 9e1d0 0 google::protobuf::RepeatedField<bool>::SwapElements(int, int)
PUBLIC 9e1f0 0 google::protobuf::RepeatedField<bool>::begin()
PUBLIC 9e200 0 google::protobuf::RepeatedField<bool>::begin() const
PUBLIC 9e210 0 google::protobuf::RepeatedField<bool>::cbegin() const
PUBLIC 9e220 0 google::protobuf::RepeatedField<bool>::end()
PUBLIC 9e230 0 google::protobuf::RepeatedField<bool>::end() const
PUBLIC 9e240 0 google::protobuf::RepeatedField<bool>::cend() const
PUBLIC 9e250 0 google::protobuf::RepeatedField<bool>::rbegin()
PUBLIC 9e260 0 google::protobuf::RepeatedField<bool>::rbegin() const
PUBLIC 9e270 0 google::protobuf::RepeatedField<bool>::rend()
PUBLIC 9e280 0 google::protobuf::RepeatedField<bool>::rend() const
PUBLIC 9e290 0 google::protobuf::RepeatedField<bool>::SpaceUsedExcludingSelfLong() const
PUBLIC 9e2b0 0 google::protobuf::RepeatedField<bool>::SpaceUsedExcludingSelf() const
PUBLIC 9e2d0 0 google::protobuf::RepeatedField<bool>::erase(bool const*)
PUBLIC 9e340 0 google::protobuf::RepeatedField<bool>::erase(bool const*, bool const*)
PUBLIC 9e3b0 0 google::protobuf::RepeatedField<bool>::GetArena() const
PUBLIC 9e3c0 0 google::protobuf::RepeatedField<bool>::InternalSwap(google::protobuf::RepeatedField<bool>*)
PUBLIC 9e3d0 0 google::protobuf::RepeatedField<bool>::elements() const
PUBLIC 9e3e0 0 google::protobuf::RepeatedField<bool>::unsafe_elements() const
PUBLIC 9e3f0 0 google::protobuf::RepeatedField<bool>::rep() const
PUBLIC 9e400 0 google::protobuf::RepeatedField<bool>::MoveArray(bool*, bool*, int)
PUBLIC 9e410 0 google::protobuf::RepeatedField<bool>::CopyArray(bool*, bool const*, int)
PUBLIC 9e420 0 google::protobuf::RepeatedField<bool>::InternalDeallocate(google::protobuf::RepeatedField<bool>::Rep*, int)
PUBLIC 9e440 0 google::protobuf::RepeatedField<bool>::FastAdder::FastAdder(google::protobuf::RepeatedField<bool>*)
PUBLIC 9e460 0 google::protobuf::RepeatedField<bool>::FastAdder::~FastAdder()
PUBLIC 9e470 0 google::protobuf::RepeatedField<bool>::FastAdder::Add(bool const&)
PUBLIC 9e4d0 0 google::protobuf::RepeatedField<int>::RepeatedField()
PUBLIC 9e4e0 0 google::protobuf::RepeatedField<int>::RepeatedField(google::protobuf::Arena*)
PUBLIC 9e4f0 0 google::protobuf::RepeatedField<int>::~RepeatedField()
PUBLIC 9e520 0 google::protobuf::RepeatedField<int>::empty() const
PUBLIC 9e530 0 google::protobuf::RepeatedField<int>::size() const
PUBLIC 9e540 0 google::protobuf::RepeatedField<int>::Get(int) const
PUBLIC 9e550 0 google::protobuf::RepeatedField<int>::Mutable(int)
PUBLIC 9e560 0 google::protobuf::RepeatedField<int>::operator[](int) const
PUBLIC 9e570 0 google::protobuf::RepeatedField<int>::operator[](int)
PUBLIC 9e580 0 google::protobuf::RepeatedField<int>::at(int) const
PUBLIC 9e670 0 google::protobuf::RepeatedField<int>::at(int)
PUBLIC 9e760 0 google::protobuf::RepeatedField<int>::Set(int, int const&)
PUBLIC 9e770 0 google::protobuf::RepeatedField<int>::RemoveLast()
PUBLIC 9e780 0 google::protobuf::RepeatedField<int>::ExtractSubrange(int, int, int*)
PUBLIC 9e800 0 google::protobuf::RepeatedField<int>::Clear()
PUBLIC 9e810 0 google::protobuf::RepeatedField<int>::Reserve(int)
PUBLIC 9e960 0 google::protobuf::RepeatedField<int>::Add(int const&)
PUBLIC 9e9b0 0 google::protobuf::RepeatedField<int>::Add()
PUBLIC 9e9f0 0 google::protobuf::RepeatedField<int>::RepeatedField(google::protobuf::RepeatedField<int> const&)
PUBLIC 9ea40 0 google::protobuf::RepeatedField<int>::MergeFrom(google::protobuf::RepeatedField<int> const&)
PUBLIC 9ea90 0 google::protobuf::RepeatedField<int>::CopyFrom(google::protobuf::RepeatedField<int> const&)
PUBLIC 9eaf0 0 google::protobuf::RepeatedField<int>::operator=(google::protobuf::RepeatedField<int> const&)
PUBLIC 9eb50 0 google::protobuf::RepeatedField<int>::RepeatedField(google::protobuf::RepeatedField<int>&&)
PUBLIC 9ebe0 0 google::protobuf::RepeatedField<int>::operator=(google::protobuf::RepeatedField<int>&&)
PUBLIC 9ecb0 0 google::protobuf::RepeatedField<int>::Truncate(int)
PUBLIC 9ecc0 0 google::protobuf::RepeatedField<int>::AddAlreadyReserved(int const&)
PUBLIC 9ece0 0 google::protobuf::RepeatedField<int>::AddAlreadyReserved()
PUBLIC 9ed00 0 google::protobuf::RepeatedField<int>::AddNAlreadyReserved(int)
PUBLIC 9ed20 0 google::protobuf::RepeatedField<int>::Capacity() const
PUBLIC 9ed30 0 google::protobuf::RepeatedField<int>::Resize(int, int const&)
PUBLIC 9ed90 0 google::protobuf::RepeatedField<int>::mutable_data()
PUBLIC 9eda0 0 google::protobuf::RepeatedField<int>::data() const
PUBLIC 9edb0 0 google::protobuf::RepeatedField<int>::UnsafeArenaSwap(google::protobuf::RepeatedField<int>*)
PUBLIC 9edd0 0 google::protobuf::RepeatedField<int>::Swap(google::protobuf::RepeatedField<int>*)
PUBLIC 9ef00 0 google::protobuf::RepeatedField<int>::SwapElements(int, int)
PUBLIC 9ef20 0 google::protobuf::RepeatedField<int>::begin()
PUBLIC 9ef30 0 google::protobuf::RepeatedField<int>::begin() const
PUBLIC 9ef40 0 google::protobuf::RepeatedField<int>::cbegin() const
PUBLIC 9ef50 0 google::protobuf::RepeatedField<int>::end()
PUBLIC 9ef60 0 google::protobuf::RepeatedField<int>::end() const
PUBLIC 9ef70 0 google::protobuf::RepeatedField<int>::cend() const
PUBLIC 9ef80 0 google::protobuf::RepeatedField<int>::rbegin()
PUBLIC 9efa0 0 google::protobuf::RepeatedField<int>::rbegin() const
PUBLIC 9efc0 0 google::protobuf::RepeatedField<int>::rend()
PUBLIC 9efd0 0 google::protobuf::RepeatedField<int>::rend() const
PUBLIC 9efe0 0 google::protobuf::RepeatedField<int>::SpaceUsedExcludingSelfLong() const
PUBLIC 9f000 0 google::protobuf::RepeatedField<int>::SpaceUsedExcludingSelf() const
PUBLIC 9f020 0 google::protobuf::RepeatedField<int>::erase(int const*)
PUBLIC 9f090 0 google::protobuf::RepeatedField<int>::erase(int const*, int const*)
PUBLIC 9f110 0 google::protobuf::RepeatedField<int>::GetArena() const
PUBLIC 9f120 0 google::protobuf::RepeatedField<int>::InternalSwap(google::protobuf::RepeatedField<int>*)
PUBLIC 9f130 0 google::protobuf::RepeatedField<int>::elements() const
PUBLIC 9f140 0 google::protobuf::RepeatedField<int>::unsafe_elements() const
PUBLIC 9f150 0 google::protobuf::RepeatedField<int>::rep() const
PUBLIC 9f160 0 google::protobuf::RepeatedField<int>::MoveArray(int*, int*, int)
PUBLIC 9f180 0 google::protobuf::RepeatedField<int>::CopyArray(int*, int const*, int)
PUBLIC 9f1a0 0 google::protobuf::RepeatedField<int>::InternalDeallocate(google::protobuf::RepeatedField<int>::Rep*, int)
PUBLIC 9f1c0 0 google::protobuf::RepeatedField<int>::FastAdder::FastAdder(google::protobuf::RepeatedField<int>*)
PUBLIC 9f1e0 0 google::protobuf::RepeatedField<int>::FastAdder::~FastAdder()
PUBLIC 9f1f0 0 google::protobuf::RepeatedField<int>::FastAdder::Add(int const&)
PUBLIC 9f260 0 google::protobuf::RepeatedField<unsigned int>::RepeatedField()
PUBLIC 9f270 0 google::protobuf::RepeatedField<unsigned int>::RepeatedField(google::protobuf::Arena*)
PUBLIC 9f280 0 google::protobuf::RepeatedField<unsigned int>::~RepeatedField()
PUBLIC 9f2b0 0 google::protobuf::RepeatedField<unsigned int>::empty() const
PUBLIC 9f2c0 0 google::protobuf::RepeatedField<unsigned int>::size() const
PUBLIC 9f2d0 0 google::protobuf::RepeatedField<unsigned int>::Get(int) const
PUBLIC 9f2e0 0 google::protobuf::RepeatedField<unsigned int>::Mutable(int)
PUBLIC 9f2f0 0 google::protobuf::RepeatedField<unsigned int>::operator[](int) const
PUBLIC 9f300 0 google::protobuf::RepeatedField<unsigned int>::operator[](int)
PUBLIC 9f310 0 google::protobuf::RepeatedField<unsigned int>::at(int) const
PUBLIC 9f400 0 google::protobuf::RepeatedField<unsigned int>::at(int)
PUBLIC 9f4f0 0 google::protobuf::RepeatedField<unsigned int>::Set(int, unsigned int const&)
PUBLIC 9f500 0 google::protobuf::RepeatedField<unsigned int>::RemoveLast()
PUBLIC 9f510 0 google::protobuf::RepeatedField<unsigned int>::ExtractSubrange(int, int, unsigned int*)
PUBLIC 9f590 0 google::protobuf::RepeatedField<unsigned int>::Clear()
PUBLIC 9f5a0 0 google::protobuf::RepeatedField<unsigned int>::Reserve(int)
PUBLIC 9f6f0 0 google::protobuf::RepeatedField<unsigned int>::Add(unsigned int const&)
PUBLIC 9f740 0 google::protobuf::RepeatedField<unsigned int>::Add()
PUBLIC 9f780 0 google::protobuf::RepeatedField<unsigned int>::RepeatedField(google::protobuf::RepeatedField<unsigned int> const&)
PUBLIC 9f7d0 0 google::protobuf::RepeatedField<unsigned int>::MergeFrom(google::protobuf::RepeatedField<unsigned int> const&)
PUBLIC 9f820 0 google::protobuf::RepeatedField<unsigned int>::CopyFrom(google::protobuf::RepeatedField<unsigned int> const&)
PUBLIC 9f880 0 google::protobuf::RepeatedField<unsigned int>::operator=(google::protobuf::RepeatedField<unsigned int> const&)
PUBLIC 9f8e0 0 google::protobuf::RepeatedField<unsigned int>::RepeatedField(google::protobuf::RepeatedField<unsigned int>&&)
PUBLIC 9f970 0 google::protobuf::RepeatedField<unsigned int>::operator=(google::protobuf::RepeatedField<unsigned int>&&)
PUBLIC 9fa40 0 google::protobuf::RepeatedField<unsigned int>::Truncate(int)
PUBLIC 9fa50 0 google::protobuf::RepeatedField<unsigned int>::AddAlreadyReserved(unsigned int const&)
PUBLIC 9fa70 0 google::protobuf::RepeatedField<unsigned int>::AddAlreadyReserved()
PUBLIC 9fa90 0 google::protobuf::RepeatedField<unsigned int>::AddNAlreadyReserved(int)
PUBLIC 9fab0 0 google::protobuf::RepeatedField<unsigned int>::Capacity() const
PUBLIC 9fac0 0 google::protobuf::RepeatedField<unsigned int>::Resize(int, unsigned int const&)
PUBLIC 9fb20 0 google::protobuf::RepeatedField<unsigned int>::mutable_data()
PUBLIC 9fb30 0 google::protobuf::RepeatedField<unsigned int>::data() const
PUBLIC 9fb40 0 google::protobuf::RepeatedField<unsigned int>::UnsafeArenaSwap(google::protobuf::RepeatedField<unsigned int>*)
PUBLIC 9fb60 0 google::protobuf::RepeatedField<unsigned int>::Swap(google::protobuf::RepeatedField<unsigned int>*)
PUBLIC 9fc90 0 google::protobuf::RepeatedField<unsigned int>::SwapElements(int, int)
PUBLIC 9fcb0 0 google::protobuf::RepeatedField<unsigned int>::begin()
PUBLIC 9fcc0 0 google::protobuf::RepeatedField<unsigned int>::begin() const
PUBLIC 9fcd0 0 google::protobuf::RepeatedField<unsigned int>::cbegin() const
PUBLIC 9fce0 0 google::protobuf::RepeatedField<unsigned int>::end()
PUBLIC 9fcf0 0 google::protobuf::RepeatedField<unsigned int>::end() const
PUBLIC 9fd00 0 google::protobuf::RepeatedField<unsigned int>::cend() const
PUBLIC 9fd10 0 google::protobuf::RepeatedField<unsigned int>::rbegin()
PUBLIC 9fd30 0 google::protobuf::RepeatedField<unsigned int>::rbegin() const
PUBLIC 9fd50 0 google::protobuf::RepeatedField<unsigned int>::rend()
PUBLIC 9fd60 0 google::protobuf::RepeatedField<unsigned int>::rend() const
PUBLIC 9fd70 0 google::protobuf::RepeatedField<unsigned int>::SpaceUsedExcludingSelfLong() const
PUBLIC 9fd90 0 google::protobuf::RepeatedField<unsigned int>::SpaceUsedExcludingSelf() const
PUBLIC 9fdb0 0 google::protobuf::RepeatedField<unsigned int>::erase(unsigned int const*)
PUBLIC 9fe20 0 google::protobuf::RepeatedField<unsigned int>::erase(unsigned int const*, unsigned int const*)
PUBLIC 9fea0 0 google::protobuf::RepeatedField<unsigned int>::GetArena() const
PUBLIC 9feb0 0 google::protobuf::RepeatedField<unsigned int>::InternalSwap(google::protobuf::RepeatedField<unsigned int>*)
PUBLIC 9fec0 0 google::protobuf::RepeatedField<unsigned int>::elements() const
PUBLIC 9fed0 0 google::protobuf::RepeatedField<unsigned int>::unsafe_elements() const
PUBLIC 9fee0 0 google::protobuf::RepeatedField<unsigned int>::rep() const
PUBLIC 9fef0 0 google::protobuf::RepeatedField<unsigned int>::MoveArray(unsigned int*, unsigned int*, int)
PUBLIC 9ff10 0 google::protobuf::RepeatedField<unsigned int>::CopyArray(unsigned int*, unsigned int const*, int)
PUBLIC 9ff30 0 google::protobuf::RepeatedField<unsigned int>::InternalDeallocate(google::protobuf::RepeatedField<unsigned int>::Rep*, int)
PUBLIC 9ff50 0 google::protobuf::RepeatedField<unsigned int>::FastAdder::FastAdder(google::protobuf::RepeatedField<unsigned int>*)
PUBLIC 9ff70 0 google::protobuf::RepeatedField<unsigned int>::FastAdder::~FastAdder()
PUBLIC 9ff80 0 google::protobuf::RepeatedField<unsigned int>::FastAdder::Add(unsigned int const&)
PUBLIC 9fff0 0 google::protobuf::RepeatedField<long>::RepeatedField()
PUBLIC a0000 0 google::protobuf::RepeatedField<long>::RepeatedField(google::protobuf::Arena*)
PUBLIC a0010 0 google::protobuf::RepeatedField<long>::~RepeatedField()
PUBLIC a0040 0 google::protobuf::RepeatedField<long>::empty() const
PUBLIC a0050 0 google::protobuf::RepeatedField<long>::size() const
PUBLIC a0060 0 google::protobuf::RepeatedField<long>::Get(int) const
PUBLIC a0070 0 google::protobuf::RepeatedField<long>::Mutable(int)
PUBLIC a0080 0 google::protobuf::RepeatedField<long>::operator[](int) const
PUBLIC a0090 0 google::protobuf::RepeatedField<long>::operator[](int)
PUBLIC a00a0 0 google::protobuf::RepeatedField<long>::at(int) const
PUBLIC a0190 0 google::protobuf::RepeatedField<long>::at(int)
PUBLIC a0280 0 google::protobuf::RepeatedField<long>::Set(int, long const&)
PUBLIC a0290 0 google::protobuf::RepeatedField<long>::RemoveLast()
PUBLIC a02a0 0 google::protobuf::RepeatedField<long>::ExtractSubrange(int, int, long*)
PUBLIC a0330 0 google::protobuf::RepeatedField<long>::Clear()
PUBLIC a0340 0 google::protobuf::RepeatedField<long>::Reserve(int)
PUBLIC a0490 0 google::protobuf::RepeatedField<long>::Add(long const&)
PUBLIC a04e0 0 google::protobuf::RepeatedField<long>::Add()
PUBLIC a0520 0 google::protobuf::RepeatedField<long>::RepeatedField(google::protobuf::RepeatedField<long> const&)
PUBLIC a0570 0 google::protobuf::RepeatedField<long>::MergeFrom(google::protobuf::RepeatedField<long> const&)
PUBLIC a05c0 0 google::protobuf::RepeatedField<long>::CopyFrom(google::protobuf::RepeatedField<long> const&)
PUBLIC a0620 0 google::protobuf::RepeatedField<long>::operator=(google::protobuf::RepeatedField<long> const&)
PUBLIC a0680 0 google::protobuf::RepeatedField<long>::RepeatedField(google::protobuf::RepeatedField<long>&&)
PUBLIC a0710 0 google::protobuf::RepeatedField<long>::operator=(google::protobuf::RepeatedField<long>&&)
PUBLIC a07e0 0 google::protobuf::RepeatedField<long>::Truncate(int)
PUBLIC a07f0 0 google::protobuf::RepeatedField<long>::AddAlreadyReserved(long const&)
PUBLIC a0810 0 google::protobuf::RepeatedField<long>::AddAlreadyReserved()
PUBLIC a0830 0 google::protobuf::RepeatedField<long>::AddNAlreadyReserved(int)
PUBLIC a0850 0 google::protobuf::RepeatedField<long>::Capacity() const
PUBLIC a0860 0 google::protobuf::RepeatedField<long>::Resize(int, long const&)
PUBLIC a08c0 0 google::protobuf::RepeatedField<long>::mutable_data()
PUBLIC a08d0 0 google::protobuf::RepeatedField<long>::data() const
PUBLIC a08e0 0 google::protobuf::RepeatedField<long>::UnsafeArenaSwap(google::protobuf::RepeatedField<long>*)
PUBLIC a0900 0 google::protobuf::RepeatedField<long>::Swap(google::protobuf::RepeatedField<long>*)
PUBLIC a0a30 0 google::protobuf::RepeatedField<long>::SwapElements(int, int)
PUBLIC a0a50 0 google::protobuf::RepeatedField<long>::begin()
PUBLIC a0a60 0 google::protobuf::RepeatedField<long>::begin() const
PUBLIC a0a70 0 google::protobuf::RepeatedField<long>::cbegin() const
PUBLIC a0a80 0 google::protobuf::RepeatedField<long>::end()
PUBLIC a0a90 0 google::protobuf::RepeatedField<long>::end() const
PUBLIC a0aa0 0 google::protobuf::RepeatedField<long>::cend() const
PUBLIC a0ab0 0 google::protobuf::RepeatedField<long>::rbegin()
PUBLIC a0ad0 0 google::protobuf::RepeatedField<long>::rbegin() const
PUBLIC a0af0 0 google::protobuf::RepeatedField<long>::rend()
PUBLIC a0b00 0 google::protobuf::RepeatedField<long>::rend() const
PUBLIC a0b10 0 google::protobuf::RepeatedField<long>::SpaceUsedExcludingSelfLong() const
PUBLIC a0b30 0 google::protobuf::RepeatedField<long>::SpaceUsedExcludingSelf() const
PUBLIC a0b50 0 google::protobuf::RepeatedField<long>::erase(long const*)
PUBLIC a0bc0 0 google::protobuf::RepeatedField<long>::erase(long const*, long const*)
PUBLIC a0c40 0 google::protobuf::RepeatedField<long>::GetArena() const
PUBLIC a0c50 0 google::protobuf::RepeatedField<long>::InternalSwap(google::protobuf::RepeatedField<long>*)
PUBLIC a0c60 0 google::protobuf::RepeatedField<long>::elements() const
PUBLIC a0c70 0 google::protobuf::RepeatedField<long>::unsafe_elements() const
PUBLIC a0c80 0 google::protobuf::RepeatedField<long>::rep() const
PUBLIC a0c90 0 google::protobuf::RepeatedField<long>::MoveArray(long*, long*, int)
PUBLIC a0cb0 0 google::protobuf::RepeatedField<long>::CopyArray(long*, long const*, int)
PUBLIC a0cd0 0 google::protobuf::RepeatedField<long>::InternalDeallocate(google::protobuf::RepeatedField<long>::Rep*, int)
PUBLIC a0cf0 0 google::protobuf::RepeatedField<long>::FastAdder::FastAdder(google::protobuf::RepeatedField<long>*)
PUBLIC a0d10 0 google::protobuf::RepeatedField<long>::FastAdder::~FastAdder()
PUBLIC a0d20 0 google::protobuf::RepeatedField<long>::FastAdder::Add(long const&)
PUBLIC a0d80 0 google::protobuf::RepeatedField<unsigned long>::RepeatedField()
PUBLIC a0d90 0 google::protobuf::RepeatedField<unsigned long>::RepeatedField(google::protobuf::Arena*)
PUBLIC a0da0 0 google::protobuf::RepeatedField<unsigned long>::~RepeatedField()
PUBLIC a0dd0 0 google::protobuf::RepeatedField<unsigned long>::empty() const
PUBLIC a0de0 0 google::protobuf::RepeatedField<unsigned long>::size() const
PUBLIC a0df0 0 google::protobuf::RepeatedField<unsigned long>::Get(int) const
PUBLIC a0e00 0 google::protobuf::RepeatedField<unsigned long>::Mutable(int)
PUBLIC a0e10 0 google::protobuf::RepeatedField<unsigned long>::operator[](int) const
PUBLIC a0e20 0 google::protobuf::RepeatedField<unsigned long>::operator[](int)
PUBLIC a0e30 0 google::protobuf::RepeatedField<unsigned long>::at(int) const
PUBLIC a0f20 0 google::protobuf::RepeatedField<unsigned long>::at(int)
PUBLIC a1010 0 google::protobuf::RepeatedField<unsigned long>::Set(int, unsigned long const&)
PUBLIC a1020 0 google::protobuf::RepeatedField<unsigned long>::RemoveLast()
PUBLIC a1030 0 google::protobuf::RepeatedField<unsigned long>::ExtractSubrange(int, int, unsigned long*)
PUBLIC a10c0 0 google::protobuf::RepeatedField<unsigned long>::Clear()
PUBLIC a10d0 0 google::protobuf::RepeatedField<unsigned long>::Reserve(int)
PUBLIC a1220 0 google::protobuf::RepeatedField<unsigned long>::Add(unsigned long const&)
PUBLIC a1270 0 google::protobuf::RepeatedField<unsigned long>::Add()
PUBLIC a12b0 0 google::protobuf::RepeatedField<unsigned long>::RepeatedField(google::protobuf::RepeatedField<unsigned long> const&)
PUBLIC a1300 0 google::protobuf::RepeatedField<unsigned long>::MergeFrom(google::protobuf::RepeatedField<unsigned long> const&)
PUBLIC a1350 0 google::protobuf::RepeatedField<unsigned long>::CopyFrom(google::protobuf::RepeatedField<unsigned long> const&)
PUBLIC a13b0 0 google::protobuf::RepeatedField<unsigned long>::operator=(google::protobuf::RepeatedField<unsigned long> const&)
PUBLIC a1410 0 google::protobuf::RepeatedField<unsigned long>::RepeatedField(google::protobuf::RepeatedField<unsigned long>&&)
PUBLIC a14a0 0 google::protobuf::RepeatedField<unsigned long>::operator=(google::protobuf::RepeatedField<unsigned long>&&)
PUBLIC a1570 0 google::protobuf::RepeatedField<unsigned long>::Truncate(int)
PUBLIC a1580 0 google::protobuf::RepeatedField<unsigned long>::AddAlreadyReserved(unsigned long const&)
PUBLIC a15a0 0 google::protobuf::RepeatedField<unsigned long>::AddAlreadyReserved()
PUBLIC a15c0 0 google::protobuf::RepeatedField<unsigned long>::AddNAlreadyReserved(int)
PUBLIC a15e0 0 google::protobuf::RepeatedField<unsigned long>::Capacity() const
PUBLIC a15f0 0 google::protobuf::RepeatedField<unsigned long>::Resize(int, unsigned long const&)
PUBLIC a1650 0 google::protobuf::RepeatedField<unsigned long>::mutable_data()
PUBLIC a1660 0 google::protobuf::RepeatedField<unsigned long>::data() const
PUBLIC a1670 0 google::protobuf::RepeatedField<unsigned long>::UnsafeArenaSwap(google::protobuf::RepeatedField<unsigned long>*)
PUBLIC a1690 0 google::protobuf::RepeatedField<unsigned long>::Swap(google::protobuf::RepeatedField<unsigned long>*)
PUBLIC a17c0 0 google::protobuf::RepeatedField<unsigned long>::SwapElements(int, int)
PUBLIC a17e0 0 google::protobuf::RepeatedField<unsigned long>::begin()
PUBLIC a17f0 0 google::protobuf::RepeatedField<unsigned long>::begin() const
PUBLIC a1800 0 google::protobuf::RepeatedField<unsigned long>::cbegin() const
PUBLIC a1810 0 google::protobuf::RepeatedField<unsigned long>::end()
PUBLIC a1820 0 google::protobuf::RepeatedField<unsigned long>::end() const
PUBLIC a1830 0 google::protobuf::RepeatedField<unsigned long>::cend() const
PUBLIC a1840 0 google::protobuf::RepeatedField<unsigned long>::rbegin()
PUBLIC a1860 0 google::protobuf::RepeatedField<unsigned long>::rbegin() const
PUBLIC a1880 0 google::protobuf::RepeatedField<unsigned long>::rend()
PUBLIC a1890 0 google::protobuf::RepeatedField<unsigned long>::rend() const
PUBLIC a18a0 0 google::protobuf::RepeatedField<unsigned long>::SpaceUsedExcludingSelfLong() const
PUBLIC a18c0 0 google::protobuf::RepeatedField<unsigned long>::SpaceUsedExcludingSelf() const
PUBLIC a18e0 0 google::protobuf::RepeatedField<unsigned long>::erase(unsigned long const*)
PUBLIC a1950 0 google::protobuf::RepeatedField<unsigned long>::erase(unsigned long const*, unsigned long const*)
PUBLIC a19d0 0 google::protobuf::RepeatedField<unsigned long>::GetArena() const
PUBLIC a19e0 0 google::protobuf::RepeatedField<unsigned long>::InternalSwap(google::protobuf::RepeatedField<unsigned long>*)
PUBLIC a19f0 0 google::protobuf::RepeatedField<unsigned long>::elements() const
PUBLIC a1a00 0 google::protobuf::RepeatedField<unsigned long>::unsafe_elements() const
PUBLIC a1a10 0 google::protobuf::RepeatedField<unsigned long>::rep() const
PUBLIC a1a20 0 google::protobuf::RepeatedField<unsigned long>::MoveArray(unsigned long*, unsigned long*, int)
PUBLIC a1a40 0 google::protobuf::RepeatedField<unsigned long>::CopyArray(unsigned long*, unsigned long const*, int)
PUBLIC a1a60 0 google::protobuf::RepeatedField<unsigned long>::InternalDeallocate(google::protobuf::RepeatedField<unsigned long>::Rep*, int)
PUBLIC a1a80 0 google::protobuf::RepeatedField<unsigned long>::FastAdder::FastAdder(google::protobuf::RepeatedField<unsigned long>*)
PUBLIC a1aa0 0 google::protobuf::RepeatedField<unsigned long>::FastAdder::~FastAdder()
PUBLIC a1ab0 0 google::protobuf::RepeatedField<unsigned long>::FastAdder::Add(unsigned long const&)
PUBLIC a1b10 0 google::protobuf::RepeatedField<float>::RepeatedField()
PUBLIC a1b20 0 google::protobuf::RepeatedField<float>::RepeatedField(google::protobuf::Arena*)
PUBLIC a1b30 0 google::protobuf::RepeatedField<float>::~RepeatedField()
PUBLIC a1b60 0 google::protobuf::RepeatedField<float>::empty() const
PUBLIC a1b70 0 google::protobuf::RepeatedField<float>::size() const
PUBLIC a1b80 0 google::protobuf::RepeatedField<float>::Get(int) const
PUBLIC a1b90 0 google::protobuf::RepeatedField<float>::Mutable(int)
PUBLIC a1ba0 0 google::protobuf::RepeatedField<float>::operator[](int) const
PUBLIC a1bb0 0 google::protobuf::RepeatedField<float>::operator[](int)
PUBLIC a1bc0 0 google::protobuf::RepeatedField<float>::at(int) const
PUBLIC a1cb0 0 google::protobuf::RepeatedField<float>::at(int)
PUBLIC a1da0 0 google::protobuf::RepeatedField<float>::Set(int, float const&)
PUBLIC a1dc0 0 google::protobuf::RepeatedField<float>::RemoveLast()
PUBLIC a1dd0 0 google::protobuf::RepeatedField<float>::ExtractSubrange(int, int, float*)
PUBLIC a1e70 0 google::protobuf::RepeatedField<float>::Clear()
PUBLIC a1e80 0 google::protobuf::RepeatedField<float>::Reserve(int)
PUBLIC a1fd0 0 google::protobuf::RepeatedField<float>::Add(float const&)
PUBLIC a2020 0 google::protobuf::RepeatedField<float>::Add()
PUBLIC a2060 0 google::protobuf::RepeatedField<float>::RepeatedField(google::protobuf::RepeatedField<float> const&)
PUBLIC a20b0 0 google::protobuf::RepeatedField<float>::MergeFrom(google::protobuf::RepeatedField<float> const&)
PUBLIC a2100 0 google::protobuf::RepeatedField<float>::CopyFrom(google::protobuf::RepeatedField<float> const&)
PUBLIC a2160 0 google::protobuf::RepeatedField<float>::operator=(google::protobuf::RepeatedField<float> const&)
PUBLIC a21c0 0 google::protobuf::RepeatedField<float>::RepeatedField(google::protobuf::RepeatedField<float>&&)
PUBLIC a2250 0 google::protobuf::RepeatedField<float>::operator=(google::protobuf::RepeatedField<float>&&)
PUBLIC a2320 0 google::protobuf::RepeatedField<float>::Truncate(int)
PUBLIC a2330 0 google::protobuf::RepeatedField<float>::AddAlreadyReserved(float const&)
PUBLIC a2350 0 google::protobuf::RepeatedField<float>::AddAlreadyReserved()
PUBLIC a2370 0 google::protobuf::RepeatedField<float>::AddNAlreadyReserved(int)
PUBLIC a2390 0 google::protobuf::RepeatedField<float>::Capacity() const
PUBLIC a23a0 0 google::protobuf::RepeatedField<float>::Resize(int, float const&)
PUBLIC a2400 0 google::protobuf::RepeatedField<float>::mutable_data()
PUBLIC a2410 0 google::protobuf::RepeatedField<float>::data() const
PUBLIC a2420 0 google::protobuf::RepeatedField<float>::UnsafeArenaSwap(google::protobuf::RepeatedField<float>*)
PUBLIC a2440 0 google::protobuf::RepeatedField<float>::Swap(google::protobuf::RepeatedField<float>*)
PUBLIC a2570 0 google::protobuf::RepeatedField<float>::SwapElements(int, int)
PUBLIC a25a0 0 google::protobuf::RepeatedField<float>::begin()
PUBLIC a25b0 0 google::protobuf::RepeatedField<float>::begin() const
PUBLIC a25c0 0 google::protobuf::RepeatedField<float>::cbegin() const
PUBLIC a25d0 0 google::protobuf::RepeatedField<float>::end()
PUBLIC a25e0 0 google::protobuf::RepeatedField<float>::end() const
PUBLIC a25f0 0 google::protobuf::RepeatedField<float>::cend() const
PUBLIC a2600 0 google::protobuf::RepeatedField<float>::rbegin()
PUBLIC a2620 0 google::protobuf::RepeatedField<float>::rbegin() const
PUBLIC a2640 0 google::protobuf::RepeatedField<float>::rend()
PUBLIC a2650 0 google::protobuf::RepeatedField<float>::rend() const
PUBLIC a2660 0 google::protobuf::RepeatedField<float>::SpaceUsedExcludingSelfLong() const
PUBLIC a2680 0 google::protobuf::RepeatedField<float>::SpaceUsedExcludingSelf() const
PUBLIC a26a0 0 google::protobuf::RepeatedField<float>::erase(float const*)
PUBLIC a2710 0 google::protobuf::RepeatedField<float>::erase(float const*, float const*)
PUBLIC a2790 0 google::protobuf::RepeatedField<float>::GetArena() const
PUBLIC a27a0 0 google::protobuf::RepeatedField<float>::InternalSwap(google::protobuf::RepeatedField<float>*)
PUBLIC a27b0 0 google::protobuf::RepeatedField<float>::elements() const
PUBLIC a27c0 0 google::protobuf::RepeatedField<float>::unsafe_elements() const
PUBLIC a27d0 0 google::protobuf::RepeatedField<float>::rep() const
PUBLIC a27e0 0 google::protobuf::RepeatedField<float>::MoveArray(float*, float*, int)
PUBLIC a2800 0 google::protobuf::RepeatedField<float>::CopyArray(float*, float const*, int)
PUBLIC a2820 0 google::protobuf::RepeatedField<float>::InternalDeallocate(google::protobuf::RepeatedField<float>::Rep*, int)
PUBLIC a2840 0 google::protobuf::RepeatedField<float>::FastAdder::FastAdder(google::protobuf::RepeatedField<float>*)
PUBLIC a2860 0 google::protobuf::RepeatedField<float>::FastAdder::~FastAdder()
PUBLIC a2870 0 google::protobuf::RepeatedField<float>::FastAdder::Add(float const&)
PUBLIC a28d0 0 google::protobuf::RepeatedField<double>::RepeatedField()
PUBLIC a28e0 0 google::protobuf::RepeatedField<double>::RepeatedField(google::protobuf::Arena*)
PUBLIC a28f0 0 google::protobuf::RepeatedField<double>::~RepeatedField()
PUBLIC a2920 0 google::protobuf::RepeatedField<double>::empty() const
PUBLIC a2930 0 google::protobuf::RepeatedField<double>::size() const
PUBLIC a2940 0 google::protobuf::RepeatedField<double>::Get(int) const
PUBLIC a2950 0 google::protobuf::RepeatedField<double>::Mutable(int)
PUBLIC a2960 0 google::protobuf::RepeatedField<double>::operator[](int) const
PUBLIC a2970 0 google::protobuf::RepeatedField<double>::operator[](int)
PUBLIC a2980 0 google::protobuf::RepeatedField<double>::at(int) const
PUBLIC a2a70 0 google::protobuf::RepeatedField<double>::at(int)
PUBLIC a2b60 0 google::protobuf::RepeatedField<double>::Set(int, double const&)
PUBLIC a2b80 0 google::protobuf::RepeatedField<double>::RemoveLast()
PUBLIC a2b90 0 google::protobuf::RepeatedField<double>::ExtractSubrange(int, int, double*)
PUBLIC a2c30 0 google::protobuf::RepeatedField<double>::Clear()
PUBLIC a2c40 0 google::protobuf::RepeatedField<double>::Reserve(int)
PUBLIC a2d90 0 google::protobuf::RepeatedField<double>::Add(double const&)
PUBLIC a2de0 0 google::protobuf::RepeatedField<double>::Add()
PUBLIC a2e20 0 google::protobuf::RepeatedField<double>::RepeatedField(google::protobuf::RepeatedField<double> const&)
PUBLIC a2e70 0 google::protobuf::RepeatedField<double>::MergeFrom(google::protobuf::RepeatedField<double> const&)
PUBLIC a2ec0 0 google::protobuf::RepeatedField<double>::CopyFrom(google::protobuf::RepeatedField<double> const&)
PUBLIC a2f20 0 google::protobuf::RepeatedField<double>::operator=(google::protobuf::RepeatedField<double> const&)
PUBLIC a2f80 0 google::protobuf::RepeatedField<double>::RepeatedField(google::protobuf::RepeatedField<double>&&)
PUBLIC a3010 0 google::protobuf::RepeatedField<double>::operator=(google::protobuf::RepeatedField<double>&&)
PUBLIC a30e0 0 google::protobuf::RepeatedField<double>::Truncate(int)
PUBLIC a30f0 0 google::protobuf::RepeatedField<double>::AddAlreadyReserved(double const&)
PUBLIC a3110 0 google::protobuf::RepeatedField<double>::AddAlreadyReserved()
PUBLIC a3130 0 google::protobuf::RepeatedField<double>::AddNAlreadyReserved(int)
PUBLIC a3150 0 google::protobuf::RepeatedField<double>::Capacity() const
PUBLIC a3160 0 google::protobuf::RepeatedField<double>::Resize(int, double const&)
PUBLIC a31c0 0 google::protobuf::RepeatedField<double>::mutable_data()
PUBLIC a31d0 0 google::protobuf::RepeatedField<double>::data() const
PUBLIC a31e0 0 google::protobuf::RepeatedField<double>::UnsafeArenaSwap(google::protobuf::RepeatedField<double>*)
PUBLIC a3200 0 google::protobuf::RepeatedField<double>::Swap(google::protobuf::RepeatedField<double>*)
PUBLIC a3330 0 google::protobuf::RepeatedField<double>::SwapElements(int, int)
PUBLIC a3360 0 google::protobuf::RepeatedField<double>::begin()
PUBLIC a3370 0 google::protobuf::RepeatedField<double>::begin() const
PUBLIC a3380 0 google::protobuf::RepeatedField<double>::cbegin() const
PUBLIC a3390 0 google::protobuf::RepeatedField<double>::end()
PUBLIC a33a0 0 google::protobuf::RepeatedField<double>::end() const
PUBLIC a33b0 0 google::protobuf::RepeatedField<double>::cend() const
PUBLIC a33c0 0 google::protobuf::RepeatedField<double>::rbegin()
PUBLIC a33e0 0 google::protobuf::RepeatedField<double>::rbegin() const
PUBLIC a3400 0 google::protobuf::RepeatedField<double>::rend()
PUBLIC a3410 0 google::protobuf::RepeatedField<double>::rend() const
PUBLIC a3420 0 google::protobuf::RepeatedField<double>::SpaceUsedExcludingSelfLong() const
PUBLIC a3440 0 google::protobuf::RepeatedField<double>::SpaceUsedExcludingSelf() const
PUBLIC a3460 0 google::protobuf::RepeatedField<double>::erase(double const*)
PUBLIC a34d0 0 google::protobuf::RepeatedField<double>::erase(double const*, double const*)
PUBLIC a3550 0 google::protobuf::RepeatedField<double>::GetArena() const
PUBLIC a3560 0 google::protobuf::RepeatedField<double>::InternalSwap(google::protobuf::RepeatedField<double>*)
PUBLIC a3570 0 google::protobuf::RepeatedField<double>::elements() const
PUBLIC a3580 0 google::protobuf::RepeatedField<double>::unsafe_elements() const
PUBLIC a3590 0 google::protobuf::RepeatedField<double>::rep() const
PUBLIC a35a0 0 google::protobuf::RepeatedField<double>::MoveArray(double*, double*, int)
PUBLIC a35c0 0 google::protobuf::RepeatedField<double>::CopyArray(double*, double const*, int)
PUBLIC a35e0 0 google::protobuf::RepeatedField<double>::InternalDeallocate(google::protobuf::RepeatedField<double>::Rep*, int)
PUBLIC a3600 0 google::protobuf::RepeatedField<double>::FastAdder::FastAdder(google::protobuf::RepeatedField<double>*)
PUBLIC a3620 0 google::protobuf::RepeatedField<double>::FastAdder::~FastAdder()
PUBLIC a3630 0 google::protobuf::RepeatedField<double>::FastAdder::Add(double const&)
PUBLIC a3690 0 google::protobuf::RepeatedPtrField<std::__cxx11::basic_string<char, std::char_traits<char>, std::allocator<char> > >::RepeatedPtrField()
PUBLIC a36b0 0 google::protobuf::RepeatedPtrField<std::__cxx11::basic_string<char, std::char_traits<char>, std::allocator<char> > >::RepeatedPtrField(google::protobuf::Arena*)
PUBLIC a36d0 0 google::protobuf::RepeatedPtrField<std::__cxx11::basic_string<char, std::char_traits<char>, std::allocator<char> > >::RepeatedPtrField(google::protobuf::RepeatedPtrField<std::__cxx11::basic_string<char, std::char_traits<char>, std::allocator<char> > > const&)
PUBLIC a3750 0 google::protobuf::RepeatedPtrField<std::__cxx11::basic_string<char, std::char_traits<char>, std::allocator<char> > >::operator=(google::protobuf::RepeatedPtrField<std::__cxx11::basic_string<char, std::char_traits<char>, std::allocator<char> > > const&)
PUBLIC a3800 0 google::protobuf::RepeatedPtrField<std::__cxx11::basic_string<char, std::char_traits<char>, std::allocator<char> > >::RepeatedPtrField(google::protobuf::RepeatedPtrField<std::__cxx11::basic_string<char, std::char_traits<char>, std::allocator<char> > >&&)
PUBLIC a3890 0 google::protobuf::RepeatedPtrField<std::__cxx11::basic_string<char, std::char_traits<char>, std::allocator<char> > >::operator=(google::protobuf::RepeatedPtrField<std::__cxx11::basic_string<char, std::char_traits<char>, std::allocator<char> > >&&)
PUBLIC a3960 0 google::protobuf::RepeatedPtrField<std::__cxx11::basic_string<char, std::char_traits<char>, std::allocator<char> > >::empty() const
PUBLIC a3970 0 google::protobuf::RepeatedPtrField<std::__cxx11::basic_string<char, std::char_traits<char>, std::allocator<char> > >::size() const
PUBLIC a3980 0 google::protobuf::RepeatedPtrField<std::__cxx11::basic_string<char, std::char_traits<char>, std::allocator<char> > >::Get(int) const
PUBLIC a3990 0 google::protobuf::RepeatedPtrField<std::__cxx11::basic_string<char, std::char_traits<char>, std::allocator<char> > >::Mutable(int)
PUBLIC a39a0 0 google::protobuf::RepeatedPtrField<std::__cxx11::basic_string<char, std::char_traits<char>, std::allocator<char> > >::Add()
PUBLIC a3a90 0 google::protobuf::RepeatedPtrField<std::__cxx11::basic_string<char, std::char_traits<char>, std::allocator<char> > >::Add(std::__cxx11::basic_string<char, std::char_traits<char>, std::allocator<char> >&&)
PUBLIC a3ca0 0 google::protobuf::RepeatedPtrField<std::__cxx11::basic_string<char, std::char_traits<char>, std::allocator<char> > >::operator[](int) const
PUBLIC a3cb0 0 google::protobuf::RepeatedPtrField<std::__cxx11::basic_string<char, std::char_traits<char>, std::allocator<char> > >::operator[](int)
PUBLIC a3cc0 0 google::protobuf::RepeatedPtrField<std::__cxx11::basic_string<char, std::char_traits<char>, std::allocator<char> > >::at(int) const
PUBLIC a3db0 0 google::protobuf::RepeatedPtrField<std::__cxx11::basic_string<char, std::char_traits<char>, std::allocator<char> > >::at(int)
PUBLIC a3ea0 0 google::protobuf::RepeatedPtrField<std::__cxx11::basic_string<char, std::char_traits<char>, std::allocator<char> > >::RemoveLast()
PUBLIC a3ed0 0 google::protobuf::RepeatedPtrField<std::__cxx11::basic_string<char, std::char_traits<char>, std::allocator<char> > >::DeleteSubrange(int, int)
PUBLIC a3f70 0 google::protobuf::RepeatedPtrField<std::__cxx11::basic_string<char, std::char_traits<char>, std::allocator<char> > >::Clear()
PUBLIC a3fc0 0 google::protobuf::RepeatedPtrField<std::__cxx11::basic_string<char, std::char_traits<char>, std::allocator<char> > >::MergeFrom(google::protobuf::RepeatedPtrField<std::__cxx11::basic_string<char, std::char_traits<char>, std::allocator<char> > > const&)
PUBLIC a4020 0 google::protobuf::RepeatedPtrField<std::__cxx11::basic_string<char, std::char_traits<char>, std::allocator<char> > >::CopyFrom(google::protobuf::RepeatedPtrField<std::__cxx11::basic_string<char, std::char_traits<char>, std::allocator<char> > > const&)
PUBLIC a40d0 0 google::protobuf::RepeatedPtrField<std::__cxx11::basic_string<char, std::char_traits<char>, std::allocator<char> > >::Reserve(int)
PUBLIC a40e0 0 google::protobuf::RepeatedPtrField<std::__cxx11::basic_string<char, std::char_traits<char>, std::allocator<char> > >::Capacity() const
PUBLIC a40f0 0 google::protobuf::RepeatedPtrField<std::__cxx11::basic_string<char, std::char_traits<char>, std::allocator<char> > >::mutable_data()
PUBLIC a4100 0 google::protobuf::RepeatedPtrField<std::__cxx11::basic_string<char, std::char_traits<char>, std::allocator<char> > >::data() const
PUBLIC a4110 0 google::protobuf::RepeatedPtrField<std::__cxx11::basic_string<char, std::char_traits<char>, std::allocator<char> > >::UnsafeArenaSwap(google::protobuf::RepeatedPtrField<std::__cxx11::basic_string<char, std::char_traits<char>, std::allocator<char> > >*)
PUBLIC a4130 0 google::protobuf::RepeatedPtrField<std::__cxx11::basic_string<char, std::char_traits<char>, std::allocator<char> > >::SwapElements(int, int)
PUBLIC a4160 0 google::protobuf::RepeatedPtrField<std::__cxx11::basic_string<char, std::char_traits<char>, std::allocator<char> > >::begin()
PUBLIC a4170 0 google::protobuf::RepeatedPtrField<std::__cxx11::basic_string<char, std::char_traits<char>, std::allocator<char> > >::begin() const
PUBLIC a4180 0 google::protobuf::RepeatedPtrField<std::__cxx11::basic_string<char, std::char_traits<char>, std::allocator<char> > >::cbegin() const
PUBLIC a4190 0 google::protobuf::RepeatedPtrField<std::__cxx11::basic_string<char, std::char_traits<char>, std::allocator<char> > >::end()
PUBLIC a41b0 0 google::protobuf::RepeatedPtrField<std::__cxx11::basic_string<char, std::char_traits<char>, std::allocator<char> > >::end() const
PUBLIC a41d0 0 google::protobuf::RepeatedPtrField<std::__cxx11::basic_string<char, std::char_traits<char>, std::allocator<char> > >::cend() const
PUBLIC a41f0 0 google::protobuf::RepeatedPtrField<std::__cxx11::basic_string<char, std::char_traits<char>, std::allocator<char> > >::rbegin()
PUBLIC a4210 0 google::protobuf::RepeatedPtrField<std::__cxx11::basic_string<char, std::char_traits<char>, std::allocator<char> > >::rbegin() const
PUBLIC a4230 0 google::protobuf::RepeatedPtrField<std::__cxx11::basic_string<char, std::char_traits<char>, std::allocator<char> > >::rend()
PUBLIC a4250 0 google::protobuf::RepeatedPtrField<std::__cxx11::basic_string<char, std::char_traits<char>, std::allocator<char> > >::rend() const
PUBLIC a4270 0 google::protobuf::RepeatedPtrField<std::__cxx11::basic_string<char, std::char_traits<char>, std::allocator<char> > >::pointer_begin()
PUBLIC a4280 0 google::protobuf::RepeatedPtrField<std::__cxx11::basic_string<char, std::char_traits<char>, std::allocator<char> > >::pointer_begin() const
PUBLIC a4290 0 google::protobuf::RepeatedPtrField<std::__cxx11::basic_string<char, std::char_traits<char>, std::allocator<char> > >::pointer_end()
PUBLIC a42b0 0 google::protobuf::RepeatedPtrField<std::__cxx11::basic_string<char, std::char_traits<char>, std::allocator<char> > >::pointer_end() const
PUBLIC a42d0 0 google::protobuf::RepeatedPtrField<std::__cxx11::basic_string<char, std::char_traits<char>, std::allocator<char> > >::SpaceUsedExcludingSelfLong() const
PUBLIC a4320 0 google::protobuf::RepeatedPtrField<std::__cxx11::basic_string<char, std::char_traits<char>, std::allocator<char> > >::SpaceUsedExcludingSelf() const
PUBLIC a4380 0 google::protobuf::RepeatedPtrField<std::__cxx11::basic_string<char, std::char_traits<char>, std::allocator<char> > >::ReleaseLast()
PUBLIC a4400 0 google::protobuf::RepeatedPtrField<std::__cxx11::basic_string<char, std::char_traits<char>, std::allocator<char> > >::UnsafeArenaReleaseLast()
PUBLIC a4440 0 google::protobuf::RepeatedPtrField<std::__cxx11::basic_string<char, std::char_traits<char>, std::allocator<char> > >::ExtractSubrange(int, int, std::__cxx11::basic_string<char, std::char_traits<char>, std::allocator<char> >**)
PUBLIC a4530 0 google::protobuf::RepeatedPtrField<std::__cxx11::basic_string<char, std::char_traits<char>, std::allocator<char> > >::UnsafeArenaExtractSubrange(int, int, std::__cxx11::basic_string<char, std::char_traits<char>, std::allocator<char> >**)
PUBLIC a4580 0 google::protobuf::RepeatedPtrField<std::__cxx11::basic_string<char, std::char_traits<char>, std::allocator<char> > >::ClearedCount() const
PUBLIC a45a0 0 google::protobuf::RepeatedPtrField<std::__cxx11::basic_string<char, std::char_traits<char>, std::allocator<char> > >::AddCleared(std::__cxx11::basic_string<char, std::char_traits<char>, std::allocator<char> >*)
PUBLIC a45f0 0 google::protobuf::RepeatedPtrField<std::__cxx11::basic_string<char, std::char_traits<char>, std::allocator<char> > >::ReleaseCleared()
PUBLIC a4610 0 google::protobuf::RepeatedPtrField<std::__cxx11::basic_string<char, std::char_traits<char>, std::allocator<char> > >::erase(google::protobuf::internal::RepeatedPtrIterator<std::__cxx11::basic_string<char, std::char_traits<char>, std::allocator<char> > const>)
