MODULE Linux x86_64 8C86574E6C46C5ED7B2679843E84EA120 libStrapDUA.so
INFO CODE_ID 4E57868C466CEDC57B2679843E84EA123084D8FE
PUBLIC 47000 0 _init
PUBLIC 4d600 0 deregister_tm_clones
PUBLIC 4d630 0 register_tm_clones
PUBLIC 4d670 0 __do_global_dtors_aux
PUBLIC 4d6b0 0 frame_dummy
PUBLIC 4d6b5 0 vpi_db_access
PUBLIC 4d6bb 0 Strap_InitCustom
PUBLIC 4d781 0 cb1525
PUBLIC 4d7ab 0 cb1524
PUBLIC 4d7d5 0 cb1523
PUBLIC 4d7ff 0 cb1522
PUBLIC 4d829 0 cb1521
PUBLIC 4d853 0 cb1520
PUBLIC 4d87d 0 cb1519
PUBLIC 4d8a7 0 cb1518
PUBLIC 4d8d1 0 cb1517
PUBLIC 4d8fb 0 cb1516
PUBLIC 4d925 0 cb1515
PUBLIC 4d94f 0 cb1514
PUBLIC 4d979 0 cb1513
PUBLIC 4d9a3 0 cb1512
PUBLIC 4d9cd 0 cb1511
PUBLIC 4d9f7 0 cb1510
PUBLIC 4da21 0 cb1509
PUBLIC 4da4b 0 cb1508
PUBLIC 4da75 0 cb1507
PUBLIC 4da9f 0 cb1506
PUBLIC 4dac9 0 cb1505
PUBLIC 4daf3 0 cb1504
PUBLIC 4db1d 0 cb1503
PUBLIC 4db47 0 cb1502
PUBLIC 4db71 0 cb1501
PUBLIC 4db9b 0 cb1500
PUBLIC 4dbc5 0 cb1499
PUBLIC 4dbef 0 cb1498
PUBLIC 4dc19 0 cb1497
PUBLIC 4dc43 0 cb1496
PUBLIC 4dc6d 0 cb1495
PUBLIC 4dc97 0 cb1494
PUBLIC 4dcc1 0 cb1493
PUBLIC 4dceb 0 cb1492
PUBLIC 4dd15 0 cb1491
PUBLIC 4dd3f 0 cb1490
PUBLIC 4dd69 0 cb1489
PUBLIC 4dd93 0 cb1488
PUBLIC 4ddbd 0 cb1487
PUBLIC 4dde7 0 cb1486
PUBLIC 4de11 0 cb1485
PUBLIC 4de3b 0 cb1484
PUBLIC 4de65 0 cb1483
PUBLIC 4de8f 0 cb1482
PUBLIC 4deb9 0 cb1481
PUBLIC 4dee3 0 cb1480
PUBLIC 4df0d 0 cb1479
PUBLIC 4df37 0 cb1478
PUBLIC 4df61 0 cb1477
PUBLIC 4df7b 0 cb1476
PUBLIC 4dfbc 0 cb1475
PUBLIC 4dffd 0 cb1474
PUBLIC 4e03e 0 cb1473
PUBLIC 4e07f 0 cb1472
PUBLIC 4e0c0 0 cb1471
PUBLIC 4e101 0 cb1470
PUBLIC 4e142 0 cb1469
PUBLIC 4e183 0 cb1468
PUBLIC 4e1c4 0 cb1467
PUBLIC 4e205 0 cb1466
PUBLIC 4e246 0 cb1465
PUBLIC 4e287 0 cb1464
PUBLIC 4e2c8 0 cb1463
PUBLIC 4e309 0 cb1462
PUBLIC 4e34a 0 cb1461
PUBLIC 4e38b 0 cb1460
PUBLIC 4e3cc 0 cb1459
PUBLIC 4e40d 0 cb1458
PUBLIC 4e44e 0 cb1457
PUBLIC 4e48f 0 cb1456
PUBLIC 4e4d0 0 cb1455
PUBLIC 4e511 0 cb1454
PUBLIC 4e552 0 cb1453
PUBLIC 4e593 0 cb1452
PUBLIC 4e5d4 0 cb1451
PUBLIC 4e615 0 cb1450
PUBLIC 4e656 0 cb1449
PUBLIC 4e697 0 cb1448
PUBLIC 4e6d8 0 cb1447
PUBLIC 4e719 0 cb1446
PUBLIC 4e75a 0 cb1445
PUBLIC 4e79b 0 cb1444
PUBLIC 4e7dc 0 cb1443
PUBLIC 4e81d 0 cb1442
PUBLIC 4e85e 0 cb1441
PUBLIC 4e89f 0 cb1440
PUBLIC 4e8e0 0 cb1439
PUBLIC 4e921 0 cb1438
PUBLIC 4e962 0 cb1437
PUBLIC 4e9a3 0 cb1436
PUBLIC 4e9e4 0 cb1435
PUBLIC 4ea25 0 cb1434
PUBLIC 4ea66 0 cb1433
PUBLIC 4eaa7 0 cb1432
PUBLIC 4eae8 0 cb1431
PUBLIC 4eb29 0 cb1430
PUBLIC 4eb6a 0 cb1429
PUBLIC 4ebab 0 cb1428
PUBLIC 4ebec 0 cb1427
PUBLIC 4ec2d 0 cb1426
PUBLIC 4ec6e 0 cb1425
PUBLIC 4ecaf 0 cb1424
PUBLIC 4ecf0 0 cb1423
PUBLIC 4ed31 0 cb1422
PUBLIC 4ed72 0 cb1421
PUBLIC 4edb3 0 cb1420
PUBLIC 4edf4 0 cb1419
PUBLIC 4ee35 0 cb1418
PUBLIC 4ee76 0 cb1417
PUBLIC 4eeb7 0 cb1416
PUBLIC 4eef8 0 cb1415
PUBLIC 4ef39 0 cb1414
PUBLIC 4ef7a 0 cb1413
PUBLIC 4efbb 0 cb1412
PUBLIC 4effc 0 cb1411
PUBLIC 4f03d 0 cb1410
PUBLIC 4f07e 0 cb1409
PUBLIC 4f0bf 0 cb1408
PUBLIC 4f100 0 cb1407
PUBLIC 4f141 0 cb1406
PUBLIC 4f182 0 cb1405
PUBLIC 4f1c3 0 cb1404
PUBLIC 4f204 0 cb1403
PUBLIC 4f245 0 cb1402
PUBLIC 4f286 0 cb1401
PUBLIC 4f2c7 0 cb1400
PUBLIC 4f308 0 cb1399
PUBLIC 4f349 0 cb1398
PUBLIC 4f38a 0 cb1397
PUBLIC 4f3cb 0 cb1396
PUBLIC 4f40c 0 cb1395
PUBLIC 4f44d 0 cb1394
PUBLIC 4f48e 0 cb1393
PUBLIC 4f4cf 0 cb1392
PUBLIC 4f510 0 cb1391
PUBLIC 4f551 0 cb1390
PUBLIC 4f592 0 cb1389
PUBLIC 4f5d3 0 cb1388
PUBLIC 4f614 0 cb1387
PUBLIC 4f655 0 cb1386
PUBLIC 4f696 0 cb1385
PUBLIC 4f6d7 0 cb1384
PUBLIC 4f718 0 cb1383
PUBLIC 4f759 0 cb1382
PUBLIC 4f79a 0 cb1381
PUBLIC 4f7db 0 cb1380
PUBLIC 4f81c 0 cb1379
PUBLIC 4f85d 0 cb1378
PUBLIC 4f89e 0 cb1377
PUBLIC 4f8df 0 cb1376
PUBLIC 4f920 0 cb1375
PUBLIC 4f961 0 cb1374
PUBLIC 4f9a2 0 cb1373
PUBLIC 4f9e3 0 cb1372
PUBLIC 4fa24 0 cb1371
PUBLIC 4fa65 0 cb1370
PUBLIC 4faa6 0 cb1369
PUBLIC 4fae7 0 cb1368
PUBLIC 4fb28 0 cb1367
PUBLIC 4fb69 0 cb1366
PUBLIC 4fbaa 0 cb1365
PUBLIC 4fbeb 0 cb1364
PUBLIC 4fc2c 0 cb1363
PUBLIC 4fc6d 0 cb1362
PUBLIC 4fcae 0 cb1361
PUBLIC 4fcef 0 cb1360
PUBLIC 4fd30 0 cb1359
PUBLIC 4fd71 0 cb1358
PUBLIC 4fdb2 0 cb1357
PUBLIC 4fdf3 0 cb1356
PUBLIC 4fe34 0 cb1355
PUBLIC 4fe75 0 cb1354
PUBLIC 4feb6 0 cb1353
PUBLIC 4fef7 0 cb1352
PUBLIC 4ff38 0 cb1351
PUBLIC 4ff79 0 cb1350
PUBLIC 4ffba 0 cb1349
PUBLIC 4fffb 0 cb1348
PUBLIC 5003c 0 cb1347
PUBLIC 5007d 0 cb1346
PUBLIC 500be 0 cb1345
PUBLIC 500ff 0 cb1344
PUBLIC 50140 0 cb1343
PUBLIC 50181 0 cb1342
PUBLIC 501c2 0 cb1341
PUBLIC 50203 0 cb1340
PUBLIC 50244 0 cb1339
PUBLIC 50285 0 cb1338
PUBLIC 502c6 0 cb1337
PUBLIC 50307 0 cb1336
PUBLIC 50348 0 cb1335
PUBLIC 50389 0 cb1334
PUBLIC 503ca 0 cb1333
PUBLIC 5040b 0 cb1332
PUBLIC 5044c 0 cb1331
PUBLIC 5048d 0 cb1330
PUBLIC 504ce 0 cb1329
PUBLIC 5050f 0 cb1328
PUBLIC 50550 0 cb1327
PUBLIC 50591 0 cb1326
PUBLIC 505d2 0 cb1325
PUBLIC 50613 0 cb1324
PUBLIC 50654 0 cb1323
PUBLIC 50695 0 cb1322
PUBLIC 506d6 0 cb1321
PUBLIC 50717 0 cb1320
PUBLIC 50758 0 cb1319
PUBLIC 50799 0 cb1318
PUBLIC 507da 0 cb1317
PUBLIC 5081b 0 cb1316
PUBLIC 5085c 0 cb1315
PUBLIC 5089d 0 cb1314
PUBLIC 508de 0 cb1313
PUBLIC 5091f 0 cb1312
PUBLIC 50960 0 cb1311
PUBLIC 509a1 0 cb1310
PUBLIC 509e2 0 cb1309
PUBLIC 50a23 0 cb1308
PUBLIC 50a64 0 cb1307
PUBLIC 50aa5 0 cb1306
PUBLIC 50ae6 0 cb1305
PUBLIC 50b27 0 cb1304
PUBLIC 50b68 0 cb1303
PUBLIC 50ba9 0 cb1302
PUBLIC 50bea 0 cb1301
PUBLIC 50c2b 0 cb1300
PUBLIC 50c6c 0 cb1299
PUBLIC 50cad 0 cb1298
PUBLIC 50cee 0 cb1297
PUBLIC 50d2f 0 cb1296
PUBLIC 50d70 0 cb1295
PUBLIC 50db1 0 cb1294
PUBLIC 50df2 0 cb1293
PUBLIC 50e33 0 cb1292
PUBLIC 50e74 0 cb1291
PUBLIC 50eb5 0 cb1290
PUBLIC 50ef6 0 cb1289
PUBLIC 50f37 0 cb1288
PUBLIC 50f78 0 cb1287
PUBLIC 50fb9 0 cb1286
PUBLIC 50ffa 0 cb1285
PUBLIC 5103b 0 cb1284
PUBLIC 5107c 0 cb1283
PUBLIC 510bd 0 cb1282
PUBLIC 510fe 0 cb1281
PUBLIC 5113f 0 cb1280
PUBLIC 51180 0 cb1279
PUBLIC 511c1 0 cb1278
PUBLIC 51202 0 cb1277
PUBLIC 51243 0 cb1276
PUBLIC 51284 0 cb1275
PUBLIC 512c5 0 cb1274
PUBLIC 51306 0 cb1273
PUBLIC 51347 0 cb1272
PUBLIC 51388 0 cb1271
PUBLIC 513c9 0 cb1270
PUBLIC 5140a 0 cb1269
PUBLIC 5144b 0 cb1268
PUBLIC 51484 0 cb1267
PUBLIC 514bd 0 cb1266
PUBLIC 514f6 0 cb1265
PUBLIC 5152f 0 cb1264
PUBLIC 51568 0 cb1263
PUBLIC 515a1 0 cb1262
PUBLIC 515da 0 cb1261
PUBLIC 51613 0 cb1260
PUBLIC 5164c 0 cb1259
PUBLIC 51685 0 cb1258
PUBLIC 516be 0 cb1257
PUBLIC 516f7 0 cb1256
PUBLIC 51730 0 cb1255
PUBLIC 51769 0 cb1254
PUBLIC 517a2 0 cb1253
PUBLIC 517db 0 cb1252
PUBLIC 51814 0 cb1251
PUBLIC 5184d 0 cb1250
PUBLIC 51886 0 cb1249
PUBLIC 518bf 0 cb1248
PUBLIC 518f8 0 cb1247
PUBLIC 51931 0 cb1246
PUBLIC 5196a 0 cb1245
PUBLIC 519a3 0 cb1244
PUBLIC 519dc 0 cb1243
PUBLIC 51a15 0 cb1242
PUBLIC 51a4e 0 cb1241
PUBLIC 51a87 0 cb1240
PUBLIC 51ac0 0 cb1239
PUBLIC 51af9 0 cb1238
PUBLIC 51b32 0 cb1237
PUBLIC 51b6b 0 cb1236
PUBLIC 51ba4 0 cb1235
PUBLIC 51bdd 0 cb1234
PUBLIC 51c16 0 cb1233
PUBLIC 51c4f 0 cb1232
PUBLIC 51c88 0 cb1231
PUBLIC 51cc1 0 cb1230
PUBLIC 51cfa 0 cb1229
PUBLIC 51d33 0 cb1228
PUBLIC 51d6c 0 cb1227
PUBLIC 51da5 0 cb1226
PUBLIC 51dde 0 cb1225
PUBLIC 51e17 0 cb1224
PUBLIC 51e50 0 cb1223
PUBLIC 51e89 0 cb1222
PUBLIC 51ec2 0 cb1221
PUBLIC 51efb 0 cb1220
PUBLIC 51f34 0 cb1219
PUBLIC 51f6d 0 cb1218
PUBLIC 51fa6 0 cb1217
PUBLIC 51fdf 0 cb1216
PUBLIC 52018 0 cb1215
PUBLIC 52051 0 cb1214
PUBLIC 5208a 0 cb1213
PUBLIC 520c3 0 cb1212
PUBLIC 520fc 0 cb1211
PUBLIC 52135 0 cb1210
PUBLIC 5216e 0 cb1209
PUBLIC 521a7 0 cb1208
PUBLIC 521e0 0 cb1207
PUBLIC 52219 0 cb1206
PUBLIC 52252 0 cb1205
PUBLIC 5228b 0 cb1204
PUBLIC 522c4 0 cb1203
PUBLIC 522fd 0 cb1202
PUBLIC 52336 0 cb1201
PUBLIC 5236f 0 cb1200
PUBLIC 523a8 0 cb1199
PUBLIC 523e1 0 cb1198
PUBLIC 5241a 0 cb1197
PUBLIC 52453 0 cb1196
PUBLIC 5248c 0 cb1195
PUBLIC 524c5 0 cb1194
PUBLIC 524fe 0 cb1193
PUBLIC 52537 0 cb1192
PUBLIC 52570 0 cb1191
PUBLIC 525a9 0 cb1190
PUBLIC 525e2 0 cb1189
PUBLIC 5261b 0 cb1188
PUBLIC 52654 0 cb1187
PUBLIC 5268d 0 cb1186
PUBLIC 526c6 0 cb1185
PUBLIC 526ff 0 cb1184
PUBLIC 52738 0 cb1183
PUBLIC 52771 0 cb1182
PUBLIC 527aa 0 cb1181
PUBLIC 527e3 0 cb1180
PUBLIC 5281c 0 cb1179
PUBLIC 52855 0 cb1178
PUBLIC 5288e 0 cb1177
PUBLIC 528c7 0 cb1176
PUBLIC 52900 0 cb1175
PUBLIC 52939 0 cb1174
PUBLIC 52972 0 cb1173
PUBLIC 529ab 0 cb1172
PUBLIC 529e4 0 cb1171
PUBLIC 52a1d 0 cb1170
PUBLIC 52a56 0 cb1169
PUBLIC 52a8f 0 cb1168
PUBLIC 52ac8 0 cb1167
PUBLIC 52b01 0 cb1166
PUBLIC 52b3a 0 cb1165
PUBLIC 52b73 0 cb1164
PUBLIC 52bac 0 cb1163
PUBLIC 52be5 0 cb1162
PUBLIC 52c1e 0 cb1161
PUBLIC 52c57 0 cb1160
PUBLIC 52c90 0 cb1159
PUBLIC 52cc9 0 cb1158
PUBLIC 52d02 0 cb1157
PUBLIC 52d3b 0 cb1156
PUBLIC 52d74 0 cb1155
PUBLIC 52dad 0 cb1154
PUBLIC 52de6 0 cb1153
PUBLIC 52e1f 0 cb1152
PUBLIC 52e58 0 cb1151
PUBLIC 52e91 0 cb1150
PUBLIC 52eca 0 cb1149
PUBLIC 52f03 0 cb1148
PUBLIC 52f3c 0 cb1147
PUBLIC 52f75 0 cb1146
PUBLIC 52fae 0 cb1145
PUBLIC 52fe7 0 cb1144
PUBLIC 53020 0 cb1143
PUBLIC 53059 0 cb1142
PUBLIC 53092 0 cb1141
PUBLIC 530cb 0 cb1140
PUBLIC 53104 0 cb1139
PUBLIC 5313d 0 cb1138
PUBLIC 53176 0 cb1137
PUBLIC 531af 0 cb1136
PUBLIC 531e8 0 cb1135
PUBLIC 53221 0 cb1134
PUBLIC 5325a 0 cb1133
PUBLIC 53293 0 cb1132
PUBLIC 532cc 0 cb1131
PUBLIC 53305 0 cb1130
PUBLIC 5333e 0 cb1129
PUBLIC 53377 0 cb1128
PUBLIC 533b0 0 cb1127
PUBLIC 533e9 0 cb1126
PUBLIC 53422 0 cb1125
PUBLIC 5345b 0 cb1124
PUBLIC 53494 0 cb1123
PUBLIC 534cd 0 cb1122
PUBLIC 53506 0 cb1121
PUBLIC 5353f 0 cb1120
PUBLIC 53578 0 cb1119
PUBLIC 535b1 0 cb1118
PUBLIC 535ea 0 cb1117
PUBLIC 53623 0 cb1116
PUBLIC 5365c 0 cb1115
PUBLIC 53695 0 cb1114
PUBLIC 536ce 0 cb1113
PUBLIC 53707 0 cb1112
PUBLIC 53740 0 cb1111
PUBLIC 53779 0 cb1110
PUBLIC 537b2 0 cb1109
PUBLIC 537eb 0 cb1108
PUBLIC 53824 0 cb1107
PUBLIC 5385d 0 cb1106
PUBLIC 53896 0 cb1105
PUBLIC 538cf 0 cb1104
PUBLIC 53908 0 cb1103
PUBLIC 53941 0 cb1102
PUBLIC 5397a 0 cb1101
PUBLIC 539b3 0 cb1100
PUBLIC 539ec 0 cb1099
PUBLIC 53a25 0 cb1098
PUBLIC 53a5e 0 cb1097
PUBLIC 53a97 0 cb1096
PUBLIC 53ad0 0 cb1095
PUBLIC 53b09 0 cb1094
PUBLIC 53b42 0 cb1093
PUBLIC 53b7b 0 cb1092
PUBLIC 53bb4 0 cb1091
PUBLIC 53bed 0 cb1090
PUBLIC 53c26 0 cb1089
PUBLIC 53c5f 0 cb1088
PUBLIC 53c98 0 cb1087
PUBLIC 53cd1 0 cb1086
PUBLIC 53d0a 0 cb1085
PUBLIC 53d43 0 cb1084
PUBLIC 53d7c 0 cb1083
PUBLIC 53db5 0 cb1082
PUBLIC 53dee 0 cb1081
PUBLIC 53e27 0 cb1080
PUBLIC 53e60 0 cb1079
PUBLIC 53e99 0 cb1078
PUBLIC 53ed2 0 cb1077
PUBLIC 53f0b 0 cb1076
PUBLIC 53f44 0 cb1075
PUBLIC 53f7d 0 cb1074
PUBLIC 53fb6 0 cb1073
PUBLIC 53fef 0 cb1072
PUBLIC 54028 0 cb1071
PUBLIC 54061 0 cb1070
PUBLIC 5409a 0 cb1069
PUBLIC 540d3 0 cb1068
PUBLIC 5410c 0 cb1067
PUBLIC 54145 0 cb1066
PUBLIC 5417e 0 cb1065
PUBLIC 541b7 0 cb1064
PUBLIC 541f0 0 cb1063
PUBLIC 54229 0 cb1062
PUBLIC 54262 0 cb1061
PUBLIC 5429b 0 cb1060
PUBLIC 542d4 0 cb1059
PUBLIC 5430d 0 cb1058
PUBLIC 54346 0 cb1057
PUBLIC 5437f 0 cb1056
PUBLIC 543b8 0 cb1055
PUBLIC 543f1 0 cb1054
PUBLIC 5442a 0 cb1053
PUBLIC 54463 0 cb1052
PUBLIC 5449c 0 cb1051
PUBLIC 544d5 0 cb1050
PUBLIC 5450e 0 cb1049
PUBLIC 54547 0 cb1048
PUBLIC 54580 0 cb1047
PUBLIC 545b9 0 cb1046
PUBLIC 545f2 0 cb1045
PUBLIC 5462b 0 cb1044
PUBLIC 54664 0 cb1043
PUBLIC 5469d 0 cb1042
PUBLIC 546d6 0 cb1041
PUBLIC 5470f 0 cb1040
PUBLIC 54748 0 cb1039
PUBLIC 54781 0 cb1038
PUBLIC 547ba 0 cb1037
PUBLIC 547f3 0 cb1036
PUBLIC 5482c 0 cb1035
PUBLIC 54865 0 cb1034
PUBLIC 5489e 0 cb1033
PUBLIC 548d7 0 cb1032
PUBLIC 54910 0 cb1031
PUBLIC 54949 0 cb1030
PUBLIC 54982 0 cb1029
PUBLIC 549bb 0 cb1028
PUBLIC 549f4 0 cb1027
PUBLIC 54a2d 0 cb1026
PUBLIC 54a66 0 cb1025
PUBLIC 54a9f 0 cb1024
PUBLIC 54ad8 0 cb1023
PUBLIC 54b11 0 cb1022
PUBLIC 54b4a 0 cb1021
PUBLIC 54b83 0 cb1020
PUBLIC 54bbc 0 cb1019
PUBLIC 54bf5 0 cb1018
PUBLIC 54c2e 0 cb1017
PUBLIC 54c67 0 cb1016
PUBLIC 54ca0 0 cb1015
PUBLIC 54cd9 0 cb1014
PUBLIC 54d12 0 cb1013
PUBLIC 54d4b 0 cb1012
PUBLIC 54d84 0 cb1011
PUBLIC 54dbd 0 cb1010
PUBLIC 54df6 0 cb1009
PUBLIC 54e2f 0 cb1008
PUBLIC 54e68 0 cb1007
PUBLIC 54ea1 0 cb1006
PUBLIC 54eda 0 cb1005
PUBLIC 54f13 0 cb1004
PUBLIC 54f4c 0 cb1003
PUBLIC 54f85 0 cb1002
PUBLIC 54fbe 0 cb1001
PUBLIC 54ff7 0 cb1000
PUBLIC 55030 0 cb1705
PUBLIC 5504a 0 cb1704
PUBLIC 5506a 0 cb1703
PUBLIC 5508a 0 cb1702
PUBLIC 550aa 0 cb1701
PUBLIC 550ca 0 cb1700
PUBLIC 550e8 0 cb1699
PUBLIC 55106 0 cb1698
PUBLIC 55124 0 cb1697
PUBLIC 55142 0 cb1696
PUBLIC 55160 0 cb1695
PUBLIC 5517e 0 cb1694
PUBLIC 5519c 0 cb1693
PUBLIC 551ba 0 cb1692
PUBLIC 551e8 0 cb1691
PUBLIC 55216 0 cb1690
PUBLIC 55244 0 cb1689
PUBLIC 55272 0 cb1688
PUBLIC 552a0 0 cb1687
PUBLIC 552ce 0 cb1686
PUBLIC 552fc 0 cb1685
PUBLIC 5532a 0 cb1684
PUBLIC 55358 0 cb1683
PUBLIC 55386 0 cb1682
PUBLIC 553b4 0 cb1681
PUBLIC 553e2 0 cb1680
PUBLIC 55410 0 cb1679
PUBLIC 5543e 0 cb1678
PUBLIC 5546c 0 cb1677
PUBLIC 5549a 0 cb1676
PUBLIC 554c8 0 cb1675
PUBLIC 554f6 0 cb1674
PUBLIC 55524 0 cb1673
PUBLIC 55552 0 cb1672
PUBLIC 55580 0 cb1671
PUBLIC 555ae 0 cb1670
PUBLIC 555dc 0 cb1669
PUBLIC 5560a 0 cb1668
PUBLIC 55638 0 cb1667
PUBLIC 55666 0 cb1666
PUBLIC 55694 0 cb1665
PUBLIC 556c2 0 cb1664
PUBLIC 556f0 0 cb1663
PUBLIC 5571e 0 cb1662
PUBLIC 5574a 0 cb1661
PUBLIC 55776 0 cb1660
PUBLIC 557a2 0 cb1659
PUBLIC 557ce 0 cb1658
PUBLIC 557fa 0 cb1657
PUBLIC 55826 0 cb1656
PUBLIC 55852 0 cb1655
PUBLIC 5587e 0 cb1654
PUBLIC 558aa 0 cb1653
PUBLIC 558d6 0 cb1652
PUBLIC 55902 0 cb1651
PUBLIC 5592e 0 cb1650
PUBLIC 5595a 0 cb1649
PUBLIC 55986 0 cb1648
PUBLIC 559b2 0 cb1647
PUBLIC 559de 0 cb1646
PUBLIC 55a0a 0 cb1645
PUBLIC 55a36 0 cb1644
PUBLIC 55a62 0 cb1643
PUBLIC 55a8e 0 cb1642
PUBLIC 55ab8 0 cb1641
PUBLIC 55ae2 0 cb1640
PUBLIC 55b0c 0 cb1639
PUBLIC 55b36 0 cb1638
PUBLIC 55b60 0 cb1637
PUBLIC 55b8a 0 cb1636
PUBLIC 55bb4 0 cb1635
PUBLIC 55bde 0 cb1634
PUBLIC 55c08 0 cb1633
PUBLIC 55c32 0 cb1632
PUBLIC 55c5c 0 cb1631
PUBLIC 55c86 0 cb1630
PUBLIC 55cb0 0 cb1629
PUBLIC 55cda 0 cb1628
PUBLIC 55d04 0 cb1627
PUBLIC 55d2e 0 cb1626
PUBLIC 55d58 0 cb1625
PUBLIC 55d82 0 cb1624
PUBLIC 55dac 0 cb1623
PUBLIC 55dd6 0 cb1622
PUBLIC 55e00 0 cb1621
PUBLIC 55e2a 0 cb1620
PUBLIC 55e54 0 cb1619
PUBLIC 55e7e 0 cb1618
PUBLIC 55ea4 0 cb1617
PUBLIC 55eca 0 cb1616
PUBLIC 55ef0 0 cb1615
PUBLIC 55f16 0 cb1614
PUBLIC 55f3c 0 cb1613
PUBLIC 55f62 0 cb1612
PUBLIC 55f88 0 cb1611
PUBLIC 55fae 0 cb1610
PUBLIC 55fd4 0 cb1609
PUBLIC 55ffa 0 cb1608
PUBLIC 56020 0 cb1607
PUBLIC 56046 0 cb1606
PUBLIC 5606c 0 cb1605
PUBLIC 56092 0 cb1604
PUBLIC 560b8 0 cb1603
PUBLIC 560de 0 cb1602
PUBLIC 56102 0 cb1601
PUBLIC 56126 0 cb1600
PUBLIC 5614a 0 cb1599
PUBLIC 5616e 0 cb1598
PUBLIC 56192 0 cb1597
PUBLIC 561b6 0 cb1596
PUBLIC 561da 0 cb1595
PUBLIC 561fe 0 cb1594
PUBLIC 56226 0 cb1593
PUBLIC 5624e 0 cb1592
PUBLIC 56276 0 cb1591
PUBLIC 5629e 0 cb1590
PUBLIC 562c6 0 cb1589
PUBLIC 562ee 0 cb1588
PUBLIC 56316 0 cb1587
PUBLIC 5633e 0 cb1586
PUBLIC 56366 0 cb1585
PUBLIC 5638e 0 cb1584
PUBLIC 563b6 0 cb1583
PUBLIC 563de 0 cb1582
PUBLIC 56406 0 cb1581
PUBLIC 5642e 0 cb1580
PUBLIC 56456 0 cb1579
PUBLIC 5647e 0 cb1578
PUBLIC 564a8 0 cb1577
PUBLIC 564d2 0 cb1576
PUBLIC 564fc 0 cb1575
PUBLIC 56526 0 cb1574
PUBLIC 56550 0 cb1573
PUBLIC 5657a 0 cb1572
PUBLIC 565a4 0 cb1571
PUBLIC 565ce 0 cb1570
PUBLIC 565f8 0 cb1569
PUBLIC 56622 0 cb1568
PUBLIC 5664c 0 cb1567
PUBLIC 56676 0 cb1566
PUBLIC 566a0 0 cb1565
PUBLIC 566ca 0 cb1564
PUBLIC 566f4 0 cb1563
PUBLIC 5671e 0 cb1562
PUBLIC 56748 0 cb1561
PUBLIC 56772 0 cb1560
PUBLIC 5679c 0 cb1559
PUBLIC 567c6 0 cb1558
PUBLIC 567f0 0 cb1557
PUBLIC 5681a 0 cb1556
PUBLIC 56844 0 cb1555
PUBLIC 5686e 0 cb1554
PUBLIC 56898 0 cb1553
PUBLIC 568c2 0 cb1552
PUBLIC 568ec 0 cb1551
PUBLIC 56916 0 cb1550
PUBLIC 56940 0 cb1549
PUBLIC 5696a 0 cb1548
PUBLIC 56994 0 cb1547
PUBLIC 569be 0 cb1546
PUBLIC 569e8 0 cb1545
PUBLIC 56a12 0 cb1544
PUBLIC 56a3c 0 cb1543
PUBLIC 56a66 0 cb1542
PUBLIC 56a90 0 cb1541
PUBLIC 56aba 0 cb1540
PUBLIC 56ae4 0 cb1539
PUBLIC 56b0e 0 cb1538
PUBLIC 56b38 0 cb1537
PUBLIC 56b62 0 cb1536
PUBLIC 56b8c 0 cb1535
PUBLIC 56bb6 0 cb1534
PUBLIC 56be0 0 cb1533
PUBLIC 56bfa 0 cb1532
PUBLIC 56c14 0 cb1531
PUBLIC 56c2e 0 cb1530
PUBLIC 56c48 0 cb1529
PUBLIC 56c62 0 cb1528
PUBLIC 56c7c 0 cb1527
PUBLIC 56c96 0 cb1526
PUBLIC 56cb0 0 Strap_BufferCreate
PUBLIC 56d16 0 Strap_BufferDelete
PUBLIC 56d6a 0 Strap_BufferAppend
PUBLIC 56ea6 0 Strap_BufferAppendEOT
PUBLIC 56ec0 0 Strap_BufferGet
PUBLIC 57104 0 Strap_BufferClear
PUBLIC 57144 0 StrapSimIsReady
PUBLIC 57158 0 StrapPliErrorCB
PUBLIC 57173 0 StrapUpdateFileDescriptorUsage
PUBLIC 57256 0 StrapAcceptConnect
PUBLIC 572a4 0 StrapHandleDisconnect
PUBLIC 572c6 0 StrapEventLoopHandler
PUBLIC 57352 0 StrapDoOneEventCB
PUBLIC 57368 0 StrapLaunchNoWait
PUBLIC 58818 0 Strap_Launch_Int
PUBLIC 589b4 0 Strap_doAllEvents
PUBLIC 589cb 0 Strap_GetServDesc
PUBLIC 589d3 0 Strap_LaunchSimVision
PUBLIC 589e9 0 Strap_LaunchIndago
PUBLIC 58b50 0 Strap_CheckPendingEvents
PUBLIC 58b56 0 Strap_PhraseDefine
PUBLIC 58b8e 0 Strap_PhraseLookup
PUBLIC 58bb3 0 Strap_ConnectorAttrsAdd
PUBLIC 58beb 0 Strap_Init
PUBLIC 595f4 0 Strap_ConnectorFormCode
PUBLIC 59650 0 Strap_IsConnected
PUBLIC 5965f 0 Strap_OutReportEnabled
PUBLIC 59666 0 Strap_IsStrapFileDescriptor
PUBLIC 59688 0 Strap_InitProtocol
PUBLIC 5986f 0 Strap_ProcessEvents
PUBLIC 5991a 0 Strap_SimvisionCommand
PUBLIC 59ad5 0 Strap_SetAttrs
PUBLIC 59b03 0 Strap_EnterPPE
PUBLIC 59b2a 0 strapSnapshotAvail
PUBLIC 59b39 0 Strap_Restart
PUBLIC 59b9f 0 Strap_ReportsEnabled
PUBLIC 59ba6 0 Strap_TerminateConnection
PUBLIC 59bcd 0 Strap_GetClientName
PUBLIC 59bd5 0 Strap_RemoveCmdChkTclEvntCallbckReg
PUBLIC 59be0 0 repOutputDisable
PUBLIC 59bf2 0 InputChannelHandler
PUBLIC 59c34 0 PauseCmd
PUBLIC 59cc8 0 InCmd
PUBLIC 59e44 0 ReadStdin
PUBLIC 59f0c 0 StrapOutHistoryInit
PUBLIC 59f5e 0 StrapOutHistoryAddText
PUBLIC 5a175 0 Strap_InitRepOutput
PUBLIC 5a1ff 0 Strap_InitRawIO
PUBLIC 5a35c 0 Strap_InitIO
PUBLIC 5a3ea 0 StrapRead
PUBLIC 5a540 0 Strap_SendOutput
PUBLIC 5a5e7 0 Strap_PromptActive
PUBLIC 5a640 0 StrapWriteOutput
PUBLIC 5a84e 0 repOutputEnable
PUBLIC 5a98c 0 Strap_OutHistoryControl
PUBLIC 5a9a3 0 CleanupInCmd
PUBLIC 5aa61 0 Strap_OutHistoryReinit
PUBLIC 5aab1 0 Strap_SNWriteOutput
PUBLIC 5ab33 0 FormsCmd
PUBLIC 5abcd 0 Strap_InitForms
PUBLIC 5ac00 0 PwListEntryCmp
PUBLIC 5ac1b 0 CleanupPasswordCmd
PUBLIC 5ac46 0 PwConvertTilde
PUBLIC 5accf 0 PasswordCmd
PUBLIC 5b1bd 0 Strap_InitPassword
PUBLIC 5b245 0 Strap_PwListCreate
PUBLIC 5b28a 0 Strap_PwListDelete
PUBLIC 5b31a 0 Strap_PwListSetDefault
PUBLIC 5b3cd 0 Strap_PwListGetDefault
PUBLIC 5b405 0 Strap_PwListAdd
PUBLIC 5b4fb 0 Strap_PwListRead
PUBLIC 5b70d 0 Strap_PwListWrite
PUBLIC 5b9ad 0 Strap_GetSeconds
PUBLIC 5b9c0 0 Strap_AssignPassword
PUBLIC 5c5aa 0 repDobjEnable
PUBLIC 5c621 0 repDobjStatusMessage
PUBLIC 5c91f 0 repDobj_disabled
PUBLIC 5c937 0 repDobj_enabled
PUBLIC 5c94f 0 repDobjDisable
PUBLIC 5c978 0 Strap_InitRepDobj
PUBLIC 5c9f6 0 Strap_DobjAttrsForAlias
PUBLIC 5ca24 0 Strap_DobjAttrsForSearchPoint
PUBLIC 5cacb 0 Strap_DobjAttrsForBreakpt
PUBLIC 5cd65 0 Strap_DobjAttrsForDb
PUBLIC 5ce7c 0 Strap_DobjAttrsForForce
PUBLIC 5ced5 0 Strap_DobjAttrsForCoverage
PUBLIC 5cf14 0 Strap_DobjAttrsForProbe
PUBLIC 5cf67 0 Strap_DobjAttrsForVar
PUBLIC 5cfdb 0 repDobjMessage
PUBLIC 5d836 0 repDobj_refreshed
PUBLIC 5d898 0 repDobj_changed
PUBLIC 5d8fa 0 repDobj_deleted
PUBLIC 5d975 0 repDobj_new
PUBLIC 5d9f0 0 repStateDisable
PUBLIC 5d9f8 0 strapSuppressPliErrorCB
PUBLIC 5d9fe 0 repState_randomize
PUBLIC 5da55 0 repStateFormatCoverage
PUBLIC 5dae6 0 repState_specman
PUBLIC 5dd00 0 repState_coverage
PUBLIC 5dd8d 0 repState_progress
PUBLIC 5de79 0 repState_exit
PUBLIC 5df89 0 strapCallStacksSame
PUBLIC 5e1eb 0 strapCallStackCreateFrame
PUBLIC 5e553 0 strapCallStackCreateStack
PUBLIC 5e6ea 0 strapCallStackFree
PUBLIC 5e761 0 repStateFormatSimTime
PUBLIC 5ebed 0 repState_time
PUBLIC 5ecf5 0 repState_ppe
PUBLIC 5ed8e 0 repStateCleanup
PUBLIC 5ee45 0 repStateAddLibName
PUBLIC 5f000 0 Strap_InitRepState
PUBLIC 5f11e 0 repStateAddScope
PUBLIC 5f7ab 0 repStateFormatStack
PUBLIC 5f9de 0 repState_scope
PUBLIC 5fc45 0 repStateFormatPosition
PUBLIC 5fd93 0 repState_position
PUBLIC 5febc 0 repState_misc
PUBLIC 603b4 0 repStateEnable
PUBLIC 606b1 0 CleanupReportCmd
PUBLIC 60702 0 ReportEnable
PUBLIC 6089a 0 ReportStatus
PUBLIC 60b52 0 ReportCmd
PUBLIC 60d70 0 Strap_InitReports
PUBLIC 60da4 0 Strap_ReportGetBuffer
PUBLIC 60de5 0 Strap_ReportDisableAll
PUBLIC 60e34 0 repAppendStr
PUBLIC 60ea9 0 repCmpStr
PUBLIC 60ecb 0 repStateCreateConstraintItem
PUBLIC 60f0b 0 repCopyStr
PUBLIC 60f2d 0 repStateGetRandType
PUBLIC 60f97 0 repStateConstraintDecompile
PUBLIC 61805 0 repStateExtractHeapIndex
PUBLIC 6198e 0 repStateUpdateHeapIndexClassNameHT
PUBLIC 61a20 0 repStateGetObjName
PUBLIC 61e44 0 repStateRandomizedVars_recurse
PUBLIC 621b9 0 repStateRandRefedVars_recurse
PUBLIC 62984 0 repStateRandRefedVars
PUBLIC 62b8e 0 repStateFormatVpiConstraint
PUBLIC 62e7a 0 repStateDestroyConstraintItem
PUBLIC 62ea3 0 repStateDestroyItemList
PUBLIC 62eeb 0 repStateDestroyHT
PUBLIC 62f3a 0 repStateTrimObjRef
PUBLIC 63000 0 repStateGetCurrRandState
PUBLIC 63008 0 repStateSetCurrRandState
PUBLIC 630aa 0 repStateFormatUdmConstraint
PUBLIC 6316d 0 repStateFormatRandState
PUBLIC 63e7c 0 repStateRandomize
PUBLIC 640d7 0 strapAddDerivedClass
PUBLIC 6410e 0 strapAddTopClass
PUBLIC 64153 0 strapConstructClassHier
PUBLIC 641a2 0 strapAddClassHierHT
PUBLIC 641ef 0 strapDestroyClassCollection
PUBLIC 64209 0 strapDestroyClassHier
PUBLIC 6422f 0 strapConstructClassHierHT
PUBLIC 6424f 0 strapTopClassesStdPkg
PUBLIC 6434a 0 strapRemoveTopClasses
PUBLIC 64385 0 strapAddBaseClass
PUBLIC 643bc 0 strapWalkEHierForClassDefn
PUBLIC 645ad 0 strapExtendedClass
PUBLIC 6467b 0 strapProcessClassDefn.localalias
PUBLIC 647ef 0 strapProcessClassDefns
PUBLIC 647f5 0 strapWalkHdlHierForClassDefn
PUBLIC 64a4d 0 strapClassLoadData
PUBLIC 64cf7 0 strapAddClassDefnBasicProps
PUBLIC 64da0 0 strapIsAutomatic
PUBLIC 64e8c 0 strapIsClassDataMember
PUBLIC 64f65 0 strapIsWithinClassDefn.localalias
PUBLIC 65254 0 strapGetTopClasses
PUBLIC 653af 0 strapAppendDCToResult
PUBLIC 6547e 0 strapDerivedEClasses
PUBLIC 6550e 0 strapDerivedHdlClasses
PUBLIC 65608 0 strapGetDerivedClasses
PUBLIC 65741 0 strapIsParameterizedClass
PUBLIC 657b4 0 strapIsParameterizedClassTypespec
PUBLIC 65859 0 strapIsParameterizedClassInst
PUBLIC 658d4 0 strapIsUninstParameterizedClass
PUBLIC 65952 0 strapGetClassTypespec
PUBLIC 659f3 0 strapExtractSpecialization
PUBLIC 65aac 0 strapDumpClassHierHT_int
PUBLIC 65ebd 0 strapDumpClassHierHT
PUBLIC 65f76 0 strapPrintClassHierHT_int
PUBLIC 6625f 0 strapStackTrace
PUBLIC 663ab 0 strapDebugEnd
PUBLIC 663fa 0 strapDebugInit
PUBLIC 6664f 0 strapDebugPrint
PUBLIC 6678d 0 strapDebugGetVal
PUBLIC 6681e 0 strapDebugGetStr
PUBLIC 66a3d 0 strapCanonicalizeFileName
PUBLIC 66b7c 0 strapFixupFileName
PUBLIC 66c54 0 strapGenFileObjName
PUBLIC 66cb3 0 strapFileObjTableCreate
PUBLIC 66d2b 0 strapFileObjTableDelete
PUBLIC 66de8 0 strapGetFileObj
PUBLIC 66e03 0 strapGetFileObjNameActive
PUBLIC 670e9 0 strapGetFileObjName
PUBLIC 670ff 0 strapDumpFileObjHT
PUBLIC 672cd 0 strapFileObjTableRefresh
PUBLIC 6731e 0 strapGet
PUBLIC 69911 0 Strap_InitGet
PUBLIC 69c03 0 strapGetBreak
PUBLIC 69e77 0 strapGetBreakList
PUBLIC 69fa6 0 strapGetProbe
PUBLIC 6a141 0 strapGetProbeList
PUBLIC 6a20d 0 strapGetForce
PUBLIC 6a3f0 0 strapGetForceList
PUBLIC 6a511 0 strapGetDb
PUBLIC 6a6ac 0 strapGetDbList
PUBLIC 6a778 0 strapGetAlias
PUBLIC 6a874 0 strapGetAliasList
PUBLIC 6a940 0 strapGetTclVar
PUBLIC 6aa3c 0 strapGetTclVarList
PUBLIC 6ab4f 0 strapGetSnapshot
PUBLIC 6ac06 0 strapGetSnapshotList
PUBLIC 6acce 0 strapGetSearchPoint
PUBLIC 6adf3 0 strapGetSearchPointsList
PUBLIC 6aeb6 0 strapGetWatchObjList
PUBLIC 6af40 0 strapDestroyDuCacheElementWithCast
PUBLIC 6afcf 0 strapGetAnameName
PUBLIC 6b034 0 strapGetDuCacheElement
PUBLIC 6b103 0 strapGetAnameIter
PUBLIC 6b1a1 0 duNamesHtDataAddUniqueHandle
PUBLIC 6b266 0 getPseudoScope
PUBLIC 6b2d1 0 strapDuaHandleByNameVhIndex_internal
PUBLIC 6b47f 0 strapDuaIterateForName
PUBLIC 6b5f4 0 duNamesHtDataGetIdxHandle
PUBLIC 6b61a 0 strapDuaNextToken
PUBLIC 6b867 0 strapClearDuCache
PUBLIC 6b87c 0 strapDumpDuCache_int
PUBLIC 6bbd8 0 strapDumpDuCache
PUBLIC 6bc20 0 strapDumpDuCache_c
PUBLIC 6bca0 0 strapDumpDuCacheNames_int
PUBLIC 6bd80 0 strapDumpDuNames_c
PUBLIC 6be8b 0 strapEnclosingDu.localalias
PUBLIC 6bf38 0 strapDuLoad
PUBLIC 6cae4 0 strapAddDuaNameLookup
PUBLIC 6cd3e 0 strapAddPrimChildScopeNamesLookup
PUBLIC 6ce7d 0 strapDuaHandleByName_internal
PUBLIC 6d488 0 strapDuaHandleByOomrName_internal
PUBLIC 6d5ab 0 strapDuaHandleByOomrName
PUBLIC 6d708 0 strapDuaHandleByName
PUBLIC 6dbfe 0 strapDuaNameByHandle
PUBLIC 6dcf0 0 strapDuExtractDuName
PUBLIC 6df70 0 strapDuIsCrcNamePresent
PUBLIC 6e049 0 strapConstructDefObj
PUBLIC 6e064 0 strapAddDef
PUBLIC 6e06a 0 strapWalkHier
PUBLIC 6e628 0 strapGetDefInitHdl
PUBLIC 6e92c 0 strapGetDefInitE
PUBLIC 6e944 0 strapGetDefInit
PUBLIC 6e96f 0 strapGetDef
PUBLIC 702fc 0 strapGetServiceAttrs
PUBLIC 70d07 0 strapGetDesign
PUBLIC 71640 0 strapEvalConstExprInternal
PUBLIC 71c5b 0 strapGetIndexSpecVh
PUBLIC 71d35 0 strapOpString
PUBLIC 721d0 0 strapEntityDesignator
PUBLIC 7223c 0 strapPredefAttrString
PUBLIC 725a0 0 strapOperatorNotation
PUBLIC 726bd 0 strapConstructRange
PUBLIC 726e3 0 strapConstructCopyRange
PUBLIC 7271b 0 strapDestroyRange
PUBLIC 7272f 0 strapDestroyRangeList
PUBLIC 72766 0 strapGetRangeInfo
PUBLIC 72815 0 strapGetParentRangeInfo
PUBLIC 72962 0 strapConstructOperand
PUBLIC 72dd4 0 strapDestroyOperand
PUBLIC 72df1 0 strapDestroyOperandList
PUBLIC 72e28 0 strapCollaseRanges
PUBLIC 72ea4 0 strapCombineRanges
PUBLIC 73075 0 strapCombineOperands
PUBLIC 73119 0 strapCombinedPortConnection
PUBLIC 73235 0 strapPortConnection
PUBLIC 73245 0 strapFormatConcatOp
PUBLIC 734a2 0 strapConcatOp
PUBLIC 7358b 0 strapBuildFuncCallExpr
PUBLIC 7367a 0 strapPortConnectionInner
PUBLIC 76c30 0 strapPortConnectionWithFlags
PUBLIC 76c43 0 strapGetPortIndex
PUBLIC 76db9 0 strapGetPortObjName
PUBLIC 76eff 0 strapVolunteerDfltConstr
PUBLIC 76f7f 0 strapGetObjName
PUBLIC 76fc0 0 strapCheckForScopesInDecls
PUBLIC 772ad 0 strapAddInternalScopeNames
PUBLIC 77373 0 strapAddInstArrDuaNameLookup
PUBLIC 773ea 0 strapProcessGenIndex
PUBLIC 77562 0 strapCheckForScopesInStmts
PUBLIC 77654 0 strapAddVirtualPortBasicProps
PUBLIC 77794 0 strapDestroyStringList
PUBLIC 777a8 0 strapProcessGenLabel
PUBLIC 7787f 0 strapAddChildVarProp
PUBLIC 78e03 0 strapAddChildScopeProp
PUBLIC 7b49b 0 strapAddSchemScopeProps
PUBLIC 7b6b8 0 strapGetScopeStdPkg
PUBLIC 7bb57 0 strapAddCheckerPortProp
PUBLIC 7bd5e 0 strapGetScopeConvPoints
PUBLIC 7bfb3 0 strapGetScope
PUBLIC 7da63 0 strapSetArrayTypeIndexVals
PUBLIC 7da92 0 strapGetConstraint
PUBLIC 7db1f 0 strapCheckAttrRadixSpec
PUBLIC 7db78 0 strapCheckSignedProp
PUBLIC 7dbf7 0 strapReinitTypeObj
PUBLIC 7dd0f 0 strapDestroyMemberInfoListContents
PUBLIC 7dd6b 0 strapRenderRealAsWreal
PUBLIC 7ddaa 0 strapCheckMemberTypes
PUBLIC 7e2ac 0 strapCheckBinFormat
PUBLIC 7e349 0 strapGetEleTypeObj
PUBLIC 7e3a8 0 strapEnumVals
PUBLIC 7e827 0 strapConstructTypeObj
PUBLIC 7e88f 0 strapCloneTypeObj
PUBLIC 7ea14 0 strapResolveSubType
PUBLIC 7ecb4 0 strapNumArrayTypespecDims.localalias
PUBLIC 7ee5c 0 strapIsUDTypeEnabled
PUBLIC 7eee0 0 strapAddUDNBaseName
PUBLIC 7f057 0 strapGetType
PUBLIC 7f138 0 strapGenTypeObjPaddingForTypeScReg
PUBLIC 7f21b 0 strapGenTypeObjForTypeScReg
PUBLIC 7f899 0 strapGenTypeObjForVar
PUBLIC 818e6 0 strapGetTypeObjName
PUBLIC 81e55 0 strapCleanIndexTypeObj
PUBLIC 81f65 0 strapGetTypeName
PUBLIC 81ff9 0 strapGetTypeNameByObj
PUBLIC 8203c 0 strapForceMemberType
PUBLIC 823d5 0 strapArrayTypeObj
PUBLIC 82f27 0 strapLogicArrayTypeObj
PUBLIC 832db 0 strapGenTypeObjForTypeVl.localalias
PUBLIC 850e0 0 strapGenArrayTypeVl
PUBLIC 85449 0 strapGenTypeObjForArrayVl
PUBLIC 85ce9 0 strapConstantTypeObj_int
PUBLIC 86009 0 strapConstantTypeObj
PUBLIC 86288 0 strapGenTypeObjForExpr
PUBLIC 863be 0 strapMultiDimArrayTypeObjVl
PUBLIC 866db 0 strapGenTypeObjForTypeVh
PUBLIC 86f16 0 strapAssertionTypeObj
PUBLIC 873b1 0 strapIsGenScope
PUBLIC 873e5 0 strapBuildPathName
PUBLIC 87597 0 strapDuaPathName_int
PUBLIC 876b2 0 strapVarProcessDrivers
PUBLIC 88ae2 0 strapIsMultiDimQDA
PUBLIC 88b9c 0 strapGetVarValue
PUBLIC 88ce4 0 strapGetVarElementValues
PUBLIC 89169 0 strapGetVarStdPkg
PUBLIC 895da 0 get_assertion_handle
PUBLIC 896a5 0 strapGetVar
PUBLIC 8b130 0 strapBits
PUBLIC 8b152 0 strapVpiPrintMnemonic
PUBLIC 8b260 0 strapVpiPrintXValString
PUBLIC 8b2c8 0 strapNextExtToken
PUBLIC 8b367 0 isThreadInTestBenchContext
PUBLIC 8b43e 0 setSVMSEnabled
PUBLIC 8b45e 0 setSVMSDisabled
PUBLIC 8b478 0 strapTclDStringAppend
PUBLIC 8b4e0 0 add_metadata_element
PUBLIC 8b598 0 add_comma_separator
PUBLIC 8b5b2 0 strapDestroyArrayOfStr
PUBLIC 8b5f5 0 strapDestroyTypeObj
PUBLIC 8b6cf 0 strapDestroyDefObj
PUBLIC 8b6e3 0 opname
PUBLIC 8bb46 0 strapTclDStringAppendElement
PUBLIC 8bbaf 0 save_index_name_pair
PUBLIC 8bc16 0 strapCheckForPotential
PUBLIC 8bc62 0 strapResolveFrameScope
PUBLIC 8bcda 0 strapAddNameWithCheck
PUBLIC 8bdbc 0 strapFindInIteration
PUBLIC 8be78 0 strapExtractSubpSignature
PUBLIC 8bf97 0 strapFormatDelineatedList
PUBLIC 8bffa 0 strapPartialPortConnElems
PUBLIC 8c163 0 strapPartialPortConn
PUBLIC 8c59b 0 OSTicksToMS
PUBLIC 8c60c 0 strapGI
PUBLIC 8c617 0 strapEngineIsVerilogXL
PUBLIC 8c635 0 strapEngineIsSpecman
PUBLIC 8c669 0 strapDisableMacroInclude
PUBLIC 8c6ad 0 strapEscapeStringChars
PUBLIC 8c7e4 0 strapMinNumEles
PUBLIC 8c84d 0 strapBinStrToHexStr
PUBLIC 8caa1 0 strapGetForceData
PUBLIC 8cb03 0 strapForceClearCache
PUBLIC 8cb6c 0 strapAddForceElem
PUBLIC 8ccca 0 strapUpdateForceInformation
PUBLIC 8cfc9 0 strapLwdIsValidToIterate
PUBLIC 8d032 0 strapAppendPathDelim
PUBLIC 8d08f 0 strapGetLangList
PUBLIC 8d117 0 strapAppendLiteralName
PUBLIC 8d1ba 0 strapNextScopeToken.localalias
PUBLIC 8d339 0 strapCompareScopeDepths
PUBLIC 8d3e0 0 strapIndexExprToken
PUBLIC 8d473 0 strapLastScopeToken
PUBLIC 8d4e0 0 strapExtractGenStmtLabel
PUBLIC 8d552 0 strapMinScopePath
PUBLIC 8d780 0 strapIsTemporalObj
PUBLIC 8d8dc 0 strapIsTemporalObjActive
PUBLIC 8d92b 0 strapIsBusSubElement
PUBLIC 8d985 0 strapVhpiGetValueUtil
PUBLIC 8db90 0 strapFormatScalar
PUBLIC 8ddc2 0 strapFormatRepeating
PUBLIC 8e098 0 strapSetArrayEleFlags
PUBLIC 8e0fe 0 strapGetItemAtPos
PUBLIC 8e142 0 strapDestroyHT
PUBLIC 8e1b6 0 strapConnInfoInit
PUBLIC 8e984 0 strapConnInfoReset
PUBLIC 8f17b 0 strapConnInfoEventHandler
PUBLIC 8f222 0 strapConnEdgeInit
PUBLIC 8f298 0 strapConnEdgeDelete
PUBLIC 8f2a6 0 strapEdgeInfoDelete
PUBLIC 8f2d0 0 strapConnInfoDelete
PUBLIC 8f2de 0 strapGetInfoDelete
PUBLIC 8f654 0 strapDumpPwrDomainHT
PUBLIC 8f723 0 strapDumpPwrModeHT
PUBLIC 8f7f2 0 strapDumpNominalCondHT
PUBLIC 8f8c1 0 strapOption2String
PUBLIC 8fa0c 0 strapFormatPliErrorMesg
PUBLIC 8fb8c 0 strapSetResultWithBasicPropErrorMesg
PUBLIC 8fc5e 0 strapGetModportPortRefedObj
PUBLIC 8ffc8 0 strapGetModportPortRefedObjName
PUBLIC 9016a 0 strapGetSimulatorTime
PUBLIC 9028a 0 strapSimTimeSame
PUBLIC 902ba 0 strapCopySimTime
PUBLIC 902d7 0 strapFormatTimeScale
PUBLIC 90468 0 strapSyscProcessProps
PUBLIC 90833 0 strapFindDefObjHashEntryHdl
PUBLIC 90868 0 strapFindDefObjHashEntryE
PUBLIC 908a3 0 strapFindDefObjHashEntry
PUBLIC 908bd 0 strapAddAssertionBasicProps
PUBLIC 90c75 0 strapAddLangProp
PUBLIC 90d9a 0 strapAddLocProp
PUBLIC 90e6c 0 strapAddFileObjProp
PUBLIC 90fe2 0 strapGetAndAddLocProp
PUBLIC 911d8 0 strapAddTypeObjProp
PUBLIC 91937 0 strapDumpTypeObjHT
PUBLIC 91a19 0 strapGetOperands
PUBLIC 91af5 0 strapIsUnaryOp
PUBLIC 91b42 0 strapIsBinaryOp
PUBLIC 91ba5 0 strapIsTernaryOp
PUBLIC 91bef 0 strapStaticIntExprValue
PUBLIC 91c36 0 strapEvalStaticIntSysFunc
PUBLIC 91cb3 0 strapEvalStaticIntExprVl_int
PUBLIC 91f1e 0 strapEvalClog2
PUBLIC 92018 0 strapEvalStaticIntExprVl
PUBLIC 92094 0 strapAddSourceChunksVl
PUBLIC 9238c 0 strapAddSourceChunksVh
PUBLIC 9256d 0 strapStrcmp
PUBLIC 925a9 0 strapStrncmp
PUBLIC 925ec 0 strapStringIsSuffix
PUBLIC 92659 0 strapInstallRegionName
PUBLIC 926d9 0 strapProcessIODecl
PUBLIC 928a6 0 strapHandleByName
PUBLIC 928c5 0 strapHandleByNameSlice
PUBLIC 92ab7 0 strapDestroyFileObj
PUBLIC 92ad8 0 strapGetLang
PUBLIC 92b6a 0 strapVpiGetType
PUBLIC 92bd3 0 strapGetContainingScope
PUBLIC 92feb 0 strapGetDesignRoot
PUBLIC 930aa 0 strapGetModuleDefH.localalias
PUBLIC 932f6 0 strapInstance
PUBLIC 935a8 0 strapIsWithinPackage
PUBLIC 935e0 0 strapAddScopeFileLineProps
PUBLIC 93709 0 strapFormalPortPosition
PUBLIC 93bee 0 strapCheckObjForLocalDecl
PUBLIC 93cc1 0 strapGetRootConfigName
PUBLIC 93d02 0 strapGetFullPathVHDL
PUBLIC 93f2b 0 strapReadAccess.localalias
PUBLIC 9403d 0 strapConnectivityAccess
PUBLIC 940c8 0 strapVhpiGetProp
PUBLIC 94145 0 strapFormatTimeScaleVh
PUBLIC 94418 0 strapGetIntRangeVh
PUBLIC 946e7 0 strapGetRangeSpecVh
PUBLIC 947f9 0 strapGetRootName
PUBLIC 94d23 0 strapVpiIsProtected
PUBLIC 94d4c 0 strapParseAnalogValue
PUBLIC 94e5b 0 strapVpiIsScope
PUBLIC 94f7b 0 strapGetViewName
PUBLIC 95076 0 strapGetLibName
PUBLIC 9515c 0 strapIsInterfaceItem
PUBLIC 9528c 0 strapIsPackageItem
PUBLIC 95391 0 strapIsProgramItem
PUBLIC 95488 0 strapIsInstanceItem
PUBLIC 9558b 0 strapModportFullHierName
PUBLIC 95a19 0 strapGetStateRetentionRule
PUBLIC 95ac6 0 strapGetRetainedObj
PUBLIC 95af5 0 strapOSElapsedTime
PUBLIC 95b2d 0 appendStringKeyValueElement
PUBLIC 95b63 0 recordUserThreadHandleInfo
PUBLIC 95d1e 0 strapGetUserThreadsInfo
PUBLIC 95e8e 0 strapLocateSystemCProcessInfo
PUBLIC 95f69 0 strapSysCDynamicDeep
PUBLIC 95f77 0 strapAddIntegerProperty
PUBLIC 95fc8 0 strapGetLastIterItem
PUBLIC 96016 0 strapGetIterElemCnt
PUBLIC 9609f 0 strapGetNthIterItem
PUBLIC 960f3 0 strapIsUnsupported
PUBLIC 96131 0 strapGetRangeSpecVl.localalias
PUBLIC 97292 0 handle_leaf
PUBLIC 97b07 0 add_slice_argument
PUBLIC 97baa 0 collect_arguments
PUBLIC 97cb3 0 metadata_handle_property
PUBLIC 97e8f 0 collect_expression_meta_data
PUBLIC 987d2 0 handle_property
PUBLIC 98910 0 collect_disable_condition_data
PUBLIC 9897d 0 extract_meta_data_from_clock_expression
PUBLIC 98a33 0 collect_clock_data
PUBLIC 98ce5 0 collect_assertion_meta_data
PUBLIC 98fa7 0 handle_leaf_part
PUBLIC 98fd7 0 strapScopeHasOomr.localalias
PUBLIC 990f2 0 strapIsIncrDecrOp
PUBLIC 99161 0 strapIsAssignmentOp
PUBLIC 991f3 0 strapFixupClassMemberName
PUBLIC 992d8 0 strapGatherExpressions.localalias
PUBLIC 99482 0 findLhsMatchOfAssignment
PUBLIC 998f4 0 findIoDeclAssignments
PUBLIC 9a02c 0 strapIsArrayMember
PUBLIC 9a054 0 strapIsStructUnionMember
PUBLIC 9a169 0 strapFullDuaName_int
PUBLIC 9ac51 0 strapFullDuaName
PUBLIC 9ada7 0 strapFullHierName_int
PUBLIC 9af23 0 strapFullHierName
PUBLIC 9b261 0 strapGetTypedefValue.localalias
PUBLIC 9b710 0 strapGetMailboxParamType
PUBLIC 9b7f0 0 strapGetValue.localalias
PUBLIC 9ff52 0 strapDumpObjHToTypeObjHT
PUBLIC a0091 0 strapDumpRegionNameHT
PUBLIC a0221 0 strapAddDepPackageProp
PUBLIC a02ef 0 strapAddSourceChunksProp
PUBLIC a0a5b 0 strapGetVHDLPath
PUBLIC a0e12 0 strapResolveTaskIoDeclRefdir
PUBLIC a1256 0 strapVpiIsDirection
PUBLIC a133e 0 add_assertion_name
PUBLIC a13ec 0 explore_assertion_arguments
PUBLIC a147d 0 explore_assertion_expression
PUBLIC a16be 0 extract_clock_from_clocking_block
PUBLIC a1796 0 explore_default_clock
PUBLIC a17fc 0 add_assertion_clock
PUBLIC a1881 0 add_assertion_disable_condition
PUBLIC a18f5 0 misc_assertion_attributes
PUBLIC a1b65 0 strapIsArrayOfStructMember
PUBLIC a1c0a 0 strapGetTextRefs
PUBLIC a441a 0 strapGetFauxMacroRefs
PUBLIC a44fc 0 strapGetClassTextRefs
PUBLIC a4738 0 strapAddTextRefProp_int
PUBLIC a510a 0 strapAddTextRefProp
PUBLIC a5191 0 strapStrArgsToH
PUBLIC a562b 0 strapIsNcMirrorCall
PUBLIC a5724 0 strapScopeKindPropVal
PUBLIC a5d01 0 strapAddRepChildProp_internal
PUBLIC a5e6d 0 strapGenRegionName
PUBLIC a632e 0 strapIterateForUnnamedRegions
PUBLIC a660b 0 strapGenScopeUnnamedRegions
PUBLIC a682b 0 strapWalkHierForUnnamedRegions.localalias
PUBLIC a6a2e 0 strapGenUnnamedRegionName
PUBLIC a6a97 0 strapGetNcMirrorRegionName
PUBLIC a6ca7 0 strapVhdlTops
PUBLIC a6dba 0 strapGetRegionName
PUBLIC a742c 0 strapIsBlockScope
PUBLIC a7497 0 strapHandleByNameInFrame
PUBLIC a78b0 0 strapGetIterItem
PUBLIC a78fc 0 strapIsDotStarConnection
PUBLIC a79dc 0 strapIsDotStarPortConnection
PUBLIC a7a42 0 strapAddPortDirProp.localalias
PUBLIC a7d95 0 strapGetPortBasicProps
PUBLIC a93a7 0 strapDuaGenScopeName
PUBLIC a94b7 0 strapGetGenScopeRegionName
PUBLIC a95a2 0 strapIsInstArray
PUBLIC a9637 0 strapIsPrimitive
PUBLIC a96c7 0 strapIsStdPkg
PUBLIC a9a2b 0 strapParameterizedMailboxTypes
PUBLIC a9ad1 0 strapResolveLogicalPath
PUBLIC a9e97 0 Strap_EnableLWDProcessing
PUBLIC a9e9f 0 strapIsLWDProcessingEnabled
PUBLIC a9ea7 0 strapFormatFullDefName
PUBLIC aa0b9 0 strapGetScopeDefName
PUBLIC aa5a7 0 strapIsSVMSEnabled
PUBLIC aa5ad 0 strapAddIEs
PUBLIC aa604 0 strapIsSubcktPrimitive
PUBLIC aa66e 0 strapIsInstPrimitive
PUBLIC aa6d8 0 strapAddMxNetProp
PUBLIC aa7b2 0 strapAddKernelKindProp
PUBLIC aa9f7 0 strapGetVarBasicProps
PUBLIC ac2fe 0 strapIterateForAssertionBasicProps
PUBLIC ad622 0 strapIterateForVarBasicProps
PUBLIC adb92 0 strapAddUnitLevelAssertionProps
PUBLIC ade67 0 strapIterateForAssertions
PUBLIC ae1c7 0 strapAddAssertions.localalias
PUBLIC af191 0 strapIsSpiceSkeleton
PUBLIC af302 0 strapIsSpice
PUBLIC af394 0 strapGetSpice
PUBLIC af3f2 0 strapGetScopeBasicProps
PUBLIC b120c 0 strapAddDefObjProp
PUBLIC b122b 0 strapDumpDefObjHT_internal
PUBLIC b1384 0 strapDumpDefObjHT
PUBLIC b140a 0 strapIterateForPortBasicPropsInner
PUBLIC b1cbf 0 strapIterateForPortBasicProps
PUBLIC b1cdc 0 strapIterateForPortBasicPropsWithFlags
PUBLIC b1cfc 0 Strap_InitSVMS
PUBLIC b1d7a 0 sfbStackPush
PUBLIC b1d9d 0 sfbNextExprToken
PUBLIC b1de0 0 useDalCreateDataObj
PUBLIC b1e05 0 useDalGetFullName
PUBLIC b1e1d 0 util_get_mode
PUBLIC b1e68 0 sfbVpiGetType
PUBLIC b1ea4 0 sfbGetArrayType
PUBLIC b1efc 0 sfbVpiParent
PUBLIC b1f28 0 sfbVpiReadAccess
PUBLIC b1fb7 0 sfbVpiLineNo
PUBLIC b205f 0 sfbHasUnresolvableIndex_int
PUBLIC b2116 0 sfbHasUnresolvableConstantIndex
PUBLIC b21c5 0 sfbSignalHasUnresolvableIndex
PUBLIC b22f2 0 sfbAddDrivers
PUBLIC b2391 0 sfbVpiKeepStringForAWhile
PUBLIC b2406 0 sfbNetType
PUBLIC b24ea 0 sfbGetGenvar
PUBLIC b2586 0 sfbUsesUnprocessedGenvarIndex
PUBLIC b2656 0 sfbUsesUnprocessedGenvar
PUBLIC b26f4 0 sfbVpiHierarchicalName
PUBLIC b2715 0 sfbVpiInstanceName
PUBLIC b27ba 0 intToEnumliteral
PUBLIC b2817 0 sfbVpiFileName
PUBLIC b2886 0 internal_for_subp
PUBLIC b2ad2 0 vhdl_sfb_print_process_stmt
PUBLIC b2d7d 0 sfb_get_vhdl_value
PUBLIC b2eca 0 vhdl_sfb_print_expr
PUBLIC b38f9 0 vhdl_sfb_print_funcCall
PUBLIC b3a45 0 vhdl_sfb_print_assert_stmt
PUBLIC b3c68 0 vhdl_sfb_print_case_stmt
PUBLIC b3d77 0 vhdl_sfb_print_condSigAssign_stmt
PUBLIC b42f3 0 vhdl_sfb_print_exit_stmt
PUBLIC b4616 0 vhdl_sfb_print_if_stmt
PUBLIC b479c 0 vhdl_sfb_print_report_stmt
PUBLIC b4941 0 vhdl_sfb_print_subtype_indication
PUBLIC b4bc1 0 vhdl_sfb_get_type
PUBLIC b4bff 0 vhdl_sfb_print_next_stmt
PUBLIC b4f22 0 vhdl_sfb_print_procCall_stmt
PUBLIC b513a 0 vhdl_sfb_print_return_stmt
PUBLIC b52c5 0 vhdl_sfb_print_selectSigAssign_stmt
PUBLIC b5800 0 vhdl_sfb_print_simpleSigAssign_stmt
PUBLIC b5b80 0 vhdl_sfb_print_varAssign_stmt
PUBLIC b5e74 0 vhdl_sfb_print_wait_stmt
PUBLIC b6136 0 sfbDetermineGenvarValue_int
PUBLIC b63c7 0 add_protected_source_error_mesg
PUBLIC b6405 0 getUseExprSignalHT
PUBLIC b6449 0 vhdl_sfb_print_loop_stmt
PUBLIC b693d 0 vhdl_sfb_stmt
PUBLIC b8375 0 vhdl_sfb_decl
PUBLIC bb200 0 vhdl_sfb_stmt_part
PUBLIC bb23c 0 strapDestroyOomrRefs
PUBLIC bb255 0 sfbProcessingDrivers
PUBLIC bb25f 0 sfbVpiConnectivityAccess
PUBLIC bb35f 0 sfbVpiContainingScope.localalias
PUBLIC bb619 0 sfbVhpiGetStmtScope
PUBLIC bb73e 0 sfbIsElementOfArray
PUBLIC bb7fd 0 sfbIsArray
PUBLIC bb877 0 strapDestroyGenvarList
PUBLIC bb912 0 sfbGenvarOperand.localalias
PUBLIC bb9e8 0 sfbExprStackPush
PUBLIC bba16 0 sfbExprStackPop
PUBLIC bba5b 0 sfbExprStackDestroy
PUBLIC bbaa3 0 sfbVpiResolveGenvarIndex
PUBLIC bbf6a 0 sfbIsProcessedGenvar
PUBLIC bc0a7 0 sfbVpiCompareObjects
PUBLIC bc187 0 sfbVpiIntExprValue
PUBLIC bc1ce 0 sfbGetAllDimIndexes
PUBLIC bc3b5 0 sfbArrayElemParent_int
PUBLIC bc48e 0 sfbArrayElemParent
PUBLIC bc6a9 0 sfbGetParentArrayType
PUBLIC bc6f1 0 sfbGenvarProcessing
PUBLIC bcdb9 0 sfbCompareTrimmedObjs
PUBLIC bcf23 0 sfbGetValue
PUBLIC bd12f 0 sfbObjStaticIndexes
PUBLIC bd328 0 format_lhs_gets_rhs
PUBLIC bda2a 0 PowerDomainValueExpr
PUBLIC bdd39 0 sfbVpiGetModule.localalias
PUBLIC be342 0 sfb_get_expr_inputs_recurse
PUBLIC bf3cd 0 sfb_get_expr_inputs
PUBLIC bf4f4 0 sfbDetermineDirection
PUBLIC bf5c2 0 sfbHandleWhole.localalias
PUBLIC bf764 0 strapVpiGetDriverValue
PUBLIC bf9c1 0 strapVpiFreeDriver
PUBLIC bfa68 0 strapVpiFreeDriversArray
PUBLIC bfaa4 0 strapVpiCreateDriver
PUBLIC bfadc 0 strapVpiCopyDriver
PUBLIC bfc31 0 strapVpiFreeDriverList
PUBLIC bfc50 0 strapSfbIsDriverLoadDuplicate
PUBLIC bfcd8 0 strapCombineListsNoDups
PUBLIC bfdde 0 strapVpiFreeDriverInputsArray
PUBLIC bfe38 0 sfbVhpiAssertExprHasOperands
PUBLIC c01fa 0 sfbVhpiGetExprInputs_recurse
PUBLIC c072b 0 sfbVhpiGetExprInputs
PUBLIC c0812 0 strapVpiListOutputPortLowContribs
PUBLIC c0a21 0 strapVpiListDriverInputs
PUBLIC c1a6c 0 sfbVpiGetPullDriverInfo
PUBLIC c1b11 0 sfbVpiGetPortDriverInfo
PUBLIC c25a8 0 sfbVpiGetCheckerPortDriverInfo
PUBLIC c28c8 0 sfbVpiGetParamAssignDriverInfo
PUBLIC c2bc3 0 sfbVpiGetInitExprDriverInfo
PUBLIC c2ebf 0 doHandlesMatchWithCache
PUBLIC c30f8 0 sfbTracePrintLine
PUBLIC c33a9 0 checkExprForDriver
PUBLIC c38b7 0 strapCheckExprForDriver
PUBLIC c394b 0 freeBlockUsageData
PUBLIC c3979 0 createBlockUsageData
PUBLIC c4011 0 getNextBlock
PUBLIC c4142 0 strapBlockUsageChkProcesses
PUBLIC c4171 0 strapBlockUsageChkContAssigns
PUBLIC c418e 0 strapBlockUsageChkInstances
PUBLIC c435e 0 sfbVhpiGetBlkPortActual
PUBLIC c4427 0 sfbVhpiIsSigAssmtForSameSig
PUBLIC c4525 0 sfbVhpiGetStmtRefDesign
PUBLIC c46d9 0 sfbVhpiGetProcessDeclInfo
PUBLIC c47ed 0 sfbVhpiGetPortDir
PUBLIC c488f 0 sfbVhpiGetPortDeclInfo
PUBLIC c4b90 0 sfbVhpiGetStmtDriverInfo
PUBLIC c4f74 0 sfbVhpiGetCondDriverInfo
PUBLIC c50e6 0 sfbVhpiGetSeqStmts.localalias
PUBLIC c530f 0 sfbVhpiGetSigAsmtInProcess
PUBLIC c57d9 0 sfbVhpiGetDriverInfo
PUBLIC c5883 0 sfbVpiGetDriverInfo
PUBLIC c7a4a 0 checkModulePortsForDriver
PUBLIC c8727 0 checkInstancePortsForDriver
PUBLIC c892d 0 strapIsNet
PUBLIC c8993 0 strapHasLhs
PUBLIC c89df 0 checkAtomicStmt
PUBLIC c8be5 0 checkStmt
PUBLIC c96bc 0 strapDriverListPrepend
PUBLIC c96d4 0 strapTraverseCheckStmt
PUBLIC c9a35 0 strapTraverseIterateForStmts
PUBLIC c9b50 0 strapOomrCheck
PUBLIC c9e71 0 strapOomrCheckStmt
PUBLIC ca601 0 strapOomrIterateForStmts
PUBLIC ca674 0 strapOomrProcessScope
PUBLIC ca79c 0 strapPrintTraverseData
PUBLIC caae0 0 strapCreateOomrObjRefs
PUBLIC cab00 0 strapDestroyOomrObjRefs
PUBLIC cab1f 0 strapOomrGetRef
PUBLIC cab48 0 strapOomrAddRefScope
PUBLIC cab5d 0 strapOomrAddRef
PUBLIC cac8e 0 strapTraverseProcessScope
PUBLIC cae5b 0 strapTraverseDesign_internal.localalias
PUBLIC caf65 0 strapTraverseDesign
PUBLIC cb0b1 0 strapCreateProcessedScopes
PUBLIC cb0d1 0 strapDestroyProcessedScopes
PUBLIC cb0ee 0 strapOomrRefCheck
PUBLIC cb22f 0 strapCreateReqOptions
PUBLIC cb2b8 0 strapDestroyReqOptions
PUBLIC cb2f5 0 strapLwdVhGetPortDeclInfo
PUBLIC cb891 0 strapAddNameToPath
PUBLIC cba4f 0 strapAddScopeToPath
PUBLIC cbaad 0 strapTrimScopeFromPath
PUBLIC cbc78 0 strapAddGenScope
PUBLIC cbcc7 0 strapRemoveGenScope
PUBLIC cbd0c 0 strapDuaLibCellViewObjName
PUBLIC cbdcf 0 sfbTrimAndCompare
PUBLIC cbf2b 0 sfbCheckExprForPartSelectMatch
PUBLIC cc0b2 0 sfbSmartCompareObjects
PUBLIC cc31f 0 sfbCheckExprRangeForMatch
PUBLIC cc792 0 findAssignments
PUBLIC cd426 0 findForces
PUBLIC cd499 0 ListDrivers_recurse_widx
PUBLIC ce993 0 strapVpiListDriversLoads
PUBLIC cf405 0 ListDrivers_recurse
PUBLIC cf418 0 TraceDelayDeviceTerm
PUBLIC cf9fa 0 ListContributors_basic
PUBLIC d0178 0 GetLoadInfo
PUBLIC d02ea 0 argIsRelevant
PUBLIC d03b4 0 sfbDebugMesg
PUBLIC d0411 0 sfbDumpDriver
PUBLIC d04f1 0 sfbDumpDrivers
PUBLIC d054d 0 sfbDumpDriverInput
PUBLIC d05fd 0 sfbDumpDriverInputs
PUBLIC d0656 0 sfbDumpHandle
PUBLIC d08fd 0 GetVHDLLoadContextOutputs
PUBLIC d0a4b 0 sfbDumpDriverInputsHT
PUBLIC d0b2c 0 sfbDumpHandleError
PUBLIC d0b3a 0 CheckExprForLoad
PUBLIC d13c7 0 CheckInitExprsForLoad
PUBLIC d145f 0 CheckModulePortsForLoad.localalias
PUBLIC d1d22 0 CheckStmtForLoad
PUBLIC d3130 0 FindRefs
PUBLIC d3cda 0 ListLoads_recurse
PUBLIC d448c 0 ListLoads
PUBLIC d4653 0 GetLoadOutputs
PUBLIC d4d1e 0 strapVpiListLoadOutputs
PUBLIC d54a7 0 GetCaseItemLoadsContext
PUBLIC d54f8 0 strapVpiListInputPortLowContribs
PUBLIC d566b 0 strapVpiListLoadContextOutputs
PUBLIC d5a38 0 process_vpiInstance
PUBLIC d5b06 0 strapConstructVPort
PUBLIC d5b85 0 process_expr
PUBLIC d6c4c 0 process_vpiContAssign
PUBLIC d6cd6 0 process_vhpiProcCall
PUBLIC d6f08 0 process_vhpiSeqStmts
PUBLIC d74d5 0 process_vhpiConcStmts
PUBLIC d7f85 0 process_vpiStmts
PUBLIC d86e3 0 process_vpiGenScope
PUBLIC d8d3f 0 process_vpiScope
PUBLIC d94a1 0 strapDestroyVPort
PUBLIC d94df 0 strapDestroyVPortList
PUBLIC d9517 0 strapListScopeConnections
PUBLIC d9caf 0 strapChkSetScopeDelete
PUBLIC d9f0a 0 strapGetChkSetTable
PUBLIC d9f15 0 strapGetScdbH
PUBLIC d9f20 0 strapChkSetObjCreate
PUBLIC da058 0 strapChkSetObjDelete
PUBLIC da2e4 0 strapChkSetObjTableCreate
PUBLIC da311 0 strapChkSetObjTableDelete
PUBLIC da362 0 strapReadAssertion
PUBLIC da9ec 0 strapAddChkSetStatusProp
PUBLIC daa5c 0 strapReadChkSetAssertion
PUBLIC daa6a 0 strapReadChkSetBranchEnables
PUBLIC daa78 0 strapReadChkSetFsms
PUBLIC daa86 0 strapReadChkSetXChecks
PUBLIC daa94 0 strapReadChkSetXProps
PUBLIC daaa2 0 strapReadChkSetCovers
PUBLIC daab0 0 strapReadChkSetBusCheck
PUBLIC daabe 0 strapReadChkSetRangeOverflow
PUBLIC daacc 0 strapReadChkSetToggleCheck
PUBLIC daada 0 strapReadChkSets
PUBLIC dab7f 0 strapGetChkSetObj
PUBLIC dab9a 0 strapDumpChkSetScope
PUBLIC dab9b 0 strapDumpChkSetObj
PUBLIC dacf4 0 strapDumpChkSetObjHT
PUBLIC dae09 0 strapChkSetIsGroupDebug
PUBLIC dae2d 0 strapChkSetIsTrigger
PUBLIC dae51 0 strapReadChkSet
PUBLIC db5e3 0 strapVarObjUpdate
PUBLIC db69b 0 strapChkSetObjUpdate
PUBLIC dbb18 0 strapChkSetNotify
PUBLIC dc036 0 strapGetChkSetAssertionValue
PUBLIC dc10b 0 strapConvertDepthToString
PUBLIC dc167 0 strapGetTriggerStatus
PUBLIC dc21a 0 strapGetWitnessStatus
PUBLIC dc2cd 0 strapGetChkSetAssertionBasicProps
PUBLIC dc8f7 0 strapGetBranchEnableBasicProps
PUBLIC dca25 0 strapGetFsmBasicProps
PUBLIC dcb53 0 strapGetXCheckBasicProps
PUBLIC dcc31 0 strapGetXPropBasicProps
PUBLIC dcd0f 0 strapGetCoverBasicProps
PUBLIC dce3d 0 strapGetBusCheckBasicProps
PUBLIC dcf1b 0 strapGetRangeOverflowBasicProps
PUBLIC dcff9 0 strapGetToggleCheckBasicProps
PUBLIC dd0d7 0 strapGetChkSetDynProp
PUBLIC dd1d8 0 strapGetChkSetBasicProps
PUBLIC ddc24 0 strapGetChkSetScopeChildren
PUBLIC ddd5e 0 strapGetChkSetScopePtr
PUBLIC dde69 0 strapGetChkSetVars
PUBLIC ddedd 0 strapGetChkSetVar
PUBLIC de03f 0 strapGetChkSet
PUBLIC de0c9 0 strapGetChkSetBranchEnableVars
PUBLIC de13d 0 strapGetChkSetBranchEnableVar
PUBLIC de1e4 0 strapGetChkSetFsmVars
PUBLIC de258 0 strapGetChkSetFsmVar
PUBLIC de2ff 0 strapGetChkSetXCheckVars
PUBLIC de373 0 strapGetChkSetXCheckVar
PUBLIC de41a 0 strapGetChkSetCoverVars
PUBLIC de48e 0 strapGetChkSetCoverVar
PUBLIC de535 0 strapGetChkSetBusCheckVars
PUBLIC de5a9 0 strapGetChkSetBusCheckVar
PUBLIC de650 0 strapGetChkSetRangeOverflowVars
PUBLIC de6c4 0 strapGetChkSetRangeOverflowVar
PUBLIC de76b 0 strapGetChkSetAllVars.localalias
PUBLIC dea9b 0 strapGetIFVCovData.localalias
PUBLIC df360 0 itcStartProcess
PUBLIC df42e 0 strapExec
PUBLIC df4a8 0 Strap_InitExec
PUBLIC df4db 0 strapESW
PUBLIC df56f 0 Strap_InitESW
PUBLIC df5a2 0 strapInterruptSim
PUBLIC df5e5 0 strapEdgeVhpiValueChangeCB
PUBLIC df5f8 0 strapEdgeScpiValueChangeCB
PUBLIC df610 0 strapEdgeVpiValueChangeCB
PUBLIC df628 0 Strap_InitEdge
PUBLIC df68b 0 strapEdgeRegisterCB
PUBLIC dfb7e 0 strapEdgeClearCallbacks
PUBLIC dfc39 0 strapEdge
PUBLIC dfcd8 0 closeAllFiles
PUBLIC dfda0 0 strapReinvokePPE
PUBLIC dff6e 0 strapReinvokeOp
PUBLIC e0050 0 Strap_InitReinvoke
PUBLIC e0083 0 strapDestroyIterObj
PUBLIC e00ee 0 strapInitIterObj
PUBLIC e012e 0 strapResetIterObj
PUBLIC e01ee 0 strapConstructIterObj
PUBLIC e025d 0 strapPliIterate
PUBLIC e02c0 0 strapDestroyIterObjList
PUBLIC e02fd 0 strapInitIter
PUBLIC e052a 0 strapCleanUpIter
PUBLIC e073a 0 strapIterate
PUBLIC e0832 0 strapScan
PUBLIC e09bd 0 strapRegeneratingIter
PUBLIC e09d2 0 strapAdjustCurrIterCnt
PUBLIC e09db 0 strapStatus2String
PUBLIC e0a42 0 strapDumpIterObjHT
PUBLIC e0d39 0 VisaMsgHandler
PUBLIC e0d3f 0 strapProcessStatusMessage
PUBLIC e0ea3 0 strapSyscProcessCB
PUBLIC e0f28 0 strapSyscHierChangeCB
PUBLIC e108a 0 strapSyscMemMapChangeCB
PUBLIC e1159 0 visadevInitAlterCdsLib
PUBLIC e1181 0 visadevInitAlterCdsTmplib
PUBLIC e11c2 0 visadevInitTmpDir
PUBLIC e11ec 0 visadevInitAlterTmpDir
PUBLIC e1215 0 visadevInit
PUBLIC e123f 0 visadevLoad
PUBLIC e1255 0 visadevLoad_op
PUBLIC e126b 0 visadevClose
PUBLIC e1286 0 visadevNclibHandle
PUBLIC e1299 0 visadevNclibGet
PUBLIC e12ac 0 strapWritePliMesg
PUBLIC e137a 0 strapPliErrorMesg
PUBLIC e1566 0 Strap_VisaWarningHandler
PUBLIC e1749 0 strapPliErrorCB
PUBLIC e1916 0 strapRegisterPliErrorCB
PUBLIC e19d5 0 strapClearPliErrorCB
PUBLIC e1a38 0 strapRegisterSyscProcessCB
PUBLIC e1b04 0 strapClearSyscProcessCB
PUBLIC e1b67 0 strapRegisterSyscMemMapChangeCB
PUBLIC e1c39 0 strapClearSyscMemMapChangeCB
PUBLIC e1c9c 0 strapRegisterSyscHierChangeCB
PUBLIC e1d6e 0 strapClearSyscHierChangeCB
PUBLIC e1dd1 0 strapSuspend
PUBLIC e2362 0 Strap_InitSuspend
PUBLIC e23c0 0 makeFullName
PUBLIC e242c 0 strapRtlCreatePortList
PUBLIC e243f 0 addNameToRegion
PUBLIC e256e 0 getCorrectHdlArrayPart
PUBLIC e2658 0 _getHdlName
PUBLIC e2ad1 0 strapRtlAddPort
PUBLIC e2b86 0 strapRtlAddElement
PUBLIC e2c02 0 getScopesForInit
PUBLIC e2cb8 0 isConstantZero
PUBLIC e2dc3 0 getDriverName
PUBLIC e3469 0 getScopesForDelay
PUBLIC e3585 0 getScopesForWire
PUBLIC e3791 0 getScopesForResolve
PUBLIC e390a 0 getScopesForLatch
PUBLIC e3b02 0 getScopesForFF
PUBLIC e3e93 0 strapRtlConvertToStrap
PUBLIC e48af 0 strapCPI_DestroyHandles
PUBLIC e48f7 0 strapCPI_IsRTLObject
PUBLIC e4916 0 strapCPI_getVar
PUBLIC e491c 0 strapCPI_getScope
PUBLIC e49ea 0 strapCPI_Init
PUBLIC e51c4 0 strapCPI_AddElements
PUBLIC e53b2 0 strapCPI_IsModuleBlackBoxed
PUBLIC e5487 0 check_for_map_to_cont_assign
PUBLIC e54d1 0 NatRTL_detach_node
PUBLIC e5533 0 NatRTL_find_rule_in_library
PUBLIC e55ab 0 check_for_NYI_nodes
PUBLIC e55e5 0 NatRTL_count_tree_nodes
PUBLIC e5626 0 getNodeFromTable
PUBLIC e566d 0 NatRTL_translate_ast_to_sig
PUBLIC e57c0 0 createSignal
PUBLIC e57d4 0 isPosEdge
PUBLIC e5800 0 strIsAllZs
PUBLIC e5836 0 analyzeExpression
PUBLIC e58db 0 isCombExpression
PUBLIC e590d 0 isConstExpression
PUBLIC e593f 0 isEventExpression
PUBLIC e596d 0 NatRTL_append_node
PUBLIC e59bb 0 NatRTL_add_entry_to_table
PUBLIC e5a12 0 NatRTL_dist_ast_get_outputs
PUBLIC e5a8e 0 NatRTL_create_node
PUBLIC e5afb 0 NatRTL_push_new_node
PUBLIC e5b12 0 NatRTL_process_reg_net_expr
PUBLIC e5be3 0 NatRTL_dist_ast_stripped_copy
PUBLIC e5c5a 0 NatRTL_push_copy
PUBLIC e5ca9 0 copy_tree
PUBLIC e5cf8 0 NatRTL_translate_vhdlOp
PUBLIC e5f98 0 getName
PUBLIC e6015 0 getFullName
PUBLIC e6028 0 NatRTL_process_expr
PUBLIC e6b1f 0 get_all_rhs_nodes
PUBLIC e6b93 0 check_output_chain
PUBLIC e6d88 0 get_all_lhs_nodes
PUBLIC e6e04 0 get_primary_io
PUBLIC e6f09 0 get_primary_inputs
PUBLIC e6f4b 0 NatRTL_vhdl_get_value
PUBLIC e7142 0 NatRTL_get_value
PUBLIC e7220 0 NatRTL_add_unique_entry_to_table
PUBLIC e7294 0 isAllZeroes
PUBLIC e731b 0 get_inst_name
PUBLIC e73cf 0 NatRTL_destroy_sig_table
PUBLIC e7408 0 isValue
PUBLIC e7494 0 NatRTL_delete_tree
PUBLIC e756d 0 simplify_condition
PUBLIC e7758 0 NatRTL_dist_ast_remove_dead_code
PUBLIC e781c 0 NatRTL_map_case_to_mux
PUBLIC e7e8f 0 NatRTL_map_flow_to_mux
PUBLIC e8290 0 gen_unknown_block
PUBLIC e8456 0 endBody
PUBLIC e8492 0 strIsAllOnes
PUBLIC e84e6 0 isAllOnes
PUBLIC e853e 0 isIdentical
PUBLIC e86ac 0 makeFullName
PUBLIC e8718 0 makeTempName
PUBLIC e875e 0 isInSensitivityList
PUBLIC e887e 0 NatRTL_getDriverName
PUBLIC e9158 0 NatRTL_get_expression_signal_name
PUBLIC e91c7 0 add_io
PUBLIC e954f 0 add_in
PUBLIC e9761 0 addInput
PUBLIC e9783 0 addOutput
PUBLIC e97a5 0 NatRTL_sig_gen_assign_block
PUBLIC e98e0 0 NatRTL_sig_gen_n_assigns
PUBLIC e9db3 0 copy_tree_to_signature
PUBLIC e9f38 0 copy_expression_to_signature
PUBLIC ea15c 0 NatRTL_sig_gen_assign
PUBLIC ea46c 0 NatRTL_sig_generate
PUBLIC eb02c 0 NatRTL_make_signature
PUBLIC eb107 0 NatRTL_process_late_rules
PUBLIC eb248 0 NatRTL_sig_gen_n_copies
PUBLIC eb73e 0 NatRTL_process_vhpiStmts
PUBLIC ebce3 0 NatRTL_process_vpiStmts
PUBLIC ec26f 0 NatRTL_process_code
PUBLIC ed24f 0 strapRtl_AddElements
PUBLIC ed4f0 0 NatRTL_sch_gen_e_b_dff
PUBLIC ed81f 0 NatRTL_sch_gen_e_shifter
PUBLIC edafa 0 NatRTL_sch_gen_e_fifo
PUBLIC edf27 0 NatRTL_sch_gen_e_tri
PUBLIC ee127 0 NatRTL_sch_gen_l_cl_ul
PUBLIC ee319 0 NatRTL_sch_gen_l_cl_dff
PUBLIC ee52a 0 NatRTL_sch_gen_l_cl_dff_lc_sc
PUBLIC eeb3e 0 NatRTL_sch_gen_l_cl_dff_sc
PUBLIC eee6e 0 NatRTL_sch_gen_l_cl_dff_sr
PUBLIC ef113 0 NatRTL_sch_gen_l_cl_dff_ld_nc
PUBLIC ef2b2 0 NatRTL_sch_gen_l_fsm
PUBLIC ef711 0 NatRTL_sch_gen_l_cl_jkff_sc
PUBLIC efa44 0 NatRTL_sch_gen_vhdl_jkff
PUBLIC efd02 0 NatRTL_sch_gen_vhdl_l_cl_dff
PUBLIC eff4b 0 NatRTL_sch_gen_l_cl_lat
PUBLIC f0038 0 NatRTL_sch_gen_vhdl_l_cl_lat
PUBLIC f016a 0 NatRTL_sch_gen_vhdl_decoder
PUBLIC f04b5 0 strapEmulator
PUBLIC f0568 0 Strap_InitEmulator
PUBLIC f059b 0 makeFullName
PUBLIC f05ef 0 addNameToRegion
PUBLIC f0728 0 strapRtlCreatePortList
PUBLIC f073b 0 strapRtlDestroyPortList
PUBLIC f0795 0 strapRtlCreateElementList
PUBLIC f07a8 0 strapRtlDestroyElementList
PUBLIC f080f 0 strapRtlAddPort
PUBLIC f08c4 0 strapRtlAddElementB
PUBLIC f0aa8 0 checkConsistency
PUBLIC f0b61 0 strapRtlConvertToStrap
PUBLIC f1393 0 strapRtl_DestroyHandles
PUBLIC f13ec 0 strapRtl_IsRTLObject
PUBLIC f140b 0 strapRtl_getVar
PUBLIC f1499 0 strapRtl_getScope
PUBLIC f16b2 0 repEventEnable
PUBLIC f16fc 0 repEvent_send
PUBLIC f179b 0 repEventDisable
PUBLIC f17c4 0 Strap_InitRepEvent
PUBLIC f1842 0 strapGetCountProperties
PUBLIC f1b24 0 strapGetCheck
PUBLIC f1be9 0 strapGetCategories
PUBLIC f1d4f 0 strapGetTagExtendedMessage
PUBLIC f1dad 0 strapGetMessageBasicProperties
PUBLIC f1fad 0 strapGetTagBasicProperties
PUBLIC f223f 0 strapGetTags
PUBLIC f2369 0 strapCheckNotify
PUBLIC f24aa 0 add_driver_marks_to_tree
PUBLIC f2527 0 validate_dly_usage
PUBLIC f256f 0 normalize_all_delays
PUBLIC f25ae 0 find_longest_delay
PUBLIC f25e3 0 is_contains_nyi
PUBLIC f262b 0 find_most_relevant_nyi
PUBLIC f2814 0 has_function
PUBLIC f2856 0 detach_node
PUBLIC f28b3 0 distribute_delays
PUBLIC f2947 0 append_node
PUBLIC f2986 0 delete_tree
PUBLIC f2a1a 0 subst_with_child
PUBLIC f2adc 0 xform_reduce_proc_blocks
PUBLIC f2b6c 0 xform_strip_unmarked_blocks
PUBLIC f2c0b 0 xform_strip_unmarked_assignments
PUBLIC f2c4f 0 xform_reduce_assignment
PUBLIC f2ccc 0 xform_and_ones
PUBLIC f2dde 0 merge_ds_message
PUBLIC f2e57 0 create_node
PUBLIC f2ee1 0 push_new_node
PUBLIC f2ef8 0 remove_event_list
PUBLIC f2f8f 0 insert_node
PUBLIC f3042 0 xform_events_p1
PUBLIC f3162 0 xform_events_p2
PUBLIC f3254 0 xform_reduce_if_then_else
PUBLIC f3333 0 getFullName
PUBLIC f33ac 0 xform_noncontributors
PUBLIC f34c3 0 translate_vhdlOp
PUBLIC f37b4 0 process_expr
PUBLIC f4106 0 check_special_assignment_op
PUBLIC f4252 0 get_constant_value
PUBLIC f45fd 0 simplify_condition
PUBLIC f4803 0 accumulate_delays
PUBLIC f48b8 0 generate_time_units
PUBLIC f4b6e 0 report_nyi_node
PUBLIC f4cf2 0 duplicate_tree
PUBLIC f4da0 0 xform_reduce_case_statements
PUBLIC f52ee 0 transform_tree_to_expression2
PUBLIC f5341 0 process_vpiStmts
PUBLIC f5938 0 process_vhpiStmts
PUBLIC f5e97 0 handle_special_assignment
PUBLIC f5fc0 0 build_tree
PUBLIC f6cff 0 strapDriverGrading_Reinit
PUBLIC f6d67 0 drgrStackCreate
PUBLIC f6d72 0 drgrStackDestroy
PUBLIC f6d7d 0 drgrStackPush
PUBLIC f6da0 0 drgrStackPop
PUBLIC f6da8 0 adjust_expr
PUBLIC f6e0b 0 generate_expression
PUBLIC f7d6d 0 processDriver
PUBLIC f884d 0 drgrProcessDriver
PUBLIC f890c 0 drgrProcessPrimitive
PUBLIC f8dc4 0 strapAddFsmsInfo
PUBLIC f9682 0 strapCreateFsmElement
PUBLIC f96e2 0 strapDestroyFsmElement
PUBLIC f9711 0 strapStateVarFullName
PUBLIC f9871 0 strapFsmFileLine
PUBLIC fab22 0 strapFsmFile
PUBLIC fab92 0 strapLwdFsmFile
PUBLIC faeee 0 strapStateVarFsmVl
PUBLIC fafc0 0 strapAddFsmStateInfoVl
PUBLIC fb15f 0 strapAddFsmTransitionInfoVl
PUBLIC fb3bc 0 strapAddFsmInfoVl
PUBLIC fb43a 0 strapSetChkErrorFlag
PUBLIC fb91a 0 strapChkErr
PUBLIC fb97f 0 strapPeekSuppressPliError
PUBLIC fb9e0 0 strapPopSuppressPliError
PUBLIC fba3e 0 strapPushSuppressPliError
PUBLIC fba8a 0 strapCreateSuppressPliErrorStack
PUBLIC fbace 0 strapDestroySuppressPliErrorStack
PUBLIC fbaff 0 strap_vpi_handle
PUBLIC fbc23 0 strapVpiHandle
PUBLIC fbc46 0 strap_vpi_handle_by_name
PUBLIC fbd30 0 strapVpiHandleByName
PUBLIC fbd53 0 strap_vpi_handle_by_index
PUBLIC fbe34 0 strapVpiHandleByIndex
PUBLIC fbe57 0 strap_vpi_handle_by_multi_index
PUBLIC fbf44 0 strapVpiHandleByMultiIndex
PUBLIC fbf67 0 strap_vpi_iterate
PUBLIC fc087 0 strap_vpi_scan
PUBLIC fc156 0 strapVpiScan
PUBLIC fc179 0 strap_vpi_get
PUBLIC fc266 0 strapVpiIterate
PUBLIC fc361 0 strapVpiGet
PUBLIC fc381 0 strap_vpi_get_long
PUBLIC fc462 0 strapVpiGetLong
PUBLIC fc485 0 strap_vpi_get_str
PUBLIC fc577 0 strapVpiGetStr
PUBLIC fc5a4 0 strap_vpi_get_value
PUBLIC fc67a 0 strapVpiGetValue
PUBLIC fc692 0 strap_vhpi_handle
PUBLIC fc721 0 strapVhpiHandle
PUBLIC fc744 0 strap_vhpi_handle_by_name
PUBLIC fc7d3 0 strapVhpiHandleByName
PUBLIC fc7f6 0 strap_vhpi_handle_by_index
PUBLIC fc89a 0 strapVhpiHandleByIndex
PUBLIC fc8bd 0 strap_vhpi_iterator
PUBLIC fc94c 0 strapVhpiIterator
PUBLIC fc96f 0 strap_vhpi_get
PUBLIC fc9fe 0 strapVhpiGet
PUBLIC fca1e 0 strap_vhpi_get_dynamic
PUBLIC fcac2 0 strapVhpiGetDynamic
PUBLIC fcae2 0 strap_vhpi_get_dyn_object_value
PUBLIC fcb86 0 strap_vhpi_get_long
PUBLIC fcc15 0 strapVhpiGetLong
PUBLIC fcc38 0 strap_vhpi_get_phys
PUBLIC fccc7 0 strapVhpiGetPhys
PUBLIC fcd0a 0 strap_vhpi_get_real
PUBLIC fcdaa 0 strapVhpiGetReal
PUBLIC fcdd1 0 strap_vhpi_get_str
PUBLIC fce60 0 strapVhpiGetStr
PUBLIC fce83 0 strap_vhpi_get_value
PUBLIC fcf12 0 strapVhpiGetValue
PUBLIC fcf32 0 strap_scpi_handle_by_name
PUBLIC fcfc1 0 strapScpiHandleByName
PUBLIC fcfe4 0 strap_dlsym
PUBLIC fd027 0 strapEpiGetValue
PUBLIC fd098 0 strapRemoveIndexInfo
PUBLIC fd0ef 0 strapEpiGet
PUBLIC fd143 0 strapEpiGetError
PUBLIC fd189 0 strapEpiGetStr
PUBLIC fd1dd 0 strapGenERecordObject
PUBLIC fd21f 0 strapEpiHandle
PUBLIC fd273 0 strapETestPhaseChangeCB
PUBLIC fd3f2 0 strapGenETypeObject
PUBLIC fd612 0 strapEpiIterator
PUBLIC fd666 0 strapEpiRegisterCb
PUBLIC fd6ac 0 strapEpiRemoveCb
PUBLIC fd6f2 0 strapEpiScan
PUBLIC fd738 0 strapEpiUvmIterate
PUBLIC fd78a 0 strapEpiUvmScan
PUBLIC fd7ce 0 strapEpiUvmFreeObject
PUBLIC fd80b 0 strapEpiUvmGetStr
PUBLIC fd85d 0 strapEpiUvmGet
PUBLIC fd8af 0 strapEpiUvmHandle
PUBLIC fd901 0 strapEpiUvmHandleByName
PUBLIC fd955 0 strapEpiUvmPackagePresent
PUBLIC fd999 0 strapEpiGetVarValue
PUBLIC fda56 0 strapEpiHandleByName
PUBLIC fdb22 0 strapEpiWeoHandleByName
PUBLIC fdb78 0 strapEpiControl
PUBLIC fdbd1 0 strapEpiGetTimeResolution
PUBLIC fdc1c 0 strapEpiGetSimulationTime
PUBLIC fdc67 0 strapEpi_udmGetCallStack
PUBLIC fdcc0 0 strapEpiGetAllBreaks
PUBLIC fdd19 0 strapEpiGetAllWEOs
PUBLIC fdd72 0 strapEpiGetAllFiles
PUBLIC fddc9 0 strapRegisterETestPhaseChangeCB
PUBLIC fded0 0 strapRegisterEUnitTreeUpdateCB
PUBLIC fdfd7 0 strapClearETestPhaseChangeCB
PUBLIC fe02b 0 strapClearEUnitTreeUpdateCB
PUBLIC fe07f 0 strapUnitHandleByName
PUBLIC fe0a1 0 strapGetSpecmanConnectionFileInner
PUBLIC fe0ec 0 strapGetSpecmanConnectionFile
PUBLIC fe118 0 strapInstallUnitName
PUBLIC fe1aa 0 Strap_InitSpecman
PUBLIC fe1b0 0 specmanSupportsUniSB
PUBLIC fe1b6 0 Strap_InitHandshake
PUBLIC fe1b7 0 strapSpecmanModeHidden
PUBLIC fe1bd 0 strapSpecmanGetTimeResolution
PUBLIC fe1d0 0 strapSpecmanGetSimulationTime
PUBLIC fe1e3 0 strapGetWEO
PUBLIC fe3f3 0 strapWrapEItem
PUBLIC fe452 0 strapEpiIterateForPortBasicProps
PUBLIC fe5af 0 strapEUnitTreeUpdateCB
PUBLIC fe824 0 strapProcessUnitLabel
PUBLIC fe999 0 strapAddEpathProp
PUBLIC feb39 0 strapGetUnitBasicProps
PUBLIC fef0f 0 strapIterateForChildUnits
PUBLIC ff262 0 strapIterateForUnitChildVars
PUBLIC ff46e 0 strapIsWrappedEItem
PUBLIC ff4a9 0 strapUnwrapEItem
PUBLIC ff4e3 0 strapEFiles
PUBLIC ff624 0 strapIterateForName
PUBLIC ff6a0 0 strapAddCpfSourceChunks
PUBLIC ff813 0 strapPwrDomainBasicProps
PUBLIC ffb73 0 strapCheckPortFormals
PUBLIC ffbe5 0 strapPortPosInCompInst
PUBLIC 1000f6 0 strapIterateForPortSpec
PUBLIC 100b95 0 strapIterateForRuleBasicProps
PUBLIC 1013c2 0 strapGetPwrSupplyPorts
PUBLIC 1015af 0 strapGetPwrSupplyNets
PUBLIC 10194e 0 strapGetPwrSupplySets
PUBLIC 101b95 0 strapGetPwrSwitches
PUBLIC 101ebf 0 strapGetPwrDomains
PUBLIC 101fc0 0 strapGetPwrModes
PUBLIC 1021da 0 strapGetNominalConds
PUBLIC 102365 0 strapGetPwrDomain
PUBLIC 1028ba 0 strapGetPwrSupplyNet
PUBLIC 102a25 0 strapGetPwrSwitch
PUBLIC 102b90 0 strapIterateDesignSrchScope
PUBLIC 102d69 0 strapDesignSrch
PUBLIC 102dc0 0 strapDestroyMacroObj
PUBLIC 102dd4 0 strapCreateMacroObj
PUBLIC 102edd 0 strapGetMacro
PUBLIC 10338e 0 strapDumpMacroObjHT
PUBLIC 103551 0 strapGetMemMapProps
PUBLIC 103789 0 strapGetMemMap
PUBLIC 1037f6 0 strapMemMaps
PUBLIC 10384e 0 strapGetVSPLogThemeProps
PUBLIC 103ad3 0 strapGetVSPLogTheme
PUBLIC 103c3c 0 strapGetVSPLogThemeList
PUBLIC 103cd6 0 strapHandleInit
PUBLIC 103d00 0 strapHandleAlloc
PUBLIC 103d44 0 strapHandleFree
PUBLIC 103d58 0 strapHandleH
PUBLIC 103d65 0 strapHandleSetH
PUBLIC 103d7c 0 strapHandleType
PUBLIC 103e45 0 strapHandleLang
PUBLIC 103e78 0 strapGetUP
PUBLIC 103fe7 0 strapFormalVerifier
PUBLIC 1040b1 0 Strap_InitFormalVerifier
PUBLIC 1040e4 0 strap_dlsym
PUBLIC 10422a 0 strapSizeUvmEnableStack
PUBLIC 104258 0 strapEnableDPIExportFunc
PUBLIC 1042b8 0 strapDisableDPIExportFunc
PUBLIC 10431d 0 strapUvmGetTable
PUBLIC 104361 0 strapUvmGetTableByName
PUBLIC 1043a7 0 strapUvmGetTableName
PUBLIC 1043ed 0 strapUvmGetRoot
PUBLIC 104441 0 strapUvmGetChildCount
PUBLIC 104487 0 strapUvmGetChild
PUBLIC 1044db 0 strapUvmNodeToString
PUBLIC 10452f 0 strapUvmDumpNode
PUBLIC 10457c 0 strapUvmGetColumn
PUBLIC 1045d0 0 strapUvmInit2
PUBLIC 104624 0 strapUvmResetTable
PUBLIC 104663 0 strapUvmGetColumnIdxByName
PUBLIC 1046b9 0 strapUvmLPN_getLPNTranslationService
PUBLIC 104704 0 strapUvmLPN_LPN2Node
PUBLIC 10475a 0 strapUvmLPN_Handle2LPN
PUBLIC 1047b0 0 strapUvmLPN_update
PUBLIC 1047ff 0 strapUvmGetValueSVstringAsChar
PUBLIC 104855 0 strapUvmGetValueStringAsChar
PUBLIC 1048ab 0 strapUvmGetValueIntAsInt
PUBLIC 104901 0 strapUvmNextComponentName
PUBLIC 104945 0 strapUvmClose
PUBLIC 104981 0 strapUvmGetUnderlyingHandle
PUBLIC 104a20 0 strapFilterUvmComp
PUBLIC 104bd7 0 strapGetUvmCompBasicProps
PUBLIC 104e41 0 strapGetUvmCompProps
PUBLIC 104f0f 0 strapIsSvLibReqd
PUBLIC 104f45 0 strapIsELibReqd
PUBLIC 104f5e 0 strapGenTypeObjForUvm
PUBLIC 10500a 0 strapGetUvmRegBasicProps
PUBLIC 1054a0 0 strapGetUvmPhaseState
PUBLIC 1054a7 0 strapSetUvmPhaseState
PUBLIC 1054ae 0 strapGetCurrentUvmPhaseState
PUBLIC 10561a 0 strapResetUvmPhaseState
PUBLIC 105643 0 strapIsUvmApiAvailable
PUBLIC 105b9c 0 strapGetTopUvmRegs
PUBLIC 105c3b 0 strapGetUvmReg
PUBLIC 105e70 0 strapGetTopUvmComps
PUBLIC 105fa8 0 strapGetUvmComp
PUBLIC 1061de 0 strapCreateUvmEnableStack
PUBLIC 106222 0 strapDestroyUvmEnableStack
PUBLIC 106253 0 strapGetUvmFilterList
PUBLIC 1062f4 0 sfbStackPush
PUBLIC 106317 0 strapDumpLwdOomrs_int
PUBLIC 106790 0 strapLwdOomrRefsAllFound
PUBLIC 106822 0 strapLwdOomrCheck
PUBLIC 106d6d 0 strapLwdOomrCheckStmt
PUBLIC 107736 0 strapLwdOomrIterateForStmts
PUBLIC 1077d1 0 strapLwdOomrProcessScope
PUBLIC 107ca0 0 strapCreateOomrElement
PUBLIC 107cd2 0 strapDestroyOomrElement
PUBLIC 107cf2 0 strapCreateOomrDetails
PUBLIC 107d17 0 strapCreateOomrRef
PUBLIC 107d97 0 strapDestroyOomrRef
PUBLIC 107dd4 0 strapDestroyOomrDetails
PUBLIC 107e3f 0 strapDumpLwdOomrs
PUBLIC 107e8f 0 strapDumpLwdOomrs_c
PUBLIC 107f1c 0 strapAddRefToDetailsNoDups
PUBLIC 108063 0 strapOpenLwdFile
PUBLIC 10816b 0 strapOomrNextToken
PUBLIC 1083eb 0 strapLwdOomrFile
PUBLIC 108e62 0 strapFindLwdOomrRefs
PUBLIC 109407 0 strapLwdRefFullName
PUBLIC 109470 0 strapLwdOomrAppendPortion
PUBLIC 1095aa 0 strapLwdOomrRefFullName
PUBLIC 109aa7 0 strapLwdLoadOomrData
PUBLIC 109af9 0 strapRemoveExtIdBraces
PUBLIC 109b42 0 strapDumpOomrDBMesg
PUBLIC 109ba5 0 strapGetLwdDir
PUBLIC 109c4d 0 strapGetLwdDatabaseFullPath
PUBLIC 109cc6 0 strapDumpOomrDBEntry
PUBLIC 109e66 0 strapSimOomrDBSearch
PUBLIC 10a1cd 0 strapLwdOomrDB
PUBLIC 10a9aa 0 strapPopulateLwdOomr
PUBLIC 10af96 0 strapLwdOomrDBRefFullNameFromSrcRep
PUBLIC 10b538 0 strapLwdGetCoercionFlag
PUBLIC 10b58c 0 strapOomrDBGetDerivedClassInfo
PUBLIC 10b727 0 strap_dlsym
PUBLIC 10b901 0 strapIdaGetMethod
PUBLIC 10b957 0 strapIdaGetVarName
PUBLIC 10b99d 0 strapIdaGetVarIdentifierName
PUBLIC 10b9e3 0 strapIdaGetMethodVars
PUBLIC 10ba39 0 strapIdaGetLhsVars
PUBLIC 10ba8f 0 strapIdaGetRhsVars
PUBLIC 10bae5 0 strapIdaGetCtrlData
PUBLIC 10bb4a 0 strapIdaGetVarKindStr
PUBLIC 10bb90 0 strapIdaGetMethodLwd
PUBLIC 10bbfa 0 strapIdaGetVarIdentifierNameLwd
PUBLIC 10bc50 0 strapIdaGetMethodVarsLwd
PUBLIC 10bcba 0 strapIdaGetLhsVarsLwd
PUBLIC 10bd24 0 strapIdaGetRhsVarsLwd
PUBLIC 10bd8e 0 strapIdaGetCtrlDataLwd
PUBLIC 10be05 0 ida_linked_list_new_
PUBLIC 10be50 0 ida_linked_list_init_
PUBLIC 10be9f 0 ida_linked_list_size_
PUBLIC 10bee5 0 ida_linked_list_add_
PUBLIC 10bf34 0 ida_linked_list_set_head_
PUBLIC 10bf73 0 ida_linked_list_next_
PUBLIC 10bfb9 0 strapVars
PUBLIC 10c0b0 0 ida_linked_list_get_
PUBLIC 10c104 0 ida_linked_list_delete_
PUBLIC 10c151 0 ida_linked_list_free_
PUBLIC 10c190 0 strapGetIda
PUBLIC 10c568 0 strapExecCmd
PUBLIC 10c5fc 0 strapGetSpecmanLibDirPath
PUBLIC 10c702 0 strapGenPathForLib.localalias
PUBLIC 10c91c 0 strapLwdVhCheckExpr
PUBLIC 10cc63 0 strapLwdVhFinishDriver
PUBLIC 10ccce 0 strapLwdVhCheckPorts
PUBLIC 10d1a5 0 strapLwdVhCheckStmt
PUBLIC 10e02f 0 strapLwdVhAssignments
PUBLIC 10e264 0 strapLwdVhDrivers
PUBLIC 10e3a3 0 strapLwdVhLoads
PUBLIC 10e4b8 0 strapDumpLwdXprop_int
PUBLIC 10e68a 0 strapDumpLwdXprop
PUBLIC 10e6da 0 strapDumpLwdXprop_c
PUBLIC 10e767 0 strapLwdXpropFile
PUBLIC 10ed23 0 strapLwdXprop
PUBLIC 10f015 0 loadInitLibVisadev
PUBLIC 1100de 0 initLibVisadevTray
PUBLIC 110151 0 strapUnorderedMapByNameNew
PUBLIC 1101a2 0 strapUnorderedMapByNameSize
PUBLIC 1101b2 0 strapUnorderedMapByNameBegin
PUBLIC 1101d3 0 strapUnorderedMapByNameEnd
PUBLIC 1101f6 0 strapUnorderedMapByNameIterNext
PUBLIC 110208 0 strapUnorderedMapByNameIterEq
PUBLIC 110227 0 strapUnorderedMapByNameKeyFromIter
PUBLIC 110238 0 strapUnorderedMapByNameValueFromIter
PUBLIC 110249 0 strapUnorderedMapByNameFreeIterHandle
PUBLIC 110262 0 strapMapByNameNew
PUBLIC 110298 0 strapMapByNameSize
PUBLIC 1102a8 0 strapMapByNameBegin
PUBLIC 1102c9 0 strapMapByNameEnd
PUBLIC 1102ea 0 strapMapByNameIterNext
PUBLIC 110303 0 strapMapByNameIterEq
PUBLIC 110322 0 strapMapByNameKeyFromIter
PUBLIC 110333 0 strapMapByNameValueFromIter
PUBLIC 110344 0 strapMapByNameFreeIterHandle
PUBLIC 11035d 0 strapVpiHandleMapClear
PUBLIC 110372 0 strapMapByNameDelete
PUBLIC 110394 0 strapMapByNameFind
PUBLIC 11041c 0 strapMapByNameInsert
PUBLIC 110460 0 strapMapByNameClear
PUBLIC 11052f 0 strapUnorderedMapByNameDelete
PUBLIC 11055e 0 strapUnorderedMapByNameClear
PUBLIC 1105fc 0 strapUnorderedMapByNameFind
PUBLIC 1106c7 0 strapVpiHandleMapFind
PUBLIC 11076f 0 strapUnorderedMapByNameInsert
PUBLIC 1107b3 0 strapGetRealAsWreal
PUBLIC 110ded 0 strapGetRealsRecorded
PUBLIC 111402 0 strapMatchXLMVersion
PUBLIC 111a46 0 _GLOBAL__sub_I_strapLwdCppUtils.cc
PUBLIC 111ab6 0 boost::property_tree::json_parser::detail::external_ascii_superset_encoding::is_ws(char) const
PUBLIC 111ada 0 boost::property_tree::json_parser::detail::external_ascii_superset_encoding::is_minus(char) const
PUBLIC 111ae2 0 boost::property_tree::json_parser::detail::external_ascii_superset_encoding::is_plusminus(char) const
PUBLIC 111aee 0 boost::property_tree::json_parser::detail::external_ascii_superset_encoding::is_dot(char) const
PUBLIC 111af6 0 boost::property_tree::json_parser::detail::external_ascii_superset_encoding::is_eE(char) const
PUBLIC 111b02 0 boost::property_tree::json_parser::detail::external_ascii_superset_encoding::is_0(char) const
PUBLIC 111b0a 0 boost::property_tree::json_parser::detail::external_ascii_superset_encoding::is_digit(char) const
PUBLIC 111b16 0 boost::property_tree::json_parser::detail::external_ascii_superset_encoding::is_digit0(char) const
PUBLIC 111b22 0 boost::property_tree::json_parser::detail::external_ascii_superset_encoding::is_quote(char) const
PUBLIC 111b2a 0 boost::property_tree::json_parser::detail::external_ascii_superset_encoding::is_backslash(char) const
PUBLIC 111b32 0 boost::property_tree::json_parser::detail::external_ascii_superset_encoding::is_slash(char) const
PUBLIC 111b3a 0 boost::property_tree::json_parser::detail::external_ascii_superset_encoding::is_comma(char) const
PUBLIC 111b42 0 boost::property_tree::json_parser::detail::external_ascii_superset_encoding::is_open_bracket(char) const
PUBLIC 111b4a 0 boost::property_tree::json_parser::detail::external_ascii_superset_encoding::is_close_bracket(char) const
PUBLIC 111b52 0 boost::property_tree::json_parser::detail::external_ascii_superset_encoding::is_colon(char) const
PUBLIC 111b5a 0 boost::property_tree::json_parser::detail::external_ascii_superset_encoding::is_open_brace(char) const
PUBLIC 111b62 0 boost::property_tree::json_parser::detail::external_ascii_superset_encoding::is_close_brace(char) const
PUBLIC 111b6a 0 boost::property_tree::json_parser::detail::external_ascii_superset_encoding::is_a(char) const
PUBLIC 111b72 0 boost::property_tree::json_parser::detail::external_ascii_superset_encoding::is_b(char) const
PUBLIC 111b7a 0 boost::property_tree::json_parser::detail::external_ascii_superset_encoding::is_e(char) const
PUBLIC 111b82 0 boost::property_tree::json_parser::detail::external_ascii_superset_encoding::is_f(char) const
PUBLIC 111b8a 0 boost::property_tree::json_parser::detail::external_ascii_superset_encoding::is_l(char) const
PUBLIC 111b92 0 boost::property_tree::json_parser::detail::external_ascii_superset_encoding::is_n(char) const
PUBLIC 111b9a 0 boost::property_tree::json_parser::detail::external_ascii_superset_encoding::is_r(char) const
PUBLIC 111ba2 0 boost::property_tree::json_parser::detail::external_ascii_superset_encoding::is_s(char) const
PUBLIC 111baa 0 boost::property_tree::json_parser::detail::external_ascii_superset_encoding::is_t(char) const
PUBLIC 111bb2 0 boost::property_tree::json_parser::detail::external_ascii_superset_encoding::is_u(char) const
PUBLIC 111bba 0 boost::property_tree::ptree_error::~ptree_error()
PUBLIC 111bd6 0 boost::property_tree::ptree_error::~ptree_error()
PUBLIC 111bfc 0 boost::property_tree::ptree_bad_path::~ptree_bad_path()
PUBLIC 111c36 0 boost::property_tree::ptree_bad_data::~ptree_bad_data()
PUBLIC 111c70 0 boost::property_tree::file_parser_error::~file_parser_error()
PUBLIC 111cbe 0 boost::property_tree::ptree_bad_data::~ptree_bad_data()
PUBLIC 111d04 0 boost::property_tree::ptree_bad_path::~ptree_bad_path()
PUBLIC 111d4a 0 boost::property_tree::json_parser::detail::standard_callbacks<boost::property_tree::basic_ptree<std::__cxx11::basic_string<char, std::char_traits<char>, std::allocator<char> >, std::__cxx11::basic_string<char, std::char_traits<char>, std::allocator<char> >, std::less<std::__cxx11::basic_string<char, std::char_traits<char>, std::allocator<char> > > > >::on_code_unit(char)
PUBLIC 111dc6 0 boost::property_tree::json_parser::json_parser_error::~json_parser_error()
PUBLIC 111e14 0 boost::property_tree::file_parser_error::~file_parser_error()
PUBLIC 111e70 0 boost::property_tree::json_parser::json_parser_error::~json_parser_error()
PUBLIC 111ecc 0 boost::exception_detail::error_info_injector<boost::property_tree::json_parser::json_parser_error>::~error_info_injector()
PUBLIC 111f46 0 non-virtual thunk to boost::exception_detail::error_info_injector<boost::property_tree::json_parser::json_parser_error>::~error_info_injector()
PUBLIC 111fd0 0 virtual thunk to boost::exception_detail::clone_impl<boost::exception_detail::error_info_injector<boost::property_tree::json_parser::json_parser_error> >::~clone_impl()
PUBLIC 112073 0 non-virtual thunk to boost::exception_detail::clone_impl<boost::exception_detail::error_info_injector<boost::property_tree::json_parser::json_parser_error> >::~clone_impl()
PUBLIC 11211c 0 boost::exception_detail::clone_impl<boost::exception_detail::error_info_injector<boost::property_tree::json_parser::json_parser_error> >::~clone_impl()
PUBLIC 1121b8 0 non-virtual thunk to boost::exception_detail::clone_impl<boost::exception_detail::error_info_injector<boost::property_tree::json_parser::json_parser_error> >::~clone_impl()
PUBLIC 112254 0 virtual thunk to boost::exception_detail::clone_impl<boost::exception_detail::error_info_injector<boost::property_tree::json_parser::json_parser_error> >::~clone_impl()
PUBLIC 1122ea 0 boost::exception_detail::clone_impl<boost::exception_detail::error_info_injector<boost::property_tree::json_parser::json_parser_error> >::~clone_impl()
PUBLIC 11237a 0 non-virtual thunk to boost::exception_detail::error_info_injector<boost::property_tree::json_parser::json_parser_error>::~error_info_injector()
PUBLIC 112412 0 boost::exception_detail::error_info_injector<boost::property_tree::json_parser::json_parser_error>::~error_info_injector()
PUBLIC 112499 0 int __gnu_cxx::__stoa<long, int, char, int>(long (*)(char const*, char**, int), char const*, char const*, unsigned long*, int)
PUBLIC 112540 0 std::_Hashtable<void*, void*, std::allocator<void*>, std::__detail::_Identity, std::equal_to<void*>, std::hash<void*>, std::__detail::_Mod_range_hashing, std::__detail::_Default_ranged_hash, std::__detail::_Prime_rehash_policy, std::__detail::_Hashtable_traits<false, true, true> >::clear()
PUBLIC 112594 0 std::unordered_set<void*, std::hash<void*>, std::equal_to<void*>, std::allocator<void*> >::~unordered_set()
PUBLIC 1125b0 0 std::_Rb_tree<std::__cxx11::basic_string<char, std::char_traits<char>, std::allocator<char> >, std::pair<std::__cxx11::basic_string<char, std::char_traits<char>, std::allocator<char> > const, void*>, std::_Select1st<std::pair<std::__cxx11::basic_string<char, std::char_traits<char>, std::allocator<char> > const, void*> >, std::less<std::__cxx11::basic_string<char, std::char_traits<char>, std::allocator<char> > >, std::allocator<std::pair<std::__cxx11::basic_string<char, std::char_traits<char>, std::allocator<char> > const, void*> > >::_M_erase(std::_Rb_tree_node<std::pair<std::__cxx11::basic_string<char, std::char_traits<char>, std::allocator<char> > const, void*> >*)
PUBLIC 1125f8 0 std::_Rb_tree<std::__cxx11::basic_string<char, std::char_traits<char>, std::allocator<char> >, std::pair<std::__cxx11::basic_string<char, std::char_traits<char>, std::allocator<char> > const, void*>, std::_Select1st<std::pair<std::__cxx11::basic_string<char, std::char_traits<char>, std::allocator<char> > const, void*> >, std::less<std::__cxx11::basic_string<char, std::char_traits<char>, std::allocator<char> > >, std::allocator<std::pair<std::__cxx11::basic_string<char, std::char_traits<char>, std::allocator<char> > const, void*> > >::find(std::__cxx11::basic_string<char, std::char_traits<char>, std::allocator<char> > const&)
PUBLIC 1126da 0 std::_Rb_tree<std::__cxx11::basic_string<char, std::char_traits<char>, std::allocator<char> >, std::pair<std::__cxx11::basic_string<char, std::char_traits<char>, std::allocator<char> > const, void*>, std::_Select1st<std::pair<std::__cxx11::basic_string<char, std::char_traits<char>, std::allocator<char> > const, void*> >, std::less<std::__cxx11::basic_string<char, std::char_traits<char>, std::allocator<char> > >, std::allocator<std::pair<std::__cxx11::basic_string<char, std::char_traits<char>, std::allocator<char> > const, void*> > >::_M_get_insert_unique_pos(std::__cxx11::basic_string<char, std::char_traits<char>, std::allocator<char> > const&)
PUBLIC 1127f2 0 void std::__cxx11::basic_string<char, std::char_traits<char>, std::allocator<char> >::_M_construct<char const*>(char const*, char const*, std::forward_iterator_tag)
PUBLIC 112888 0 std::pair<std::_Rb_tree_iterator<std::pair<std::__cxx11::basic_string<char, std::char_traits<char>, std::allocator<char> > const, void*> >, bool> std::_Rb_tree<std::__cxx11::basic_string<char, std::char_traits<char>, std::allocator<char> >, std::pair<std::__cxx11::basic_string<char, std::char_traits<char>, std::allocator<char> > const, void*>, std::_Select1st<std::pair<std::__cxx11::basic_string<char, std::char_traits<char>, std::allocator<char> > const, void*> >, std::less<std::__cxx11::basic_string<char, std::char_traits<char>, std::allocator<char> > >, std::allocator<std::pair<std::__cxx11::basic_string<char, std::char_traits<char>, std::allocator<char> > const, void*> > >::_M_emplace_unique<std::pair<char const*, void*> >(std::pair<char const*, void*>&&)
PUBLIC 1129dc 0 void std::__cxx11::basic_string<char, std::char_traits<char>, std::allocator<char> >::_M_construct<char*>(char*, char*, std::forward_iterator_tag)
PUBLIC 112a72 0 virtual thunk to boost::exception_detail::clone_impl<boost::exception_detail::error_info_injector<boost::property_tree::json_parser::json_parser_error> >::clone() const
PUBLIC 112ccc 0 boost::exception_detail::clone_impl<boost::exception_detail::error_info_injector<boost::property_tree::json_parser::json_parser_error> >::clone() const
PUBLIC 112f1e 0 std::_Hashtable<void*, void*, std::allocator<void*>, std::__detail::_Identity, std::equal_to<void*>, std::hash<void*>, std::__detail::_Mod_range_hashing, std::__detail::_Default_ranged_hash, std::__detail::_Prime_rehash_policy, std::__detail::_Hashtable_traits<false, true, true> >::_M_find_before_node(unsigned long, void* const&, unsigned long) const
PUBLIC 112f68 0 std::__detail::_Hashtable_alloc<std::allocator<std::__detail::_Hash_node<std::pair<std::__cxx11::basic_string<char, std::char_traits<char>, std::allocator<char> > const, void*>, true> > >::_M_deallocate_node(std::__detail::_Hash_node<std::pair<std::__cxx11::basic_string<char, std::char_traits<char>, std::allocator<char> > const, void*>, true>*)
PUBLIC 112f88 0 std::_Hashtable<std::__cxx11::basic_string<char, std::char_traits<char>, std::allocator<char> >, std::pair<std::__cxx11::basic_string<char, std::char_traits<char>, std::allocator<char> > const, void*>, std::allocator<std::pair<std::__cxx11::basic_string<char, std::char_traits<char>, std::allocator<char> > const, void*> >, std::__detail::_Select1st, std::equal_to<std::__cxx11::basic_string<char, std::char_traits<char>, std::allocator<char> > >, std::hash<std::__cxx11::basic_string<char, std::char_traits<char>, std::allocator<char> > >, std::__detail::_Mod_range_hashing, std::__detail::_Default_ranged_hash, std::__detail::_Prime_rehash_policy, std::__detail::_Hashtable_traits<true, false, true> >::clear()
PUBLIC 112fde 0 std::_Hashtable<std::__cxx11::basic_string<char, std::char_traits<char>, std::allocator<char> >, std::pair<std::__cxx11::basic_string<char, std::char_traits<char>, std::allocator<char> > const, void*>, std::allocator<std::pair<std::__cxx11::basic_string<char, std::char_traits<char>, std::allocator<char> > const, void*> >, std::__detail::_Select1st, std::equal_to<std::__cxx11::basic_string<char, std::char_traits<char>, std::allocator<char> > >, std::hash<std::__cxx11::basic_string<char, std::char_traits<char>, std::allocator<char> > >, std::__detail::_Mod_range_hashing, std::__detail::_Default_ranged_hash, std::__detail::_Prime_rehash_policy, std::__detail::_Hashtable_traits<true, false, true> >::_M_find_before_node(unsigned long, std::__cxx11::basic_string<char, std::char_traits<char>, std::allocator<char> > const&, unsigned long) const
PUBLIC 11306e 0 boost::property_tree::string_path<std::__cxx11::basic_string<char, std::char_traits<char>, std::allocator<char> >, boost::property_tree::id_translator<std::__cxx11::basic_string<char, std::char_traits<char>, std::allocator<char> > > >::reduce()
PUBLIC 1132be 0 boost::property_tree::basic_ptree<std::__cxx11::basic_string<char, std::char_traits<char>, std::allocator<char> >, std::__cxx11::basic_string<char, std::char_traits<char>, std::allocator<char> >, std::less<std::__cxx11::basic_string<char, std::char_traits<char>, std::allocator<char> > > >::walk_path(boost::property_tree::string_path<std::__cxx11::basic_string<char, std::char_traits<char>, std::allocator<char> >, boost::property_tree::id_translator<std::__cxx11::basic_string<char, std::char_traits<char>, std::allocator<char> > > >&) const
PUBLIC 11342a 0 boost::property_tree::basic_ptree<std::__cxx11::basic_string<char, std::char_traits<char>, std::allocator<char> >, std::__cxx11::basic_string<char, std::char_traits<char>, std::allocator<char> >, std::less<std::__cxx11::basic_string<char, std::char_traits<char>, std::allocator<char> > > >::get_child_optional(boost::property_tree::string_path<std::__cxx11::basic_string<char, std::char_traits<char>, std::allocator<char> >, boost::property_tree::id_translator<std::__cxx11::basic_string<char, std::char_traits<char>, std::allocator<char> > > > const&) const
PUBLIC 1134d0 0 boost::optional<std::__cxx11::basic_string<char, std::char_traits<char>, std::allocator<char> > > boost::property_tree::basic_ptree<std::__cxx11::basic_string<char, std::char_traits<char>, std::allocator<char> >, std::__cxx11::basic_string<char, std::char_traits<char>, std::allocator<char> >, std::less<std::__cxx11::basic_string<char, std::char_traits<char>, std::allocator<char> > > >::get_optional<std::__cxx11::basic_string<char, std::char_traits<char>, std::allocator<char> > >(boost::property_tree::string_path<std::__cxx11::basic_string<char, std::char_traits<char>, std::allocator<char> >, boost::property_tree::id_translator<std::__cxx11::basic_string<char, std::char_traits<char>, std::allocator<char> > > > const&) const
PUBLIC 11351c 0 std::_Hashtable<void*, void*, std::allocator<void*>, std::__detail::_Identity, std::equal_to<void*>, std::hash<void*>, std::__detail::_Mod_range_hashing, std::__detail::_Default_ranged_hash, std::__detail::_Prime_rehash_policy, std::__detail::_Hashtable_traits<false, true, true> >::_M_rehash(unsigned long, unsigned long const&)
PUBLIC 113632 0 std::_Hashtable<void*, void*, std::allocator<void*>, std::__detail::_Identity, std::equal_to<void*>, std::hash<void*>, std::__detail::_Mod_range_hashing, std::__detail::_Default_ranged_hash, std::__detail::_Prime_rehash_policy, std::__detail::_Hashtable_traits<false, true, true> >::_M_insert_unique_node(unsigned long, unsigned long, std::__detail::_Hash_node<void*, false>*, unsigned long)
PUBLIC 11371c 0 std::_Hashtable<std::__cxx11::basic_string<char, std::char_traits<char>, std::allocator<char> >, std::pair<std::__cxx11::basic_string<char, std::char_traits<char>, std::allocator<char> > const, void*>, std::allocator<std::pair<std::__cxx11::basic_string<char, std::char_traits<char>, std::allocator<char> > const, void*> >, std::__detail::_Select1st, std::equal_to<std::__cxx11::basic_string<char, std::char_traits<char>, std::allocator<char> > >, std::hash<std::__cxx11::basic_string<char, std::char_traits<char>, std::allocator<char> > >, std::__detail::_Mod_range_hashing, std::__detail::_Default_ranged_hash, std::__detail::_Prime_rehash_policy, std::__detail::_Hashtable_traits<true, false, true> >::_M_rehash(unsigned long, unsigned long const&)
PUBLIC 113832 0 std::_Hashtable<std::__cxx11::basic_string<char, std::char_traits<char>, std::allocator<char> >, std::pair<std::__cxx11::basic_string<char, std::char_traits<char>, std::allocator<char> > const, void*>, std::allocator<std::pair<std::__cxx11::basic_string<char, std::char_traits<char>, std::allocator<char> > const, void*> >, std::__detail::_Select1st, std::equal_to<std::__cxx11::basic_string<char, std::char_traits<char>, std::allocator<char> > >, std::hash<std::__cxx11::basic_string<char, std::char_traits<char>, std::allocator<char> > >, std::__detail::_Mod_range_hashing, std::__detail::_Default_ranged_hash, std::__detail::_Prime_rehash_policy, std::__detail::_Hashtable_traits<true, false, true> >::_M_insert_unique_node(unsigned long, unsigned long, std::__detail::_Hash_node<std::pair<std::__cxx11::basic_string<char, std::char_traits<char>, std::allocator<char> > const, void*>, true>*, unsigned long)
PUBLIC 113922 0 std::pair<std::__detail::_Node_iterator<std::pair<std::__cxx11::basic_string<char, std::char_traits<char>, std::allocator<char> > const, void*>, false, true>, bool> std::_Hashtable<std::__cxx11::basic_string<char, std::char_traits<char>, std::allocator<char> >, std::pair<std::__cxx11::basic_string<char, std::char_traits<char>, std::allocator<char> > const, void*>, std::allocator<std::pair<std::__cxx11::basic_string<char, std::char_traits<char>, std::allocator<char> > const, void*> >, std::__detail::_Select1st, std::equal_to<std::__cxx11::basic_string<char, std::char_traits<char>, std::allocator<char> > >, std::hash<std::__cxx11::basic_string<char, std::char_traits<char>, std::allocator<char> > >, std::__detail::_Mod_range_hashing, std::__detail::_Default_ranged_hash, std::__detail::_Prime_rehash_policy, std::__detail::_Hashtable_traits<true, false, true> >::_M_emplace<std::pair<char const*, void*> >(std::integral_constant<bool, true>, std::pair<char const*, void*>&&)
PUBLIC 113a28 0 void boost::detail::allocator::destroy<std::pair<std::__cxx11::basic_string<char, std::char_traits<char>, std::allocator<char> > const, boost::property_tree::basic_ptree<std::__cxx11::basic_string<char, std::char_traits<char>, std::allocator<char> >, std::__cxx11::basic_string<char, std::char_traits<char>, std::allocator<char> >, std::less<std::__cxx11::basic_string<char, std::char_traits<char>, std::allocator<char> > > > > >(std::pair<std::__cxx11::basic_string<char, std::char_traits<char>, std::allocator<char> > const, boost::property_tree::basic_ptree<std::__cxx11::basic_string<char, std::char_traits<char>, std::allocator<char> >, std::__cxx11::basic_string<char, std::char_traits<char>, std::allocator<char> >, std::less<std::__cxx11::basic_string<char, std::char_traits<char>, std::allocator<char> > > > > const*)
PUBLIC 113a48 0 boost::property_tree::basic_ptree<std::__cxx11::basic_string<char, std::char_traits<char>, std::allocator<char> >, std::__cxx11::basic_string<char, std::char_traits<char>, std::allocator<char> >, std::less<std::__cxx11::basic_string<char, std::char_traits<char>, std::allocator<char> > > >::~basic_ptree()
PUBLIC 113ad4 0 std::pair<std::__cxx11::basic_string<char, std::char_traits<char>, std::allocator<char> > const, boost::property_tree::basic_ptree<std::__cxx11::basic_string<char, std::char_traits<char>, std::allocator<char> >, std::__cxx11::basic_string<char, std::char_traits<char>, std::allocator<char> >, std::less<std::__cxx11::basic_string<char, std::char_traits<char>, std::allocator<char> > > > >::~pair()
PUBLIC 113af4 0 std::pair<std::__cxx11::basic_string<char, std::char_traits<char>, std::allocator<char> >, boost::property_tree::basic_ptree<std::__cxx11::basic_string<char, std::char_traits<char>, std::allocator<char> >, std::__cxx11::basic_string<char, std::char_traits<char>, std::allocator<char> >, std::less<std::__cxx11::basic_string<char, std::char_traits<char>, std::allocator<char> > > > >::~pair()
PUBLIC 113b14 0 bool boost::property_tree::json_parser::detail::source<boost::property_tree::json_parser::detail::encoding<char>, std::istreambuf_iterator<char, std::char_traits<char> >, std::istreambuf_iterator<char, std::char_traits<char> > >::have<boost::property_tree::json_parser::detail::source<boost::property_tree::json_parser::detail::encoding<char>, std::istreambuf_iterator<char, std::char_traits<char> >, std::istreambuf_iterator<char, std::char_traits<char> > >::DoNothing>(bool (boost::property_tree::json_parser::detail::encoding<char>::*)(char) const, boost::property_tree::json_parser::detail::source<boost::property_tree::json_parser::detail::encoding<char>, std::istreambuf_iterator<char, std::char_traits<char> >, std::istreambuf_iterator<char, std::char_traits<char> > >::DoNothing&)
PUBLIC 113cf8 0 boost::exception_detail::error_info_injector<boost::property_tree::json_parser::json_parser_error>::error_info_injector(boost::exception_detail::error_info_injector<boost::property_tree::json_parser::json_parser_error> const&)
PUBLIC 113e0e 0 boost::exception_detail::clone_impl<boost::exception_detail::error_info_injector<boost::property_tree::json_parser::json_parser_error> >::rethrow() const
PUBLIC 113e8e 0 virtual thunk to boost::exception_detail::clone_impl<boost::exception_detail::error_info_injector<boost::property_tree::json_parser::json_parser_error> >::rethrow() const
PUBLIC 113f16 0 void std::vector<boost::property_tree::json_parser::detail::standard_callbacks<boost::property_tree::basic_ptree<std::__cxx11::basic_string<char, std::char_traits<char>, std::allocator<char> >, std::__cxx11::basic_string<char, std::char_traits<char>, std::allocator<char> >, std::less<std::__cxx11::basic_string<char, std::char_traits<char>, std::allocator<char> > > > >::layer, std::allocator<boost::property_tree::json_parser::detail::standard_callbacks<boost::property_tree::basic_ptree<std::__cxx11::basic_string<char, std::char_traits<char>, std::allocator<char> >, std::__cxx11::basic_string<char, std::char_traits<char>, std::allocator<char> >, std::less<std::__cxx11::basic_string<char, std::char_traits<char>, std::allocator<char> > > > >::layer> >::_M_realloc_insert<boost::property_tree::json_parser::detail::standard_callbacks<boost::property_tree::basic_ptree<std::__cxx11::basic_string<char, std::char_traits<char>, std::allocator<char> >, std::__cxx11::basic_string<char, std::char_traits<char>, std::allocator<char> >, std::less<std::__cxx11::basic_string<char, std::char_traits<char>, std::allocator<char> > > > >::layer const&>(__gnu_cxx::__normal_iterator<boost::property_tree::json_parser::detail::standard_callbacks<boost::property_tree::basic_ptree<std::__cxx11::basic_string<char, std::char_traits<char>, std::allocator<char> >, std::__cxx11::basic_string<char, std::char_traits<char>, std::allocator<char> >, std::less<std::__cxx11::basic_string<char, std::char_traits<char>, std::allocator<char> > > > >::layer*, std::vector<boost::property_tree::json_parser::detail::standard_callbacks<boost::property_tree::basic_ptree<std::__cxx11::basic_string<char, std::char_traits<char>, std::allocator<char> >, std::__cxx11::basic_string<char, std::char_traits<char>, std::allocator<char> >, std::less<std::__cxx11::basic_string<char, std::char_traits<char>, std::allocator<char> > > > >::layer, std::allocator<boost::property_tree::json_parser::detail::standard_callbacks<boost::property_tree::basic_ptree<std::__cxx11::basic_string<char, std::char_traits<char>, std::allocator<char> >, std::__cxx11::basic_string<char, std::char_traits<char>, std::allocator<char> >, std::less<std::__cxx11::basic_string<char, std::char_traits<char>, std::allocator<char> > > > >::layer> > >, boost::property_tree::json_parser::detail::standard_callbacks<boost::property_tree::basic_ptree<std::__cxx11::basic_string<char, std::char_traits<char>, std::allocator<char> >, std::__cxx11::basic_string<char, std::char_traits<char>, std::allocator<char> >, std::less<std::__cxx11::basic_string<char, std::char_traits<char>, std::allocator<char> > > > >::layer const&)
PUBLIC 114046 0 boost::exception_detail::clone_impl<boost::exception_detail::error_info_injector<boost::property_tree::json_parser::json_parser_error> >::clone_impl(boost::exception_detail::error_info_injector<boost::property_tree::json_parser::json_parser_error> const&)
PUBLIC 114277 0 void boost::throw_exception<boost::exception_detail::error_info_injector<boost::property_tree::json_parser::json_parser_error> >(boost::exception_detail::error_info_injector<boost::property_tree::json_parser::json_parser_error> const&)
PUBLIC 1142e4 0 void boost::exception_detail::throw_exception_<boost::property_tree::json_parser::json_parser_error>(boost::property_tree::json_parser::json_parser_error const&, char const*, char const*, int)
PUBLIC 1143e2 0 boost::property_tree::json_parser::detail::source<boost::property_tree::json_parser::detail::encoding<char>, std::istreambuf_iterator<char, std::char_traits<char> >, std::istreambuf_iterator<char, std::char_traits<char> > >::parse_error(char const*)
PUBLIC 114ac2 0 boost::property_tree::json_parser::detail::parser<boost::property_tree::json_parser::detail::standard_callbacks<boost::property_tree::basic_ptree<std::__cxx11::basic_string<char, std::char_traits<char>, std::allocator<char> >, std::__cxx11::basic_string<char, std::char_traits<char>, std::allocator<char> >, std::less<std::__cxx11::basic_string<char, std::char_traits<char>, std::allocator<char> > > > >, boost::property_tree::json_parser::detail::encoding<char>, std::istreambuf_iterator<char, std::char_traits<char> >, std::istreambuf_iterator<char, std::char_traits<char> > >::parse_error(char const*)
PUBLIC 114ad0 0 boost::property_tree::json_parser::detail::parser<boost::property_tree::json_parser::detail::standard_callbacks<boost::property_tree::basic_ptree<std::__cxx11::basic_string<char, std::char_traits<char>, std::allocator<char> >, std::__cxx11::basic_string<char, std::char_traits<char>, std::allocator<char> >, std::less<std::__cxx11::basic_string<char, std::char_traits<char>, std::allocator<char> > > > >, boost::property_tree::json_parser::detail::encoding<char>, std::istreambuf_iterator<char, std::char_traits<char> >, std::istreambuf_iterator<char, std::char_traits<char> > >::parse_codepoint_ref()
PUBLIC 1153c5 0 boost::multi_index::detail::copy_map_entry<boost::multi_index::detail::sequenced_index_node<boost::multi_index::detail::ordered_index_node<boost::multi_index::detail::null_augment_policy, boost::multi_index::detail::index_node_base<std::pair<std::__cxx11::basic_string<char, std::char_traits<char>, std::allocator<char> > const, boost::property_tree::basic_ptree<std::__cxx11::basic_string<char, std::char_traits<char>, std::allocator<char> >, std::__cxx11::basic_string<char, std::char_traits<char>, std::allocator<char> >, std::less<std::__cxx11::basic_string<char, std::char_traits<char>, std::allocator<char> > > > >, std::allocator<std::pair<std::__cxx11::basic_string<char, std::char_traits<char>, std::allocator<char> > const, boost::property_tree::basic_ptree<std::__cxx11::basic_string<char, std::char_traits<char>, std::allocator<char> >, std::__cxx11::basic_string<char, std::char_traits<char>, std::allocator<char> >, std::less<std::__cxx11::basic_string<char, std::char_traits<char>, std::allocator<char> > > > > > > > > > const* std::__lower_bound<boost::multi_index::detail::copy_map_entry<boost::multi_index::detail::sequenced_index_node<boost::multi_index::detail::ordered_index_node<boost::multi_index::detail::null_augment_policy, boost::multi_index::detail::index_node_base<std::pair<std::__cxx11::basic_string<char, std::char_traits<char>, std::allocator<char> > const, boost::property_tree::basic_ptree<std::__cxx11::basic_string<char, std::char_traits<char>, std::allocator<char> >, std::__cxx11::basic_string<char, std::char_traits<char>, std::allocator<char> >, std::less<std::__cxx11::basic_string<char, std::char_traits<char>, std::allocator<char> > > > >, std::allocator<std::pair<std::__cxx11::basic_string<char, std::char_traits<char>, std::allocator<char> > const, boost::property_tree::basic_ptree<std::__cxx11::basic_string<char, std::char_traits<char>, std::allocator<char> >, std::__cxx11::basic_string<char, std::char_traits<char>, std::allocator<char> >, std::less<std::__cxx11::basic_string<char, std::char_traits<char>, std::allocator<char> > > > > > > > > > const*, boost::multi_index::detail::copy_map_entry<boost::multi_index::detail::sequenced_index_node<boost::multi_index::detail::ordered_index_node<boost::multi_index::detail::null_augment_policy, boost::multi_index::detail::index_node_base<std::pair<std::__cxx11::basic_string<char, std::char_traits<char>, std::allocator<char> > const, boost::property_tree::basic_ptree<std::__cxx11::basic_string<char, std::char_traits<char>, std::allocator<char> >, std::__cxx11::basic_string<char, std::char_traits<char>, std::allocator<char> >, std::less<std::__cxx11::basic_string<char, std::char_traits<char>, std::allocator<char> > > > >, std::allocator<std::pair<std::__cxx11::basic_string<char, std::char_traits<char>, std::allocator<char> > const, boost::property_tree::basic_ptree<std::__cxx11::basic_string<char, std::char_traits<char>, std::allocator<char> >, std::__cxx11::basic_string<char, std::char_traits<char>, std::allocator<char> >, std::less<std::__cxx11::basic_string<char, std::char_traits<char>, std::allocator<char> > > > > > > > > >, __gnu_cxx::__ops::_Iter_less_val>(boost::multi_index::detail::copy_map_entry<boost::multi_index::detail::sequenced_index_node<boost::multi_index::detail::ordered_index_node<boost::multi_index::detail::null_augment_policy, boost::multi_index::detail::index_node_base<std::pair<std::__cxx11::basic_string<char, std::char_traits<char>, std::allocator<char> > const, boost::property_tree::basic_ptree<std::__cxx11::basic_string<char, std::char_traits<char>, std::allocator<char> >, std::__cxx11::basic_string<char, std::char_traits<char>, std::allocator<char> >, std::less<std::__cxx11::basic_string<char, std::char_traits<char>, std::allocator<char> > > > >, std::allocator<std::pair<std::__cxx11::basic_string<char, std::char_traits<char>, std::allocator<char> > const, boost::property_tree::basic_ptree<std::__cxx11::basic_string<char, std::char_traits<char>, std::allocator<char> >, std::__cxx11::basic_string<char, std::char_traits<char>, std::allocator<char> >, std::less<std::__cxx11::basic_string<char, std::char_traits<char>, std::allocator<char> > > > > > > > > > const*, boost::multi_index::detail::copy_map_entry<boost::multi_index::detail::sequenced_index_node<boost::multi_index::detail::ordered_index_node<boost::multi_index::detail::null_augment_policy, boost::multi_index::detail::index_node_base<std::pair<std::__cxx11::basic_string<char, std::char_traits<char>, std::allocator<char> > const, boost::property_tree::basic_ptree<std::__cxx11::basic_string<char, std::char_traits<char>, std::allocator<char> >, std::__cxx11::basic_string<char, std::char_traits<char>, std::allocator<char> >, std::less<std::__cxx11::basic_string<char, std::char_traits<char>, std::allocator<char> > > > >, std::allocator<std::pair<std::__cxx11::basic_string<char, std::char_traits<char>, std::allocator<char> > const, boost::property_tree::basic_ptree<std::__cxx11::basic_string<char, std::char_traits<char>, std::allocator<char> >, std::__cxx11::basic_string<char, std::char_traits<char>, std::allocator<char> >, std::less<std::__cxx11::basic_string<char, std::char_traits<char>, std::allocator<char> > > > > > > > > > const*, boost::multi_index::detail::copy_map_entry<boost::multi_index::detail::sequenced_index_node<boost::multi_index::detail::ordered_index_node<boost::multi_index::detail::null_augment_policy, boost::multi_index::detail::index_node_base<std::pair<std::__cxx11::basic_string<char, std::char_traits<char>, std::allocator<char> > const, boost::property_tree::basic_ptree<std::__cxx11::basic_string<char, std::char_traits<char>, std::allocator<char> >, std::__cxx11::basic_string<char, std::char_traits<char>, std::allocator<char> >, std::less<std::__cxx11::basic_string<char, std::char_traits<char>, std::allocator<char> > > > >, std::allocator<std::pair<std::__cxx11::basic_string<char, std::char_traits<char>, std::allocator<char> > const, boost::property_tree::basic_ptree<std::__cxx11::basic_string<char, std::char_traits<char>, std::allocator<char> >, std::__cxx11::basic_string<char, std::char_traits<char>, std::allocator<char> >, std::less<std::__cxx11::basic_string<char, std::char_traits<char>, std::allocator<char> > > > > > > > > > const&, __gnu_cxx::__ops::_Iter_less_val)
PUBLIC 1153ff 0 void std::__unguarded_linear_insert<boost::multi_index::detail::copy_map_entry<boost::multi_index::detail::sequenced_index_node<boost::multi_index::detail::ordered_index_node<boost::multi_index::detail::null_augment_policy, boost::multi_index::detail::index_node_base<std::pair<std::__cxx11::basic_string<char, std::char_traits<char>, std::allocator<char> > const, boost::property_tree::basic_ptree<std::__cxx11::basic_string<char, std::char_traits<char>, std::allocator<char> >, std::__cxx11::basic_string<char, std::char_traits<char>, std::allocator<char> >, std::less<std::__cxx11::basic_string<char, std::char_traits<char>, std::allocator<char> > > > >, std::allocator<std::pair<std::__cxx11::basic_string<char, std::char_traits<char>, std::allocator<char> > const, boost::property_tree::basic_ptree<std::__cxx11::basic_string<char, std::char_traits<char>, std::allocator<char> >, std::__cxx11::basic_string<char, std::char_traits<char>, std::allocator<char> >, std::less<std::__cxx11::basic_string<char, std::char_traits<char>, std::allocator<char> > > > > > > > > >*, __gnu_cxx::__ops::_Val_less_iter>(boost::multi_index::detail::copy_map_entry<boost::multi_index::detail::sequenced_index_node<boost::multi_index::detail::ordered_index_node<boost::multi_index::detail::null_augment_policy, boost::multi_index::detail::index_node_base<std::pair<std::__cxx11::basic_string<char, std::char_traits<char>, std::allocator<char> > const, boost::property_tree::basic_ptree<std::__cxx11::basic_string<char, std::char_traits<char>, std::allocator<char> >, std::__cxx11::basic_string<char, std::char_traits<char>, std::allocator<char> >, std::less<std::__cxx11::basic_string<char, std::char_traits<char>, std::allocator<char> > > > >, std::allocator<std::pair<std::__cxx11::basic_string<char, std::char_traits<char>, std::allocator<char> > const, boost::property_tree::basic_ptree<std::__cxx11::basic_string<char, std::char_traits<char>, std::allocator<char> >, std::__cxx11::basic_string<char, std::char_traits<char>, std::allocator<char> >, std::less<std::__cxx11::basic_string<char, std::char_traits<char>, std::allocator<char> > > > > > > > > >*, __gnu_cxx::__ops::_Val_less_iter)
PUBLIC 11542f 0 void std::__insertion_sort<boost::multi_index::detail::copy_map_entry<boost::multi_index::detail::sequenced_index_node<boost::multi_index::detail::ordered_index_node<boost::multi_index::detail::null_augment_policy, boost::multi_index::detail::index_node_base<std::pair<std::__cxx11::basic_string<char, std::char_traits<char>, std::allocator<char> > const, boost::property_tree::basic_ptree<std::__cxx11::basic_string<char, std::char_traits<char>, std::allocator<char> >, std::__cxx11::basic_string<char, std::char_traits<char>, std::allocator<char> >, std::less<std::__cxx11::basic_string<char, std::char_traits<char>, std::allocator<char> > > > >, std::allocator<std::pair<std::__cxx11::basic_string<char, std::char_traits<char>, std::allocator<char> > const, boost::property_tree::basic_ptree<std::__cxx11::basic_string<char, std::char_traits<char>, std::allocator<char> >, std::__cxx11::basic_string<char, std::char_traits<char>, std::allocator<char> >, std::less<std::__cxx11::basic_string<char, std::char_traits<char>, std::allocator<char> > > > > > > > > >*, __gnu_cxx::__ops::_Iter_less_iter>(boost::multi_index::detail::copy_map_entry<boost::multi_index::detail::sequenced_index_node<boost::multi_index::detail::ordered_index_node<boost::multi_index::detail::null_augment_policy, boost::multi_index::detail::index_node_base<std::pair<std::__cxx11::basic_string<char, std::char_traits<char>, std::allocator<char> > const, boost::property_tree::basic_ptree<std::__cxx11::basic_string<char, std::char_traits<char>, std::allocator<char> >, std::__cxx11::basic_string<char, std::char_traits<char>, std::allocator<char> >, std::less<std::__cxx11::basic_string<char, std::char_traits<char>, std::allocator<char> > > > >, std::allocator<std::pair<std::__cxx11::basic_string<char, std::char_traits<char>, std::allocator<char> > const, boost::property_tree::basic_ptree<std::__cxx11::basic_string<char, std::char_traits<char>, std::allocator<char> >, std::__cxx11::basic_string<char, std::char_traits<char>, std::allocator<char> >, std::less<std::__cxx11::basic_string<char, std::char_traits<char>, std::allocator<char> > > > > > > > > >*, boost::multi_index::detail::copy_map_entry<boost::multi_index::detail::sequenced_index_node<boost::multi_index::detail::ordered_index_node<boost::multi_index::detail::null_augment_policy, boost::multi_index::detail::index_node_base<std::pair<std::__cxx11::basic_string<char, std::char_traits<char>, std::allocator<char> > const, boost::property_tree::basic_ptree<std::__cxx11::basic_string<char, std::char_traits<char>, std::allocator<char> >, std::__cxx11::basic_string<char, std::char_traits<char>, std::allocator<char> >, std::less<std::__cxx11::basic_string<char, std::char_traits<char>, std::allocator<char> > > > >, std::allocator<std::pair<std::__cxx11::basic_string<char, std::char_traits<char>, std::allocator<char> > const, boost::property_tree::basic_ptree<std::__cxx11::basic_string<char, std::char_traits<char>, std::allocator<char> >, std::__cxx11::basic_string<char, std::char_traits<char>, std::allocator<char> >, std::less<std::__cxx11::basic_string<char, std::char_traits<char>, std::allocator<char> > > > > > > > > >*, __gnu_cxx::__ops::_Iter_less_iter)
PUBLIC 115496 0 boost::multi_index::detail::ordered_index_node_impl<boost::multi_index::detail::null_augment_policy, std::allocator<char> >::rebalance(boost::multi_index::detail::ordered_index_node_impl<boost::multi_index::detail::null_augment_policy, std::allocator<char> >*, boost::multi_index::detail::ordered_index_node_compressed_base<boost::multi_index::detail::null_augment_policy, std::allocator<char> >::parent_ref)
PUBLIC 1157bc 0 void std::__adjust_heap<boost::multi_index::detail::copy_map_entry<boost::multi_index::detail::sequenced_index_node<boost::multi_index::detail::ordered_index_node<boost::multi_index::detail::null_augment_policy, boost::multi_index::detail::index_node_base<std::pair<std::__cxx11::basic_string<char, std::char_traits<char>, std::allocator<char> > const, boost::property_tree::basic_ptree<std::__cxx11::basic_string<char, std::char_traits<char>, std::allocator<char> >, std::__cxx11::basic_string<char, std::char_traits<char>, std::allocator<char> >, std::less<std::__cxx11::basic_string<char, std::char_traits<char>, std::allocator<char> > > > >, std::allocator<std::pair<std::__cxx11::basic_string<char, std::char_traits<char>, std::allocator<char> > const, boost::property_tree::basic_ptree<std::__cxx11::basic_string<char, std::char_traits<char>, std::allocator<char> >, std::__cxx11::basic_string<char, std::char_traits<char>, std::allocator<char> >, std::less<std::__cxx11::basic_string<char, std::char_traits<char>, std::allocator<char> > > > > > > > > >*, long, boost::multi_index::detail::copy_map_entry<boost::multi_index::detail::sequenced_index_node<boost::multi_index::detail::ordered_index_node<boost::multi_index::detail::null_augment_policy, boost::multi_index::detail::index_node_base<std::pair<std::__cxx11::basic_string<char, std::char_traits<char>, std::allocator<char> > const, boost::property_tree::basic_ptree<std::__cxx11::basic_string<char, std::char_traits<char>, std::allocator<char> >, std::__cxx11::basic_string<char, std::char_traits<char>, std::allocator<char> >, std::less<std::__cxx11::basic_string<char, std::char_traits<char>, std::allocator<char> > > > >, std::allocator<std::pair<std::__cxx11::basic_string<char, std::char_traits<char>, std::allocator<char> > const, boost::property_tree::basic_ptree<std::__cxx11::basic_string<char, std::char_traits<char>, std::allocator<char> >, std::__cxx11::basic_string<char, std::char_traits<char>, std::allocator<char> >, std::less<std::__cxx11::basic_string<char, std::char_traits<char>, std::allocator<char> > > > > > > > > >, __gnu_cxx::__ops::_Iter_less_iter>(boost::multi_index::detail::copy_map_entry<boost::multi_index::detail::sequenced_index_node<boost::multi_index::detail::ordered_index_node<boost::multi_index::detail::null_augment_policy, boost::multi_index::detail::index_node_base<std::pair<std::__cxx11::basic_string<char, std::char_traits<char>, std::allocator<char> > const, boost::property_tree::basic_ptree<std::__cxx11::basic_string<char, std::char_traits<char>, std::allocator<char> >, std::__cxx11::basic_string<char, std::char_traits<char>, std::allocator<char> >, std::less<std::__cxx11::basic_string<char, std::char_traits<char>, std::allocator<char> > > > >, std::allocator<std::pair<std::__cxx11::basic_string<char, std::char_traits<char>, std::allocator<char> > const, boost::property_tree::basic_ptree<std::__cxx11::basic_string<char, std::char_traits<char>, std::allocator<char> >, std::__cxx11::basic_string<char, std::char_traits<char>, std::allocator<char> >, std::less<std::__cxx11::basic_string<char, std::char_traits<char>, std::allocator<char> > > > > > > > > >*, long, long, boost::multi_index::detail::copy_map_entry<boost::multi_index::detail::sequenced_index_node<boost::multi_index::detail::ordered_index_node<boost::multi_index::detail::null_augment_policy, boost::multi_index::detail::index_node_base<std::pair<std::__cxx11::basic_string<char, std::char_traits<char>, std::allocator<char> > const, boost::property_tree::basic_ptree<std::__cxx11::basic_string<char, std::char_traits<char>, std::allocator<char> >, std::__cxx11::basic_string<char, std::char_traits<char>, std::allocator<char> >, std::less<std::__cxx11::basic_string<char, std::char_traits<char>, std::allocator<char> > > > >, std::allocator<std::pair<std::__cxx11::basic_string<char, std::char_traits<char>, std::allocator<char> > const, boost::property_tree::basic_ptree<std::__cxx11::basic_string<char, std::char_traits<char>, std::allocator<char> >, std::__cxx11::basic_string<char, std::char_traits<char>, std::allocator<char> >, std::less<std::__cxx11::basic_string<char, std::char_traits<char>, std::allocator<char> > > > > > > > > >, __gnu_cxx::__ops::_Iter_less_iter)
PUBLIC 1158c3 0 void std::__introsort_loop<boost::multi_index::detail::copy_map_entry<boost::multi_index::detail::sequenced_index_node<boost::multi_index::detail::ordered_index_node<boost::multi_index::detail::null_augment_policy, boost::multi_index::detail::index_node_base<std::pair<std::__cxx11::basic_string<char, std::char_traits<char>, std::allocator<char> > const, boost::property_tree::basic_ptree<std::__cxx11::basic_string<char, std::char_traits<char>, std::allocator<char> >, std::__cxx11::basic_string<char, std::char_traits<char>, std::allocator<char> >, std::less<std::__cxx11::basic_string<char, std::char_traits<char>, std::allocator<char> > > > >, std::allocator<std::pair<std::__cxx11::basic_string<char, std::char_traits<char>, std::allocator<char> > const, boost::property_tree::basic_ptree<std::__cxx11::basic_string<char, std::char_traits<char>, std::allocator<char> >, std::__cxx11::basic_string<char, std::char_traits<char>, std::allocator<char> >, std::less<std::__cxx11::basic_string<char, std::char_traits<char>, std::allocator<char> > > > > > > > > >*, long, __gnu_cxx::__ops::_Iter_less_iter>(boost::multi_index::detail::copy_map_entry<boost::multi_index::detail::sequenced_index_node<boost::multi_index::detail::ordered_index_node<boost::multi_index::detail::null_augment_policy, boost::multi_index::detail::index_node_base<std::pair<std::__cxx11::basic_string<char, std::char_traits<char>, std::allocator<char> > const, boost::property_tree::basic_ptree<std::__cxx11::basic_string<char, std::char_traits<char>, std::allocator<char> >, std::__cxx11::basic_string<char, std::char_traits<char>, std::allocator<char> >, std::less<std::__cxx11::basic_string<char, std::char_traits<char>, std::allocator<char> > > > >, std::allocator<std::pair<std::__cxx11::basic_string<char, std::char_traits<char>, std::allocator<char> > const, boost::property_tree::basic_ptree<std::__cxx11::basic_string<char, std::char_traits<char>, std::allocator<char> >, std::__cxx11::basic_string<char, std::char_traits<char>, std::allocator<char> >, std::less<std::__cxx11::basic_string<char, std::char_traits<char>, std::allocator<char> > > > > > > > > >*, boost::multi_index::detail::copy_map_entry<boost::multi_index::detail::sequenced_index_node<boost::multi_index::detail::ordered_index_node<boost::multi_index::detail::null_augment_policy, boost::multi_index::detail::index_node_base<std::pair<std::__cxx11::basic_string<char, std::char_traits<char>, std::allocator<char> > const, boost::property_tree::basic_ptree<std::__cxx11::basic_string<char, std::char_traits<char>, std::allocator<char> >, std::__cxx11::basic_string<char, std::char_traits<char>, std::allocator<char> >, std::less<std::__cxx11::basic_string<char, std::char_traits<char>, std::allocator<char> > > > >, std::allocator<std::pair<std::__cxx11::basic_string<char, std::char_traits<char>, std::allocator<char> > const, boost::property_tree::basic_ptree<std::__cxx11::basic_string<char, std::char_traits<char>, std::allocator<char> >, std::__cxx11::basic_string<char, std::char_traits<char>, std::allocator<char> >, std::less<std::__cxx11::basic_string<char, std::char_traits<char>, std::allocator<char> > > > > > > > > >*, long, __gnu_cxx::__ops::_Iter_less_iter)
PUBLIC 115ae4 0 boost::property_tree::basic_ptree<std::__cxx11::basic_string<char, std::char_traits<char>, std::allocator<char> >, std::__cxx11::basic_string<char, std::char_traits<char>, std::allocator<char> >, std::less<std::__cxx11::basic_string<char, std::char_traits<char>, std::allocator<char> > > >::basic_ptree(boost::property_tree::basic_ptree<std::__cxx11::basic_string<char, std::char_traits<char>, std::allocator<char> >, std::__cxx11::basic_string<char, std::char_traits<char>, std::allocator<char> >, std::less<std::__cxx11::basic_string<char, std::char_traits<char>, std::allocator<char> > > > const&)
PUBLIC 11605a 0 void boost::detail::allocator::construct<std::pair<std::__cxx11::basic_string<char, std::char_traits<char>, std::allocator<char> > const, boost::property_tree::basic_ptree<std::__cxx11::basic_string<char, std::char_traits<char>, std::allocator<char> >, std::__cxx11::basic_string<char, std::char_traits<char>, std::allocator<char> >, std::less<std::__cxx11::basic_string<char, std::char_traits<char>, std::allocator<char> > > > > >(void*, std::pair<std::__cxx11::basic_string<char, std::char_traits<char>, std::allocator<char> > const, boost::property_tree::basic_ptree<std::__cxx11::basic_string<char, std::char_traits<char>, std::allocator<char> >, std::__cxx11::basic_string<char, std::char_traits<char>, std::allocator<char> >, std::less<std::__cxx11::basic_string<char, std::char_traits<char>, std::allocator<char> > > > > const&)
PUBLIC 1160a8 0 boost::property_tree::json_parser::detail::standard_callbacks<boost::property_tree::basic_ptree<std::__cxx11::basic_string<char, std::char_traits<char>, std::allocator<char> >, std::__cxx11::basic_string<char, std::char_traits<char>, std::allocator<char> >, std::less<std::__cxx11::basic_string<char, std::char_traits<char>, std::allocator<char> > > > >::new_tree()
PUBLIC 116abe 0 boost::property_tree::json_parser::detail::standard_callbacks<boost::property_tree::basic_ptree<std::__cxx11::basic_string<char, std::char_traits<char>, std::allocator<char> >, std::__cxx11::basic_string<char, std::char_traits<char>, std::allocator<char> >, std::less<std::__cxx11::basic_string<char, std::char_traits<char>, std::allocator<char> > > > >::new_value()
PUBLIC 116b16 0 boost::property_tree::json_parser::detail::parser<boost::property_tree::json_parser::detail::standard_callbacks<boost::property_tree::basic_ptree<std::__cxx11::basic_string<char, std::char_traits<char>, std::allocator<char> >, std::__cxx11::basic_string<char, std::char_traits<char>, std::allocator<char> >, std::less<std::__cxx11::basic_string<char, std::char_traits<char>, std::allocator<char> > > > >, boost::property_tree::json_parser::detail::encoding<char>, std::istreambuf_iterator<char, std::char_traits<char> >, std::istreambuf_iterator<char, std::char_traits<char> > >::parse_string()
PUBLIC 117f7c 0 bool boost::property_tree::json_parser::detail::source<boost::property_tree::json_parser::detail::encoding<char>, std::istreambuf_iterator<char, std::char_traits<char> >, std::istreambuf_iterator<char, std::char_traits<char> > >::have<boost::property_tree::json_parser::detail::number_callback_adapter<boost::property_tree::json_parser::detail::standard_callbacks<boost::property_tree::basic_ptree<std::__cxx11::basic_string<char, std::char_traits<char>, std::allocator<char> >, std::__cxx11::basic_string<char, std::char_traits<char>, std::allocator<char> >, std::less<std::__cxx11::basic_string<char, std::char_traits<char>, std::allocator<char> > > > >, boost::property_tree::json_parser::detail::encoding<char>, std::istreambuf_iterator<char, std::char_traits<char> >, std::input_iterator_tag> >(bool (boost::property_tree::json_parser::detail::encoding<char>::*)(char) const, boost::property_tree::json_parser::detail::number_callback_adapter<boost::property_tree::json_parser::detail::standard_callbacks<boost::property_tree::basic_ptree<std::__cxx11::basic_string<char, std::char_traits<char>, std::allocator<char> >, std::__cxx11::basic_string<char, std::char_traits<char>, std::allocator<char> >, std::less<std::__cxx11::basic_string<char, std::char_traits<char>, std::allocator<char> > > > >, boost::property_tree::json_parser::detail::encoding<char>, std::istreambuf_iterator<char, std::char_traits<char> >, std::input_iterator_tag>&)
PUBLIC 118386 0 boost::property_tree::json_parser::detail::parser<boost::property_tree::json_parser::detail::standard_callbacks<boost::property_tree::basic_ptree<std::__cxx11::basic_string<char, std::char_traits<char>, std::allocator<char> >, std::__cxx11::basic_string<char, std::char_traits<char>, std::allocator<char> >, std::less<std::__cxx11::basic_string<char, std::char_traits<char>, std::allocator<char> > > > >, boost::property_tree::json_parser::detail::encoding<char>, std::istreambuf_iterator<char, std::char_traits<char> >, std::istreambuf_iterator<char, std::char_traits<char> > >::parse_boolean()
PUBLIC 119a0c 0 boost::property_tree::json_parser::detail::parser<boost::property_tree::json_parser::detail::standard_callbacks<boost::property_tree::basic_ptree<std::__cxx11::basic_string<char, std::char_traits<char>, std::allocator<char> >, std::__cxx11::basic_string<char, std::char_traits<char>, std::allocator<char> >, std::less<std::__cxx11::basic_string<char, std::char_traits<char>, std::allocator<char> > > > >, boost::property_tree::json_parser::detail::encoding<char>, std::istreambuf_iterator<char, std::char_traits<char> >, std::istreambuf_iterator<char, std::char_traits<char> > >::parse_value()
PUBLIC 11a17e 0 void boost::property_tree::json_parser::detail::read_json_internal<std::istreambuf_iterator<char, std::char_traits<char> >, std::istreambuf_iterator<char, std::char_traits<char> >, boost::property_tree::json_parser::detail::encoding<char>, boost::property_tree::json_parser::detail::standard_callbacks<boost::property_tree::basic_ptree<std::__cxx11::basic_string<char, std::char_traits<char>, std::allocator<char> >, std::__cxx11::basic_string<char, std::char_traits<char>, std::allocator<char> >, std::less<std::__cxx11::basic_string<char, std::char_traits<char>, std::allocator<char> > > > > >(std::istreambuf_iterator<char, std::char_traits<char> >, std::istreambuf_iterator<char, std::char_traits<char> >, boost::property_tree::json_parser::detail::encoding<char>&, boost::property_tree::json_parser::detail::standard_callbacks<boost::property_tree::basic_ptree<std::__cxx11::basic_string<char, std::char_traits<char>, std::allocator<char> >, std::__cxx11::basic_string<char, std::char_traits<char>, std::allocator<char> >, std::less<std::__cxx11::basic_string<char, std::char_traits<char>, std::allocator<char> > > > >&, std::__cxx11::basic_string<char, std::char_traits<char>, std::allocator<char> > const&)
PUBLIC 11a7ce 0 void boost::property_tree::json_parser::detail::read_json_internal<boost::property_tree::basic_ptree<std::__cxx11::basic_string<char, std::char_traits<char>, std::allocator<char> >, std::__cxx11::basic_string<char, std::char_traits<char>, std::allocator<char> >, std::less<std::__cxx11::basic_string<char, std::char_traits<char>, std::allocator<char> > > > >(std::basic_istream<boost::property_tree::basic_ptree<std::__cxx11::basic_string<char, std::char_traits<char>, std::allocator<char> >, std::__cxx11::basic_string<char, std::char_traits<char>, std::allocator<char> >, std::less<std::__cxx11::basic_string<char, std::char_traits<char>, std::allocator<char> > > >::key_type::value_type, std::char_traits<boost::property_tree::basic_ptree<std::__cxx11::basic_string<char, std::char_traits<char>, std::allocator<char> >, std::__cxx11::basic_string<char, std::char_traits<char>, std::allocator<char> >, std::less<std::__cxx11::basic_string<char, std::char_traits<char>, std::allocator<char> > > >::key_type::value_type> >&, boost::property_tree::basic_ptree<std::__cxx11::basic_string<char, std::char_traits<char>, std::allocator<char> >, std::__cxx11::basic_string<char, std::char_traits<char>, std::allocator<char> >, std::less<std::__cxx11::basic_string<char, std::char_traits<char>, std::allocator<char> > > >&, std::__cxx11::basic_string<char, std::char_traits<char>, std::allocator<char> > const&)
PUBLIC 11a95c 0 void boost::property_tree::json_parser::read_json<boost::property_tree::basic_ptree<std::__cxx11::basic_string<char, std::char_traits<char>, std::allocator<char> >, std::__cxx11::basic_string<char, std::char_traits<char>, std::allocator<char> >, std::less<std::__cxx11::basic_string<char, std::char_traits<char>, std::allocator<char> > > > >(std::basic_istream<boost::property_tree::basic_ptree<std::__cxx11::basic_string<char, std::char_traits<char>, std::allocator<char> >, std::__cxx11::basic_string<char, std::char_traits<char>, std::allocator<char> >, std::less<std::__cxx11::basic_string<char, std::char_traits<char>, std::allocator<char> > > >::key_type::value_type, std::char_traits<boost::property_tree::basic_ptree<std::__cxx11::basic_string<char, std::char_traits<char>, std::allocator<char> >, std::__cxx11::basic_string<char, std::char_traits<char>, std::allocator<char> >, std::less<std::__cxx11::basic_string<char, std::char_traits<char>, std::allocator<char> > > >::key_type::value_type> >&, boost::property_tree::basic_ptree<std::__cxx11::basic_string<char, std::char_traits<char>, std::allocator<char> >, std::__cxx11::basic_string<char, std::char_traits<char>, std::allocator<char> >, std::less<std::__cxx11::basic_string<char, std::char_traits<char>, std::allocator<char> > > >&)
PUBLIC 11a9b8 0 boost::property_tree::json_parser::detail::parser<boost::property_tree::json_parser::detail::standard_callbacks<boost::property_tree::basic_ptree<std::__cxx11::basic_string<char, std::char_traits<char>, std::allocator<char> >, std::__cxx11::basic_string<char, std::char_traits<char>, std::allocator<char> >, std::less<std::__cxx11::basic_string<char, std::char_traits<char>, std::allocator<char> > > > >, boost::property_tree::json_parser::detail::encoding<char>, std::istreambuf_iterator<char, std::char_traits<char> >, std::istreambuf_iterator<char, std::char_traits<char> > >::parse_object()
PUBLIC 11bace 0 boost::property_tree::json_parser::detail::parser<boost::property_tree::json_parser::detail::standard_callbacks<boost::property_tree::basic_ptree<std::__cxx11::basic_string<char, std::char_traits<char>, std::allocator<char> >, std::__cxx11::basic_string<char, std::char_traits<char>, std::allocator<char> >, std::less<std::__cxx11::basic_string<char, std::char_traits<char>, std::allocator<char> > > > >, boost::property_tree::json_parser::detail::encoding<char>, std::istreambuf_iterator<char, std::char_traits<char> >, std::istreambuf_iterator<char, std::char_traits<char> > >::parse_array()
PUBLIC 11c83e 0 Stf_StackInit
PUBLIC 11c854 0 Stf_StackDelete
PUBLIC 11c880 0 Stf_StackPush
PUBLIC 11c8fb 0 Stf_StackPop
PUBLIC 11c921 0 Stf_StackPeek
PUBLIC 11c93f 0 Stf_StackGetValue
PUBLIC 11c95b 0 Stf_ChainAllocLink
PUBLIC 11c9b1 0 Stf_ChainNewLink
PUBLIC 11ca06 0 Stf_ChainInit
PUBLIC 11ca25 0 Stf_ChainCreate
PUBLIC 11ca6b 0 Stf_ChainReset
PUBLIC 11caa2 0 Stf_ChainDestroy
PUBLIC 11cabb 0 Stf_ChainLinkAfter
PUBLIC 11cb19 0 Stf_ChainLinkBefore
PUBLIC 11cb74 0 Stf_ChainUnlinkLink
PUBLIC 11cc08 0 Stf_ChainDeleteLink
PUBLIC 11cc2c 0 Stf_ChainAppend
PUBLIC 11cc5a 0 Stf_ChainPrepend
PUBLIC 11cc88 0 Stf_ChainGetNthLink
PUBLIC 11ccb3 0 Stf_ChainSort
PUBLIC 11cd8f 0 Stf_ListCreateNode
PUBLIC 11ce90 0 Stf_ListInit
PUBLIC 11ceaa 0 Stf_ListCreate
PUBLIC 11cefe 0 Stf_ListReset
PUBLIC 11cf38 0 Stf_ListDestroy
PUBLIC 11cf51 0 Stf_ListLinkAfter
PUBLIC 11cfa8 0 Stf_ListLinkBefore
PUBLIC 11cffc 0 Stf_ListUnlinkNode
PUBLIC 11d04e 0 Stf_ListGetNode
PUBLIC 11d13f 0 Stf_ListDeleteNode
PUBLIC 11d152 0 Stf_ListDeleteNodeByKey
PUBLIC 11d16d 0 Stf_ListNewAppend
PUBLIC 11d19b 0 Stf_ListNewPrepend
PUBLIC 11d1c9 0 Stf_ListGetNthNode
PUBLIC 11d216 0 Stf_ListSort
PUBLIC 11d2f2 0 Stf_Panic
PUBLIC 11d3a6 0 ScrambleNum
PUBLIC 11d4d9 0 Cipher_EncodeRaw
PUBLIC 11d6a0 0 Cipher_DecodeRaw
PUBLIC 11d943 0 Cipher_EncodeMime
PUBLIC 11db15 0 Cipher_Encode
PUBLIC 11db4d 0 Cipher_DecodeMime
PUBLIC 11de60 0 Cipher_Decode
PUBLIC 11dea5 0 dvguiStoa
PUBLIC 11e056 0 dvguiStoafree
PUBLIC 11e09c 0 findExeName
PUBLIC 11e1ba 0 dyn_load
PUBLIC 11e22a 0 dvld_dyn_lookup
PUBLIC 11e296 0 dvld_dyn_unload
PUBLIC 11e2e6 0 dvld_dyn_syminfo
PUBLIC 11e43b 0 dvld_dyn_syminfof
PUBLIC 11e518 0 dvld_dyn_libinfo
PUBLIC 11e529 0 dvld_dyn_load
PUBLIC 11e7a7 0 dvld_find_lib
PUBLIC 11e8a1 0 dvld_find_exe_name
PUBLIC 11e8cd 0 dvld_exe_name
PUBLIC 11e8d8 0 dvguiAddarg
PUBLIC 11ea0d 0 dvguiAddorarg
PUBLIC 11eb86 0 dvguiAdderrarg
PUBLIC 11ed00 0 DcEventRequestAdapter
PUBLIC 11ed60 0 dcGetHostName.part.0
PUBLIC 11ee70 0 dcGetConnectState
PUBLIC 11eec0 0 dcCreateCommand
PUBLIC 11ef60 0 dcDisconnect
PUBLIC 11f050 0 dcCleanup
PUBLIC 11f1c0 0 dcConnect
PUBLIC 11f760 0 dcEstablishConnection
PUBLIC 11fa50 0 dcDoEvent
PUBLIC 11fbc0 0 dcDoOneEventTimed
PUBLIC 1200f0 0 dcDoOneEvent
PUBLIC 120100 0 dcDoOneEventWait
PUBLIC 120110 0 dcDoOneEventWaitTime
PUBLIC 120150 0 dcGenErrorText
PUBLIC 120160 0 dcGetBinData
PUBLIC 120170 0 dcGetBinDataLen
PUBLIC 120180 0 dcGetInterp
PUBLIC 1201d0 0 dcGetStringResult
PUBLIC 1201f0 0 dcSetEventRequestHandler
PUBLIC 120260 0 dcIsEventRequestHandler
PUBLIC 120270 0 dcInit
PUBLIC 120320 0 dcIsSpawned
PUBLIC 120390 0 dcProcessEvents
PUBLIC 1203e0 0 dcSend
PUBLIC 120440 0 dcGetServices
PUBLIC 120670 0 dcSendWithBinary
PUBLIC 1206f0 0 dcSendWithCallback
PUBLIC 120770 0 dcSendWithCallbackBinary
PUBLIC 120800 0 dcCancelSendCallback
PUBLIC 120850 0 dcSetDisconnectHandler
PUBLIC 1208b0 0 dcGetMsgId
PUBLIC 1208c0 0 dcSendResult
PUBLIC 1208d0 0 dcSetStringResult
PUBLIC 120900 0 dcSpawn
PUBLIC 120a70 0 dcGetHostName
PUBLIC 120aa0 0 dcOfferService
PUBLIC 121320 0 dcStartService
PUBLIC 121350 0 dcStopService
PUBLIC 1214a0 0 dcGetServiceAttributes
PUBLIC 1215e0 0 dcGetServiceAttrs
PUBLIC 121610 0 dcGetServiceAttribute
PUBLIC 121680 0 dcSetFileHandler
PUBLIC 121800 0 dcCreateFileHandler
PUBLIC 121810 0 dcDeleteFileHandler
PUBLIC 121820 0 dcSuspendChannelRead
PUBLIC 121840 0 dcResumeChannelRead
PUBLIC 121850 0 dcGetSocket
PUBLIC 121860 0 dcIsPreestablished
PUBLIC 121880 0 dcIsInitialized
PUBLIC 1218a0 0 dcCheckHostProcess
PUBLIC 1219d0 0 DcSetIoNonblocking(int)
PUBLIC 121a00 0 DcGiveServicesCmd
PUBLIC 121aa0 0 DcComputeHandshakeHash(dcHandshakeStateRec*, unsigned char const*, unsigned int)
PUBLIC 121b50 0 DcDumpMessage(int, unsigned int, unsigned char, char const*, unsigned int, unsigned char const*, unsigned int)
PUBLIC 121fc0 0 DcDeleteActivationRecord(dcConnectionRec*, Tcl_HashEntry*)
PUBLIC 122030 0 DcCreateSocketAndBind(int, addrinfo*, int*)
PUBLIC 122200 0 DcFindInheritance(char const*, int, int*)
PUBLIC 1224b0 0 DcRegisterClientCmd
PUBLIC 122540 0 DcCreateInterp(dcConnectionRec*)
PUBLIC 1225f0 0 DcGenerateRandomBytes(unsigned char*, unsigned long) [clone .constprop.0]
PUBLIC 122780 0 DcInitialize
PUBLIC 122990 0 DcGenerateServiceKey
PUBLIC 122a20 0 DcDeleteConnection
PUBLIC 122ac0 0 DcInterpDeleteCb
PUBLIC 122b30 0 DcCancelSendCallback
PUBLIC 122ba0 0 DcAbortActiveRpcs
PUBLIC 122c90 0 DcGetMsgId
PUBLIC 122cc0 0 DcRegisterService
PUBLIC 123030 0 DcSetEventCallback
PUBLIC 1230f0 0 DcCreateConnection
PUBLIC 1233d0 0 DcUnregisterService
PUBLIC 123480 0 DcUserCmdCB
PUBLIC 1234a0 0 DcAddToChannelList
PUBLIC 1234e0 0 DcRemoveFromChannelList
PUBLIC 123560 0 DcProvidedServiceHandshakeAbort
PUBLIC 1235a0 0 DcProvidedServiceFree
PUBLIC 123630 0 DcCreateSocketClient
PUBLIC 123dc0 0 DcCreateSocketServer
PUBLIC 124080 0 DcCreateSocketPair
PUBLIC 124170 0 DcAddInheritance
PUBLIC 124440 0 DcReclaimInheritance
PUBLIC 1244e0 0 DcCloseConnection
PUBLIC 124690 0 DcReadInput
PUBLIC 124a80 0 DcFlushOutput
PUBLIC 124e90 0 DcSendMessage(dcConnectionRec*, unsigned char, unsigned int, char const*, unsigned char const*, int)
PUBLIC 125100 0 DcSendResult
PUBLIC 1251a0 0 DcSend
PUBLIC 125580 0 DcPerformHandshake
PUBLIC 125880 0 DcProcessInput
PUBLIC 126230 0 DcAcceptConnectedSocket
PUBLIC 126390 0 DcAcceptConnection
PUBLIC 126520 0 DcClaimInheritance
PUBLIC 126610 0 genErrorText(int)
PUBLIC 1266d0 0 genErrorAllocate(char const*, int*)
PUBLIC 126770 0 genErrorFree(int)
PUBLIC 1267c0 0 daiTclReComp
PUBLIC 126d60 0 moresubs
PUBLIC 126e56 0 freev
PUBLIC 126f3b 0 makesearch
PUBLIC 127085 0 parse
PUBLIC 1272a4 0 parsebranch
PUBLIC 1273ab 0 parseqatom
PUBLIC 1281e4 0 nonword
PUBLIC 128290 0 word
PUBLIC 1282b1 0 scannum
PUBLIC 128318 0 repeat
PUBLIC 128689 0 bracket
PUBLIC 1286d9 0 cbracket
PUBLIC 128a3d 0 brackpart
PUBLIC 128ce7 0 scanplain
PUBLIC 128d33 0 leaders
PUBLIC 128e96 0 onechr
PUBLIC 128f08 0 dovec
PUBLIC 129355 0 nextleader
PUBLIC 1293a5 0 wordchrs
PUBLIC 129435 0 subre
PUBLIC 129516 0 freesubre
PUBLIC 12956c 0 freesrnode
PUBLIC 1295c8 0 optst
PUBLIC 129611 0 numst
PUBLIC 129643 0 markst
PUBLIC 12966d 0 cleanst
PUBLIC 1296ba 0 nfatree
PUBLIC 12971c 0 nfanode
PUBLIC 129809 0 newlacon
PUBLIC 1298e5 0 freelacons
PUBLIC 12991d 0 rfree
PUBLIC 12999e 0 dump
PUBLIC 12999f 0 dumpst
PUBLIC 1299d2 0 stdump
PUBLIC 129c2d 0 stid
PUBLIC 129c6d 0 lexstart
PUBLIC 129cab 0 prefixes
PUBLIC 129ed8 0 lexnest
PUBLIC 129ef1 0 lexword
PUBLIC 129f0d 0 next
PUBLIC 12a847 0 lexescape
PUBLIC 12abd4 0 lexdigits
PUBLIC 12acb8 0 brenext
PUBLIC 12af72 0 skip
PUBLIC 12afe5 0 newline
PUBLIC 12afeb 0 chrnamed
PUBLIC 12b058 0 initcm
PUBLIC 12b0ec 0 freecm
PUBLIC 12b15b 0 cmtreefree
PUBLIC 12b1df 0 setcolor
PUBLIC 12b312 0 maxcolor
PUBLIC 12b327 0 newcolor
PUBLIC 12b4b2 0 freecolor
PUBLIC 12b5e1 0 pseudocolor
PUBLIC 12b621 0 subcolor
PUBLIC 12b6b8 0 newsub
PUBLIC 12b731 0 subrange
PUBLIC 12b812 0 subblock
PUBLIC 12ba5b 0 okcolors
PUBLIC 12bb73 0 colorchain
PUBLIC 12bb8d 0 uncolorchain
PUBLIC 12bbdb 0 singleton
PUBLIC 12bc1d 0 rainbow
PUBLIC 12bcc5 0 colorcomplement
PUBLIC 12bd74 0 newnfa
PUBLIC 12bef0 0 freenfa
PUBLIC 12bf66 0 newstate
PUBLIC 12c033 0 newfstate
PUBLIC 12c045 0 dropstate
PUBLIC 12c097 0 freestate
PUBLIC 12c0f0 0 destroystate
PUBLIC 12c139 0 newarc
PUBLIC 12c1ea 0 allocarc
PUBLIC 12c2d7 0 freearc
PUBLIC 12c3b3 0 findarc
PUBLIC 12c3dd 0 cparc
PUBLIC 12c3fa 0 moveins
PUBLIC 12c448 0 copyins
PUBLIC 12c47b 0 moveouts
PUBLIC 12c4c9 0 copyouts
PUBLIC 12c4fc 0 cloneouts
PUBLIC 12c53f 0 delsub
PUBLIC 12c57f 0 deltraverse
PUBLIC 12c5fc 0 dupnfa
PUBLIC 12c65f 0 duptraverse
PUBLIC 12c6f7 0 cleartraverse
PUBLIC 12c742 0 specialcolors
PUBLIC 12c7a5 0 optimize
PUBLIC 12c87a 0 pullback
PUBLIC 12c99a 0 pull
PUBLIC 12caf3 0 pushfwd
PUBLIC 12cc14 0 push
PUBLIC 12cd6d 0 combine
PUBLIC 12ce85 0 fixempties
PUBLIC 12cf40 0 unempty
PUBLIC 12d019 0 cleanup
PUBLIC 12d0a3 0 markreachable
PUBLIC 12d109 0 markcanreach
PUBLIC 12d16f 0 analyze
PUBLIC 12d1c0 0 compact
PUBLIC 12d3a7 0 carcsort
PUBLIC 12d3f9 0 freecnfa
PUBLIC 12d417 0 dumpnfa
PUBLIC 12d418 0 dumpcnfa
PUBLIC 12d419 0 newcvec
PUBLIC 12d4b7 0 clearcvec
PUBLIC 12d4f5 0 addchr
PUBLIC 12d503 0 addrange
PUBLIC 12d520 0 addmcce
PUBLIC 12d587 0 haschr
PUBLIC 12d5dc 0 getcvec
PUBLIC 12d689 0 freecvec
PUBLIC 12d697 0 nmcces
PUBLIC 12d69d 0 nleaders
PUBLIC 12d6a3 0 allmcces
PUBLIC 12d6b4 0 element
PUBLIC 12d79b 0 range
PUBLIC 12d8bb 0 before
PUBLIC 12d8c4 0 eclass
PUBLIC 12d976 0 cclass
PUBLIC 12e048 0 allcases
PUBLIC 12e10c 0 cmp
PUBLIC 12e12d 0 casecmp
PUBLIC 12e184 0 daiTclReError
PUBLIC 12e2c8 0 daiTclReExec
PUBLIC 12e5c9 0 find
PUBLIC 12e83c 0 cfind
PUBLIC 12e93c 0 cfindloop
PUBLIC 12eb1c 0 zapsubs
PUBLIC 12eb42 0 zapmem
PUBLIC 12ebcc 0 subset
PUBLIC 12ec09 0 dissect
PUBLIC 12eca8 0 condissect
PUBLIC 12ee67 0 altdissect
PUBLIC 12ef04 0 cdissect
PUBLIC 12efbd 0 ccondissect
PUBLIC 12f1ca 0 crevdissect
PUBLIC 12f3d9 0 cbrdissect
PUBLIC 12f535 0 caltdissect
PUBLIC 12f653 0 longest
PUBLIC 12f889 0 shortest
PUBLIC 12fb2b 0 lastcold
PUBLIC 12fb5e 0 newdfa
PUBLIC 12fd24 0 freedfa
PUBLIC 12fd80 0 hash
PUBLIC 12fd9d 0 initialize
PUBLIC 12fe79 0 miss
PUBLIC 13022d 0 lacon
PUBLIC 130303 0 getvacant
PUBLIC 1304f0 0 pickss
PUBLIC 13065c 0 daiTclReFree
PUBLIC 130670 0 daiTclpAlloc
PUBLIC 130680 0 daiTclpFree
PUBLIC 13068e 0 daiTclpRealloc
PUBLIC 1306a0 0 daiTcl_AsyncCreate
PUBLIC 13070e 0 daiTcl_AsyncMark
PUBLIC 130728 0 daiTcl_AsyncInvoke
PUBLIC 130799 0 daiTcl_AsyncDelete
PUBLIC 1307fc 0 daiTcl_AsyncReady
PUBLIC 130804 0 daiTcl_CreateInterp
PUBLIC 130c62 0 daiTclHideUnsafeCommands
PUBLIC 130cb0 0 daiTcl_CallWhenDeleted
PUBLIC 130d64 0 daiTcl_DontCallWhenDeleted
PUBLIC 130dc5 0 daiTcl_SetAssocData
PUBLIC 130e64 0 daiTcl_DeleteAssocData
PUBLIC 130ed0 0 daiTcl_GetAssocData
PUBLIC 130f14 0 daiTcl_InterpDeleted
PUBLIC 130f1e 0 daiTcl_DeleteInterp
PUBLIC 130f49 0 DeleteInterpProc
PUBLIC 131201 0 daiTcl_HideCommand
PUBLIC 131391 0 daiTcl_ExposeCommand
PUBLIC 131523 0 daiTcl_CreateCommand
PUBLIC 1316cf 0 daiTcl_CreateObjCommand
PUBLIC 1318a3 0 daiTclInvokeStringCommand
PUBLIC 13194a 0 daiTclInvokeObjectCommand
PUBLIC 131b06 0 daiTclRenameCommand
PUBLIC 131d0d 0 daiTcl_SetCommandInfo
PUBLIC 131d7e 0 daiTcl_GetCommandInfo
PUBLIC 131df0 0 daiTcl_GetCommandName
PUBLIC 131e1d 0 daiTcl_GetCommandFullName
PUBLIC 131eb8 0 daiTcl_DeleteCommand
PUBLIC 131ee6 0 daiTcl_DeleteCommandFromToken
PUBLIC 131f77 0 daiTclCleanupCommand
PUBLIC 131f8e 0 daiTcl_CreateMathFunc
PUBLIC 132034 0 daiTcl_EvalObjEx
PUBLIC 1323e9 0 ProcessUnexpectedResult
PUBLIC 132481 0 RecordTracebackInfo
PUBLIC 132552 0 daiTcl_ExprLong
PUBLIC 132677 0 daiTcl_ExprDouble
PUBLIC 13279e 0 daiTcl_ExprBoolean
PUBLIC 1328d2 0 daiTcl_ExprLongObj
PUBLIC 132973 0 daiTcl_ExprDoubleObj
PUBLIC 132a16 0 daiTcl_ExprBooleanObj
PUBLIC 132ac8 0 daiTclInvoke
PUBLIC 132bfe 0 daiTclGlobalInvoke
PUBLIC 132c3c 0 daiTclObjInvokeGlobal
PUBLIC 132c7a 0 daiTclObjInvoke
PUBLIC 132fe6 0 daiTcl_ExprString
PUBLIC 1331cf 0 daiTcl_ExprObj
PUBLIC 133633 0 daiTcl_CreateTrace
PUBLIC 1336a4 0 daiTcl_DeleteTrace
PUBLIC 1336fe 0 daiTcl_AddErrorInfo
PUBLIC 133711 0 daiTcl_AddObjErrorInfo
PUBLIC 133810 0 daiTcl_VarEvalVA
PUBLIC 13387f 0 daiTcl_VarEval
PUBLIC 133914 0 daiTcl_GlobalEval
PUBLIC 133952 0 daiTcl_SetRecursionLimit
PUBLIC 133963 0 daiTcl_AllowExceptions
PUBLIC 13396b 0 daiTcl_GetVersion
PUBLIC 13399c 0 daiTcl_NewByteArrayObj
PUBLIC 133a1c 0 daiTcl_DbNewByteArrayObj
PUBLIC 133a2a 0 daiTcl_SetByteArrayObj
PUBLIC 133acd 0 daiTcl_GetByteArrayFromObj
PUBLIC 133b0f 0 daiTcl_SetByteArrayLength
PUBLIC 133bcb 0 SetByteArrayFromAny
PUBLIC 133c88 0 FreeByteArrayInternalRep
PUBLIC 133c9a 0 DupByteArrayInternalRep
PUBLIC 133d0c 0 UpdateStringOfByteArray
PUBLIC 133dbd 0 daiTcl_BinaryObjCmd
PUBLIC 13508b 0 GetFormatSpec
PUBLIC 135133 0 FormatNumber
PUBLIC 135302 0 ScanNumber
PUBLIC 1353d8 0 daiTcl_Alloc
PUBLIC 13541e 0 daiTcl_DbCkalloc
PUBLIC 135493 0 daiTcl_Realloc
PUBLIC 1354d9 0 daiTcl_DbCkrealloc
PUBLIC 13554e 0 daiTcl_Free
PUBLIC 13555c 0 daiTcl_DbCkfree
PUBLIC 13556f 0 daiTcl_InitMemory
PUBLIC 135570 0 daiTcl_DumpActiveMemory
PUBLIC 135576 0 daiTcl_ValidateAllMemory
PUBLIC 135577 0 daiTclDumpMemoryInfo
PUBLIC 135578 0 daiTclFinalizeMemorySubsystem
PUBLIC 13557c 0 daiTcl_ClockObjCmd
PUBLIC 135954 0 FormatClock
PUBLIC 135abc 0 daiTcl_BreakObjCmd
PUBLIC 135aee 0 daiTcl_CaseObjCmd
PUBLIC 135d64 0 daiTcl_CatchObjCmd
PUBLIC 135e54 0 daiTcl_CdObjCmd
PUBLIC 135f3d 0 daiTcl_ConcatObjCmd
PUBLIC 135f64 0 daiTcl_ContinueObjCmd
PUBLIC 135f96 0 daiTcl_EncodingObjCmd
PUBLIC 1361a5 0 daiTcl_ErrorObjCmd
PUBLIC 13626e 0 daiTcl_EvalObjCmd
PUBLIC 136317 0 daiTcl_ExitObjCmd
PUBLIC 13637f 0 daiTcl_ExprObjCmd
PUBLIC 1364bd 0 daiTcl_FileObjCmd
PUBLIC 136f41 0 SplitPath
PUBLIC 136ffc 0 CheckAccess
PUBLIC 137093 0 GetStatBuf
PUBLIC 137171 0 StoreStatData
PUBLIC 1373ee 0 GetTypeFromMode
PUBLIC 137492 0 daiTcl_ForObjCmd
PUBLIC 1375c4 0 daiTcl_ForeachObjCmd
PUBLIC 137b58 0 daiTcl_FormatObjCmd
PUBLIC 13839a 0 StringifyObjects
PUBLIC 1383f0 0 daiTcl_IfObjCmd
PUBLIC 1385b2 0 daiTcl_IncrObjCmd
PUBLIC 138665 0 daiTcl_InfoObjCmd
PUBLIC 1388a3 0 InfoArgsCmd
PUBLIC 138993 0 InfoBodyCmd
PUBLIC 138a58 0 InfoCmdCountCmd
PUBLIC 138a9d 0 InfoCommandsCmd
PUBLIC 138cee 0 InfoCompleteCmd
PUBLIC 138d53 0 InfoDefaultCmd
PUBLIC 138f27 0 InfoExistsCmd
PUBLIC 138f9e 0 InfoGlobalsCmd
PUBLIC 13909f 0 InfoHostnameCmd
PUBLIC 13912b 0 InfoLevelCmd
PUBLIC 139281 0 InfoLibraryCmd
PUBLIC 13931c 0 InfoLoadedCmd
PUBLIC 139369 0 InfoLocalsCmd
PUBLIC 13941f 0 AppendLocals
PUBLIC 13955c 0 InfoNameOfExecutableCmd
PUBLIC 1395ca 0 InfoPatchLevelCmd
PUBLIC 139649 0 InfoProcsCmd
PUBLIC 139818 0 InfoScriptCmd
PUBLIC 13986d 0 InfoSharedlibCmd
PUBLIC 1398b8 0 InfoTclVersionCmd
PUBLIC 139937 0 InfoVarsCmd
PUBLIC 139c04 0 daiTcl_JoinObjCmd
PUBLIC 139d00 0 daiTcl_LindexObjCmd
PUBLIC 139de1 0 daiTcl_LinsertObjCmd
PUBLIC 139fde 0 daiTcl_ListObjCmd
PUBLIC 13a021 0 daiTcl_LlengthObjCmd
PUBLIC 13a08f 0 daiTcl_LrangeObjCmd
PUBLIC 13a1cc 0 daiTcl_LreplaceObjCmd
PUBLIC 13a3e6 0 daiTcl_LsearchObjCmd
PUBLIC 13a59e 0 daiTcl_LsortObjCmd
PUBLIC 13a8f8 0 MergeSort
PUBLIC 13a9bb 0 MergeLists
PUBLIC 13aa72 0 SortCompare
PUBLIC 13ade4 0 DictionaryCompare
PUBLIC 13affc 0 daiTcl_PwdObjCmd
PUBLIC 13b069 0 daiTcl_RegexpObjCmd
PUBLIC 13b4f5 0 daiTcl_RegsubObjCmd
PUBLIC 13b951 0 daiTcl_RenameObjCmd
PUBLIC 13b9c2 0 daiTcl_ReturnObjCmd
PUBLIC 13bcee 0 daiTcl_SourceObjCmd
PUBLIC 13bd2e 0 daiTcl_SplitObjCmd
PUBLIC 13bed9 0 daiTcl_StringObjCmd
PUBLIC 13d9da 0 daiTcl_SubstObjCmd
PUBLIC 13dcdc 0 daiTcl_SwitchObjCmd
PUBLIC 13e01c 0 daiTcl_TimeObjCmd
PUBLIC 13e15f 0 daiTcl_TraceObjCmd
PUBLIC 13e511 0 TraceVarProc
PUBLIC 13e70b 0 daiTcl_WhileObjCmd
PUBLIC 13e7d0 0 daiTclCompileBreakCmd
PUBLIC 13e854 0 daiTclCompileCatchCmd
PUBLIC 13ee1f 0 daiTclCompileContinueCmd
PUBLIC 13eea3 0 daiTclCompileExprCmd
PUBLIC 13ef08 0 daiTclCompileForCmd
PUBLIC 13f56d 0 daiTclCompileForeachCmd
PUBLIC 13ffad 0 DupForeachInfo
PUBLIC 140047 0 FreeForeachInfo
PUBLIC 14007c 0 daiTclCompileIfCmd
PUBLIC 14073a 0 daiTclCompileIncrCmd
PUBLIC 141037 0 daiTclCompileSetCmd
PUBLIC 141a8a 0 daiTclCompileWhileCmd
PUBLIC 141f74 0 daiTclCompileExpr
PUBLIC 14212e 0 daiTclFinalizeCompilation
PUBLIC 142156 0 CompileSubExpr
PUBLIC 142700 0 CompileLandOrLorExpr
PUBLIC 142b0c 0 CompileCondExpr
PUBLIC 142cc1 0 CompileMathFuncCall
PUBLIC 142fc4 0 LogSyntaxError
PUBLIC 143038 0 daiTclSetByteCodeFromAny
PUBLIC 1431f4 0 SetByteCodeFromAny
PUBLIC 14320c 0 DupByteCodeInternalRep
PUBLIC 14320d 0 FreeByteCodeInternalRep
PUBLIC 143235 0 daiTclCleanupByteCode
PUBLIC 14330f 0 daiTclInitCompileEnv
PUBLIC 14342a 0 daiTclFreeCompileEnv
PUBLIC 143496 0 daiTclCompileScript
PUBLIC 143c68 0 daiTclCompileTokens
PUBLIC 14459b 0 daiTclCompileCmdWord
PUBLIC 1445ff 0 daiTclCompileExprWords
PUBLIC 1448e5 0 daiTclInitByteCodeObj
PUBLIC 144b71 0 LogCompilationInfo
PUBLIC 144c14 0 daiTclFindCompiledLocal
PUBLIC 144d38 0 daiTclInitCompiledLocals
PUBLIC 144eca 0 daiTclExpandCodeArray
PUBLIC 144f6f 0 EnterCmdStartData
PUBLIC 14507d 0 EnterCmdExtentData
PUBLIC 145106 0 daiTclCreateExceptRange
PUBLIC 14522a 0 daiTclCreateAuxData
PUBLIC 145354 0 daiTclInitJumpFixupArray
PUBLIC 145371 0 daiTclExpandJumpFixupArray
PUBLIC 1453f6 0 daiTclFreeJumpFixupArray
PUBLIC 14540d 0 daiTclEmitForwardJump
PUBLIC 1454a7 0 daiTclFixupForwardJump
PUBLIC 145613 0 daiTclGetInstructionTable
PUBLIC 14561b 0 daiTclRegisterAuxDataType
PUBLIC 14567c 0 daiTclGetAuxDataType
PUBLIC 1456cb 0 daiTclInitAuxDataTypeTable
PUBLIC 1456fb 0 daiTclFinalizeAuxDataTypeTable
PUBLIC 145723 0 GetCmdLocEncodingSize
PUBLIC 145866 0 EncodeCmdLocMap
PUBLIC 145a4b 0 daiTclPrintInstruction
PUBLIC 145d44 0 daiTclPrintObject
PUBLIC 145d8a 0 daiTclPrintSource
PUBLIC 145ec8 0 TclDateerror
PUBLIC 145ec9 0 ToSeconds
PUBLIC 145ff0 0 Convert
PUBLIC 146275 0 DSTcorrect
PUBLIC 14630f 0 NamedDay
PUBLIC 1463b0 0 NamedMonth
PUBLIC 14645b 0 RelativeMonth
PUBLIC 14658a 0 RelativeDay
PUBLIC 1465a8 0 LookupWord
PUBLIC 14688c 0 TclDatelex
PUBLIC 146a3d 0 daiTclGetDate
PUBLIC 146d65 0 daiTclDateparse
PUBLIC 147be0 0 daiTclInitEncodingSubsystem
PUBLIC 147cd9 0 daiTclFinalizeEncodingSubsystem
PUBLIC 147d3d 0 daiTcl_GetDefaultEncodingDir
PUBLIC 147d48 0 daiTcl_SetDefaultEncodingDir
PUBLIC 147d80 0 daiTcl_GetEncoding
PUBLIC 147de1 0 daiTcl_FreeEncoding
PUBLIC 147def 0 FreeEncoding
PUBLIC 147e31 0 daiTcl_GetEncodingName
PUBLIC 147e41 0 daiTcl_GetEncodingNames
PUBLIC 1480a6 0 daiTcl_SetSystemEncoding
PUBLIC 1480e4 0 daiTcl_CreateEncoding
PUBLIC 1481c2 0 daiTcl_ExternalToUtfDString
PUBLIC 1482ef 0 daiTcl_ExternalToUtf
PUBLIC 1483dc 0 daiTcl_UtfToExternalDString
PUBLIC 148522 0 daiTcl_UtfToExternal
PUBLIC 148613 0 daiTcl_FindExecutable
PUBLIC 1486f9 0 LoadEncodingFile
PUBLIC 14889e 0 OpenEncodingFile
PUBLIC 148944 0 LoadTableEncoding
PUBLIC 148e45 0 LoadEscapeEncoding
PUBLIC 149172 0 BinaryProc
PUBLIC 1491ba 0 UtfToUtfProc
PUBLIC 14929e 0 UnicodeToUtfProc
PUBLIC 149354 0 UtfToUnicodeProc
PUBLIC 149428 0 TableToUtfProc
PUBLIC 149566 0 TableFromUtfProc
PUBLIC 1496da 0 TableFreeProc
PUBLIC 149700 0 EscapeToUtfProc
PUBLIC 1499d1 0 EscapeFromUtfProc
PUBLIC 149d50 0 EscapeFreeProc
PUBLIC 149db2 0 GetTableEncoding
PUBLIC 149e22 0 unilen
PUBLIC 149e39 0 daiTclFindEncodings
PUBLIC 149f28 0 daiTclSetupEnv
PUBLIC 14a080 0 daiTclSetEnv
PUBLIC 14a21c 0 daiTcl_PutEnv
PUBLIC 14a29b 0 daiTclUnsetEnv
PUBLIC 14a2e4 0 daiTclGetEnv
PUBLIC 14a392 0 EnvTraceProc
PUBLIC 14a492 0 ReplaceString
PUBLIC 14a66b 0 daiTclFinalizeEnvironment
PUBLIC 14a6a0 0 daiTcl_BackgroundError
PUBLIC 14a840 0 HandleBgErrors
PUBLIC 14aac2 0 BgErrorDeleteProc
PUBLIC 14ab2a 0 daiTcl_CreateExitHandler
PUBLIC 14ab70 0 daiTcl_DeleteExitHandler
PUBLIC 14abc5 0 daiTcl_CreateThreadExitHandler
PUBLIC 14ac1f 0 daiTcl_DeleteThreadExitHandler
PUBLIC 14ac87 0 daiTcl_Exit
PUBLIC 14ac96 0 daiTclSetLibraryPath
PUBLIC 14acf0 0 daiTclGetLibraryPath
PUBLIC 14ad0e 0 daiTclInitSubsystems
PUBLIC 14ada2 0 daiTcl_Finalize
PUBLIC 14aed8 0 daiTcl_FinalizeThread
PUBLIC 14af36 0 daiTclInExit
PUBLIC 14af53 0 daiTcl_VwaitObjCmd
PUBLIC 14b05b 0 VwaitVarProc
PUBLIC 14b067 0 daiTcl_UpdateObjCmd
PUBLIC 14b128 0 InitByteCodeExecution
PUBLIC 14b16a 0 daiTclCreateExecEnv
PUBLIC 14b1d5 0 daiTclDeleteExecEnv
PUBLIC 14b1eb 0 daiTclFinalizeExecution
PUBLIC 14b203 0 GrowEvaluationStack
PUBLIC 14b29b 0 daiTclExecuteByteCode
PUBLIC 14ee12 0 IllegalExprOperandType
PUBLIC 14ef42 0 CallTraceProcedure
PUBLIC 14f037 0 GetSrcInfoForPc
PUBLIC 14f1e5 0 GetExceptRangeForPc
PUBLIC 14f257 0 VerifyExprObjType
PUBLIC 14f349 0 ExprUnaryFunc
PUBLIC 14f447 0 ExprBinaryFunc
PUBLIC 14f59a 0 ExprAbsFunc
PUBLIC 14f718 0 ExprDoubleFunc
PUBLIC 14f7c0 0 ExprIntFunc
PUBLIC 14f91a 0 ExprRandFunc
PUBLIC 14fa18 0 ExprRoundFunc
PUBLIC 14fb97 0 ExprSrandFunc
PUBLIC 14fc8b 0 ExprCallMathFunc
PUBLIC 14ff56 0 daiTclExprFloatError
PUBLIC 1500d3 0 daiTclMathInProgress
PUBLIC 1500ef 0 daiTcl_GetCommandFromObj
PUBLIC 1501bd 0 daiTclSetCmdNameObj
PUBLIC 150286 0 FreeCmdNameInternalRep
PUBLIC 1502ab 0 DupCmdNameInternalRep
PUBLIC 1502cf 0 SetCmdNameFromAny
PUBLIC 1503ac 0 daiTclFileRenameCmd
PUBLIC 1503bf 0 daiTclFileCopyCmd
PUBLIC 1503d2 0 FileCopyRename
PUBLIC 150628 0 daiTclFileMakeDirsCmd
PUBLIC 150812 0 daiTclFileDeleteCmd
PUBLIC 150a5b 0 CopyRenameOneFile
PUBLIC 150ed5 0 FileForceOption
PUBLIC 150f8d 0 FileBasename
PUBLIC 15109c 0 daiTclFileAttrsCmd
PUBLIC 151300 0 FileNameInit
PUBLIC 151348 0 FileNameCleanup
PUBLIC 151379 0 ExtractWinRoot
PUBLIC 1515b4 0 daiTcl_GetPathType
PUBLIC 1516cd 0 daiTcl_SplitPath
PUBLIC 1517d7 0 SplitUnixPath
PUBLIC 151884 0 SplitWinPath
PUBLIC 151954 0 SplitMacPath
PUBLIC 151ce3 0 daiTcl_JoinPath
PUBLIC 15215f 0 daiTcl_TranslateFileName
PUBLIC 15228c 0 daiTclGetExtension
PUBLIC 152363 0 DoTildeSubst
PUBLIC 152468 0 daiTcl_GlobObjCmd
PUBLIC 152ef5 0 daiTclGlob
PUBLIC 1530f0 0 SkipToChar
PUBLIC 153152 0 daiTclDoGlob
PUBLIC 15378c 0 daiTcl_GetInt
PUBLIC 153902 0 daiTclGetLong
PUBLIC 153a6f 0 daiTcl_GetDouble
PUBLIC 153ba2 0 daiTcl_GetBoolean
PUBLIC 153d98 0 daiTcl_InitHashTable
PUBLIC 153e2d 0 daiTcl_DeleteHashEntry
PUBLIC 153e8d 0 daiTcl_DeleteHashTable
PUBLIC 153ef7 0 daiTcl_FirstHashEntry
PUBLIC 153f1a 0 daiTcl_NextHashEntry
PUBLIC 153f5f 0 daiTcl_HashStats
PUBLIC 1540ff 0 HashString
PUBLIC 154118 0 StringFind
PUBLIC 154170 0 StringCreate
PUBLIC 154253 0 OneWordFind
PUBLIC 154289 0 OneWordCreate
PUBLIC 154337 0 ArrayFind
PUBLIC 1543a8 0 ArrayCreate
PUBLIC 1544c7 0 BogusFind
PUBLIC 1544e6 0 BogusCreate
PUBLIC 154505 0 RebuildTable
PUBLIC 154614 0 daiTcl_RecordAndEval
PUBLIC 1546c2 0 daiTcl_RecordAndEvalObj
PUBLIC 15477c 0 daiTclInitIOSubsystem
PUBLIC 154796 0 daiTclFinalizeIOSubsystem
PUBLIC 154873 0 daiTcl_SetStdChannel
PUBLIC 1548e3 0 daiTcl_GetStdChannel
PUBLIC 1549dc 0 daiTcl_CreateCloseHandler
PUBLIC 154a27 0 daiTcl_DeleteCloseHandler
PUBLIC 154a6c 0 GetChannelTable
PUBLIC 154b39 0 DeleteChannelTable
PUBLIC 154c3e 0 CheckForStdChannelsBeingClosed
PUBLIC 154cd9 0 daiTcl_RegisterChannel
PUBLIC 154d78 0 daiTcl_UnregisterChannel
PUBLIC 154e58 0 daiTcl_GetChannel
PUBLIC 154f8e 0 daiTcl_CreateChannel
PUBLIC 1551fd 0 daiTcl_StackChannel
PUBLIC 1553c0 0 daiTcl_UnstackChannel
PUBLIC 15557b 0 daiTcl_GetStackedChannel
PUBLIC 155580 0 daiTcl_GetTopChannel
PUBLIC 15558b 0 daiTcl_GetChannelInstanceData
PUBLIC 155590 0 daiTcl_GetChannelType
PUBLIC 155595 0 daiTcl_GetChannelMode
PUBLIC 15559f 0 daiTcl_GetChannelName
PUBLIC 1555a6 0 daiTcl_GetChannelHandle
PUBLIC 1555e7 0 AllocChannelBuffer
PUBLIC 15560f 0 RecycleBuffer
PUBLIC 15567b 0 DiscardOutputQueued
PUBLIC 1556b8 0 CheckForDeadChannel
PUBLIC 1556f8 0 FlushChannel
PUBLIC 155918 0 CloseChannel
PUBLIC 155b38 0 daiTcl_Close
PUBLIC 155cdc 0 daiTcl_Write
PUBLIC 155d50 0 daiTcl_WriteRaw
PUBLIC 155dd9 0 daiTcl_WriteChars
PUBLIC 155ea4 0 daiTcl_WriteObj
PUBLIC 155f33 0 WriteBytes
PUBLIC 156058 0 WriteChars
PUBLIC 1562dd 0 TranslateOutputEOL
PUBLIC 1563cb 0 CheckFlush
PUBLIC 156436 0 daiTcl_Gets
PUBLIC 1564ab 0 daiTcl_GetsObj
PUBLIC 156a66 0 FilterInputBytes
PUBLIC 156c7a 0 PeekAhead
PUBLIC 156d5e 0 CommonGetsCleanup
PUBLIC 156e1a 0 daiTcl_Read
PUBLIC 156e72 0 daiTcl_ReadRaw
PUBLIC 156fa8 0 daiTcl_ReadChars
PUBLIC 157172 0 ReadBytes
PUBLIC 15728d 0 ReadChars
PUBLIC 157640 0 TranslateInputEOL
PUBLIC 15783d 0 daiTcl_Ungets
PUBLIC 157951 0 daiTcl_Flush
PUBLIC 1579be 0 DiscardInputQueued
PUBLIC 157a23 0 GetInput
PUBLIC 157bc1 0 daiTcl_Seek
PUBLIC 157da2 0 daiTcl_Tell
PUBLIC 157ed0 0 CheckChannelErrors
PUBLIC 157f56 0 daiTcl_Eof
PUBLIC 157f82 0 daiTcl_InputBlocked
PUBLIC 157f8f 0 daiTcl_InputBuffered
PUBLIC 157fd6 0 daiTcl_ChannelBuffered
PUBLIC 157ff7 0 daiTcl_SetChannelBufferSize
PUBLIC 158047 0 daiTcl_GetChannelBufferSize
PUBLIC 158051 0 daiTcl_BadChannelOption
PUBLIC 1581b1 0 daiTcl_GetChannelOption
PUBLIC 1586f4 0 daiTcl_SetChannelOption
PUBLIC 15902c 0 CleanupChannelHandlers
PUBLIC 1590bc 0 daiTcl_NotifyChannel
PUBLIC 1591ee 0 UpdateInterest
PUBLIC 159288 0 ChannelTimerProc
PUBLIC 15930f 0 daiTcl_CreateChannelHandler
PUBLIC 1593cb 0 daiTcl_DeleteChannelHandler
PUBLIC 1594a3 0 DeleteScriptRecord
PUBLIC 159522 0 CreateScriptRecord
PUBLIC 1595da 0 daiTclChannelEventScriptInvoker
PUBLIC 15965c 0 daiTcl_FileEventObjCmd
PUBLIC 1597e3 0 daiTclCopyChannel
PUBLIC 159982 0 CopyData
PUBLIC 159c83 0 DoRead
PUBLIC 159d3b 0 CopyAndTranslateBuffer
PUBLIC 15a016 0 CopyBuffer
PUBLIC 15a0d2 0 DoWrite
PUBLIC 15a327 0 CopyEventProc
PUBLIC 15a335 0 StopCopy
PUBLIC 15a432 0 StackSetBlockMode
PUBLIC 15a483 0 SetBlockMode
PUBLIC 15a504 0 daiTcl_GetChannelNames
PUBLIC 15a517 0 daiTcl_GetChannelNamesEx
PUBLIC 15a5fe 0 daiTcl_ChannelName
PUBLIC 15a602 0 daiTcl_ChannelVersion
PUBLIC 15a615 0 daiTcl_ChannelBlockModeProc
PUBLIC 15a626 0 daiTcl_ChannelCloseProc
PUBLIC 15a62b 0 daiTcl_ChannelClose2Proc
PUBLIC 15a630 0 daiTcl_ChannelInputProc
PUBLIC 15a635 0 daiTcl_ChannelOutputProc
PUBLIC 15a63a 0 daiTcl_ChannelSeekProc
PUBLIC 15a63f 0 daiTcl_ChannelSetOptionProc
PUBLIC 15a644 0 daiTcl_ChannelGetOptionProc
PUBLIC 15a649 0 daiTcl_ChannelWatchProc
PUBLIC 15a64e 0 daiTcl_ChannelGetHandleProc
PUBLIC 15a653 0 daiTcl_ChannelFlushProc
PUBLIC 15a658 0 daiTcl_ChannelHandlerProc
PUBLIC 15a660 0 daiTcl_PutsObjCmd
PUBLIC 15a82b 0 daiTcl_FlushObjCmd
PUBLIC 15a90b 0 daiTcl_GetsObjCmd
PUBLIC 15aad1 0 daiTcl_ReadObjCmd
PUBLIC 15ad42 0 daiTcl_SeekObjCmd
PUBLIC 15ae89 0 daiTcl_TellObjCmd
PUBLIC 15af16 0 daiTcl_CloseObjCmd
PUBLIC 15afc8 0 daiTcl_FconfigureObjCmd
PUBLIC 15b111 0 daiTcl_EofObjCmd
PUBLIC 15b19e 0 daiTcl_ExecObjCmd
PUBLIC 15b432 0 daiTcl_FblockedObjCmd
PUBLIC 15b4f6 0 daiTcl_OpenObjCmd
PUBLIC 15b688 0 TcpAcceptCallbacksDeleteProc
PUBLIC 15b6cc 0 RegisterTcpServerInterpCleanup
PUBLIC 15b772 0 UnregisterTcpServerInterpCleanupProc
PUBLIC 15b7a4 0 AcceptCallbackProc
PUBLIC 15b8ab 0 TcpServerCloseProc
PUBLIC 15b8d9 0 daiTcl_SocketObjCmd
PUBLIC 15bc6e 0 daiTcl_FcopyObjCmd
PUBLIC 15be58 0 daiTclChannelTransform
PUBLIC 15c052 0 ExecuteCallback
PUBLIC 15c292 0 TransformBlockModeProc
PUBLIC 15c2a7 0 TransformCloseProc
PUBLIC 15c3c9 0 TransformInputProc
PUBLIC 15c577 0 TransformOutputProc
PUBLIC 15c5da 0 TransformSeekProc
PUBLIC 15c6d4 0 TransformSetOptionProc
PUBLIC 15c756 0 TransformGetOptionProc
PUBLIC 15c7dc 0 TransformWatchProc
PUBLIC 15c8a0 0 TransformGetFileHandleProc
PUBLIC 15c8d9 0 TransformNotifyProc
PUBLIC 15c915 0 TransformChannelHandlerTimer
PUBLIC 15c943 0 ResultClear
PUBLIC 15c96c 0 ResultInit
PUBLIC 15c982 0 ResultLength
PUBLIC 15c986 0 ResultCopy
PUBLIC 15ca2d 0 ResultAdd
PUBLIC 15cab0 0 daiTclSockGetPort
PUBLIC 15cbb4 0 daiTclSockMinimumBuffers
PUBLIC 15cc70 0 daiTclGetOpenMode
PUBLIC 15d022 0 daiTcl_EvalFile
PUBLIC 15d1c3 0 daiTcl_GetErrno
PUBLIC 15d1d3 0 daiTcl_SetErrno
PUBLIC 15d1df 0 daiTcl_PosixError
PUBLIC 15d236 0 daiTclStat
PUBLIC 15d26c 0 daiTclAccess
PUBLIC 15d2a0 0 daiTcl_OpenFileChannel
PUBLIC 15d2e8 0 daiTclStatInsertProc
PUBLIC 15d340 0 daiTclStatDeleteProc
PUBLIC 15d3b9 0 daiTclAccessInsertProc
PUBLIC 15d411 0 daiTclAccessDeleteProc
PUBLIC 15d48a 0 daiTclOpenFileChannelInsertProc
PUBLIC 15d4e2 0 daiTclOpenFileChannelDeleteProc
PUBLIC 15d55c 0 daiTcl_GetIndexFromObj
PUBLIC 15d5a6 0 daiTcl_GetIndexFromObjStruct
PUBLIC 15d7bd 0 SetIndexFromAny
PUBLIC 15d7e4 0 daiTcl_WrongNumArgs
PUBLIC 15d8dc 0 daiTclInterpInit
PUBLIC 15d99a 0 InterpInfoDeleteProc
PUBLIC 15da52 0 daiTcl_InterpObjCmd
PUBLIC 15e319 0 GetInterp2
PUBLIC 15e350 0 daiTcl_CreateAlias
PUBLIC 15e45b 0 daiTcl_CreateAliasObj
PUBLIC 15e4ec 0 daiTcl_GetAlias
PUBLIC 15e5fd 0 daiTcl_GetAliasObj
PUBLIC 15e6d8 0 daiTclPreventAliasLoop
PUBLIC 15e7bc 0 AliasCreate
PUBLIC 15e978 0 AliasDelete
PUBLIC 15ea32 0 AliasDescribe
PUBLIC 15ea9b 0 AliasList
PUBLIC 15eaee 0 AliasObjCmd
PUBLIC 15ec6f 0 AliasObjCmdDeleteProc
PUBLIC 15ecc2 0 daiTcl_CreateSlave
PUBLIC 15ed22 0 daiTcl_GetSlave
PUBLIC 15ed74 0 daiTcl_GetMaster
PUBLIC 15ed8a 0 daiTcl_GetInterpPath
PUBLIC 15ee04 0 GetInterp
PUBLIC 15eed2 0 SlaveCreate
PUBLIC 15f0a7 0 SlaveObjCmd
PUBLIC 15f384 0 SlaveObjCmdDeleteProc
PUBLIC 15f3b3 0 SlaveEval
PUBLIC 15f460 0 SlaveExpose
PUBLIC 15f515 0 SlaveHide
PUBLIC 15f5ca 0 SlaveHidden
PUBLIC 15f637 0 SlaveInvokeHidden
PUBLIC 15f6ff 0 SlaveMarkTrusted
PUBLIC 15f762 0 daiTcl_IsSafe
PUBLIC 15f779 0 daiTcl_MakeSafe
PUBLIC 15f8a0 0 daiTcl_LinkVar
PUBLIC 15f98a 0 daiTcl_UnlinkVar
PUBLIC 15f9ff 0 daiTcl_UpdateLinkedVar
PUBLIC 15fa80 0 LinkTraceProc
PUBLIC 15fdb7 0 StringValue
PUBLIC 15fe4c 0 daiTcl_NewListObj
PUBLIC 15ff09 0 daiTcl_DbNewListObj
PUBLIC 15ff17 0 daiTcl_SetListObj
PUBLIC 15ffd8 0 daiTcl_ListObjGetElements
PUBLIC 160037 0 daiTcl_ListObjAppendList
PUBLIC 1600e9 0 daiTcl_ListObjAppendElement
PUBLIC 160203 0 daiTcl_ListObjIndex
PUBLIC 160275 0 daiTcl_ListObjLength
PUBLIC 1602c1 0 daiTcl_ListObjReplace
PUBLIC 160672 0 FreeListInternalRep
PUBLIC 1606c5 0 DupListInternalRep
PUBLIC 160736 0 SetListFromAny
PUBLIC 16094a 0 UpdateStringOfList
PUBLIC 160a64 0 daiTclInitLiteralTable
PUBLIC 160aa8 0 daiTclDeleteLiteralTable
PUBLIC 160b09 0 daiTclRegisterLiteral
PUBLIC 160dc4 0 daiTclLookupLiteralEntry
PUBLIC 160e25 0 daiTclHideLiteral
PUBLIC 160ecb 0 daiTclAddLiteralObj
PUBLIC 160f4d 0 AddLocalLiteralEntry
PUBLIC 160fe0 0 ExpandLocalLiteralArray
PUBLIC 161129 0 daiTclReleaseLiteral
PUBLIC 161256 0 HashString
PUBLIC 161278 0 RebuildLiteralTable
PUBLIC 16135c 0 daiTcl_LoadObjCmd
PUBLIC 1619d4 0 daiTcl_StaticPackage
PUBLIC 161adb 0 daiTclGetLoadedPackages
PUBLIC 161beb 0 LoadCleanupProc
PUBLIC 161c04 0 daiTclFinalizeLoad
PUBLIC 161c48 0 daiTclpLoadFile
PUBLIC 161e10 0 daiTclpUnloadFile
PUBLIC 161e1e 0 daiTclGuessPackageName
PUBLIC 161e24 0 daiTclSetStartupScriptFileName
PUBLIC 161e2c 0 daiTclGetStartupScriptFileName
PUBLIC 161e34 0 daiTcl_Main
PUBLIC 16235c 0 daimatherr
PUBLIC 162398 0 daiTclInitNamespaceSubsystem
PUBLIC 1623ad 0 daiTcl_GetCurrentNamespace
PUBLIC 1623c7 0 daiTcl_GetGlobalNamespace
PUBLIC 1623cc 0 daiTcl_PushCallFrame
PUBLIC 1624be 0 daiTcl_PopCallFrame
PUBLIC 162575 0 daiTcl_CreateNamespace
PUBLIC 1628bb 0 daiTcl_DeleteNamespace
PUBLIC 162989 0 daiTclTeardownNamespace
PUBLIC 162c14 0 NamespaceFree
PUBLIC 162c33 0 daiTcl_Export
PUBLIC 162eaa 0 daiTcl_AppendExportList
PUBLIC 162f1d 0 daiTcl_Import
PUBLIC 163366 0 daiTcl_ForgetImport
PUBLIC 16348d 0 daiTclGetOriginalCommand
PUBLIC 1634c1 0 InvokeImportedCmd
PUBLIC 1634d4 0 DeleteImportedCmd
PUBLIC 163537 0 daiTclGetNamespaceForQualName
PUBLIC 16385f 0 daiTcl_FindNamespace
PUBLIC 163906 0 daiTcl_FindCommand
PUBLIC 163abc 0 daiTcl_FindNamespaceVar
PUBLIC 163c72 0 daiTclResetShadowedCmdRefs
PUBLIC 163e0e 0 GetNamespaceFromObj
PUBLIC 163ef2 0 daiTcl_NamespaceObjCmd
PUBLIC 1640b2 0 NamespaceChildrenCmd
PUBLIC 16428c 0 NamespaceCodeCmd
PUBLIC 164422 0 NamespaceCurrentCmd
PUBLIC 1644b5 0 NamespaceDeleteCmd
PUBLIC 1645a9 0 NamespaceEvalCmd
PUBLIC 164712 0 NamespaceExportCmd
PUBLIC 164840 0 NamespaceForgetCmd
PUBLIC 1648b4 0 NamespaceImportCmd
PUBLIC 164966 0 NamespaceInscopeCmd
PUBLIC 164b85 0 NamespaceOriginCmd
PUBLIC 164c5c 0 NamespaceParentCmd
PUBLIC 164d42 0 NamespaceQualifiersCmd
PUBLIC 164e0d 0 NamespaceTailCmd
PUBLIC 164eae 0 NamespaceWhichCmd
PUBLIC 165008 0 FreeNsNameInternalRep
PUBLIC 165045 0 DupNsNameInternalRep
PUBLIC 165061 0 SetNsNameFromAny
PUBLIC 16513f 0 UpdateStringOfNsName
PUBLIC 1651f4 0 daiTclInitNotifier
PUBLIC 16522f 0 daiTclFinalizeNotifier
PUBLIC 16527c 0 daiTcl_SetNotifier
PUBLIC 1652a3 0 daiTcl_CreateEventSource
PUBLIC 165312 0 daiTcl_DeleteEventSource
PUBLIC 165381 0 daiTcl_QueueEvent
PUBLIC 1653c1 0 daiTcl_ThreadQueueEvent
PUBLIC 1653f8 0 QueueEvent
PUBLIC 165473 0 daiTcl_DeleteEvents
PUBLIC 165502 0 daiTcl_ServiceEvent
PUBLIC 16562c 0 daiTcl_GetServiceMode
PUBLIC 165649 0 daiTcl_SetServiceMode
PUBLIC 16568a 0 daiTcl_SetMaxBlockTime
PUBLIC 1656f5 0 daiTcl_DoOneEvent
PUBLIC 16588c 0 daiTcl_ServiceAll
PUBLIC 165981 0 daiTcl_ThreadAlert
PUBLIC 1659b0 0 daiTclInitObjSubsystem
PUBLIC 165a34 0 daiTclFinalizeCompExecEnv
PUBLIC 165a74 0 daiTcl_RegisterObjType
PUBLIC 165ac7 0 daiTcl_AppendAllObjTypes
PUBLIC 165b2b 0 daiTcl_GetObjType
PUBLIC 165b55 0 daiTcl_ConvertToType
PUBLIC 165b6e 0 daiTcl_NewObj
PUBLIC 165bbd 0 daiTcl_DbNewObj
PUBLIC 165bcb 0 daiTclAllocateFreeObjects
PUBLIC 165c2e 0 daiTclFreeObj
PUBLIC 165c60 0 daiTcl_DuplicateObj
PUBLIC 165d4c 0 daiTcl_GetString
PUBLIC 165d86 0 daiTcl_GetStringFromObj
PUBLIC 165de8 0 daiTcl_InvalidateStringRep
PUBLIC 165e12 0 daiTcl_NewBooleanObj
PUBLIC 165e66 0 daiTcl_DbNewBooleanObj
PUBLIC 165e74 0 daiTcl_SetBooleanObj
PUBLIC 165eeb 0 daiTcl_GetBooleanFromObj
PUBLIC 165f21 0 SetBooleanFromAny
PUBLIC 16628a 0 UpdateStringOfBoolean
PUBLIC 1662be 0 daiTcl_NewDoubleObj
PUBLIC 166315 0 daiTcl_DbNewDoubleObj
PUBLIC 166323 0 daiTcl_SetDoubleObj
PUBLIC 16638d 0 daiTcl_GetDoubleFromObj
PUBLIC 1663e0 0 SetDoubleFromAny
PUBLIC 166577 0 UpdateStringOfDouble
PUBLIC 1665ec 0 daiTcl_NewIntObj
PUBLIC 16663b 0 daiTcl_SetIntObj
PUBLIC 1666ac 0 daiTcl_GetIntFromObj
PUBLIC 16673a 0 SetIntFromAny
PUBLIC 16690f 0 UpdateStringOfInt
PUBLIC 166965 0 daiTcl_NewLongObj
PUBLIC 1669b2 0 daiTcl_DbNewLongObj
PUBLIC 1669c0 0 daiTcl_SetLongObj
PUBLIC 166a2e 0 daiTcl_GetLongFromObj
PUBLIC 166a81 0 daiTcl_DbIncrRefCount
PUBLIC 166a84 0 daiTcl_DbDecrRefCount
PUBLIC 166a99 0 daiTcl_DbIsShared
PUBLIC 166aa4 0 daiTcl_SetPanicProc
PUBLIC 166aaf 0 daiTcl_PanicVA
PUBLIC 166c4f 0 daiTcl_Panic
PUBLIC 166ce4 0 daiTcl_ParseCommand
PUBLIC 16711c 0 ParseTokens
PUBLIC 167398 0 daiTcl_FreeParse
PUBLIC 1673cf 0 daiTclExpandTokenArray
PUBLIC 167472 0 EvalObjv
PUBLIC 16788b 0 daiTcl_EvalObjv
PUBLIC 167976 0 daiTcl_LogCommandInfo
PUBLIC 167a45 0 daiTcl_EvalTokens
PUBLIC 167cb8 0 daiTcl_EvalEx
PUBLIC 16800f 0 daiTcl_Eval
PUBLIC 16807f 0 daiTcl_EvalObj
PUBLIC 168092 0 daiTcl_GlobalEvalObj
PUBLIC 1680a5 0 daiTcl_ParseVarName
PUBLIC 168392 0 daiTcl_ParseVar
PUBLIC 1684a1 0 daiTcl_ParseBraces
PUBLIC 16879f 0 daiTcl_ParseQuotedString
PUBLIC 168891 0 CommandComplete
PUBLIC 168904 0 daiTcl_CommandComplete
PUBLIC 16892f 0 daiTclObjCommandComplete
PUBLIC 16894e 0 daiTclIsLocalScalar
PUBLIC 1689ac 0 daiTcl_ParseExpr
PUBLIC 168ae1 0 ParseCondExpr
PUBLIC 168c32 0 ParseLorExpr
PUBLIC 168ccd 0 ParseLandExpr
PUBLIC 168d68 0 ParseBitOrExpr
PUBLIC 168e03 0 ParseBitXorExpr
PUBLIC 168e9e 0 ParseBitAndExpr
PUBLIC 168f39 0 ParseEqualityExpr
PUBLIC 168fc2 0 ParseRelationalExpr
PUBLIC 169051 0 ParseShiftExpr
PUBLIC 1690da 0 ParseAddExpr
PUBLIC 169163 0 ParseMultiplyExpr
PUBLIC 1691ec 0 ParseUnaryExpr
PUBLIC 16928f 0 ParsePrimaryExpr
PUBLIC 16979c 0 GetLexeme
PUBLIC 169cd2 0 PrependSubExprTokens
PUBLIC 169d7a 0 LogSyntaxError
PUBLIC 169e08 0 FileForRedirect
PUBLIC 169ff8 0 daiTcl_DetachPids
PUBLIC 16a03b 0 daiTcl_ReapDetachedProcs
PUBLIC 16a0b9 0 daiTclCleanupChildren
PUBLIC 16a405 0 daiTclCreatePipeline
PUBLIC 16aeb7 0 daiTcl_OpenCommandChannel
PUBLIC 16b024 0 daiTcl_PkgProvide
PUBLIC 16b037 0 daiTcl_PkgProvideEx
PUBLIC 16b11a 0 daiTcl_PkgRequire
PUBLIC 16b12e 0 daiTcl_PkgRequireEx
PUBLIC 16b416 0 daiTcl_PkgPresent
PUBLIC 16b42a 0 daiTcl_PkgPresentEx
PUBLIC 16b5a6 0 daiTcl_PackageObjCmd
PUBLIC 16bce7 0 FindPackage
PUBLIC 16bd44 0 daiTclFreePackageInfo
PUBLIC 16bdf2 0 CheckVersion
PUBLIC 16be9e 0 ComparePkgVersions
PUBLIC 16bf54 0 daiTcl_ErrnoId
PUBLIC 16c4be 0 daiTcl_ErrnoMsg
PUBLIC 16ca2b 0 daiTcl_SignalId
PUBLIC 16cb3e 0 daiTcl_SignalMsg
PUBLIC 16cc54 0 PreserveExitProc
PUBLIC 16cc91 0 daiTcl_Preserve
PUBLIC 16cde9 0 daiTcl_Release
PUBLIC 16ceb4 0 daiTcl_EventuallyFree
PUBLIC 16cf2a 0 daiTclHandleCreate
PUBLIC 16cf44 0 daiTclHandleFree
PUBLIC 16cf5f 0 daiTclHandlePreserve
PUBLIC 16cf66 0 daiTclHandleRelease
PUBLIC 16cf84 0 daiTcl_ProcObjCmd
PUBLIC 16d1bb 0 daiTclCreateProc
PUBLIC 16d6cc 0 daiTclGetFrame
PUBLIC 16d804 0 daiTcl_UplevelObjCmd
PUBLIC 16d940 0 daiTclFindProc
PUBLIC 16d989 0 daiTclIsProc
PUBLIC 16d9b3 0 daiTclProcInterpProc
PUBLIC 16db03 0 daiTclObjInterpProc
PUBLIC 16de4b 0 daiTclProcCompileProc
PUBLIC 16e0a0 0 ProcessProcResultCode
PUBLIC 16e195 0 daiTclProcDeleteProc
PUBLIC 16e1ac 0 daiTclProcCleanupProc
PUBLIC 16e229 0 daiTclUpdateReturnInfo
PUBLIC 16e2c6 0 daiTclGetInterpProc
PUBLIC 16e2ce 0 daiTclGetObjInterpProc
PUBLIC 16e2d6 0 daiTclNewProcBodyObj
PUBLIC 16e314 0 ProcBodyDup
PUBLIC 16e32b 0 ProcBodyFree
PUBLIC 16e346 0 ProcBodySetFromAny
PUBLIC 16e365 0 ProcBodyUpdateString
PUBLIC 16e380 0 daiTcl_RegExpCompile
PUBLIC 16e3b6 0 daiTcl_RegExpExec
PUBLIC 16e478 0 daiTcl_RegExpRange
PUBLIC 16e52e 0 RegExpExecUniChar
PUBLIC 16e5ae 0 daiTclRegExpRangeUniChar
PUBLIC 16e5f9 0 daiTcl_RegExpMatch
PUBLIC 16e643 0 daiTcl_RegExpExecObj
PUBLIC 16e6e3 0 daiTcl_RegExpMatchObj
PUBLIC 16e740 0 daiTcl_RegExpGetInfo
PUBLIC 16e756 0 daiTcl_GetRegExpFromObj
PUBLIC 16e805 0 daiTclRegAbout
PUBLIC 16e8eb 0 daiTclRegError
PUBLIC 16e9ad 0 FreeRegexpInternalRep
PUBLIC 16e9c8 0 DupRegexpInternalRep
PUBLIC 16e9e3 0 SetRegexpFromAny
PUBLIC 16e9ff 0 CompileRegexp
PUBLIC 16ec5d 0 FreeRegexp
PUBLIC 16ec84 0 FinalizeRegexp
PUBLIC 16ecec 0 daiTcl_AddInterpResolvers
PUBLIC 16edc8 0 daiTcl_GetInterpResolvers
PUBLIC 16ee29 0 daiTcl_RemoveInterpResolvers
PUBLIC 16eec0 0 BumpCmdRefEpochs
PUBLIC 16eef6 0 daiTcl_SetNamespaceResolvers
PUBLIC 16ef18 0 daiTcl_GetNamespaceResolvers
PUBLIC 16ef64 0 daiTcl_SaveResult
PUBLIC 16f035 0 daiTcl_RestoreResult
PUBLIC 16f0ed 0 daiTcl_DiscardResult
PUBLIC 16f184 0 daiTcl_SetResult
PUBLIC 16f26e 0 daiTcl_GetStringResult
PUBLIC 16f2b9 0 daiTcl_SetObjResult
PUBLIC 16f37b 0 daiTcl_GetObjResult
PUBLIC 16f46b 0 daiTcl_AppendResultVA
PUBLIC 16f644 0 daiTcl_AppendResult
PUBLIC 16f6d9 0 daiTcl_AppendElement
PUBLIC 16f7bc 0 SetupAppendBuffer
PUBLIC 16f8b5 0 daiTcl_FreeResult
PUBLIC 16f8f6 0 daiTcl_ResetResult
PUBLIC 16f94c 0 ResetObjResult
PUBLIC 16fa6e 0 daiTcl_SetErrorCodeVA
PUBLIC 16face 0 daiTcl_SetErrorCode
PUBLIC 16fb63 0 daiTcl_SetObjErrorCode
PUBLIC 16fb8a 0 daiTclTransferResult
PUBLIC 16fc8c 0 BuildCharSet
PUBLIC 16fea5 0 CharInSet
PUBLIC 16ff18 0 ReleaseCharSet
PUBLIC 16ff37 0 ValidateFormat
PUBLIC 170436 0 daiTcl_ScanObjCmd
PUBLIC 170e98 0 daiTcl_NewStringObj
PUBLIC 170f69 0 daiTcl_DbNewStringObj
PUBLIC 170f77 0 daiTcl_NewUnicodeObj
PUBLIC 171059 0 daiTcl_GetCharLength
PUBLIC 1710bd 0 daiTcl_GetUniChar
PUBLIC 17112d 0 daiTcl_GetUnicode
PUBLIC 171160 0 daiTcl_GetRange
PUBLIC 171205 0 daiTcl_SetStringObj
PUBLIC 1712f2 0 daiTcl_SetObjLength
PUBLIC 1713c3 0 daiTcl_SetUnicodeObj
PUBLIC 17146c 0 daiTcl_AppendToObj
PUBLIC 17150f 0 daiTcl_AppendUnicodeToObj
PUBLIC 17158a 0 daiTcl_AppendObjToObj
PUBLIC 171699 0 AppendUnicodeToUnicodeRep
PUBLIC 17177b 0 AppendUnicodeToUtfRep
PUBLIC 171823 0 AppendUtfToUnicodeRep
PUBLIC 1718ee 0 AppendUtfToUtfRep
PUBLIC 1719b4 0 daiTcl_AppendStringsToObjVA
PUBLIC 171b5f 0 daiTcl_AppendStringsToObj
PUBLIC 171bf4 0 FillUnicodeRep
PUBLIC 171c86 0 DupStringInternalRep
PUBLIC 171d63 0 SetStringFromAny
PUBLIC 171df2 0 UpdateStringOfString
PUBLIC 171ec1 0 FreeStringInternalRep
PUBLIC 171ed4 0 HasStubSupport
PUBLIC 171eff 0 daiTcl_InitStubs
PUBLIC 171ffc 0 daiTcl_GetThreadData
PUBLIC 17205f 0 daiTclThreadDataKeyGet
PUBLIC 172063 0 daiTclThreadDataKeySet
PUBLIC 172067 0 RememberSyncObject
PUBLIC 1720f3 0 ForgetSyncObject
PUBLIC 17211a 0 daiTclRememberMutex
PUBLIC 17212f 0 daiTcl_MutexFinalize
PUBLIC 172144 0 daiTclRememberDataKey
PUBLIC 172159 0 daiTclRememberCondition
PUBLIC 17216e 0 daiTcl_ConditionFinalize
PUBLIC 172183 0 daiTclFinalizeThreadData
PUBLIC 1721cf 0 daiTclFinalizeSynchronization
PUBLIC 17220d 0 daiTcl_ExitThread
PUBLIC 17221b 0 daiTcl_ConditionWait
PUBLIC 17221c 0 daiTcl_ConditionNotify
PUBLIC 17221d 0 daiTcl_MutexLock
PUBLIC 17221e 0 daiTcl_MutexUnlock
PUBLIC 172220 0 InitTimer
PUBLIC 172277 0 TimerExitProc
PUBLIC 172298 0 daiTcl_CreateTimerHandler
PUBLIC 17239f 0 daiTcl_DeleteTimerHandler
PUBLIC 1723e9 0 TimerSetupProc
PUBLIC 1724a4 0 TimerCheckProc
PUBLIC 17257e 0 TimerHandlerEventProc
PUBLIC 17260f 0 daiTcl_DoWhenIdle
PUBLIC 172698 0 daiTcl_CancelIdleCall
PUBLIC 17270d 0 daiTcl_RunIdleNow
PUBLIC 172783 0 daiTclServiceIdle
PUBLIC 17281c 0 daiTcl_AfterObjCmd
PUBLIC 172d03 0 GetAfterEvent
PUBLIC 172d9f 0 AfterProc
PUBLIC 172e4a 0 FreeAfterPtr
PUBLIC 172e9b 0 AfterCleanupProc
PUBLIC 172f0c 0 FileBlockModeProc
PUBLIC 172f8a 0 FileInputProc
PUBLIC 172fb7 0 FileOutputProc
PUBLIC 172fe4 0 FileCloseProc
PUBLIC 173066 0 FileSeekProc
PUBLIC 1730a8 0 FileWatchProc
PUBLIC 1730d5 0 FileGetHandleProc
PUBLIC 1730ef 0 TtyCloseProc
PUBLIC 17312e 0 TtySetOptionProc
PUBLIC 1731e3 0 TtyGetOptionProc
PUBLIC 1732c5 0 TtyGetSpeed
PUBLIC 173331 0 TtyGetBaud
PUBLIC 173374 0 TtyGetAttributes
PUBLIC 17340d 0 TtySetAttributes
PUBLIC 1734c8 0 TtyParseMode
PUBLIC 1735f8 0 TtyInit
PUBLIC 1736a4 0 daiTclpOpenFileChannel
PUBLIC 173921 0 daiTcl_MakeFileChannel
PUBLIC 1739fa 0 TcpBlockModeProc
PUBLIC 173a6c 0 WaitForConnect
PUBLIC 173b4c 0 TcpInputProc
PUBLIC 173bda 0 TcpOutputProc
PUBLIC 173c57 0 TcpCloseProc
PUBLIC 173ca1 0 TcpGetOptionProc
PUBLIC 17405c 0 TcpWatchProc
PUBLIC 17408f 0 TcpGetHandleProc
PUBLIC 17409c 0 CreateSocket
PUBLIC 174356 0 CreateSocketAddress
PUBLIC 174443 0 daiTcl_OpenTcpClient
PUBLIC 17450c 0 daiTcl_MakeTcpClientChannel
PUBLIC 1745c0 0 daiTcl_OpenTcpServer
PUBLIC 17466d 0 TcpAccept
PUBLIC 174764 0 daiTclpGetDefaultStdChannel
PUBLIC 1748bc 0 daiTcl_GetOpenFile
PUBLIC 174a0a 0 daiTclUnixWaitForFile
PUBLIC 174cf4 0 daiTcl_Sleep
PUBLIC 174de4 0 daiTclpRenameFile
PUBLIC 174e7d 0 DoRenameFile
PUBLIC 17501c 0 daiTclpCopyFile
PUBLIC 1750b1 0 DoCopyFile
PUBLIC 17525e 0 CopyFile
PUBLIC 17536d 0 daiTclpDeleteFile
PUBLIC 1753c7 0 DoDeleteFile
PUBLIC 1753e0 0 daiTclpCreateDirectory
PUBLIC 17543a 0 DoCreateDirectory
PUBLIC 17548d 0 daiTclpCopyDirectory
PUBLIC 17553f 0 daiTclpRemoveDirectory
PUBLIC 1755b5 0 DoRemoveDirectory
PUBLIC 17565e 0 TraverseUnixTree
PUBLIC 175898 0 TraversalCopy
PUBLIC 175915 0 TraversalDelete
PUBLIC 17598f 0 CopyFileAtts
PUBLIC 175a12 0 GetGroupAttribute
PUBLIC 175aff 0 GetOwnerAttribute
PUBLIC 175beb 0 GetPermissionsAttribute
PUBLIC 175cae 0 SetGroupAttribute
PUBLIC 175ded 0 SetOwnerAttribute
PUBLIC 175f1e 0 SetPermissionsAttribute
PUBLIC 176088 0 daiTclpListVolumes
PUBLIC 1760af 0 GetModeFromPermString
PUBLIC 176454 0 daiTclpFindExecutable
PUBLIC 1766c9 0 daiTclpMatchFilesTypes
PUBLIC 176b32 0 daiTclpMatchFiles
PUBLIC 176b46 0 daiTclpGetUserHome
PUBLIC 176be0 0 daiTclpAccess
PUBLIC 176c3c 0 daiTclpChdir
PUBLIC 176c94 0 daiTclpLstat
PUBLIC 176cf7 0 daiTclpGetCwd
PUBLIC 176d83 0 daiTclpReadlink
PUBLIC 176e1d 0 daiTclpStat
PUBLIC 176e80 0 daiTclSetPreInitScript
PUBLIC 176e8f 0 daiTclpInitPlatform
PUBLIC 176eb4 0 daiTclpInitLibraryPath
PUBLIC 1772a4 0 daiTclpSetInitialEncodings
PUBLIC 1774c3 0 daiTclpSetVariables
PUBLIC 177746 0 daiTclpFindVariable
PUBLIC 1777fe 0 daiTcl_Init
PUBLIC 177863 0 daiTcl_SourceRCFile
PUBLIC 17795b 0 daiTclpCheckStackSpace
PUBLIC 177964 0 daiTcl_InitNotifier
PUBLIC 17797e 0 daiTcl_FinalizeNotifier
PUBLIC 17797f 0 daiTcl_AlertNotifier
PUBLIC 177980 0 daiTcl_SetTimer
PUBLIC 1779a0 0 daiTcl_ServiceModeHook
PUBLIC 1779a1 0 daiTcl_CreateFileHandler
PUBLIC 177ae6 0 daiTcl_DeleteFileHandler
PUBLIC 177c21 0 FileHandlerEventProc
PUBLIC 177c7e 0 daiTcl_WaitForEvent
PUBLIC 177e18 0 daiTclpMakeFile
PUBLIC 177e3b 0 daiTclpOpenFile
PUBLIC 177ef2 0 daiTclpCreateTempFile
PUBLIC 17801e 0 daiTclpCreatePipe
PUBLIC 1780b0 0 daiTclpCloseFile
PUBLIC 1780ce 0 daiTclpCreateProcess
PUBLIC 17841b 0 RestoreSignals
PUBLIC 178523 0 SetupStdFile
PUBLIC 1785ff 0 daiTclpCreateCommandChannel
PUBLIC 1786be 0 daiTclGetAndDetachPids
PUBLIC 17877f 0 PipeBlockModeProc
PUBLIC 178853 0 PipeCloseProc
PUBLIC 178955 0 PipeInputProc
PUBLIC 178984 0 PipeOutputProc
PUBLIC 1789b3 0 PipeWatchProc
PUBLIC 178a35 0 PipeGetHandleProc
PUBLIC 178a6b 0 daiTcl_WaitPid
PUBLIC 178aa9 0 daiTcl_PidObjCmd
PUBLIC 178bb4 0 daiTcl_GetHostName
PUBLIC 178caa 0 daiTclpHasSockets
PUBLIC 178cb0 0 daiTcl_CreateThread
PUBLIC 178cb6 0 daiTcl_GetCurrentThread
PUBLIC 178cbc 0 daiTclpInitLock
PUBLIC 178cbd 0 daiTclpInitUnlock
PUBLIC 178cbe 0 daiTclpMasterLock
PUBLIC 178cbf 0 daiTclpMasterUnlock
PUBLIC 178cc0 0 daiTcl_GetAllocMutex
PUBLIC 178cc8 0 daiTclpGetSeconds
PUBLIC 178cdb 0 daiTclpGetClicks
PUBLIC 178d04 0 daiTclpGetTimeZone
PUBLIC 178d4a 0 daiTclpGetTime
PUBLIC 178d80 0 daiTclpGetDate
PUBLIC 178d99 0 daiTclpStrftime
PUBLIC 178e8c 0 UtfCount
PUBLIC 178eab 0 daiTcl_UniCharToUtf
PUBLIC 178f19 0 daiTcl_UniCharToUtfDString
PUBLIC 178fa1 0 daiTcl_UtfToUniChar
PUBLIC 17903c 0 daiTcl_UtfToUniCharDString
PUBLIC 1790e9 0 daiTcl_UtfCharComplete
PUBLIC 179101 0 daiTcl_NumUtfChars
PUBLIC 179167 0 daiTcl_UtfFindFirst
PUBLIC 1791ab 0 daiTcl_UtfFindLast
PUBLIC 1791f2 0 daiTcl_UtfNext
PUBLIC 179218 0 daiTcl_UtfPrev
PUBLIC 17926d 0 daiTcl_UniCharAtIndex
PUBLIC 1792a0 0 daiTcl_UtfAtIndex
PUBLIC 1792d1 0 daiTcl_UtfBackslash
PUBLIC 17953b 0 daiTcl_UtfToUpper
PUBLIC 1795cc 0 daiTcl_UtfToLower
PUBLIC 17965d 0 daiTcl_UtfToTitle
PUBLIC 179751 0 daiTcl_UtfNcmp
PUBLIC 1797c1 0 daiTcl_UtfNcasecmp
PUBLIC 179859 0 daiTcl_UniCharToUpper
PUBLIC 1798b6 0 daiTcl_UniCharToLower
PUBLIC 179915 0 daiTcl_UniCharToTitle
PUBLIC 17999c 0 daiTcl_UniCharLen
PUBLIC 1799b4 0 daiTcl_UniCharNcmp
PUBLIC 1799e5 0 daiTcl_UniCharIsAlnum
PUBLIC 179a29 0 daiTcl_UniCharIsAlpha
PUBLIC 179a6d 0 daiTcl_UniCharIsControl
PUBLIC 179ab0 0 daiTcl_UniCharIsDigit
PUBLIC 179af3 0 daiTcl_UniCharIsGraph
PUBLIC 179b50 0 daiTcl_UniCharIsLower
PUBLIC 179b93 0 daiTcl_UniCharIsPrint
PUBLIC 179bd7 0 daiTcl_UniCharIsPunct
PUBLIC 179c1b 0 daiTcl_UniCharIsSpace
PUBLIC 179c83 0 daiTcl_UniCharIsUpper
PUBLIC 179cc6 0 daiTcl_UniCharIsWordChar
PUBLIC 179d0c 0 daiTclFindElement
PUBLIC 17a074 0 daiTclCopyAndCollapse
PUBLIC 17a0f1 0 daiTcl_SplitList
PUBLIC 17a2ce 0 daiTcl_ScanElement
PUBLIC 17a2e4 0 daiTcl_ScanCountedElement
PUBLIC 17a415 0 daiTcl_ConvertElement
PUBLIC 17a42d 0 daiTcl_ConvertCountedElement
PUBLIC 17a566 0 daiTcl_Merge
PUBLIC 17a63a 0 daiTcl_Backslash
PUBLIC 17a66c 0 daiTcl_Concat
PUBLIC 17a7b2 0 daiTcl_ConcatObj
PUBLIC 17aa04 0 daiTcl_StringMatch
PUBLIC 17ab9c 0 daiTcl_StringCaseMatch
PUBLIC 17ade5 0 daiTcl_DStringInit
PUBLIC 17adff 0 daiTcl_DStringAppend
PUBLIC 17aec7 0 daiTcl_DStringAppendElement
PUBLIC 17af85 0 daiTcl_DStringSetLength
PUBLIC 17b022 0 daiTcl_DStringFree
PUBLIC 17b052 0 daiTcl_DStringResult
PUBLIC 17b0db 0 daiTcl_DStringGetResult
PUBLIC 17b20a 0 daiTcl_DStringStartSublist
PUBLIC 17b245 0 daiTcl_DStringEndSublist
PUBLIC 17b25f 0 daiTcl_PrintDouble
PUBLIC 17b2d0 0 daiTclPrecTraceProc
PUBLIC 17b461 0 daiTclNeedSpace
PUBLIC 17b4f4 0 daiTclFormatInt
PUBLIC 17b5e6 0 daiTclLooksLikeInt
PUBLIC 17b6c6 0 daiTclGetIntForIndex
PUBLIC 17b812 0 daiTclCheckBadOctal
PUBLIC 17b8c3 0 daiTcl_GetNameOfExecutable
PUBLIC 17b8ce 0 daiTcl_GetCwd
PUBLIC 17b8dc 0 daiTcl_Chdir
PUBLIC 17b8ea 0 daiTcl_Access
PUBLIC 17b8f8 0 daiTcl_Stat
PUBLIC 17b908 0 daiTclLookupVar
PUBLIC 17bf0d 0 daiTcl_GetVar
PUBLIC 17bf22 0 daiTcl_GetVar2
PUBLIC 17bf55 0 daiTcl_ObjGetVar2
PUBLIC 17bfbf 0 daiTcl_GetVar2Ex
PUBLIC 17c0e9 0 daiTclGetIndexedScalar
PUBLIC 17c1a9 0 daiTclGetElementOfIndexedArray
PUBLIC 17c348 0 daiTcl_SetObjCmd
PUBLIC 17c3c9 0 daiTcl_SetVar
PUBLIC 17c3e2 0 daiTcl_SetVar2
PUBLIC 17c480 0 daiTcl_ObjSetVar2
PUBLIC 17c4f8 0 daiTcl_SetVar2Ex
PUBLIC 17c901 0 daiTclSetIndexedScalar
PUBLIC 17caa6 0 daiTclSetElementOfIndexedArray
PUBLIC 17cd3a 0 daiTclIncrVar2
PUBLIC 17ce27 0 daiTclIncrIndexedScalar
PUBLIC 17cf01 0 daiTclIncrElementOfIndexedArray
PUBLIC 17cfe9 0 daiTcl_UnsetVar
PUBLIC 17cffe 0 daiTcl_UnsetVar2
PUBLIC 17d285 0 daiTcl_TraceVar
PUBLIC 17d2a0 0 daiTcl_TraceVar2
PUBLIC 17d33c 0 daiTcl_UntraceVar
PUBLIC 17d357 0 daiTcl_UntraceVar2
PUBLIC 17d42e 0 daiTcl_VarTraceInfo
PUBLIC 17d449 0 daiTcl_VarTraceInfo2
PUBLIC 17d4d8 0 daiTcl_UnsetObjCmd
PUBLIC 17d55a 0 daiTcl_AppendObjCmd
PUBLIC 17d60d 0 daiTcl_LappendObjCmd
PUBLIC 17d8c8 0 daiTcl_ArrayObjCmd
PUBLIC 17e035 0 daiTclArraySet
PUBLIC 17e23a 0 MakeUpvar
PUBLIC 17e599 0 daiTcl_UpVar
PUBLIC 17e656 0 daiTcl_UpVar2
PUBLIC 17e6d7 0 daiTcl_GetVariableFullName
PUBLIC 17e788 0 daiTcl_GlobalObjCmd
PUBLIC 17e884 0 daiTcl_VariableObjCmd
PUBLIC 17ea03 0 daiTcl_UpvarObjCmd
PUBLIC 17eb64 0 CallTraces
PUBLIC 17ed6f 0 NewVar
PUBLIC 17edbf 0 ParseSearchId
PUBLIC 17eee8 0 DeleteSearches
PUBLIC 17ef0d 0 daiTclDeleteVars
PUBLIC 17f15a 0 daiTclDeleteCompiledLocalVars
PUBLIC 17f2f3 0 DeleteArray
PUBLIC 17f473 0 CleanupVar
PUBLIC 17f507 0 VarErrMsg
PUBLIC 17f5c0 0 daiTclVarTraceExists
PUBLIC 17f700 0 OPENSSL_cpuid_setup
PUBLIC 17f880 0 OPENSSL_showfatal
PUBLIC 17f930 0 OPENSSL_isservice
PUBLIC 17f940 0 OPENSSL_die
PUBLIC 17fa00 0 sha256_multi_block
PUBLIC 182200 0 sha256_multi_block_shaext
PUBLIC 182aa0 0 sha256_multi_block_avx
PUBLIC 184ba0 0 sha256_multi_block_avx2
PUBLIC 187980 0 sha256_block_data_order
PUBLIC 188e40 0 sha256_block_data_order_shaext
PUBLIC 189180 0 sha256_block_data_order_ssse3
PUBLIC 18a040 0 sha256_block_data_order_avx
PUBLIC 18af40 0 sha256_block_data_order_avx2
PUBLIC 18c350 0 SHA224_Init
PUBLIC 18c3a0 0 SHA256_Init
PUBLIC 18c3f0 0 SHA256_Update
PUBLIC 18c600 0 SHA224_Update
PUBLIC 18c610 0 SHA256_Transform
PUBLIC 18c620 0 SHA256_Final
PUBLIC 18c8b0 0 SHA224
PUBLIC 18c910 0 SHA256
PUBLIC 18c970 0 SHA224_Final
PUBLIC 18c980 0 OPENSSL_atomic_add
PUBLIC 18c9a0 0 OPENSSL_rdtsc
PUBLIC 18c9b0 0 OPENSSL_ia32_cpuid
PUBLIC 18cb70 0 OPENSSL_cleanse
PUBLIC 18cbd0 0 CRYPTO_memcmp
PUBLIC 18cc00 0 OPENSSL_wipe_cpu
PUBLIC 18cc70 0 OPENSSL_instrument_bus
PUBLIC 18ccc0 0 OPENSSL_instrument_bus2
PUBLIC 18cd30 0 OPENSSL_ia32_rdrand
PUBLIC 18cd50 0 OPENSSL_ia32_rdrand_bytes
PUBLIC 18cdb0 0 OPENSSL_ia32_rdseed
PUBLIC 18cdd0 0 OPENSSL_ia32_rdseed_bytes
PUBLIC 18ce25 0 dcBase64Encode32
PUBLIC 18ce48 0 dcBase64EncodeBuf
PUBLIC 18cf8d 0 dcCheckProcess
PUBLIC 18d0e0 0 _fini
STACK CFI INIT 47020 6400 .cfa: $rsp 16 + .ra: .cfa -8 + ^
STACK CFI 47026 .cfa: $rsp 24 +
STACK CFI INIT 4d420 118 .cfa: $rsp 8 + .ra: .cfa -8 + ^
STACK CFI INIT 4d6b5 6 .cfa: $rsp 8 + .ra: .cfa -8 + ^
STACK CFI INIT 4d6bb c6 .cfa: $rsp 8 + .ra: .cfa -8 + ^
STACK CFI 4d6bc $rbx: .cfa -16 + ^ .cfa: $rsp 16 +
STACK CFI 4d6c0 .cfa: $rsp 32 +
STACK CFI 4d764 .cfa: $rsp 16 +
STACK CFI 4d765 .cfa: $rsp 8 +
STACK CFI 4d766 .cfa: $rsp 32 +
STACK CFI INIT 4d781 2a .cfa: $rsp 8 + .ra: .cfa -8 + ^
STACK CFI 4d785 .cfa: $rsp 16 +
STACK CFI 4d787 .cfa: $rsp 24 +
STACK CFI 4d789 .cfa: $rsp 32 +
STACK CFI 4d78b .cfa: $rsp 40 +
STACK CFI 4d78d .cfa: $rsp 48 +
STACK CFI 4d78f .cfa: $rsp 56 +
STACK CFI 4d791 .cfa: $rsp 64 +
STACK CFI 4d793 .cfa: $rsp 72 +
STACK CFI 4d795 .cfa: $rsp 80 +
STACK CFI 4d797 .cfa: $rsp 88 +
STACK CFI 4d799 .cfa: $rsp 96 +
STACK CFI 4d79d .cfa: $rsp 104 +
STACK CFI 4d7a1 .cfa: $rsp 112 +
STACK CFI 4d7aa .cfa: $rsp 8 +
STACK CFI INIT 4d7ab 2a .cfa: $rsp 8 + .ra: .cfa -8 + ^
STACK CFI 4d7af .cfa: $rsp 16 +
STACK CFI 4d7b1 .cfa: $rsp 24 +
STACK CFI 4d7b3 .cfa: $rsp 32 +
STACK CFI 4d7b5 .cfa: $rsp 40 +
STACK CFI 4d7b7 .cfa: $rsp 48 +
STACK CFI 4d7b9 .cfa: $rsp 56 +
STACK CFI 4d7bb .cfa: $rsp 64 +
STACK CFI 4d7bd .cfa: $rsp 72 +
STACK CFI 4d7bf .cfa: $rsp 80 +
STACK CFI 4d7c1 .cfa: $rsp 88 +
STACK CFI 4d7c3 .cfa: $rsp 96 +
STACK CFI 4d7c7 .cfa: $rsp 104 +
STACK CFI 4d7cb .cfa: $rsp 112 +
STACK CFI 4d7d4 .cfa: $rsp 8 +
STACK CFI INIT 4d7d5 2a .cfa: $rsp 8 + .ra: .cfa -8 + ^
STACK CFI 4d7d9 .cfa: $rsp 16 +
STACK CFI 4d7db .cfa: $rsp 24 +
STACK CFI 4d7dd .cfa: $rsp 32 +
STACK CFI 4d7df .cfa: $rsp 40 +
STACK CFI 4d7e1 .cfa: $rsp 48 +
STACK CFI 4d7e3 .cfa: $rsp 56 +
STACK CFI 4d7e5 .cfa: $rsp 64 +
STACK CFI 4d7e7 .cfa: $rsp 72 +
STACK CFI 4d7e9 .cfa: $rsp 80 +
STACK CFI 4d7eb .cfa: $rsp 88 +
STACK CFI 4d7ed .cfa: $rsp 96 +
STACK CFI 4d7f1 .cfa: $rsp 104 +
STACK CFI 4d7f5 .cfa: $rsp 112 +
STACK CFI 4d7fe .cfa: $rsp 8 +
STACK CFI INIT 4d7ff 2a .cfa: $rsp 8 + .ra: .cfa -8 + ^
STACK CFI 4d803 .cfa: $rsp 16 +
STACK CFI 4d805 .cfa: $rsp 24 +
STACK CFI 4d807 .cfa: $rsp 32 +
STACK CFI 4d809 .cfa: $rsp 40 +
STACK CFI 4d80b .cfa: $rsp 48 +
STACK CFI 4d80d .cfa: $rsp 56 +
STACK CFI 4d80f .cfa: $rsp 64 +
STACK CFI 4d811 .cfa: $rsp 72 +
STACK CFI 4d813 .cfa: $rsp 80 +
STACK CFI 4d815 .cfa: $rsp 88 +
STACK CFI 4d817 .cfa: $rsp 96 +
STACK CFI 4d81b .cfa: $rsp 104 +
STACK CFI 4d81f .cfa: $rsp 112 +
STACK CFI 4d828 .cfa: $rsp 8 +
STACK CFI INIT 4d829 2a .cfa: $rsp 8 + .ra: .cfa -8 + ^
STACK CFI 4d82d .cfa: $rsp 16 +
STACK CFI 4d82f .cfa: $rsp 24 +
STACK CFI 4d831 .cfa: $rsp 32 +
STACK CFI 4d833 .cfa: $rsp 40 +
STACK CFI 4d835 .cfa: $rsp 48 +
STACK CFI 4d837 .cfa: $rsp 56 +
STACK CFI 4d839 .cfa: $rsp 64 +
STACK CFI 4d83b .cfa: $rsp 72 +
STACK CFI 4d83d .cfa: $rsp 80 +
STACK CFI 4d83f .cfa: $rsp 88 +
STACK CFI 4d841 .cfa: $rsp 96 +
STACK CFI 4d845 .cfa: $rsp 104 +
STACK CFI 4d849 .cfa: $rsp 112 +
STACK CFI 4d852 .cfa: $rsp 8 +
STACK CFI INIT 4d853 2a .cfa: $rsp 8 + .ra: .cfa -8 + ^
STACK CFI 4d857 .cfa: $rsp 16 +
STACK CFI 4d859 .cfa: $rsp 24 +
STACK CFI 4d85b .cfa: $rsp 32 +
STACK CFI 4d85d .cfa: $rsp 40 +
STACK CFI 4d85f .cfa: $rsp 48 +
STACK CFI 4d861 .cfa: $rsp 56 +
STACK CFI 4d863 .cfa: $rsp 64 +
STACK CFI 4d865 .cfa: $rsp 72 +
STACK CFI 4d867 .cfa: $rsp 80 +
STACK CFI 4d869 .cfa: $rsp 88 +
STACK CFI 4d86b .cfa: $rsp 96 +
STACK CFI 4d86f .cfa: $rsp 104 +
STACK CFI 4d873 .cfa: $rsp 112 +
STACK CFI 4d87c .cfa: $rsp 8 +
STACK CFI INIT 4d87d 2a .cfa: $rsp 8 + .ra: .cfa -8 + ^
STACK CFI 4d881 .cfa: $rsp 16 +
STACK CFI 4d883 .cfa: $rsp 24 +
STACK CFI 4d885 .cfa: $rsp 32 +
STACK CFI 4d887 .cfa: $rsp 40 +
STACK CFI 4d889 .cfa: $rsp 48 +
STACK CFI 4d88b .cfa: $rsp 56 +
STACK CFI 4d88d .cfa: $rsp 64 +
STACK CFI 4d88f .cfa: $rsp 72 +
STACK CFI 4d891 .cfa: $rsp 80 +
STACK CFI 4d893 .cfa: $rsp 88 +
STACK CFI 4d895 .cfa: $rsp 96 +
STACK CFI 4d899 .cfa: $rsp 104 +
STACK CFI 4d89d .cfa: $rsp 112 +
STACK CFI 4d8a6 .cfa: $rsp 8 +
STACK CFI INIT 4d8a7 2a .cfa: $rsp 8 + .ra: .cfa -8 + ^
STACK CFI 4d8ab .cfa: $rsp 16 +
STACK CFI 4d8ad .cfa: $rsp 24 +
STACK CFI 4d8af .cfa: $rsp 32 +
STACK CFI 4d8b1 .cfa: $rsp 40 +
STACK CFI 4d8b3 .cfa: $rsp 48 +
STACK CFI 4d8b5 .cfa: $rsp 56 +
STACK CFI 4d8b7 .cfa: $rsp 64 +
STACK CFI 4d8b9 .cfa: $rsp 72 +
STACK CFI 4d8bb .cfa: $rsp 80 +
STACK CFI 4d8bd .cfa: $rsp 88 +
STACK CFI 4d8bf .cfa: $rsp 96 +
STACK CFI 4d8c3 .cfa: $rsp 104 +
STACK CFI 4d8c7 .cfa: $rsp 112 +
STACK CFI 4d8d0 .cfa: $rsp 8 +
STACK CFI INIT 4d8d1 2a .cfa: $rsp 8 + .ra: .cfa -8 + ^
STACK CFI 4d8d5 .cfa: $rsp 16 +
STACK CFI 4d8d7 .cfa: $rsp 24 +
STACK CFI 4d8d9 .cfa: $rsp 32 +
STACK CFI 4d8db .cfa: $rsp 40 +
STACK CFI 4d8dd .cfa: $rsp 48 +
STACK CFI 4d8df .cfa: $rsp 56 +
STACK CFI 4d8e1 .cfa: $rsp 64 +
STACK CFI 4d8e3 .cfa: $rsp 72 +
STACK CFI 4d8e5 .cfa: $rsp 80 +
STACK CFI 4d8e7 .cfa: $rsp 88 +
STACK CFI 4d8e9 .cfa: $rsp 96 +
STACK CFI 4d8ed .cfa: $rsp 104 +
STACK CFI 4d8f1 .cfa: $rsp 112 +
STACK CFI 4d8fa .cfa: $rsp 8 +
STACK CFI INIT 4d8fb 2a .cfa: $rsp 8 + .ra: .cfa -8 + ^
STACK CFI 4d8ff .cfa: $rsp 16 +
STACK CFI 4d901 .cfa: $rsp 24 +
STACK CFI 4d903 .cfa: $rsp 32 +
STACK CFI 4d905 .cfa: $rsp 40 +
STACK CFI 4d907 .cfa: $rsp 48 +
STACK CFI 4d909 .cfa: $rsp 56 +
STACK CFI 4d90b .cfa: $rsp 64 +
STACK CFI 4d90d .cfa: $rsp 72 +
STACK CFI 4d90f .cfa: $rsp 80 +
STACK CFI 4d911 .cfa: $rsp 88 +
STACK CFI 4d913 .cfa: $rsp 96 +
STACK CFI 4d917 .cfa: $rsp 104 +
STACK CFI 4d91b .cfa: $rsp 112 +
STACK CFI 4d924 .cfa: $rsp 8 +
STACK CFI INIT 4d925 2a .cfa: $rsp 8 + .ra: .cfa -8 + ^
STACK CFI 4d929 .cfa: $rsp 16 +
STACK CFI 4d92b .cfa: $rsp 24 +
STACK CFI 4d92d .cfa: $rsp 32 +
STACK CFI 4d92f .cfa: $rsp 40 +
STACK CFI 4d931 .cfa: $rsp 48 +
STACK CFI 4d933 .cfa: $rsp 56 +
STACK CFI 4d935 .cfa: $rsp 64 +
STACK CFI 4d937 .cfa: $rsp 72 +
STACK CFI 4d939 .cfa: $rsp 80 +
STACK CFI 4d93b .cfa: $rsp 88 +
STACK CFI 4d93d .cfa: $rsp 96 +
STACK CFI 4d941 .cfa: $rsp 104 +
STACK CFI 4d945 .cfa: $rsp 112 +
STACK CFI 4d94e .cfa: $rsp 8 +
STACK CFI INIT 4d94f 2a .cfa: $rsp 8 + .ra: .cfa -8 + ^
STACK CFI 4d953 .cfa: $rsp 16 +
STACK CFI 4d955 .cfa: $rsp 24 +
STACK CFI 4d957 .cfa: $rsp 32 +
STACK CFI 4d959 .cfa: $rsp 40 +
STACK CFI 4d95b .cfa: $rsp 48 +
STACK CFI 4d95d .cfa: $rsp 56 +
STACK CFI 4d95f .cfa: $rsp 64 +
STACK CFI 4d961 .cfa: $rsp 72 +
STACK CFI 4d963 .cfa: $rsp 80 +
STACK CFI 4d965 .cfa: $rsp 88 +
STACK CFI 4d967 .cfa: $rsp 96 +
STACK CFI 4d96b .cfa: $rsp 104 +
STACK CFI 4d96f .cfa: $rsp 112 +
STACK CFI 4d978 .cfa: $rsp 8 +
STACK CFI INIT 4d979 2a .cfa: $rsp 8 + .ra: .cfa -8 + ^
STACK CFI 4d97d .cfa: $rsp 16 +
STACK CFI 4d97f .cfa: $rsp 24 +
STACK CFI 4d981 .cfa: $rsp 32 +
STACK CFI 4d983 .cfa: $rsp 40 +
STACK CFI 4d985 .cfa: $rsp 48 +
STACK CFI 4d987 .cfa: $rsp 56 +
STACK CFI 4d989 .cfa: $rsp 64 +
STACK CFI 4d98b .cfa: $rsp 72 +
STACK CFI 4d98d .cfa: $rsp 80 +
STACK CFI 4d98f .cfa: $rsp 88 +
STACK CFI 4d991 .cfa: $rsp 96 +
STACK CFI 4d995 .cfa: $rsp 104 +
STACK CFI 4d999 .cfa: $rsp 112 +
STACK CFI 4d9a2 .cfa: $rsp 8 +
STACK CFI INIT 4d9a3 2a .cfa: $rsp 8 + .ra: .cfa -8 + ^
STACK CFI 4d9a7 .cfa: $rsp 16 +
STACK CFI 4d9a9 .cfa: $rsp 24 +
STACK CFI 4d9ab .cfa: $rsp 32 +
STACK CFI 4d9ad .cfa: $rsp 40 +
STACK CFI 4d9af .cfa: $rsp 48 +
STACK CFI 4d9b1 .cfa: $rsp 56 +
STACK CFI 4d9b3 .cfa: $rsp 64 +
STACK CFI 4d9b5 .cfa: $rsp 72 +
STACK CFI 4d9b7 .cfa: $rsp 80 +
STACK CFI 4d9b9 .cfa: $rsp 88 +
STACK CFI 4d9bb .cfa: $rsp 96 +
STACK CFI 4d9bf .cfa: $rsp 104 +
STACK CFI 4d9c3 .cfa: $rsp 112 +
STACK CFI 4d9cc .cfa: $rsp 8 +
STACK CFI INIT 4d9cd 2a .cfa: $rsp 8 + .ra: .cfa -8 + ^
STACK CFI 4d9d1 .cfa: $rsp 16 +
STACK CFI 4d9d3 .cfa: $rsp 24 +
STACK CFI 4d9d5 .cfa: $rsp 32 +
STACK CFI 4d9d7 .cfa: $rsp 40 +
STACK CFI 4d9d9 .cfa: $rsp 48 +
STACK CFI 4d9db .cfa: $rsp 56 +
STACK CFI 4d9dd .cfa: $rsp 64 +
STACK CFI 4d9df .cfa: $rsp 72 +
STACK CFI 4d9e1 .cfa: $rsp 80 +
STACK CFI 4d9e3 .cfa: $rsp 88 +
STACK CFI 4d9e5 .cfa: $rsp 96 +
STACK CFI 4d9e9 .cfa: $rsp 104 +
STACK CFI 4d9ed .cfa: $rsp 112 +
STACK CFI 4d9f6 .cfa: $rsp 8 +
STACK CFI INIT 4d9f7 2a .cfa: $rsp 8 + .ra: .cfa -8 + ^
STACK CFI 4d9fb .cfa: $rsp 16 +
STACK CFI 4d9fd .cfa: $rsp 24 +
STACK CFI 4d9ff .cfa: $rsp 32 +
STACK CFI 4da01 .cfa: $rsp 40 +
STACK CFI 4da03 .cfa: $rsp 48 +
STACK CFI 4da05 .cfa: $rsp 56 +
STACK CFI 4da07 .cfa: $rsp 64 +
STACK CFI 4da09 .cfa: $rsp 72 +
STACK CFI 4da0b .cfa: $rsp 80 +
STACK CFI 4da0d .cfa: $rsp 88 +
STACK CFI 4da0f .cfa: $rsp 96 +
STACK CFI 4da13 .cfa: $rsp 104 +
STACK CFI 4da17 .cfa: $rsp 112 +
STACK CFI 4da20 .cfa: $rsp 8 +
STACK CFI INIT 4da21 2a .cfa: $rsp 8 + .ra: .cfa -8 + ^
STACK CFI 4da25 .cfa: $rsp 16 +
STACK CFI 4da27 .cfa: $rsp 24 +
STACK CFI 4da29 .cfa: $rsp 32 +
STACK CFI 4da2b .cfa: $rsp 40 +
STACK CFI 4da2d .cfa: $rsp 48 +
STACK CFI 4da2f .cfa: $rsp 56 +
STACK CFI 4da31 .cfa: $rsp 64 +
STACK CFI 4da33 .cfa: $rsp 72 +
STACK CFI 4da35 .cfa: $rsp 80 +
STACK CFI 4da37 .cfa: $rsp 88 +
STACK CFI 4da39 .cfa: $rsp 96 +
STACK CFI 4da3d .cfa: $rsp 104 +
STACK CFI 4da41 .cfa: $rsp 112 +
STACK CFI 4da4a .cfa: $rsp 8 +
STACK CFI INIT 4da4b 2a .cfa: $rsp 8 + .ra: .cfa -8 + ^
STACK CFI 4da4f .cfa: $rsp 16 +
STACK CFI 4da51 .cfa: $rsp 24 +
STACK CFI 4da53 .cfa: $rsp 32 +
STACK CFI 4da55 .cfa: $rsp 40 +
STACK CFI 4da57 .cfa: $rsp 48 +
STACK CFI 4da59 .cfa: $rsp 56 +
STACK CFI 4da5b .cfa: $rsp 64 +
STACK CFI 4da5d .cfa: $rsp 72 +
STACK CFI 4da5f .cfa: $rsp 80 +
STACK CFI 4da61 .cfa: $rsp 88 +
STACK CFI 4da63 .cfa: $rsp 96 +
STACK CFI 4da67 .cfa: $rsp 104 +
STACK CFI 4da6b .cfa: $rsp 112 +
STACK CFI 4da74 .cfa: $rsp 8 +
STACK CFI INIT 4da75 2a .cfa: $rsp 8 + .ra: .cfa -8 + ^
STACK CFI 4da79 .cfa: $rsp 16 +
STACK CFI 4da7b .cfa: $rsp 24 +
STACK CFI 4da7d .cfa: $rsp 32 +
STACK CFI 4da7f .cfa: $rsp 40 +
STACK CFI 4da81 .cfa: $rsp 48 +
STACK CFI 4da83 .cfa: $rsp 56 +
STACK CFI 4da85 .cfa: $rsp 64 +
STACK CFI 4da87 .cfa: $rsp 72 +
STACK CFI 4da89 .cfa: $rsp 80 +
STACK CFI 4da8b .cfa: $rsp 88 +
STACK CFI 4da8d .cfa: $rsp 96 +
STACK CFI 4da91 .cfa: $rsp 104 +
STACK CFI 4da95 .cfa: $rsp 112 +
STACK CFI 4da9e .cfa: $rsp 8 +
STACK CFI INIT 4da9f 2a .cfa: $rsp 8 + .ra: .cfa -8 + ^
STACK CFI 4daa3 .cfa: $rsp 16 +
STACK CFI 4daa5 .cfa: $rsp 24 +
STACK CFI 4daa7 .cfa: $rsp 32 +
STACK CFI 4daa9 .cfa: $rsp 40 +
STACK CFI 4daab .cfa: $rsp 48 +
STACK CFI 4daad .cfa: $rsp 56 +
STACK CFI 4daaf .cfa: $rsp 64 +
STACK CFI 4dab1 .cfa: $rsp 72 +
STACK CFI 4dab3 .cfa: $rsp 80 +
STACK CFI 4dab5 .cfa: $rsp 88 +
STACK CFI 4dab7 .cfa: $rsp 96 +
STACK CFI 4dabb .cfa: $rsp 104 +
STACK CFI 4dabf .cfa: $rsp 112 +
STACK CFI 4dac8 .cfa: $rsp 8 +
STACK CFI INIT 4dac9 2a .cfa: $rsp 8 + .ra: .cfa -8 + ^
STACK CFI 4dacd .cfa: $rsp 16 +
STACK CFI 4dacf .cfa: $rsp 24 +
STACK CFI 4dad1 .cfa: $rsp 32 +
STACK CFI 4dad3 .cfa: $rsp 40 +
STACK CFI 4dad5 .cfa: $rsp 48 +
STACK CFI 4dad7 .cfa: $rsp 56 +
STACK CFI 4dad9 .cfa: $rsp 64 +
STACK CFI 4dadb .cfa: $rsp 72 +
STACK CFI 4dadd .cfa: $rsp 80 +
STACK CFI 4dadf .cfa: $rsp 88 +
STACK CFI 4dae1 .cfa: $rsp 96 +
STACK CFI 4dae5 .cfa: $rsp 104 +
STACK CFI 4dae9 .cfa: $rsp 112 +
STACK CFI 4daf2 .cfa: $rsp 8 +
STACK CFI INIT 4daf3 2a .cfa: $rsp 8 + .ra: .cfa -8 + ^
STACK CFI 4daf7 .cfa: $rsp 16 +
STACK CFI 4daf9 .cfa: $rsp 24 +
STACK CFI 4dafb .cfa: $rsp 32 +
STACK CFI 4dafd .cfa: $rsp 40 +
STACK CFI 4daff .cfa: $rsp 48 +
STACK CFI 4db01 .cfa: $rsp 56 +
STACK CFI 4db03 .cfa: $rsp 64 +
STACK CFI 4db05 .cfa: $rsp 72 +
STACK CFI 4db07 .cfa: $rsp 80 +
STACK CFI 4db09 .cfa: $rsp 88 +
STACK CFI 4db0b .cfa: $rsp 96 +
STACK CFI 4db0f .cfa: $rsp 104 +
STACK CFI 4db13 .cfa: $rsp 112 +
STACK CFI 4db1c .cfa: $rsp 8 +
STACK CFI INIT 4db1d 2a .cfa: $rsp 8 + .ra: .cfa -8 + ^
STACK CFI 4db21 .cfa: $rsp 16 +
STACK CFI 4db23 .cfa: $rsp 24 +
STACK CFI 4db25 .cfa: $rsp 32 +
STACK CFI 4db27 .cfa: $rsp 40 +
STACK CFI 4db29 .cfa: $rsp 48 +
STACK CFI 4db2b .cfa: $rsp 56 +
STACK CFI 4db2d .cfa: $rsp 64 +
STACK CFI 4db2f .cfa: $rsp 72 +
STACK CFI 4db31 .cfa: $rsp 80 +
STACK CFI 4db33 .cfa: $rsp 88 +
STACK CFI 4db35 .cfa: $rsp 96 +
STACK CFI 4db39 .cfa: $rsp 104 +
STACK CFI 4db3d .cfa: $rsp 112 +
STACK CFI 4db46 .cfa: $rsp 8 +
STACK CFI INIT 4db47 2a .cfa: $rsp 8 + .ra: .cfa -8 + ^
STACK CFI 4db4b .cfa: $rsp 16 +
STACK CFI 4db4d .cfa: $rsp 24 +
STACK CFI 4db4f .cfa: $rsp 32 +
STACK CFI 4db51 .cfa: $rsp 40 +
STACK CFI 4db53 .cfa: $rsp 48 +
STACK CFI 4db55 .cfa: $rsp 56 +
STACK CFI 4db57 .cfa: $rsp 64 +
STACK CFI 4db59 .cfa: $rsp 72 +
STACK CFI 4db5b .cfa: $rsp 80 +
STACK CFI 4db5d .cfa: $rsp 88 +
STACK CFI 4db5f .cfa: $rsp 96 +
STACK CFI 4db63 .cfa: $rsp 104 +
STACK CFI 4db67 .cfa: $rsp 112 +
STACK CFI 4db70 .cfa: $rsp 8 +
STACK CFI INIT 4db71 2a .cfa: $rsp 8 + .ra: .cfa -8 + ^
STACK CFI 4db75 .cfa: $rsp 16 +
STACK CFI 4db77 .cfa: $rsp 24 +
STACK CFI 4db79 .cfa: $rsp 32 +
STACK CFI 4db7b .cfa: $rsp 40 +
STACK CFI 4db7d .cfa: $rsp 48 +
STACK CFI 4db7f .cfa: $rsp 56 +
STACK CFI 4db81 .cfa: $rsp 64 +
STACK CFI 4db83 .cfa: $rsp 72 +
STACK CFI 4db85 .cfa: $rsp 80 +
STACK CFI 4db87 .cfa: $rsp 88 +
STACK CFI 4db89 .cfa: $rsp 96 +
STACK CFI 4db8d .cfa: $rsp 104 +
STACK CFI 4db91 .cfa: $rsp 112 +
STACK CFI 4db9a .cfa: $rsp 8 +
STACK CFI INIT 4db9b 2a .cfa: $rsp 8 + .ra: .cfa -8 + ^
STACK CFI 4db9f .cfa: $rsp 16 +
STACK CFI 4dba1 .cfa: $rsp 24 +
STACK CFI 4dba3 .cfa: $rsp 32 +
STACK CFI 4dba5 .cfa: $rsp 40 +
STACK CFI 4dba7 .cfa: $rsp 48 +
STACK CFI 4dba9 .cfa: $rsp 56 +
STACK CFI 4dbab .cfa: $rsp 64 +
STACK CFI 4dbad .cfa: $rsp 72 +
STACK CFI 4dbaf .cfa: $rsp 80 +
STACK CFI 4dbb1 .cfa: $rsp 88 +
STACK CFI 4dbb3 .cfa: $rsp 96 +
STACK CFI 4dbb7 .cfa: $rsp 104 +
STACK CFI 4dbbb .cfa: $rsp 112 +
STACK CFI 4dbc4 .cfa: $rsp 8 +
STACK CFI INIT 4dbc5 2a .cfa: $rsp 8 + .ra: .cfa -8 + ^
STACK CFI 4dbc9 .cfa: $rsp 16 +
STACK CFI 4dbcb .cfa: $rsp 24 +
STACK CFI 4dbcd .cfa: $rsp 32 +
STACK CFI 4dbcf .cfa: $rsp 40 +
STACK CFI 4dbd1 .cfa: $rsp 48 +
STACK CFI 4dbd3 .cfa: $rsp 56 +
STACK CFI 4dbd5 .cfa: $rsp 64 +
STACK CFI 4dbd7 .cfa: $rsp 72 +
STACK CFI 4dbd9 .cfa: $rsp 80 +
STACK CFI 4dbdb .cfa: $rsp 88 +
STACK CFI 4dbdd .cfa: $rsp 96 +
STACK CFI 4dbe1 .cfa: $rsp 104 +
STACK CFI 4dbe5 .cfa: $rsp 112 +
STACK CFI 4dbee .cfa: $rsp 8 +
STACK CFI INIT 4dbef 2a .cfa: $rsp 8 + .ra: .cfa -8 + ^
STACK CFI 4dbf3 .cfa: $rsp 16 +
STACK CFI 4dbf5 .cfa: $rsp 24 +
STACK CFI 4dbf7 .cfa: $rsp 32 +
STACK CFI 4dbf9 .cfa: $rsp 40 +
STACK CFI 4dbfb .cfa: $rsp 48 +
STACK CFI 4dbfd .cfa: $rsp 56 +
STACK CFI 4dbff .cfa: $rsp 64 +
STACK CFI 4dc01 .cfa: $rsp 72 +
STACK CFI 4dc03 .cfa: $rsp 80 +
STACK CFI 4dc05 .cfa: $rsp 88 +
STACK CFI 4dc07 .cfa: $rsp 96 +
STACK CFI 4dc0b .cfa: $rsp 104 +
STACK CFI 4dc0f .cfa: $rsp 112 +
STACK CFI 4dc18 .cfa: $rsp 8 +
STACK CFI INIT 4dc19 2a .cfa: $rsp 8 + .ra: .cfa -8 + ^
STACK CFI 4dc1d .cfa: $rsp 16 +
STACK CFI 4dc1f .cfa: $rsp 24 +
STACK CFI 4dc21 .cfa: $rsp 32 +
STACK CFI 4dc23 .cfa: $rsp 40 +
STACK CFI 4dc25 .cfa: $rsp 48 +
STACK CFI 4dc27 .cfa: $rsp 56 +
STACK CFI 4dc29 .cfa: $rsp 64 +
STACK CFI 4dc2b .cfa: $rsp 72 +
STACK CFI 4dc2d .cfa: $rsp 80 +
STACK CFI 4dc2f .cfa: $rsp 88 +
STACK CFI 4dc31 .cfa: $rsp 96 +
STACK CFI 4dc35 .cfa: $rsp 104 +
STACK CFI 4dc39 .cfa: $rsp 112 +
STACK CFI 4dc42 .cfa: $rsp 8 +
STACK CFI INIT 4dc43 2a .cfa: $rsp 8 + .ra: .cfa -8 + ^
STACK CFI 4dc47 .cfa: $rsp 16 +
STACK CFI 4dc49 .cfa: $rsp 24 +
STACK CFI 4dc4b .cfa: $rsp 32 +
STACK CFI 4dc4d .cfa: $rsp 40 +
STACK CFI 4dc4f .cfa: $rsp 48 +
STACK CFI 4dc51 .cfa: $rsp 56 +
STACK CFI 4dc53 .cfa: $rsp 64 +
STACK CFI 4dc55 .cfa: $rsp 72 +
STACK CFI 4dc57 .cfa: $rsp 80 +
STACK CFI 4dc59 .cfa: $rsp 88 +
STACK CFI 4dc5b .cfa: $rsp 96 +
STACK CFI 4dc5f .cfa: $rsp 104 +
STACK CFI 4dc63 .cfa: $rsp 112 +
STACK CFI 4dc6c .cfa: $rsp 8 +
STACK CFI INIT 4dc6d 2a .cfa: $rsp 8 + .ra: .cfa -8 + ^
STACK CFI 4dc71 .cfa: $rsp 16 +
STACK CFI 4dc73 .cfa: $rsp 24 +
STACK CFI 4dc75 .cfa: $rsp 32 +
STACK CFI 4dc77 .cfa: $rsp 40 +
STACK CFI 4dc79 .cfa: $rsp 48 +
STACK CFI 4dc7b .cfa: $rsp 56 +
STACK CFI 4dc7d .cfa: $rsp 64 +
STACK CFI 4dc7f .cfa: $rsp 72 +
STACK CFI 4dc81 .cfa: $rsp 80 +
STACK CFI 4dc83 .cfa: $rsp 88 +
STACK CFI 4dc85 .cfa: $rsp 96 +
STACK CFI 4dc89 .cfa: $rsp 104 +
STACK CFI 4dc8d .cfa: $rsp 112 +
STACK CFI 4dc96 .cfa: $rsp 8 +
STACK CFI INIT 4dc97 2a .cfa: $rsp 8 + .ra: .cfa -8 + ^
STACK CFI 4dc9b .cfa: $rsp 16 +
STACK CFI 4dc9d .cfa: $rsp 24 +
STACK CFI 4dc9f .cfa: $rsp 32 +
STACK CFI 4dca1 .cfa: $rsp 40 +
STACK CFI 4dca3 .cfa: $rsp 48 +
STACK CFI 4dca5 .cfa: $rsp 56 +
STACK CFI 4dca7 .cfa: $rsp 64 +
STACK CFI 4dca9 .cfa: $rsp 72 +
STACK CFI 4dcab .cfa: $rsp 80 +
STACK CFI 4dcad .cfa: $rsp 88 +
STACK CFI 4dcaf .cfa: $rsp 96 +
STACK CFI 4dcb3 .cfa: $rsp 104 +
STACK CFI 4dcb7 .cfa: $rsp 112 +
STACK CFI 4dcc0 .cfa: $rsp 8 +
STACK CFI INIT 4dcc1 2a .cfa: $rsp 8 + .ra: .cfa -8 + ^
STACK CFI 4dcc5 .cfa: $rsp 16 +
STACK CFI 4dcc7 .cfa: $rsp 24 +
STACK CFI 4dcc9 .cfa: $rsp 32 +
STACK CFI 4dccb .cfa: $rsp 40 +
STACK CFI 4dccd .cfa: $rsp 48 +
STACK CFI 4dccf .cfa: $rsp 56 +
STACK CFI 4dcd1 .cfa: $rsp 64 +
STACK CFI 4dcd3 .cfa: $rsp 72 +
STACK CFI 4dcd5 .cfa: $rsp 80 +
STACK CFI 4dcd7 .cfa: $rsp 88 +
STACK CFI 4dcd9 .cfa: $rsp 96 +
STACK CFI 4dcdd .cfa: $rsp 104 +
STACK CFI 4dce1 .cfa: $rsp 112 +
STACK CFI 4dcea .cfa: $rsp 8 +
STACK CFI INIT 4dceb 2a .cfa: $rsp 8 + .ra: .cfa -8 + ^
STACK CFI 4dcef .cfa: $rsp 16 +
STACK CFI 4dcf1 .cfa: $rsp 24 +
STACK CFI 4dcf3 .cfa: $rsp 32 +
STACK CFI 4dcf5 .cfa: $rsp 40 +
STACK CFI 4dcf7 .cfa: $rsp 48 +
STACK CFI 4dcf9 .cfa: $rsp 56 +
STACK CFI 4dcfb .cfa: $rsp 64 +
STACK CFI 4dcfd .cfa: $rsp 72 +
STACK CFI 4dcff .cfa: $rsp 80 +
STACK CFI 4dd01 .cfa: $rsp 88 +
STACK CFI 4dd03 .cfa: $rsp 96 +
STACK CFI 4dd07 .cfa: $rsp 104 +
STACK CFI 4dd0b .cfa: $rsp 112 +
STACK CFI 4dd14 .cfa: $rsp 8 +
STACK CFI INIT 4dd15 2a .cfa: $rsp 8 + .ra: .cfa -8 + ^
STACK CFI 4dd19 .cfa: $rsp 16 +
STACK CFI 4dd1b .cfa: $rsp 24 +
STACK CFI 4dd1d .cfa: $rsp 32 +
STACK CFI 4dd1f .cfa: $rsp 40 +
STACK CFI 4dd21 .cfa: $rsp 48 +
STACK CFI 4dd23 .cfa: $rsp 56 +
STACK CFI 4dd25 .cfa: $rsp 64 +
STACK CFI 4dd27 .cfa: $rsp 72 +
STACK CFI 4dd29 .cfa: $rsp 80 +
STACK CFI 4dd2b .cfa: $rsp 88 +
STACK CFI 4dd2d .cfa: $rsp 96 +
STACK CFI 4dd31 .cfa: $rsp 104 +
STACK CFI 4dd35 .cfa: $rsp 112 +
STACK CFI 4dd3e .cfa: $rsp 8 +
STACK CFI INIT 4dd3f 2a .cfa: $rsp 8 + .ra: .cfa -8 + ^
STACK CFI 4dd43 .cfa: $rsp 16 +
STACK CFI 4dd45 .cfa: $rsp 24 +
STACK CFI 4dd47 .cfa: $rsp 32 +
STACK CFI 4dd49 .cfa: $rsp 40 +
STACK CFI 4dd4b .cfa: $rsp 48 +
STACK CFI 4dd4d .cfa: $rsp 56 +
STACK CFI 4dd4f .cfa: $rsp 64 +
STACK CFI 4dd51 .cfa: $rsp 72 +
STACK CFI 4dd53 .cfa: $rsp 80 +
STACK CFI 4dd55 .cfa: $rsp 88 +
STACK CFI 4dd57 .cfa: $rsp 96 +
STACK CFI 4dd5b .cfa: $rsp 104 +
STACK CFI 4dd5f .cfa: $rsp 112 +
STACK CFI 4dd68 .cfa: $rsp 8 +
STACK CFI INIT 4dd69 2a .cfa: $rsp 8 + .ra: .cfa -8 + ^
STACK CFI 4dd6d .cfa: $rsp 16 +
STACK CFI 4dd6f .cfa: $rsp 24 +
STACK CFI 4dd71 .cfa: $rsp 32 +
STACK CFI 4dd73 .cfa: $rsp 40 +
STACK CFI 4dd75 .cfa: $rsp 48 +
STACK CFI 4dd77 .cfa: $rsp 56 +
STACK CFI 4dd79 .cfa: $rsp 64 +
STACK CFI 4dd7b .cfa: $rsp 72 +
STACK CFI 4dd7d .cfa: $rsp 80 +
STACK CFI 4dd7f .cfa: $rsp 88 +
STACK CFI 4dd81 .cfa: $rsp 96 +
STACK CFI 4dd85 .cfa: $rsp 104 +
STACK CFI 4dd89 .cfa: $rsp 112 +
STACK CFI 4dd92 .cfa: $rsp 8 +
STACK CFI INIT 4dd93 2a .cfa: $rsp 8 + .ra: .cfa -8 + ^
STACK CFI 4dd97 .cfa: $rsp 16 +
STACK CFI 4dd99 .cfa: $rsp 24 +
STACK CFI 4dd9b .cfa: $rsp 32 +
STACK CFI 4dd9d .cfa: $rsp 40 +
STACK CFI 4dd9f .cfa: $rsp 48 +
STACK CFI 4dda1 .cfa: $rsp 56 +
STACK CFI 4dda3 .cfa: $rsp 64 +
STACK CFI 4dda5 .cfa: $rsp 72 +
STACK CFI 4dda7 .cfa: $rsp 80 +
STACK CFI 4dda9 .cfa: $rsp 88 +
STACK CFI 4ddab .cfa: $rsp 96 +
STACK CFI 4ddaf .cfa: $rsp 104 +
STACK CFI 4ddb3 .cfa: $rsp 112 +
STACK CFI 4ddbc .cfa: $rsp 8 +
STACK CFI INIT 4ddbd 2a .cfa: $rsp 8 + .ra: .cfa -8 + ^
STACK CFI 4ddc1 .cfa: $rsp 16 +
STACK CFI 4ddc3 .cfa: $rsp 24 +
STACK CFI 4ddc5 .cfa: $rsp 32 +
STACK CFI 4ddc7 .cfa: $rsp 40 +
STACK CFI 4ddc9 .cfa: $rsp 48 +
STACK CFI 4ddcb .cfa: $rsp 56 +
STACK CFI 4ddcd .cfa: $rsp 64 +
STACK CFI 4ddcf .cfa: $rsp 72 +
STACK CFI 4ddd1 .cfa: $rsp 80 +
STACK CFI 4ddd3 .cfa: $rsp 88 +
STACK CFI 4ddd5 .cfa: $rsp 96 +
STACK CFI 4ddd9 .cfa: $rsp 104 +
STACK CFI 4dddd .cfa: $rsp 112 +
STACK CFI 4dde6 .cfa: $rsp 8 +
STACK CFI INIT 4dde7 2a .cfa: $rsp 8 + .ra: .cfa -8 + ^
STACK CFI 4ddeb .cfa: $rsp 16 +
STACK CFI 4dded .cfa: $rsp 24 +
STACK CFI 4ddef .cfa: $rsp 32 +
STACK CFI 4ddf1 .cfa: $rsp 40 +
STACK CFI 4ddf3 .cfa: $rsp 48 +
STACK CFI 4ddf5 .cfa: $rsp 56 +
STACK CFI 4ddf7 .cfa: $rsp 64 +
STACK CFI 4ddf9 .cfa: $rsp 72 +
STACK CFI 4ddfb .cfa: $rsp 80 +
STACK CFI 4ddfd .cfa: $rsp 88 +
STACK CFI 4ddff .cfa: $rsp 96 +
STACK CFI 4de03 .cfa: $rsp 104 +
STACK CFI 4de07 .cfa: $rsp 112 +
STACK CFI 4de10 .cfa: $rsp 8 +
STACK CFI INIT 4de11 2a .cfa: $rsp 8 + .ra: .cfa -8 + ^
STACK CFI 4de15 .cfa: $rsp 16 +
STACK CFI 4de17 .cfa: $rsp 24 +
STACK CFI 4de19 .cfa: $rsp 32 +
STACK CFI 4de1b .cfa: $rsp 40 +
STACK CFI 4de1d .cfa: $rsp 48 +
STACK CFI 4de1f .cfa: $rsp 56 +
STACK CFI 4de21 .cfa: $rsp 64 +
STACK CFI 4de23 .cfa: $rsp 72 +
STACK CFI 4de25 .cfa: $rsp 80 +
STACK CFI 4de27 .cfa: $rsp 88 +
STACK CFI 4de29 .cfa: $rsp 96 +
STACK CFI 4de2d .cfa: $rsp 104 +
STACK CFI 4de31 .cfa: $rsp 112 +
STACK CFI 4de3a .cfa: $rsp 8 +
STACK CFI INIT 4de3b 2a .cfa: $rsp 8 + .ra: .cfa -8 + ^
STACK CFI 4de3f .cfa: $rsp 16 +
STACK CFI 4de41 .cfa: $rsp 24 +
STACK CFI 4de43 .cfa: $rsp 32 +
STACK CFI 4de45 .cfa: $rsp 40 +
STACK CFI 4de47 .cfa: $rsp 48 +
STACK CFI 4de49 .cfa: $rsp 56 +
STACK CFI 4de4b .cfa: $rsp 64 +
STACK CFI 4de4d .cfa: $rsp 72 +
STACK CFI 4de4f .cfa: $rsp 80 +
STACK CFI 4de51 .cfa: $rsp 88 +
STACK CFI 4de53 .cfa: $rsp 96 +
STACK CFI 4de57 .cfa: $rsp 104 +
STACK CFI 4de5b .cfa: $rsp 112 +
STACK CFI 4de64 .cfa: $rsp 8 +
STACK CFI INIT 4de65 2a .cfa: $rsp 8 + .ra: .cfa -8 + ^
STACK CFI 4de69 .cfa: $rsp 16 +
STACK CFI 4de6b .cfa: $rsp 24 +
STACK CFI 4de6d .cfa: $rsp 32 +
STACK CFI 4de6f .cfa: $rsp 40 +
STACK CFI 4de71 .cfa: $rsp 48 +
STACK CFI 4de73 .cfa: $rsp 56 +
STACK CFI 4de75 .cfa: $rsp 64 +
STACK CFI 4de77 .cfa: $rsp 72 +
STACK CFI 4de79 .cfa: $rsp 80 +
STACK CFI 4de7b .cfa: $rsp 88 +
STACK CFI 4de7d .cfa: $rsp 96 +
STACK CFI 4de81 .cfa: $rsp 104 +
STACK CFI 4de85 .cfa: $rsp 112 +
STACK CFI 4de8e .cfa: $rsp 8 +
STACK CFI INIT 4de8f 2a .cfa: $rsp 8 + .ra: .cfa -8 + ^
STACK CFI 4de93 .cfa: $rsp 16 +
STACK CFI 4de95 .cfa: $rsp 24 +
STACK CFI 4de97 .cfa: $rsp 32 +
STACK CFI 4de99 .cfa: $rsp 40 +
STACK CFI 4de9b .cfa: $rsp 48 +
STACK CFI 4de9d .cfa: $rsp 56 +
STACK CFI 4de9f .cfa: $rsp 64 +
STACK CFI 4dea1 .cfa: $rsp 72 +
STACK CFI 4dea3 .cfa: $rsp 80 +
STACK CFI 4dea5 .cfa: $rsp 88 +
STACK CFI 4dea7 .cfa: $rsp 96 +
STACK CFI 4deab .cfa: $rsp 104 +
STACK CFI 4deaf .cfa: $rsp 112 +
STACK CFI 4deb8 .cfa: $rsp 8 +
STACK CFI INIT 4deb9 2a .cfa: $rsp 8 + .ra: .cfa -8 + ^
STACK CFI 4debd .cfa: $rsp 16 +
STACK CFI 4debf .cfa: $rsp 24 +
STACK CFI 4dec1 .cfa: $rsp 32 +
STACK CFI 4dec3 .cfa: $rsp 40 +
STACK CFI 4dec5 .cfa: $rsp 48 +
STACK CFI 4dec7 .cfa: $rsp 56 +
STACK CFI 4dec9 .cfa: $rsp 64 +
STACK CFI 4decb .cfa: $rsp 72 +
STACK CFI 4decd .cfa: $rsp 80 +
STACK CFI 4decf .cfa: $rsp 88 +
STACK CFI 4ded1 .cfa: $rsp 96 +
STACK CFI 4ded5 .cfa: $rsp 104 +
STACK CFI 4ded9 .cfa: $rsp 112 +
STACK CFI 4dee2 .cfa: $rsp 8 +
STACK CFI INIT 4dee3 2a .cfa: $rsp 8 + .ra: .cfa -8 + ^
STACK CFI 4dee7 .cfa: $rsp 16 +
STACK CFI 4dee9 .cfa: $rsp 24 +
STACK CFI 4deeb .cfa: $rsp 32 +
STACK CFI 4deed .cfa: $rsp 40 +
STACK CFI 4deef .cfa: $rsp 48 +
STACK CFI 4def1 .cfa: $rsp 56 +
STACK CFI 4def3 .cfa: $rsp 64 +
STACK CFI 4def5 .cfa: $rsp 72 +
STACK CFI 4def7 .cfa: $rsp 80 +
STACK CFI 4def9 .cfa: $rsp 88 +
STACK CFI 4defb .cfa: $rsp 96 +
STACK CFI 4deff .cfa: $rsp 104 +
STACK CFI 4df03 .cfa: $rsp 112 +
STACK CFI 4df0c .cfa: $rsp 8 +
STACK CFI INIT 4df0d 2a .cfa: $rsp 8 + .ra: .cfa -8 + ^
STACK CFI 4df11 .cfa: $rsp 16 +
STACK CFI 4df13 .cfa: $rsp 24 +
STACK CFI 4df15 .cfa: $rsp 32 +
STACK CFI 4df17 .cfa: $rsp 40 +
STACK CFI 4df19 .cfa: $rsp 48 +
STACK CFI 4df1b .cfa: $rsp 56 +
STACK CFI 4df1d .cfa: $rsp 64 +
STACK CFI 4df1f .cfa: $rsp 72 +
STACK CFI 4df21 .cfa: $rsp 80 +
STACK CFI 4df23 .cfa: $rsp 88 +
STACK CFI 4df25 .cfa: $rsp 96 +
STACK CFI 4df29 .cfa: $rsp 104 +
STACK CFI 4df2d .cfa: $rsp 112 +
STACK CFI 4df36 .cfa: $rsp 8 +
STACK CFI INIT 4df37 2a .cfa: $rsp 8 + .ra: .cfa -8 + ^
STACK CFI 4df3b .cfa: $rsp 16 +
STACK CFI 4df3d .cfa: $rsp 24 +
STACK CFI 4df3f .cfa: $rsp 32 +
STACK CFI 4df41 .cfa: $rsp 40 +
STACK CFI 4df43 .cfa: $rsp 48 +
STACK CFI 4df45 .cfa: $rsp 56 +
STACK CFI 4df47 .cfa: $rsp 64 +
STACK CFI 4df49 .cfa: $rsp 72 +
STACK CFI 4df4b .cfa: $rsp 80 +
STACK CFI 4df4d .cfa: $rsp 88 +
STACK CFI 4df4f .cfa: $rsp 96 +
STACK CFI 4df53 .cfa: $rsp 104 +
STACK CFI 4df57 .cfa: $rsp 112 +
STACK CFI 4df60 .cfa: $rsp 8 +
STACK CFI INIT 4df61 1a .cfa: $rsp 8 + .ra: .cfa -8 + ^
STACK CFI 4df65 .cfa: $rsp 16 +
STACK CFI 4df67 .cfa: $rsp 24 +
STACK CFI 4df69 .cfa: $rsp 32 +
STACK CFI 4df6d .cfa: $rsp 40 +
STACK CFI 4df71 .cfa: $rsp 48 +
STACK CFI 4df7a .cfa: $rsp 8 +
STACK CFI INIT 4df7b 41 .cfa: $rsp 8 + .ra: .cfa -8 + ^
STACK CFI 4df7f .cfa: $rsp 24 +
STACK CFI 4df81 .cfa: $rsp 32 +
STACK CFI 4df83 .cfa: $rsp 40 +
STACK CFI 4df85 .cfa: $rsp 48 +
STACK CFI 4df87 .cfa: $rsp 56 +
STACK CFI 4df89 .cfa: $rsp 64 +
STACK CFI 4df8b .cfa: $rsp 72 +
STACK CFI 4df8d .cfa: $rsp 80 +
STACK CFI 4df8f .cfa: $rsp 88 +
STACK CFI 4df91 .cfa: $rsp 96 +
STACK CFI 4df93 .cfa: $rsp 104 +
STACK CFI 4df95 .cfa: $rsp 112 +
STACK CFI 4df97 .cfa: $rsp 120 +
STACK CFI 4df99 .cfa: $rsp 128 +
STACK CFI 4df9b .cfa: $rsp 136 +
STACK CFI 4df9d .cfa: $rsp 144 +
STACK CFI 4df9f .cfa: $rsp 152 +
STACK CFI 4dfa1 .cfa: $rsp 160 +
STACK CFI 4dfa8 .cfa: $rsp 168 +
STACK CFI 4dfaf .cfa: $rsp 176 +
STACK CFI 4dfbb .cfa: $rsp 8 +
STACK CFI INIT 4dfbc 41 .cfa: $rsp 8 + .ra: .cfa -8 + ^
STACK CFI 4dfc0 .cfa: $rsp 24 +
STACK CFI 4dfc2 .cfa: $rsp 32 +
STACK CFI 4dfc4 .cfa: $rsp 40 +
STACK CFI 4dfc6 .cfa: $rsp 48 +
STACK CFI 4dfc8 .cfa: $rsp 56 +
STACK CFI 4dfca .cfa: $rsp 64 +
STACK CFI 4dfcc .cfa: $rsp 72 +
STACK CFI 4dfce .cfa: $rsp 80 +
STACK CFI 4dfd0 .cfa: $rsp 88 +
STACK CFI 4dfd2 .cfa: $rsp 96 +
STACK CFI 4dfd4 .cfa: $rsp 104 +
STACK CFI 4dfd6 .cfa: $rsp 112 +
STACK CFI 4dfd8 .cfa: $rsp 120 +
STACK CFI 4dfda .cfa: $rsp 128 +
STACK CFI 4dfdc .cfa: $rsp 136 +
STACK CFI 4dfde .cfa: $rsp 144 +
STACK CFI 4dfe0 .cfa: $rsp 152 +
STACK CFI 4dfe2 .cfa: $rsp 160 +
STACK CFI 4dfe9 .cfa: $rsp 168 +
STACK CFI 4dff0 .cfa: $rsp 176 +
STACK CFI 4dffc .cfa: $rsp 8 +
STACK CFI INIT 4dffd 41 .cfa: $rsp 8 + .ra: .cfa -8 + ^
STACK CFI 4e001 .cfa: $rsp 24 +
STACK CFI 4e003 .cfa: $rsp 32 +
STACK CFI 4e005 .cfa: $rsp 40 +
STACK CFI 4e007 .cfa: $rsp 48 +
STACK CFI 4e009 .cfa: $rsp 56 +
STACK CFI 4e00b .cfa: $rsp 64 +
STACK CFI 4e00d .cfa: $rsp 72 +
STACK CFI 4e00f .cfa: $rsp 80 +
STACK CFI 4e011 .cfa: $rsp 88 +
STACK CFI 4e013 .cfa: $rsp 96 +
STACK CFI 4e015 .cfa: $rsp 104 +
STACK CFI 4e017 .cfa: $rsp 112 +
STACK CFI 4e019 .cfa: $rsp 120 +
STACK CFI 4e01b .cfa: $rsp 128 +
STACK CFI 4e01d .cfa: $rsp 136 +
STACK CFI 4e01f .cfa: $rsp 144 +
STACK CFI 4e021 .cfa: $rsp 152 +
STACK CFI 4e023 .cfa: $rsp 160 +
STACK CFI 4e02a .cfa: $rsp 168 +
STACK CFI 4e031 .cfa: $rsp 176 +
STACK CFI 4e03d .cfa: $rsp 8 +
STACK CFI INIT 4e03e 41 .cfa: $rsp 8 + .ra: .cfa -8 + ^
STACK CFI 4e042 .cfa: $rsp 24 +
STACK CFI 4e044 .cfa: $rsp 32 +
STACK CFI 4e046 .cfa: $rsp 40 +
STACK CFI 4e048 .cfa: $rsp 48 +
STACK CFI 4e04a .cfa: $rsp 56 +
STACK CFI 4e04c .cfa: $rsp 64 +
STACK CFI 4e04e .cfa: $rsp 72 +
STACK CFI 4e050 .cfa: $rsp 80 +
STACK CFI 4e052 .cfa: $rsp 88 +
STACK CFI 4e054 .cfa: $rsp 96 +
STACK CFI 4e056 .cfa: $rsp 104 +
STACK CFI 4e058 .cfa: $rsp 112 +
STACK CFI 4e05a .cfa: $rsp 120 +
STACK CFI 4e05c .cfa: $rsp 128 +
STACK CFI 4e05e .cfa: $rsp 136 +
STACK CFI 4e060 .cfa: $rsp 144 +
STACK CFI 4e062 .cfa: $rsp 152 +
STACK CFI 4e064 .cfa: $rsp 160 +
STACK CFI 4e06b .cfa: $rsp 168 +
STACK CFI 4e072 .cfa: $rsp 176 +
STACK CFI 4e07e .cfa: $rsp 8 +
STACK CFI INIT 4e07f 41 .cfa: $rsp 8 + .ra: .cfa -8 + ^
STACK CFI 4e083 .cfa: $rsp 24 +
STACK CFI 4e085 .cfa: $rsp 32 +
STACK CFI 4e087 .cfa: $rsp 40 +
STACK CFI 4e089 .cfa: $rsp 48 +
STACK CFI 4e08b .cfa: $rsp 56 +
STACK CFI 4e08d .cfa: $rsp 64 +
STACK CFI 4e08f .cfa: $rsp 72 +
STACK CFI 4e091 .cfa: $rsp 80 +
STACK CFI 4e093 .cfa: $rsp 88 +
STACK CFI 4e095 .cfa: $rsp 96 +
STACK CFI 4e097 .cfa: $rsp 104 +
STACK CFI 4e099 .cfa: $rsp 112 +
STACK CFI 4e09b .cfa: $rsp 120 +
STACK CFI 4e09d .cfa: $rsp 128 +
STACK CFI 4e09f .cfa: $rsp 136 +
STACK CFI 4e0a1 .cfa: $rsp 144 +
STACK CFI 4e0a3 .cfa: $rsp 152 +
STACK CFI 4e0a5 .cfa: $rsp 160 +
STACK CFI 4e0ac .cfa: $rsp 168 +
STACK CFI 4e0b3 .cfa: $rsp 176 +
STACK CFI 4e0bf .cfa: $rsp 8 +
STACK CFI INIT 4e0c0 41 .cfa: $rsp 8 + .ra: .cfa -8 + ^
STACK CFI 4e0c4 .cfa: $rsp 24 +
STACK CFI 4e0c6 .cfa: $rsp 32 +
STACK CFI 4e0c8 .cfa: $rsp 40 +
STACK CFI 4e0ca .cfa: $rsp 48 +
STACK CFI 4e0cc .cfa: $rsp 56 +
STACK CFI 4e0ce .cfa: $rsp 64 +
STACK CFI 4e0d0 .cfa: $rsp 72 +
STACK CFI 4e0d2 .cfa: $rsp 80 +
STACK CFI 4e0d4 .cfa: $rsp 88 +
STACK CFI 4e0d6 .cfa: $rsp 96 +
STACK CFI 4e0d8 .cfa: $rsp 104 +
STACK CFI 4e0da .cfa: $rsp 112 +
STACK CFI 4e0dc .cfa: $rsp 120 +
STACK CFI 4e0de .cfa: $rsp 128 +
STACK CFI 4e0e0 .cfa: $rsp 136 +
STACK CFI 4e0e2 .cfa: $rsp 144 +
STACK CFI 4e0e4 .cfa: $rsp 152 +
STACK CFI 4e0e6 .cfa: $rsp 160 +
STACK CFI 4e0ed .cfa: $rsp 168 +
STACK CFI 4e0f4 .cfa: $rsp 176 +
STACK CFI 4e100 .cfa: $rsp 8 +
STACK CFI INIT 4e101 41 .cfa: $rsp 8 + .ra: .cfa -8 + ^
STACK CFI 4e105 .cfa: $rsp 24 +
STACK CFI 4e107 .cfa: $rsp 32 +
STACK CFI 4e109 .cfa: $rsp 40 +
STACK CFI 4e10b .cfa: $rsp 48 +
STACK CFI 4e10d .cfa: $rsp 56 +
STACK CFI 4e10f .cfa: $rsp 64 +
STACK CFI 4e111 .cfa: $rsp 72 +
STACK CFI 4e113 .cfa: $rsp 80 +
STACK CFI 4e115 .cfa: $rsp 88 +
STACK CFI 4e117 .cfa: $rsp 96 +
STACK CFI 4e119 .cfa: $rsp 104 +
STACK CFI 4e11b .cfa: $rsp 112 +
STACK CFI 4e11d .cfa: $rsp 120 +
STACK CFI 4e11f .cfa: $rsp 128 +
STACK CFI 4e121 .cfa: $rsp 136 +
STACK CFI 4e123 .cfa: $rsp 144 +
STACK CFI 4e125 .cfa: $rsp 152 +
STACK CFI 4e127 .cfa: $rsp 160 +
STACK CFI 4e12e .cfa: $rsp 168 +
STACK CFI 4e135 .cfa: $rsp 176 +
STACK CFI 4e141 .cfa: $rsp 8 +
STACK CFI INIT 4e142 41 .cfa: $rsp 8 + .ra: .cfa -8 + ^
STACK CFI 4e146 .cfa: $rsp 24 +
STACK CFI 4e148 .cfa: $rsp 32 +
STACK CFI 4e14a .cfa: $rsp 40 +
STACK CFI 4e14c .cfa: $rsp 48 +
STACK CFI 4e14e .cfa: $rsp 56 +
STACK CFI 4e150 .cfa: $rsp 64 +
STACK CFI 4e152 .cfa: $rsp 72 +
STACK CFI 4e154 .cfa: $rsp 80 +
STACK CFI 4e156 .cfa: $rsp 88 +
STACK CFI 4e158 .cfa: $rsp 96 +
STACK CFI 4e15a .cfa: $rsp 104 +
STACK CFI 4e15c .cfa: $rsp 112 +
STACK CFI 4e15e .cfa: $rsp 120 +
STACK CFI 4e160 .cfa: $rsp 128 +
STACK CFI 4e162 .cfa: $rsp 136 +
STACK CFI 4e164 .cfa: $rsp 144 +
STACK CFI 4e166 .cfa: $rsp 152 +
STACK CFI 4e168 .cfa: $rsp 160 +
STACK CFI 4e16f .cfa: $rsp 168 +
STACK CFI 4e176 .cfa: $rsp 176 +
STACK CFI 4e182 .cfa: $rsp 8 +
STACK CFI INIT 4e183 41 .cfa: $rsp 8 + .ra: .cfa -8 + ^
STACK CFI 4e187 .cfa: $rsp 24 +
STACK CFI 4e189 .cfa: $rsp 32 +
STACK CFI 4e18b .cfa: $rsp 40 +
STACK CFI 4e18d .cfa: $rsp 48 +
STACK CFI 4e18f .cfa: $rsp 56 +
STACK CFI 4e191 .cfa: $rsp 64 +
STACK CFI 4e193 .cfa: $rsp 72 +
STACK CFI 4e195 .cfa: $rsp 80 +
STACK CFI 4e197 .cfa: $rsp 88 +
STACK CFI 4e199 .cfa: $rsp 96 +
STACK CFI 4e19b .cfa: $rsp 104 +
STACK CFI 4e19d .cfa: $rsp 112 +
STACK CFI 4e19f .cfa: $rsp 120 +
STACK CFI 4e1a1 .cfa: $rsp 128 +
STACK CFI 4e1a3 .cfa: $rsp 136 +
STACK CFI 4e1a5 .cfa: $rsp 144 +
STACK CFI 4e1a7 .cfa: $rsp 152 +
STACK CFI 4e1a9 .cfa: $rsp 160 +
STACK CFI 4e1b0 .cfa: $rsp 168 +
STACK CFI 4e1b7 .cfa: $rsp 176 +
STACK CFI 4e1c3 .cfa: $rsp 8 +
STACK CFI INIT 4e1c4 41 .cfa: $rsp 8 + .ra: .cfa -8 + ^
STACK CFI 4e1c8 .cfa: $rsp 24 +
STACK CFI 4e1ca .cfa: $rsp 32 +
STACK CFI 4e1cc .cfa: $rsp 40 +
STACK CFI 4e1ce .cfa: $rsp 48 +
STACK CFI 4e1d0 .cfa: $rsp 56 +
STACK CFI 4e1d2 .cfa: $rsp 64 +
STACK CFI 4e1d4 .cfa: $rsp 72 +
STACK CFI 4e1d6 .cfa: $rsp 80 +
STACK CFI 4e1d8 .cfa: $rsp 88 +
STACK CFI 4e1da .cfa: $rsp 96 +
STACK CFI 4e1dc .cfa: $rsp 104 +
STACK CFI 4e1de .cfa: $rsp 112 +
STACK CFI 4e1e0 .cfa: $rsp 120 +
STACK CFI 4e1e2 .cfa: $rsp 128 +
STACK CFI 4e1e4 .cfa: $rsp 136 +
STACK CFI 4e1e6 .cfa: $rsp 144 +
STACK CFI 4e1e8 .cfa: $rsp 152 +
STACK CFI 4e1ea .cfa: $rsp 160 +
STACK CFI 4e1f1 .cfa: $rsp 168 +
STACK CFI 4e1f8 .cfa: $rsp 176 +
STACK CFI 4e204 .cfa: $rsp 8 +
STACK CFI INIT 4e205 41 .cfa: $rsp 8 + .ra: .cfa -8 + ^
STACK CFI 4e209 .cfa: $rsp 24 +
STACK CFI 4e20b .cfa: $rsp 32 +
STACK CFI 4e20d .cfa: $rsp 40 +
STACK CFI 4e20f .cfa: $rsp 48 +
STACK CFI 4e211 .cfa: $rsp 56 +
STACK CFI 4e213 .cfa: $rsp 64 +
STACK CFI 4e215 .cfa: $rsp 72 +
STACK CFI 4e217 .cfa: $rsp 80 +
STACK CFI 4e219 .cfa: $rsp 88 +
STACK CFI 4e21b .cfa: $rsp 96 +
STACK CFI 4e21d .cfa: $rsp 104 +
STACK CFI 4e21f .cfa: $rsp 112 +
STACK CFI 4e221 .cfa: $rsp 120 +
STACK CFI 4e223 .cfa: $rsp 128 +
STACK CFI 4e225 .cfa: $rsp 136 +
STACK CFI 4e227 .cfa: $rsp 144 +
STACK CFI 4e229 .cfa: $rsp 152 +
STACK CFI 4e22b .cfa: $rsp 160 +
STACK CFI 4e232 .cfa: $rsp 168 +
STACK CFI 4e239 .cfa: $rsp 176 +
STACK CFI 4e245 .cfa: $rsp 8 +
STACK CFI INIT 4e246 41 .cfa: $rsp 8 + .ra: .cfa -8 + ^
STACK CFI 4e24a .cfa: $rsp 24 +
STACK CFI 4e24c .cfa: $rsp 32 +
STACK CFI 4e24e .cfa: $rsp 40 +
STACK CFI 4e250 .cfa: $rsp 48 +
STACK CFI 4e252 .cfa: $rsp 56 +
STACK CFI 4e254 .cfa: $rsp 64 +
STACK CFI 4e256 .cfa: $rsp 72 +
STACK CFI 4e258 .cfa: $rsp 80 +
STACK CFI 4e25a .cfa: $rsp 88 +
STACK CFI 4e25c .cfa: $rsp 96 +
STACK CFI 4e25e .cfa: $rsp 104 +
STACK CFI 4e260 .cfa: $rsp 112 +
STACK CFI 4e262 .cfa: $rsp 120 +
STACK CFI 4e264 .cfa: $rsp 128 +
STACK CFI 4e266 .cfa: $rsp 136 +
STACK CFI 4e268 .cfa: $rsp 144 +
STACK CFI 4e26a .cfa: $rsp 152 +
STACK CFI 4e26c .cfa: $rsp 160 +
STACK CFI 4e273 .cfa: $rsp 168 +
STACK CFI 4e27a .cfa: $rsp 176 +
STACK CFI 4e286 .cfa: $rsp 8 +
STACK CFI INIT 4e287 41 .cfa: $rsp 8 + .ra: .cfa -8 + ^
STACK CFI 4e28b .cfa: $rsp 24 +
STACK CFI 4e28d .cfa: $rsp 32 +
STACK CFI 4e28f .cfa: $rsp 40 +
STACK CFI 4e291 .cfa: $rsp 48 +
STACK CFI 4e293 .cfa: $rsp 56 +
STACK CFI 4e295 .cfa: $rsp 64 +
STACK CFI 4e297 .cfa: $rsp 72 +
STACK CFI 4e299 .cfa: $rsp 80 +
STACK CFI 4e29b .cfa: $rsp 88 +
STACK CFI 4e29d .cfa: $rsp 96 +
STACK CFI 4e29f .cfa: $rsp 104 +
STACK CFI 4e2a1 .cfa: $rsp 112 +
STACK CFI 4e2a3 .cfa: $rsp 120 +
STACK CFI 4e2a5 .cfa: $rsp 128 +
STACK CFI 4e2a7 .cfa: $rsp 136 +
STACK CFI 4e2a9 .cfa: $rsp 144 +
STACK CFI 4e2ab .cfa: $rsp 152 +
STACK CFI 4e2ad .cfa: $rsp 160 +
STACK CFI 4e2b4 .cfa: $rsp 168 +
STACK CFI 4e2bb .cfa: $rsp 176 +
STACK CFI 4e2c7 .cfa: $rsp 8 +
STACK CFI INIT 4e2c8 41 .cfa: $rsp 8 + .ra: .cfa -8 + ^
STACK CFI 4e2cc .cfa: $rsp 24 +
STACK CFI 4e2ce .cfa: $rsp 32 +
STACK CFI 4e2d0 .cfa: $rsp 40 +
STACK CFI 4e2d2 .cfa: $rsp 48 +
STACK CFI 4e2d4 .cfa: $rsp 56 +
STACK CFI 4e2d6 .cfa: $rsp 64 +
STACK CFI 4e2d8 .cfa: $rsp 72 +
STACK CFI 4e2da .cfa: $rsp 80 +
STACK CFI 4e2dc .cfa: $rsp 88 +
STACK CFI 4e2de .cfa: $rsp 96 +
STACK CFI 4e2e0 .cfa: $rsp 104 +
STACK CFI 4e2e2 .cfa: $rsp 112 +
STACK CFI 4e2e4 .cfa: $rsp 120 +
STACK CFI 4e2e6 .cfa: $rsp 128 +
STACK CFI 4e2e8 .cfa: $rsp 136 +
STACK CFI 4e2ea .cfa: $rsp 144 +
STACK CFI 4e2ec .cfa: $rsp 152 +
STACK CFI 4e2ee .cfa: $rsp 160 +
STACK CFI 4e2f5 .cfa: $rsp 168 +
STACK CFI 4e2fc .cfa: $rsp 176 +
STACK CFI 4e308 .cfa: $rsp 8 +
STACK CFI INIT 4e309 41 .cfa: $rsp 8 + .ra: .cfa -8 + ^
STACK CFI 4e30d .cfa: $rsp 24 +
STACK CFI 4e30f .cfa: $rsp 32 +
STACK CFI 4e311 .cfa: $rsp 40 +
STACK CFI 4e313 .cfa: $rsp 48 +
STACK CFI 4e315 .cfa: $rsp 56 +
STACK CFI 4e317 .cfa: $rsp 64 +
STACK CFI 4e319 .cfa: $rsp 72 +
STACK CFI 4e31b .cfa: $rsp 80 +
STACK CFI 4e31d .cfa: $rsp 88 +
STACK CFI 4e31f .cfa: $rsp 96 +
STACK CFI 4e321 .cfa: $rsp 104 +
STACK CFI 4e323 .cfa: $rsp 112 +
STACK CFI 4e325 .cfa: $rsp 120 +
STACK CFI 4e327 .cfa: $rsp 128 +
STACK CFI 4e329 .cfa: $rsp 136 +
STACK CFI 4e32b .cfa: $rsp 144 +
STACK CFI 4e32d .cfa: $rsp 152 +
STACK CFI 4e32f .cfa: $rsp 160 +
STACK CFI 4e336 .cfa: $rsp 168 +
STACK CFI 4e33d .cfa: $rsp 176 +
STACK CFI 4e349 .cfa: $rsp 8 +
STACK CFI INIT 4e34a 41 .cfa: $rsp 8 + .ra: .cfa -8 + ^
STACK CFI 4e34e .cfa: $rsp 24 +
STACK CFI 4e350 .cfa: $rsp 32 +
STACK CFI 4e352 .cfa: $rsp 40 +
STACK CFI 4e354 .cfa: $rsp 48 +
STACK CFI 4e356 .cfa: $rsp 56 +
STACK CFI 4e358 .cfa: $rsp 64 +
STACK CFI 4e35a .cfa: $rsp 72 +
STACK CFI 4e35c .cfa: $rsp 80 +
STACK CFI 4e35e .cfa: $rsp 88 +
STACK CFI 4e360 .cfa: $rsp 96 +
STACK CFI 4e362 .cfa: $rsp 104 +
STACK CFI 4e364 .cfa: $rsp 112 +
STACK CFI 4e366 .cfa: $rsp 120 +
STACK CFI 4e368 .cfa: $rsp 128 +
STACK CFI 4e36a .cfa: $rsp 136 +
STACK CFI 4e36c .cfa: $rsp 144 +
STACK CFI 4e36e .cfa: $rsp 152 +
STACK CFI 4e370 .cfa: $rsp 160 +
STACK CFI 4e377 .cfa: $rsp 168 +
STACK CFI 4e37e .cfa: $rsp 176 +
STACK CFI 4e38a .cfa: $rsp 8 +
STACK CFI INIT 4e38b 41 .cfa: $rsp 8 + .ra: .cfa -8 + ^
STACK CFI 4e38f .cfa: $rsp 24 +
STACK CFI 4e391 .cfa: $rsp 32 +
STACK CFI 4e393 .cfa: $rsp 40 +
STACK CFI 4e395 .cfa: $rsp 48 +
STACK CFI 4e397 .cfa: $rsp 56 +
STACK CFI 4e399 .cfa: $rsp 64 +
STACK CFI 4e39b .cfa: $rsp 72 +
STACK CFI 4e39d .cfa: $rsp 80 +
STACK CFI 4e39f .cfa: $rsp 88 +
STACK CFI 4e3a1 .cfa: $rsp 96 +
STACK CFI 4e3a3 .cfa: $rsp 104 +
STACK CFI 4e3a5 .cfa: $rsp 112 +
STACK CFI 4e3a7 .cfa: $rsp 120 +
STACK CFI 4e3a9 .cfa: $rsp 128 +
STACK CFI 4e3ab .cfa: $rsp 136 +
STACK CFI 4e3ad .cfa: $rsp 144 +
STACK CFI 4e3af .cfa: $rsp 152 +
STACK CFI 4e3b1 .cfa: $rsp 160 +
STACK CFI 4e3b8 .cfa: $rsp 168 +
STACK CFI 4e3bf .cfa: $rsp 176 +
STACK CFI 4e3cb .cfa: $rsp 8 +
STACK CFI INIT 4e3cc 41 .cfa: $rsp 8 + .ra: .cfa -8 + ^
STACK CFI 4e3d0 .cfa: $rsp 24 +
STACK CFI 4e3d2 .cfa: $rsp 32 +
STACK CFI 4e3d4 .cfa: $rsp 40 +
STACK CFI 4e3d6 .cfa: $rsp 48 +
STACK CFI 4e3d8 .cfa: $rsp 56 +
STACK CFI 4e3da .cfa: $rsp 64 +
STACK CFI 4e3dc .cfa: $rsp 72 +
STACK CFI 4e3de .cfa: $rsp 80 +
STACK CFI 4e3e0 .cfa: $rsp 88 +
STACK CFI 4e3e2 .cfa: $rsp 96 +
STACK CFI 4e3e4 .cfa: $rsp 104 +
STACK CFI 4e3e6 .cfa: $rsp 112 +
STACK CFI 4e3e8 .cfa: $rsp 120 +
STACK CFI 4e3ea .cfa: $rsp 128 +
STACK CFI 4e3ec .cfa: $rsp 136 +
STACK CFI 4e3ee .cfa: $rsp 144 +
STACK CFI 4e3f0 .cfa: $rsp 152 +
STACK CFI 4e3f2 .cfa: $rsp 160 +
STACK CFI 4e3f9 .cfa: $rsp 168 +
STACK CFI 4e400 .cfa: $rsp 176 +
STACK CFI 4e40c .cfa: $rsp 8 +
STACK CFI INIT 4e40d 41 .cfa: $rsp 8 + .ra: .cfa -8 + ^
STACK CFI 4e411 .cfa: $rsp 24 +
STACK CFI 4e413 .cfa: $rsp 32 +
STACK CFI 4e415 .cfa: $rsp 40 +
STACK CFI 4e417 .cfa: $rsp 48 +
STACK CFI 4e419 .cfa: $rsp 56 +
STACK CFI 4e41b .cfa: $rsp 64 +
STACK CFI 4e41d .cfa: $rsp 72 +
STACK CFI 4e41f .cfa: $rsp 80 +
STACK CFI 4e421 .cfa: $rsp 88 +
STACK CFI 4e423 .cfa: $rsp 96 +
STACK CFI 4e425 .cfa: $rsp 104 +
STACK CFI 4e427 .cfa: $rsp 112 +
STACK CFI 4e429 .cfa: $rsp 120 +
STACK CFI 4e42b .cfa: $rsp 128 +
STACK CFI 4e42d .cfa: $rsp 136 +
STACK CFI 4e42f .cfa: $rsp 144 +
STACK CFI 4e431 .cfa: $rsp 152 +
STACK CFI 4e433 .cfa: $rsp 160 +
STACK CFI 4e43a .cfa: $rsp 168 +
STACK CFI 4e441 .cfa: $rsp 176 +
STACK CFI 4e44d .cfa: $rsp 8 +
STACK CFI INIT 4e44e 41 .cfa: $rsp 8 + .ra: .cfa -8 + ^
STACK CFI 4e452 .cfa: $rsp 24 +
STACK CFI 4e454 .cfa: $rsp 32 +
STACK CFI 4e456 .cfa: $rsp 40 +
STACK CFI 4e458 .cfa: $rsp 48 +
STACK CFI 4e45a .cfa: $rsp 56 +
STACK CFI 4e45c .cfa: $rsp 64 +
STACK CFI 4e45e .cfa: $rsp 72 +
STACK CFI 4e460 .cfa: $rsp 80 +
STACK CFI 4e462 .cfa: $rsp 88 +
STACK CFI 4e464 .cfa: $rsp 96 +
STACK CFI 4e466 .cfa: $rsp 104 +
STACK CFI 4e468 .cfa: $rsp 112 +
STACK CFI 4e46a .cfa: $rsp 120 +
STACK CFI 4e46c .cfa: $rsp 128 +
STACK CFI 4e46e .cfa: $rsp 136 +
STACK CFI 4e470 .cfa: $rsp 144 +
STACK CFI 4e472 .cfa: $rsp 152 +
STACK CFI 4e474 .cfa: $rsp 160 +
STACK CFI 4e47b .cfa: $rsp 168 +
STACK CFI 4e482 .cfa: $rsp 176 +
STACK CFI 4e48e .cfa: $rsp 8 +
STACK CFI INIT 4e48f 41 .cfa: $rsp 8 + .ra: .cfa -8 + ^
STACK CFI 4e493 .cfa: $rsp 24 +
STACK CFI 4e495 .cfa: $rsp 32 +
STACK CFI 4e497 .cfa: $rsp 40 +
STACK CFI 4e499 .cfa: $rsp 48 +
STACK CFI 4e49b .cfa: $rsp 56 +
STACK CFI 4e49d .cfa: $rsp 64 +
STACK CFI 4e49f .cfa: $rsp 72 +
STACK CFI 4e4a1 .cfa: $rsp 80 +
STACK CFI 4e4a3 .cfa: $rsp 88 +
STACK CFI 4e4a5 .cfa: $rsp 96 +
STACK CFI 4e4a7 .cfa: $rsp 104 +
STACK CFI 4e4a9 .cfa: $rsp 112 +
STACK CFI 4e4ab .cfa: $rsp 120 +
STACK CFI 4e4ad .cfa: $rsp 128 +
STACK CFI 4e4af .cfa: $rsp 136 +
STACK CFI 4e4b1 .cfa: $rsp 144 +
STACK CFI 4e4b3 .cfa: $rsp 152 +
STACK CFI 4e4b5 .cfa: $rsp 160 +
STACK CFI 4e4bc .cfa: $rsp 168 +
STACK CFI 4e4c3 .cfa: $rsp 176 +
STACK CFI 4e4cf .cfa: $rsp 8 +
STACK CFI INIT 4e4d0 41 .cfa: $rsp 8 + .ra: .cfa -8 + ^
STACK CFI 4e4d4 .cfa: $rsp 24 +
STACK CFI 4e4d6 .cfa: $rsp 32 +
STACK CFI 4e4d8 .cfa: $rsp 40 +
STACK CFI 4e4da .cfa: $rsp 48 +
STACK CFI 4e4dc .cfa: $rsp 56 +
STACK CFI 4e4de .cfa: $rsp 64 +
STACK CFI 4e4e0 .cfa: $rsp 72 +
STACK CFI 4e4e2 .cfa: $rsp 80 +
STACK CFI 4e4e4 .cfa: $rsp 88 +
STACK CFI 4e4e6 .cfa: $rsp 96 +
STACK CFI 4e4e8 .cfa: $rsp 104 +
STACK CFI 4e4ea .cfa: $rsp 112 +
STACK CFI 4e4ec .cfa: $rsp 120 +
STACK CFI 4e4ee .cfa: $rsp 128 +
STACK CFI 4e4f0 .cfa: $rsp 136 +
STACK CFI 4e4f2 .cfa: $rsp 144 +
STACK CFI 4e4f4 .cfa: $rsp 152 +
STACK CFI 4e4f6 .cfa: $rsp 160 +
STACK CFI 4e4fd .cfa: $rsp 168 +
STACK CFI 4e504 .cfa: $rsp 176 +
STACK CFI 4e510 .cfa: $rsp 8 +
STACK CFI INIT 4e511 41 .cfa: $rsp 8 + .ra: .cfa -8 + ^
STACK CFI 4e515 .cfa: $rsp 24 +
STACK CFI 4e517 .cfa: $rsp 32 +
STACK CFI 4e519 .cfa: $rsp 40 +
STACK CFI 4e51b .cfa: $rsp 48 +
STACK CFI 4e51d .cfa: $rsp 56 +
STACK CFI 4e51f .cfa: $rsp 64 +
STACK CFI 4e521 .cfa: $rsp 72 +
STACK CFI 4e523 .cfa: $rsp 80 +
STACK CFI 4e525 .cfa: $rsp 88 +
STACK CFI 4e527 .cfa: $rsp 96 +
STACK CFI 4e529 .cfa: $rsp 104 +
STACK CFI 4e52b .cfa: $rsp 112 +
STACK CFI 4e52d .cfa: $rsp 120 +
STACK CFI 4e52f .cfa: $rsp 128 +
STACK CFI 4e531 .cfa: $rsp 136 +
STACK CFI 4e533 .cfa: $rsp 144 +
STACK CFI 4e535 .cfa: $rsp 152 +
STACK CFI 4e537 .cfa: $rsp 160 +
STACK CFI 4e53e .cfa: $rsp 168 +
STACK CFI 4e545 .cfa: $rsp 176 +
STACK CFI 4e551 .cfa: $rsp 8 +
STACK CFI INIT 4e552 41 .cfa: $rsp 8 + .ra: .cfa -8 + ^
STACK CFI 4e556 .cfa: $rsp 24 +
STACK CFI 4e558 .cfa: $rsp 32 +
STACK CFI 4e55a .cfa: $rsp 40 +
STACK CFI 4e55c .cfa: $rsp 48 +
STACK CFI 4e55e .cfa: $rsp 56 +
STACK CFI 4e560 .cfa: $rsp 64 +
STACK CFI 4e562 .cfa: $rsp 72 +
STACK CFI 4e564 .cfa: $rsp 80 +
STACK CFI 4e566 .cfa: $rsp 88 +
STACK CFI 4e568 .cfa: $rsp 96 +
STACK CFI 4e56a .cfa: $rsp 104 +
STACK CFI 4e56c .cfa: $rsp 112 +
STACK CFI 4e56e .cfa: $rsp 120 +
STACK CFI 4e570 .cfa: $rsp 128 +
STACK CFI 4e572 .cfa: $rsp 136 +
STACK CFI 4e574 .cfa: $rsp 144 +
STACK CFI 4e576 .cfa: $rsp 152 +
STACK CFI 4e578 .cfa: $rsp 160 +
STACK CFI 4e57f .cfa: $rsp 168 +
STACK CFI 4e586 .cfa: $rsp 176 +
STACK CFI 4e592 .cfa: $rsp 8 +
STACK CFI INIT 4e593 41 .cfa: $rsp 8 + .ra: .cfa -8 + ^
STACK CFI 4e597 .cfa: $rsp 24 +
STACK CFI 4e599 .cfa: $rsp 32 +
STACK CFI 4e59b .cfa: $rsp 40 +
STACK CFI 4e59d .cfa: $rsp 48 +
STACK CFI 4e59f .cfa: $rsp 56 +
STACK CFI 4e5a1 .cfa: $rsp 64 +
STACK CFI 4e5a3 .cfa: $rsp 72 +
STACK CFI 4e5a5 .cfa: $rsp 80 +
STACK CFI 4e5a7 .cfa: $rsp 88 +
STACK CFI 4e5a9 .cfa: $rsp 96 +
STACK CFI 4e5ab .cfa: $rsp 104 +
STACK CFI 4e5ad .cfa: $rsp 112 +
STACK CFI 4e5af .cfa: $rsp 120 +
STACK CFI 4e5b1 .cfa: $rsp 128 +
STACK CFI 4e5b3 .cfa: $rsp 136 +
STACK CFI 4e5b5 .cfa: $rsp 144 +
STACK CFI 4e5b7 .cfa: $rsp 152 +
STACK CFI 4e5b9 .cfa: $rsp 160 +
STACK CFI 4e5c0 .cfa: $rsp 168 +
STACK CFI 4e5c7 .cfa: $rsp 176 +
STACK CFI 4e5d3 .cfa: $rsp 8 +
STACK CFI INIT 4e5d4 41 .cfa: $rsp 8 + .ra: .cfa -8 + ^
STACK CFI 4e5d8 .cfa: $rsp 24 +
STACK CFI 4e5da .cfa: $rsp 32 +
STACK CFI 4e5dc .cfa: $rsp 40 +
STACK CFI 4e5de .cfa: $rsp 48 +
STACK CFI 4e5e0 .cfa: $rsp 56 +
STACK CFI 4e5e2 .cfa: $rsp 64 +
STACK CFI 4e5e4 .cfa: $rsp 72 +
STACK CFI 4e5e6 .cfa: $rsp 80 +
STACK CFI 4e5e8 .cfa: $rsp 88 +
STACK CFI 4e5ea .cfa: $rsp 96 +
STACK CFI 4e5ec .cfa: $rsp 104 +
STACK CFI 4e5ee .cfa: $rsp 112 +
STACK CFI 4e5f0 .cfa: $rsp 120 +
STACK CFI 4e5f2 .cfa: $rsp 128 +
STACK CFI 4e5f4 .cfa: $rsp 136 +
STACK CFI 4e5f6 .cfa: $rsp 144 +
STACK CFI 4e5f8 .cfa: $rsp 152 +
STACK CFI 4e5fa .cfa: $rsp 160 +
STACK CFI 4e601 .cfa: $rsp 168 +
STACK CFI 4e608 .cfa: $rsp 176 +
STACK CFI 4e614 .cfa: $rsp 8 +
STACK CFI INIT 4e615 41 .cfa: $rsp 8 + .ra: .cfa -8 + ^
STACK CFI 4e619 .cfa: $rsp 24 +
STACK CFI 4e61b .cfa: $rsp 32 +
STACK CFI 4e61d .cfa: $rsp 40 +
STACK CFI 4e61f .cfa: $rsp 48 +
STACK CFI 4e621 .cfa: $rsp 56 +
STACK CFI 4e623 .cfa: $rsp 64 +
STACK CFI 4e625 .cfa: $rsp 72 +
STACK CFI 4e627 .cfa: $rsp 80 +
STACK CFI 4e629 .cfa: $rsp 88 +
STACK CFI 4e62b .cfa: $rsp 96 +
STACK CFI 4e62d .cfa: $rsp 104 +
STACK CFI 4e62f .cfa: $rsp 112 +
STACK CFI 4e631 .cfa: $rsp 120 +
STACK CFI 4e633 .cfa: $rsp 128 +
STACK CFI 4e635 .cfa: $rsp 136 +
STACK CFI 4e637 .cfa: $rsp 144 +
STACK CFI 4e639 .cfa: $rsp 152 +
STACK CFI 4e63b .cfa: $rsp 160 +
STACK CFI 4e642 .cfa: $rsp 168 +
STACK CFI 4e649 .cfa: $rsp 176 +
STACK CFI 4e655 .cfa: $rsp 8 +
STACK CFI INIT 4e656 41 .cfa: $rsp 8 + .ra: .cfa -8 + ^
STACK CFI 4e65a .cfa: $rsp 24 +
STACK CFI 4e65c .cfa: $rsp 32 +
STACK CFI 4e65e .cfa: $rsp 40 +
STACK CFI 4e660 .cfa: $rsp 48 +
STACK CFI 4e662 .cfa: $rsp 56 +
STACK CFI 4e664 .cfa: $rsp 64 +
STACK CFI 4e666 .cfa: $rsp 72 +
STACK CFI 4e668 .cfa: $rsp 80 +
STACK CFI 4e66a .cfa: $rsp 88 +
STACK CFI 4e66c .cfa: $rsp 96 +
STACK CFI 4e66e .cfa: $rsp 104 +
STACK CFI 4e670 .cfa: $rsp 112 +
STACK CFI 4e672 .cfa: $rsp 120 +
STACK CFI 4e674 .cfa: $rsp 128 +
STACK CFI 4e676 .cfa: $rsp 136 +
STACK CFI 4e678 .cfa: $rsp 144 +
STACK CFI 4e67a .cfa: $rsp 152 +
STACK CFI 4e67c .cfa: $rsp 160 +
STACK CFI 4e683 .cfa: $rsp 168 +
STACK CFI 4e68a .cfa: $rsp 176 +
STACK CFI 4e696 .cfa: $rsp 8 +
STACK CFI INIT 4e697 41 .cfa: $rsp 8 + .ra: .cfa -8 + ^
STACK CFI 4e69b .cfa: $rsp 24 +
STACK CFI 4e69d .cfa: $rsp 32 +
STACK CFI 4e69f .cfa: $rsp 40 +
STACK CFI 4e6a1 .cfa: $rsp 48 +
STACK CFI 4e6a3 .cfa: $rsp 56 +
STACK CFI 4e6a5 .cfa: $rsp 64 +
STACK CFI 4e6a7 .cfa: $rsp 72 +
STACK CFI 4e6a9 .cfa: $rsp 80 +
STACK CFI 4e6ab .cfa: $rsp 88 +
STACK CFI 4e6ad .cfa: $rsp 96 +
STACK CFI 4e6af .cfa: $rsp 104 +
STACK CFI 4e6b1 .cfa: $rsp 112 +
STACK CFI 4e6b3 .cfa: $rsp 120 +
STACK CFI 4e6b5 .cfa: $rsp 128 +
STACK CFI 4e6b7 .cfa: $rsp 136 +
STACK CFI 4e6b9 .cfa: $rsp 144 +
STACK CFI 4e6bb .cfa: $rsp 152 +
STACK CFI 4e6bd .cfa: $rsp 160 +
STACK CFI 4e6c4 .cfa: $rsp 168 +
STACK CFI 4e6cb .cfa: $rsp 176 +
STACK CFI 4e6d7 .cfa: $rsp 8 +
STACK CFI INIT 4e6d8 41 .cfa: $rsp 8 + .ra: .cfa -8 + ^
STACK CFI 4e6dc .cfa: $rsp 24 +
STACK CFI 4e6de .cfa: $rsp 32 +
STACK CFI 4e6e0 .cfa: $rsp 40 +
STACK CFI 4e6e2 .cfa: $rsp 48 +
STACK CFI 4e6e4 .cfa: $rsp 56 +
STACK CFI 4e6e6 .cfa: $rsp 64 +
STACK CFI 4e6e8 .cfa: $rsp 72 +
STACK CFI 4e6ea .cfa: $rsp 80 +
STACK CFI 4e6ec .cfa: $rsp 88 +
STACK CFI 4e6ee .cfa: $rsp 96 +
STACK CFI 4e6f0 .cfa: $rsp 104 +
STACK CFI 4e6f2 .cfa: $rsp 112 +
STACK CFI 4e6f4 .cfa: $rsp 120 +
STACK CFI 4e6f6 .cfa: $rsp 128 +
STACK CFI 4e6f8 .cfa: $rsp 136 +
STACK CFI 4e6fa .cfa: $rsp 144 +
STACK CFI 4e6fc .cfa: $rsp 152 +
STACK CFI 4e6fe .cfa: $rsp 160 +
STACK CFI 4e705 .cfa: $rsp 168 +
STACK CFI 4e70c .cfa: $rsp 176 +
STACK CFI 4e718 .cfa: $rsp 8 +
STACK CFI INIT 4e719 41 .cfa: $rsp 8 + .ra: .cfa -8 + ^
STACK CFI 4e71d .cfa: $rsp 24 +
STACK CFI 4e71f .cfa: $rsp 32 +
STACK CFI 4e721 .cfa: $rsp 40 +
STACK CFI 4e723 .cfa: $rsp 48 +
STACK CFI 4e725 .cfa: $rsp 56 +
STACK CFI 4e727 .cfa: $rsp 64 +
STACK CFI 4e729 .cfa: $rsp 72 +
STACK CFI 4e72b .cfa: $rsp 80 +
STACK CFI 4e72d .cfa: $rsp 88 +
STACK CFI 4e72f .cfa: $rsp 96 +
STACK CFI 4e731 .cfa: $rsp 104 +
STACK CFI 4e733 .cfa: $rsp 112 +
STACK CFI 4e735 .cfa: $rsp 120 +
STACK CFI 4e737 .cfa: $rsp 128 +
STACK CFI 4e739 .cfa: $rsp 136 +
STACK CFI 4e73b .cfa: $rsp 144 +
STACK CFI 4e73d .cfa: $rsp 152 +
STACK CFI 4e73f .cfa: $rsp 160 +
STACK CFI 4e746 .cfa: $rsp 168 +
STACK CFI 4e74d .cfa: $rsp 176 +
STACK CFI 4e759 .cfa: $rsp 8 +
STACK CFI INIT 4e75a 41 .cfa: $rsp 8 + .ra: .cfa -8 + ^
STACK CFI 4e75e .cfa: $rsp 24 +
STACK CFI 4e760 .cfa: $rsp 32 +
STACK CFI 4e762 .cfa: $rsp 40 +
STACK CFI 4e764 .cfa: $rsp 48 +
STACK CFI 4e766 .cfa: $rsp 56 +
STACK CFI 4e768 .cfa: $rsp 64 +
STACK CFI 4e76a .cfa: $rsp 72 +
STACK CFI 4e76c .cfa: $rsp 80 +
STACK CFI 4e76e .cfa: $rsp 88 +
STACK CFI 4e770 .cfa: $rsp 96 +
STACK CFI 4e772 .cfa: $rsp 104 +
STACK CFI 4e774 .cfa: $rsp 112 +
STACK CFI 4e776 .cfa: $rsp 120 +
STACK CFI 4e778 .cfa: $rsp 128 +
STACK CFI 4e77a .cfa: $rsp 136 +
STACK CFI 4e77c .cfa: $rsp 144 +
STACK CFI 4e77e .cfa: $rsp 152 +
STACK CFI 4e780 .cfa: $rsp 160 +
STACK CFI 4e787 .cfa: $rsp 168 +
STACK CFI 4e78e .cfa: $rsp 176 +
STACK CFI 4e79a .cfa: $rsp 8 +
STACK CFI INIT 4e79b 41 .cfa: $rsp 8 + .ra: .cfa -8 + ^
STACK CFI 4e79f .cfa: $rsp 24 +
STACK CFI 4e7a1 .cfa: $rsp 32 +
STACK CFI 4e7a3 .cfa: $rsp 40 +
STACK CFI 4e7a5 .cfa: $rsp 48 +
STACK CFI 4e7a7 .cfa: $rsp 56 +
STACK CFI 4e7a9 .cfa: $rsp 64 +
STACK CFI 4e7ab .cfa: $rsp 72 +
STACK CFI 4e7ad .cfa: $rsp 80 +
STACK CFI 4e7af .cfa: $rsp 88 +
STACK CFI 4e7b1 .cfa: $rsp 96 +
STACK CFI 4e7b3 .cfa: $rsp 104 +
STACK CFI 4e7b5 .cfa: $rsp 112 +
STACK CFI 4e7b7 .cfa: $rsp 120 +
STACK CFI 4e7b9 .cfa: $rsp 128 +
STACK CFI 4e7bb .cfa: $rsp 136 +
STACK CFI 4e7bd .cfa: $rsp 144 +
STACK CFI 4e7bf .cfa: $rsp 152 +
STACK CFI 4e7c1 .cfa: $rsp 160 +
STACK CFI 4e7c8 .cfa: $rsp 168 +
STACK CFI 4e7cf .cfa: $rsp 176 +
STACK CFI 4e7db .cfa: $rsp 8 +
STACK CFI INIT 4e7dc 41 .cfa: $rsp 8 + .ra: .cfa -8 + ^
STACK CFI 4e7e0 .cfa: $rsp 24 +
STACK CFI 4e7e2 .cfa: $rsp 32 +
STACK CFI 4e7e4 .cfa: $rsp 40 +
STACK CFI 4e7e6 .cfa: $rsp 48 +
STACK CFI 4e7e8 .cfa: $rsp 56 +
STACK CFI 4e7ea .cfa: $rsp 64 +
STACK CFI 4e7ec .cfa: $rsp 72 +
STACK CFI 4e7ee .cfa: $rsp 80 +
STACK CFI 4e7f0 .cfa: $rsp 88 +
STACK CFI 4e7f2 .cfa: $rsp 96 +
STACK CFI 4e7f4 .cfa: $rsp 104 +
STACK CFI 4e7f6 .cfa: $rsp 112 +
STACK CFI 4e7f8 .cfa: $rsp 120 +
STACK CFI 4e7fa .cfa: $rsp 128 +
STACK CFI 4e7fc .cfa: $rsp 136 +
STACK CFI 4e7fe .cfa: $rsp 144 +
STACK CFI 4e800 .cfa: $rsp 152 +
STACK CFI 4e802 .cfa: $rsp 160 +
STACK CFI 4e809 .cfa: $rsp 168 +
STACK CFI 4e810 .cfa: $rsp 176 +
STACK CFI 4e81c .cfa: $rsp 8 +
STACK CFI INIT 4e81d 41 .cfa: $rsp 8 + .ra: .cfa -8 + ^
STACK CFI 4e821 .cfa: $rsp 24 +
STACK CFI 4e823 .cfa: $rsp 32 +
STACK CFI 4e825 .cfa: $rsp 40 +
STACK CFI 4e827 .cfa: $rsp 48 +
STACK CFI 4e829 .cfa: $rsp 56 +
STACK CFI 4e82b .cfa: $rsp 64 +
STACK CFI 4e82d .cfa: $rsp 72 +
STACK CFI 4e82f .cfa: $rsp 80 +
STACK CFI 4e831 .cfa: $rsp 88 +
STACK CFI 4e833 .cfa: $rsp 96 +
STACK CFI 4e835 .cfa: $rsp 104 +
STACK CFI 4e837 .cfa: $rsp 112 +
STACK CFI 4e839 .cfa: $rsp 120 +
STACK CFI 4e83b .cfa: $rsp 128 +
STACK CFI 4e83d .cfa: $rsp 136 +
STACK CFI 4e83f .cfa: $rsp 144 +
STACK CFI 4e841 .cfa: $rsp 152 +
STACK CFI 4e843 .cfa: $rsp 160 +
STACK CFI 4e84a .cfa: $rsp 168 +
STACK CFI 4e851 .cfa: $rsp 176 +
STACK CFI 4e85d .cfa: $rsp 8 +
STACK CFI INIT 4e85e 41 .cfa: $rsp 8 + .ra: .cfa -8 + ^
STACK CFI 4e862 .cfa: $rsp 24 +
STACK CFI 4e864 .cfa: $rsp 32 +
STACK CFI 4e866 .cfa: $rsp 40 +
STACK CFI 4e868 .cfa: $rsp 48 +
STACK CFI 4e86a .cfa: $rsp 56 +
STACK CFI 4e86c .cfa: $rsp 64 +
STACK CFI 4e86e .cfa: $rsp 72 +
STACK CFI 4e870 .cfa: $rsp 80 +
STACK CFI 4e872 .cfa: $rsp 88 +
STACK CFI 4e874 .cfa: $rsp 96 +
STACK CFI 4e876 .cfa: $rsp 104 +
STACK CFI 4e878 .cfa: $rsp 112 +
STACK CFI 4e87a .cfa: $rsp 120 +
STACK CFI 4e87c .cfa: $rsp 128 +
STACK CFI 4e87e .cfa: $rsp 136 +
STACK CFI 4e880 .cfa: $rsp 144 +
STACK CFI 4e882 .cfa: $rsp 152 +
STACK CFI 4e884 .cfa: $rsp 160 +
STACK CFI 4e88b .cfa: $rsp 168 +
STACK CFI 4e892 .cfa: $rsp 176 +
STACK CFI 4e89e .cfa: $rsp 8 +
STACK CFI INIT 4e89f 41 .cfa: $rsp 8 + .ra: .cfa -8 + ^
STACK CFI 4e8a3 .cfa: $rsp 24 +
STACK CFI 4e8a5 .cfa: $rsp 32 +
STACK CFI 4e8a7 .cfa: $rsp 40 +
STACK CFI 4e8a9 .cfa: $rsp 48 +
STACK CFI 4e8ab .cfa: $rsp 56 +
STACK CFI 4e8ad .cfa: $rsp 64 +
STACK CFI 4e8af .cfa: $rsp 72 +
STACK CFI 4e8b1 .cfa: $rsp 80 +
STACK CFI 4e8b3 .cfa: $rsp 88 +
STACK CFI 4e8b5 .cfa: $rsp 96 +
STACK CFI 4e8b7 .cfa: $rsp 104 +
STACK CFI 4e8b9 .cfa: $rsp 112 +
STACK CFI 4e8bb .cfa: $rsp 120 +
STACK CFI 4e8bd .cfa: $rsp 128 +
STACK CFI 4e8bf .cfa: $rsp 136 +
STACK CFI 4e8c1 .cfa: $rsp 144 +
STACK CFI 4e8c3 .cfa: $rsp 152 +
STACK CFI 4e8c5 .cfa: $rsp 160 +
STACK CFI 4e8cc .cfa: $rsp 168 +
STACK CFI 4e8d3 .cfa: $rsp 176 +
STACK CFI 4e8df .cfa: $rsp 8 +
STACK CFI INIT 4e8e0 41 .cfa: $rsp 8 + .ra: .cfa -8 + ^
STACK CFI 4e8e4 .cfa: $rsp 24 +
STACK CFI 4e8e6 .cfa: $rsp 32 +
STACK CFI 4e8e8 .cfa: $rsp 40 +
STACK CFI 4e8ea .cfa: $rsp 48 +
STACK CFI 4e8ec .cfa: $rsp 56 +
STACK CFI 4e8ee .cfa: $rsp 64 +
STACK CFI 4e8f0 .cfa: $rsp 72 +
STACK CFI 4e8f2 .cfa: $rsp 80 +
STACK CFI 4e8f4 .cfa: $rsp 88 +
STACK CFI 4e8f6 .cfa: $rsp 96 +
STACK CFI 4e8f8 .cfa: $rsp 104 +
STACK CFI 4e8fa .cfa: $rsp 112 +
STACK CFI 4e8fc .cfa: $rsp 120 +
STACK CFI 4e8fe .cfa: $rsp 128 +
STACK CFI 4e900 .cfa: $rsp 136 +
STACK CFI 4e902 .cfa: $rsp 144 +
STACK CFI 4e904 .cfa: $rsp 152 +
STACK CFI 4e906 .cfa: $rsp 160 +
STACK CFI 4e90d .cfa: $rsp 168 +
STACK CFI 4e914 .cfa: $rsp 176 +
STACK CFI 4e920 .cfa: $rsp 8 +
STACK CFI INIT 4e921 41 .cfa: $rsp 8 + .ra: .cfa -8 + ^
STACK CFI 4e925 .cfa: $rsp 24 +
STACK CFI 4e927 .cfa: $rsp 32 +
STACK CFI 4e929 .cfa: $rsp 40 +
STACK CFI 4e92b .cfa: $rsp 48 +
STACK CFI 4e92d .cfa: $rsp 56 +
STACK CFI 4e92f .cfa: $rsp 64 +
STACK CFI 4e931 .cfa: $rsp 72 +
STACK CFI 4e933 .cfa: $rsp 80 +
STACK CFI 4e935 .cfa: $rsp 88 +
STACK CFI 4e937 .cfa: $rsp 96 +
STACK CFI 4e939 .cfa: $rsp 104 +
STACK CFI 4e93b .cfa: $rsp 112 +
STACK CFI 4e93d .cfa: $rsp 120 +
STACK CFI 4e93f .cfa: $rsp 128 +
STACK CFI 4e941 .cfa: $rsp 136 +
STACK CFI 4e943 .cfa: $rsp 144 +
STACK CFI 4e945 .cfa: $rsp 152 +
STACK CFI 4e947 .cfa: $rsp 160 +
STACK CFI 4e94e .cfa: $rsp 168 +
STACK CFI 4e955 .cfa: $rsp 176 +
STACK CFI 4e961 .cfa: $rsp 8 +
STACK CFI INIT 4e962 41 .cfa: $rsp 8 + .ra: .cfa -8 + ^
STACK CFI 4e966 .cfa: $rsp 24 +
STACK CFI 4e968 .cfa: $rsp 32 +
STACK CFI 4e96a .cfa: $rsp 40 +
STACK CFI 4e96c .cfa: $rsp 48 +
STACK CFI 4e96e .cfa: $rsp 56 +
STACK CFI 4e970 .cfa: $rsp 64 +
STACK CFI 4e972 .cfa: $rsp 72 +
STACK CFI 4e974 .cfa: $rsp 80 +
STACK CFI 4e976 .cfa: $rsp 88 +
STACK CFI 4e978 .cfa: $rsp 96 +
STACK CFI 4e97a .cfa: $rsp 104 +
STACK CFI 4e97c .cfa: $rsp 112 +
STACK CFI 4e97e .cfa: $rsp 120 +
STACK CFI 4e980 .cfa: $rsp 128 +
STACK CFI 4e982 .cfa: $rsp 136 +
STACK CFI 4e984 .cfa: $rsp 144 +
STACK CFI 4e986 .cfa: $rsp 152 +
STACK CFI 4e988 .cfa: $rsp 160 +
STACK CFI 4e98f .cfa: $rsp 168 +
STACK CFI 4e996 .cfa: $rsp 176 +
STACK CFI 4e9a2 .cfa: $rsp 8 +
STACK CFI INIT 4e9a3 41 .cfa: $rsp 8 + .ra: .cfa -8 + ^
STACK CFI 4e9a7 .cfa: $rsp 24 +
STACK CFI 4e9a9 .cfa: $rsp 32 +
STACK CFI 4e9ab .cfa: $rsp 40 +
STACK CFI 4e9ad .cfa: $rsp 48 +
STACK CFI 4e9af .cfa: $rsp 56 +
STACK CFI 4e9b1 .cfa: $rsp 64 +
STACK CFI 4e9b3 .cfa: $rsp 72 +
STACK CFI 4e9b5 .cfa: $rsp 80 +
STACK CFI 4e9b7 .cfa: $rsp 88 +
STACK CFI 4e9b9 .cfa: $rsp 96 +
STACK CFI 4e9bb .cfa: $rsp 104 +
STACK CFI 4e9bd .cfa: $rsp 112 +
STACK CFI 4e9bf .cfa: $rsp 120 +
STACK CFI 4e9c1 .cfa: $rsp 128 +
STACK CFI 4e9c3 .cfa: $rsp 136 +
STACK CFI 4e9c5 .cfa: $rsp 144 +
STACK CFI 4e9c7 .cfa: $rsp 152 +
STACK CFI 4e9c9 .cfa: $rsp 160 +
STACK CFI 4e9d0 .cfa: $rsp 168 +
STACK CFI 4e9d7 .cfa: $rsp 176 +
STACK CFI 4e9e3 .cfa: $rsp 8 +
STACK CFI INIT 4e9e4 41 .cfa: $rsp 8 + .ra: .cfa -8 + ^
STACK CFI 4e9e8 .cfa: $rsp 24 +
STACK CFI 4e9ea .cfa: $rsp 32 +
STACK CFI 4e9ec .cfa: $rsp 40 +
STACK CFI 4e9ee .cfa: $rsp 48 +
STACK CFI 4e9f0 .cfa: $rsp 56 +
STACK CFI 4e9f2 .cfa: $rsp 64 +
STACK CFI 4e9f4 .cfa: $rsp 72 +
STACK CFI 4e9f6 .cfa: $rsp 80 +
STACK CFI 4e9f8 .cfa: $rsp 88 +
STACK CFI 4e9fa .cfa: $rsp 96 +
STACK CFI 4e9fc .cfa: $rsp 104 +
STACK CFI 4e9fe .cfa: $rsp 112 +
STACK CFI 4ea00 .cfa: $rsp 120 +
STACK CFI 4ea02 .cfa: $rsp 128 +
STACK CFI 4ea04 .cfa: $rsp 136 +
STACK CFI 4ea06 .cfa: $rsp 144 +
STACK CFI 4ea08 .cfa: $rsp 152 +
STACK CFI 4ea0a .cfa: $rsp 160 +
STACK CFI 4ea11 .cfa: $rsp 168 +
STACK CFI 4ea18 .cfa: $rsp 176 +
STACK CFI 4ea24 .cfa: $rsp 8 +
STACK CFI INIT 4ea25 41 .cfa: $rsp 8 + .ra: .cfa -8 + ^
STACK CFI 4ea29 .cfa: $rsp 24 +
STACK CFI 4ea2b .cfa: $rsp 32 +
STACK CFI 4ea2d .cfa: $rsp 40 +
STACK CFI 4ea2f .cfa: $rsp 48 +
STACK CFI 4ea31 .cfa: $rsp 56 +
STACK CFI 4ea33 .cfa: $rsp 64 +
STACK CFI 4ea35 .cfa: $rsp 72 +
STACK CFI 4ea37 .cfa: $rsp 80 +
STACK CFI 4ea39 .cfa: $rsp 88 +
STACK CFI 4ea3b .cfa: $rsp 96 +
STACK CFI 4ea3d .cfa: $rsp 104 +
STACK CFI 4ea3f .cfa: $rsp 112 +
STACK CFI 4ea41 .cfa: $rsp 120 +
STACK CFI 4ea43 .cfa: $rsp 128 +
STACK CFI 4ea45 .cfa: $rsp 136 +
STACK CFI 4ea47 .cfa: $rsp 144 +
STACK CFI 4ea49 .cfa: $rsp 152 +
STACK CFI 4ea4b .cfa: $rsp 160 +
STACK CFI 4ea52 .cfa: $rsp 168 +
STACK CFI 4ea59 .cfa: $rsp 176 +
STACK CFI 4ea65 .cfa: $rsp 8 +
STACK CFI INIT 4ea66 41 .cfa: $rsp 8 + .ra: .cfa -8 + ^
STACK CFI 4ea6a .cfa: $rsp 24 +
STACK CFI 4ea6c .cfa: $rsp 32 +
STACK CFI 4ea6e .cfa: $rsp 40 +
STACK CFI 4ea70 .cfa: $rsp 48 +
STACK CFI 4ea72 .cfa: $rsp 56 +
STACK CFI 4ea74 .cfa: $rsp 64 +
STACK CFI 4ea76 .cfa: $rsp 72 +
STACK CFI 4ea78 .cfa: $rsp 80 +
STACK CFI 4ea7a .cfa: $rsp 88 +
STACK CFI 4ea7c .cfa: $rsp 96 +
STACK CFI 4ea7e .cfa: $rsp 104 +
STACK CFI 4ea80 .cfa: $rsp 112 +
STACK CFI 4ea82 .cfa: $rsp 120 +
STACK CFI 4ea84 .cfa: $rsp 128 +
STACK CFI 4ea86 .cfa: $rsp 136 +
STACK CFI 4ea88 .cfa: $rsp 144 +
STACK CFI 4ea8a .cfa: $rsp 152 +
STACK CFI 4ea8c .cfa: $rsp 160 +
STACK CFI 4ea93 .cfa: $rsp 168 +
STACK CFI 4ea9a .cfa: $rsp 176 +
STACK CFI 4eaa6 .cfa: $rsp 8 +
STACK CFI INIT 4eaa7 41 .cfa: $rsp 8 + .ra: .cfa -8 + ^
STACK CFI 4eaab .cfa: $rsp 24 +
STACK CFI 4eaad .cfa: $rsp 32 +
STACK CFI 4eaaf .cfa: $rsp 40 +
STACK CFI 4eab1 .cfa: $rsp 48 +
STACK CFI 4eab3 .cfa: $rsp 56 +
STACK CFI 4eab5 .cfa: $rsp 64 +
STACK CFI 4eab7 .cfa: $rsp 72 +
STACK CFI 4eab9 .cfa: $rsp 80 +
STACK CFI 4eabb .cfa: $rsp 88 +
STACK CFI 4eabd .cfa: $rsp 96 +
STACK CFI 4eabf .cfa: $rsp 104 +
STACK CFI 4eac1 .cfa: $rsp 112 +
STACK CFI 4eac3 .cfa: $rsp 120 +
STACK CFI 4eac5 .cfa: $rsp 128 +
STACK CFI 4eac7 .cfa: $rsp 136 +
STACK CFI 4eac9 .cfa: $rsp 144 +
STACK CFI 4eacb .cfa: $rsp 152 +
STACK CFI 4eacd .cfa: $rsp 160 +
STACK CFI 4ead4 .cfa: $rsp 168 +
STACK CFI 4eadb .cfa: $rsp 176 +
STACK CFI 4eae7 .cfa: $rsp 8 +
STACK CFI INIT 4eae8 41 .cfa: $rsp 8 + .ra: .cfa -8 + ^
STACK CFI 4eaec .cfa: $rsp 24 +
STACK CFI 4eaee .cfa: $rsp 32 +
STACK CFI 4eaf0 .cfa: $rsp 40 +
STACK CFI 4eaf2 .cfa: $rsp 48 +
STACK CFI 4eaf4 .cfa: $rsp 56 +
STACK CFI 4eaf6 .cfa: $rsp 64 +
STACK CFI 4eaf8 .cfa: $rsp 72 +
STACK CFI 4eafa .cfa: $rsp 80 +
STACK CFI 4eafc .cfa: $rsp 88 +
STACK CFI 4eafe .cfa: $rsp 96 +
STACK CFI 4eb00 .cfa: $rsp 104 +
STACK CFI 4eb02 .cfa: $rsp 112 +
STACK CFI 4eb04 .cfa: $rsp 120 +
STACK CFI 4eb06 .cfa: $rsp 128 +
STACK CFI 4eb08 .cfa: $rsp 136 +
STACK CFI 4eb0a .cfa: $rsp 144 +
STACK CFI 4eb0c .cfa: $rsp 152 +
STACK CFI 4eb0e .cfa: $rsp 160 +
STACK CFI 4eb15 .cfa: $rsp 168 +
STACK CFI 4eb1c .cfa: $rsp 176 +
STACK CFI 4eb28 .cfa: $rsp 8 +
STACK CFI INIT 4eb29 41 .cfa: $rsp 8 + .ra: .cfa -8 + ^
STACK CFI 4eb2d .cfa: $rsp 24 +
STACK CFI 4eb2f .cfa: $rsp 32 +
STACK CFI 4eb31 .cfa: $rsp 40 +
STACK CFI 4eb33 .cfa: $rsp 48 +
STACK CFI 4eb35 .cfa: $rsp 56 +
STACK CFI 4eb37 .cfa: $rsp 64 +
STACK CFI 4eb39 .cfa: $rsp 72 +
STACK CFI 4eb3b .cfa: $rsp 80 +
STACK CFI 4eb3d .cfa: $rsp 88 +
STACK CFI 4eb3f .cfa: $rsp 96 +
STACK CFI 4eb41 .cfa: $rsp 104 +
STACK CFI 4eb43 .cfa: $rsp 112 +
STACK CFI 4eb45 .cfa: $rsp 120 +
STACK CFI 4eb47 .cfa: $rsp 128 +
STACK CFI 4eb49 .cfa: $rsp 136 +
STACK CFI 4eb4b .cfa: $rsp 144 +
STACK CFI 4eb4d .cfa: $rsp 152 +
STACK CFI 4eb4f .cfa: $rsp 160 +
STACK CFI 4eb56 .cfa: $rsp 168 +
STACK CFI 4eb5d .cfa: $rsp 176 +
STACK CFI 4eb69 .cfa: $rsp 8 +
STACK CFI INIT 4eb6a 41 .cfa: $rsp 8 + .ra: .cfa -8 + ^
STACK CFI 4eb6e .cfa: $rsp 24 +
STACK CFI 4eb70 .cfa: $rsp 32 +
STACK CFI 4eb72 .cfa: $rsp 40 +
STACK CFI 4eb74 .cfa: $rsp 48 +
STACK CFI 4eb76 .cfa: $rsp 56 +
STACK CFI 4eb78 .cfa: $rsp 64 +
STACK CFI 4eb7a .cfa: $rsp 72 +
STACK CFI 4eb7c .cfa: $rsp 80 +
STACK CFI 4eb7e .cfa: $rsp 88 +
STACK CFI 4eb80 .cfa: $rsp 96 +
STACK CFI 4eb82 .cfa: $rsp 104 +
STACK CFI 4eb84 .cfa: $rsp 112 +
STACK CFI 4eb86 .cfa: $rsp 120 +
STACK CFI 4eb88 .cfa: $rsp 128 +
STACK CFI 4eb8a .cfa: $rsp 136 +
STACK CFI 4eb8c .cfa: $rsp 144 +
STACK CFI 4eb8e .cfa: $rsp 152 +
STACK CFI 4eb90 .cfa: $rsp 160 +
STACK CFI 4eb97 .cfa: $rsp 168 +
STACK CFI 4eb9e .cfa: $rsp 176 +
STACK CFI 4ebaa .cfa: $rsp 8 +
STACK CFI INIT 4ebab 41 .cfa: $rsp 8 + .ra: .cfa -8 + ^
STACK CFI 4ebaf .cfa: $rsp 24 +
STACK CFI 4ebb1 .cfa: $rsp 32 +
STACK CFI 4ebb3 .cfa: $rsp 40 +
STACK CFI 4ebb5 .cfa: $rsp 48 +
STACK CFI 4ebb7 .cfa: $rsp 56 +
STACK CFI 4ebb9 .cfa: $rsp 64 +
STACK CFI 4ebbb .cfa: $rsp 72 +
STACK CFI 4ebbd .cfa: $rsp 80 +
STACK CFI 4ebbf .cfa: $rsp 88 +
STACK CFI 4ebc1 .cfa: $rsp 96 +
STACK CFI 4ebc3 .cfa: $rsp 104 +
STACK CFI 4ebc5 .cfa: $rsp 112 +
STACK CFI 4ebc7 .cfa: $rsp 120 +
STACK CFI 4ebc9 .cfa: $rsp 128 +
STACK CFI 4ebcb .cfa: $rsp 136 +
STACK CFI 4ebcd .cfa: $rsp 144 +
STACK CFI 4ebcf .cfa: $rsp 152 +
STACK CFI 4ebd1 .cfa: $rsp 160 +
STACK CFI 4ebd8 .cfa: $rsp 168 +
STACK CFI 4ebdf .cfa: $rsp 176 +
STACK CFI 4ebeb .cfa: $rsp 8 +
STACK CFI INIT 4ebec 41 .cfa: $rsp 8 + .ra: .cfa -8 + ^
STACK CFI 4ebf0 .cfa: $rsp 24 +
STACK CFI 4ebf2 .cfa: $rsp 32 +
STACK CFI 4ebf4 .cfa: $rsp 40 +
STACK CFI 4ebf6 .cfa: $rsp 48 +
STACK CFI 4ebf8 .cfa: $rsp 56 +
STACK CFI 4ebfa .cfa: $rsp 64 +
STACK CFI 4ebfc .cfa: $rsp 72 +
STACK CFI 4ebfe .cfa: $rsp 80 +
STACK CFI 4ec00 .cfa: $rsp 88 +
STACK CFI 4ec02 .cfa: $rsp 96 +
STACK CFI 4ec04 .cfa: $rsp 104 +
STACK CFI 4ec06 .cfa: $rsp 112 +
STACK CFI 4ec08 .cfa: $rsp 120 +
STACK CFI 4ec0a .cfa: $rsp 128 +
STACK CFI 4ec0c .cfa: $rsp 136 +
STACK CFI 4ec0e .cfa: $rsp 144 +
STACK CFI 4ec10 .cfa: $rsp 152 +
STACK CFI 4ec12 .cfa: $rsp 160 +
STACK CFI 4ec19 .cfa: $rsp 168 +
STACK CFI 4ec20 .cfa: $rsp 176 +
STACK CFI 4ec2c .cfa: $rsp 8 +
STACK CFI INIT 4ec2d 41 .cfa: $rsp 8 + .ra: .cfa -8 + ^
STACK CFI 4ec31 .cfa: $rsp 24 +
STACK CFI 4ec33 .cfa: $rsp 32 +
STACK CFI 4ec35 .cfa: $rsp 40 +
STACK CFI 4ec37 .cfa: $rsp 48 +
STACK CFI 4ec39 .cfa: $rsp 56 +
STACK CFI 4ec3b .cfa: $rsp 64 +
STACK CFI 4ec3d .cfa: $rsp 72 +
STACK CFI 4ec3f .cfa: $rsp 80 +
STACK CFI 4ec41 .cfa: $rsp 88 +
STACK CFI 4ec43 .cfa: $rsp 96 +
STACK CFI 4ec45 .cfa: $rsp 104 +
STACK CFI 4ec47 .cfa: $rsp 112 +
STACK CFI 4ec49 .cfa: $rsp 120 +
STACK CFI 4ec4b .cfa: $rsp 128 +
STACK CFI 4ec4d .cfa: $rsp 136 +
STACK CFI 4ec4f .cfa: $rsp 144 +
STACK CFI 4ec51 .cfa: $rsp 152 +
STACK CFI 4ec53 .cfa: $rsp 160 +
STACK CFI 4ec5a .cfa: $rsp 168 +
STACK CFI 4ec61 .cfa: $rsp 176 +
STACK CFI 4ec6d .cfa: $rsp 8 +
STACK CFI INIT 4ec6e 41 .cfa: $rsp 8 + .ra: .cfa -8 + ^
STACK CFI 4ec72 .cfa: $rsp 24 +
STACK CFI 4ec74 .cfa: $rsp 32 +
STACK CFI 4ec76 .cfa: $rsp 40 +
STACK CFI 4ec78 .cfa: $rsp 48 +
STACK CFI 4ec7a .cfa: $rsp 56 +
STACK CFI 4ec7c .cfa: $rsp 64 +
STACK CFI 4ec7e .cfa: $rsp 72 +
STACK CFI 4ec80 .cfa: $rsp 80 +
STACK CFI 4ec82 .cfa: $rsp 88 +
STACK CFI 4ec84 .cfa: $rsp 96 +
STACK CFI 4ec86 .cfa: $rsp 104 +
STACK CFI 4ec88 .cfa: $rsp 112 +
STACK CFI 4ec8a .cfa: $rsp 120 +
STACK CFI 4ec8c .cfa: $rsp 128 +
STACK CFI 4ec8e .cfa: $rsp 136 +
STACK CFI 4ec90 .cfa: $rsp 144 +
STACK CFI 4ec92 .cfa: $rsp 152 +
STACK CFI 4ec94 .cfa: $rsp 160 +
STACK CFI 4ec9b .cfa: $rsp 168 +
STACK CFI 4eca2 .cfa: $rsp 176 +
STACK CFI 4ecae .cfa: $rsp 8 +
STACK CFI INIT 4ecaf 41 .cfa: $rsp 8 + .ra: .cfa -8 + ^
STACK CFI 4ecb3 .cfa: $rsp 24 +
STACK CFI 4ecb5 .cfa: $rsp 32 +
STACK CFI 4ecb7 .cfa: $rsp 40 +
STACK CFI 4ecb9 .cfa: $rsp 48 +
STACK CFI 4ecbb .cfa: $rsp 56 +
STACK CFI 4ecbd .cfa: $rsp 64 +
STACK CFI 4ecbf .cfa: $rsp 72 +
STACK CFI 4ecc1 .cfa: $rsp 80 +
STACK CFI 4ecc3 .cfa: $rsp 88 +
STACK CFI 4ecc5 .cfa: $rsp 96 +
STACK CFI 4ecc7 .cfa: $rsp 104 +
STACK CFI 4ecc9 .cfa: $rsp 112 +
STACK CFI 4eccb .cfa: $rsp 120 +
STACK CFI 4eccd .cfa: $rsp 128 +
STACK CFI 4eccf .cfa: $rsp 136 +
STACK CFI 4ecd1 .cfa: $rsp 144 +
STACK CFI 4ecd3 .cfa: $rsp 152 +
STACK CFI 4ecd5 .cfa: $rsp 160 +
STACK CFI 4ecdc .cfa: $rsp 168 +
STACK CFI 4ece3 .cfa: $rsp 176 +
STACK CFI 4ecef .cfa: $rsp 8 +
STACK CFI INIT 4ecf0 41 .cfa: $rsp 8 + .ra: .cfa -8 + ^
STACK CFI 4ecf4 .cfa: $rsp 24 +
STACK CFI 4ecf6 .cfa: $rsp 32 +
STACK CFI 4ecf8 .cfa: $rsp 40 +
STACK CFI 4ecfa .cfa: $rsp 48 +
STACK CFI 4ecfc .cfa: $rsp 56 +
STACK CFI 4ecfe .cfa: $rsp 64 +
STACK CFI 4ed00 .cfa: $rsp 72 +
STACK CFI 4ed02 .cfa: $rsp 80 +
STACK CFI 4ed04 .cfa: $rsp 88 +
STACK CFI 4ed06 .cfa: $rsp 96 +
STACK CFI 4ed08 .cfa: $rsp 104 +
STACK CFI 4ed0a .cfa: $rsp 112 +
STACK CFI 4ed0c .cfa: $rsp 120 +
STACK CFI 4ed0e .cfa: $rsp 128 +
STACK CFI 4ed10 .cfa: $rsp 136 +
STACK CFI 4ed12 .cfa: $rsp 144 +
STACK CFI 4ed14 .cfa: $rsp 152 +
STACK CFI 4ed16 .cfa: $rsp 160 +
STACK CFI 4ed1d .cfa: $rsp 168 +
STACK CFI 4ed24 .cfa: $rsp 176 +
STACK CFI 4ed30 .cfa: $rsp 8 +
STACK CFI INIT 4ed31 41 .cfa: $rsp 8 + .ra: .cfa -8 + ^
STACK CFI 4ed35 .cfa: $rsp 24 +
STACK CFI 4ed37 .cfa: $rsp 32 +
STACK CFI 4ed39 .cfa: $rsp 40 +
STACK CFI 4ed3b .cfa: $rsp 48 +
STACK CFI 4ed3d .cfa: $rsp 56 +
STACK CFI 4ed3f .cfa: $rsp 64 +
STACK CFI 4ed41 .cfa: $rsp 72 +
STACK CFI 4ed43 .cfa: $rsp 80 +
STACK CFI 4ed45 .cfa: $rsp 88 +
STACK CFI 4ed47 .cfa: $rsp 96 +
STACK CFI 4ed49 .cfa: $rsp 104 +
STACK CFI 4ed4b .cfa: $rsp 112 +
STACK CFI 4ed4d .cfa: $rsp 120 +
STACK CFI 4ed4f .cfa: $rsp 128 +
STACK CFI 4ed51 .cfa: $rsp 136 +
STACK CFI 4ed53 .cfa: $rsp 144 +
STACK CFI 4ed55 .cfa: $rsp 152 +
STACK CFI 4ed57 .cfa: $rsp 160 +
STACK CFI 4ed5e .cfa: $rsp 168 +
STACK CFI 4ed65 .cfa: $rsp 176 +
STACK CFI 4ed71 .cfa: $rsp 8 +
STACK CFI INIT 4ed72 41 .cfa: $rsp 8 + .ra: .cfa -8 + ^
STACK CFI 4ed76 .cfa: $rsp 24 +
STACK CFI 4ed78 .cfa: $rsp 32 +
STACK CFI 4ed7a .cfa: $rsp 40 +
STACK CFI 4ed7c .cfa: $rsp 48 +
STACK CFI 4ed7e .cfa: $rsp 56 +
STACK CFI 4ed80 .cfa: $rsp 64 +
STACK CFI 4ed82 .cfa: $rsp 72 +
STACK CFI 4ed84 .cfa: $rsp 80 +
STACK CFI 4ed86 .cfa: $rsp 88 +
STACK CFI 4ed88 .cfa: $rsp 96 +
STACK CFI 4ed8a .cfa: $rsp 104 +
STACK CFI 4ed8c .cfa: $rsp 112 +
STACK CFI 4ed8e .cfa: $rsp 120 +
STACK CFI 4ed90 .cfa: $rsp 128 +
STACK CFI 4ed92 .cfa: $rsp 136 +
STACK CFI 4ed94 .cfa: $rsp 144 +
STACK CFI 4ed96 .cfa: $rsp 152 +
STACK CFI 4ed98 .cfa: $rsp 160 +
STACK CFI 4ed9f .cfa: $rsp 168 +
STACK CFI 4eda6 .cfa: $rsp 176 +
STACK CFI 4edb2 .cfa: $rsp 8 +
STACK CFI INIT 4edb3 41 .cfa: $rsp 8 + .ra: .cfa -8 + ^
STACK CFI 4edb7 .cfa: $rsp 24 +
STACK CFI 4edb9 .cfa: $rsp 32 +
STACK CFI 4edbb .cfa: $rsp 40 +
STACK CFI 4edbd .cfa: $rsp 48 +
STACK CFI 4edbf .cfa: $rsp 56 +
STACK CFI 4edc1 .cfa: $rsp 64 +
STACK CFI 4edc3 .cfa: $rsp 72 +
STACK CFI 4edc5 .cfa: $rsp 80 +
STACK CFI 4edc7 .cfa: $rsp 88 +
STACK CFI 4edc9 .cfa: $rsp 96 +
STACK CFI 4edcb .cfa: $rsp 104 +
STACK CFI 4edcd .cfa: $rsp 112 +
STACK CFI 4edcf .cfa: $rsp 120 +
STACK CFI 4edd1 .cfa: $rsp 128 +
STACK CFI 4edd3 .cfa: $rsp 136 +
STACK CFI 4edd5 .cfa: $rsp 144 +
STACK CFI 4edd7 .cfa: $rsp 152 +
STACK CFI 4edd9 .cfa: $rsp 160 +
STACK CFI 4ede0 .cfa: $rsp 168 +
STACK CFI 4ede7 .cfa: $rsp 176 +
STACK CFI 4edf3 .cfa: $rsp 8 +
STACK CFI INIT 4edf4 41 .cfa: $rsp 8 + .ra: .cfa -8 + ^
STACK CFI 4edf8 .cfa: $rsp 24 +
STACK CFI 4edfa .cfa: $rsp 32 +
STACK CFI 4edfc .cfa: $rsp 40 +
STACK CFI 4edfe .cfa: $rsp 48 +
STACK CFI 4ee00 .cfa: $rsp 56 +
STACK CFI 4ee02 .cfa: $rsp 64 +
STACK CFI 4ee04 .cfa: $rsp 72 +
STACK CFI 4ee06 .cfa: $rsp 80 +
STACK CFI 4ee08 .cfa: $rsp 88 +
STACK CFI 4ee0a .cfa: $rsp 96 +
STACK CFI 4ee0c .cfa: $rsp 104 +
STACK CFI 4ee0e .cfa: $rsp 112 +
STACK CFI 4ee10 .cfa: $rsp 120 +
STACK CFI 4ee12 .cfa: $rsp 128 +
STACK CFI 4ee14 .cfa: $rsp 136 +
STACK CFI 4ee16 .cfa: $rsp 144 +
STACK CFI 4ee18 .cfa: $rsp 152 +
STACK CFI 4ee1a .cfa: $rsp 160 +
STACK CFI 4ee21 .cfa: $rsp 168 +
STACK CFI 4ee28 .cfa: $rsp 176 +
STACK CFI 4ee34 .cfa: $rsp 8 +
STACK CFI INIT 4ee35 41 .cfa: $rsp 8 + .ra: .cfa -8 + ^
STACK CFI 4ee39 .cfa: $rsp 24 +
STACK CFI 4ee3b .cfa: $rsp 32 +
STACK CFI 4ee3d .cfa: $rsp 40 +
STACK CFI 4ee3f .cfa: $rsp 48 +
STACK CFI 4ee41 .cfa: $rsp 56 +
STACK CFI 4ee43 .cfa: $rsp 64 +
STACK CFI 4ee45 .cfa: $rsp 72 +
STACK CFI 4ee47 .cfa: $rsp 80 +
STACK CFI 4ee49 .cfa: $rsp 88 +
STACK CFI 4ee4b .cfa: $rsp 96 +
STACK CFI 4ee4d .cfa: $rsp 104 +
STACK CFI 4ee4f .cfa: $rsp 112 +
STACK CFI 4ee51 .cfa: $rsp 120 +
STACK CFI 4ee53 .cfa: $rsp 128 +
STACK CFI 4ee55 .cfa: $rsp 136 +
STACK CFI 4ee57 .cfa: $rsp 144 +
STACK CFI 4ee59 .cfa: $rsp 152 +
STACK CFI 4ee5b .cfa: $rsp 160 +
STACK CFI 4ee62 .cfa: $rsp 168 +
STACK CFI 4ee69 .cfa: $rsp 176 +
STACK CFI 4ee75 .cfa: $rsp 8 +
STACK CFI INIT 4ee76 41 .cfa: $rsp 8 + .ra: .cfa -8 + ^
STACK CFI 4ee7a .cfa: $rsp 24 +
STACK CFI 4ee7c .cfa: $rsp 32 +
STACK CFI 4ee7e .cfa: $rsp 40 +
STACK CFI 4ee80 .cfa: $rsp 48 +
STACK CFI 4ee82 .cfa: $rsp 56 +
STACK CFI 4ee84 .cfa: $rsp 64 +
STACK CFI 4ee86 .cfa: $rsp 72 +
STACK CFI 4ee88 .cfa: $rsp 80 +
STACK CFI 4ee8a .cfa: $rsp 88 +
STACK CFI 4ee8c .cfa: $rsp 96 +
STACK CFI 4ee8e .cfa: $rsp 104 +
STACK CFI 4ee90 .cfa: $rsp 112 +
STACK CFI 4ee92 .cfa: $rsp 120 +
STACK CFI 4ee94 .cfa: $rsp 128 +
STACK CFI 4ee96 .cfa: $rsp 136 +
STACK CFI 4ee98 .cfa: $rsp 144 +
STACK CFI 4ee9a .cfa: $rsp 152 +
STACK CFI 4ee9c .cfa: $rsp 160 +
STACK CFI 4eea3 .cfa: $rsp 168 +
STACK CFI 4eeaa .cfa: $rsp 176 +
STACK CFI 4eeb6 .cfa: $rsp 8 +
STACK CFI INIT 4eeb7 41 .cfa: $rsp 8 + .ra: .cfa -8 + ^
STACK CFI 4eebb .cfa: $rsp 24 +
STACK CFI 4eebd .cfa: $rsp 32 +
STACK CFI 4eebf .cfa: $rsp 40 +
STACK CFI 4eec1 .cfa: $rsp 48 +
STACK CFI 4eec3 .cfa: $rsp 56 +
STACK CFI 4eec5 .cfa: $rsp 64 +
STACK CFI 4eec7 .cfa: $rsp 72 +
STACK CFI 4eec9 .cfa: $rsp 80 +
STACK CFI 4eecb .cfa: $rsp 88 +
STACK CFI 4eecd .cfa: $rsp 96 +
STACK CFI 4eecf .cfa: $rsp 104 +
STACK CFI 4eed1 .cfa: $rsp 112 +
STACK CFI 4eed3 .cfa: $rsp 120 +
STACK CFI 4eed5 .cfa: $rsp 128 +
STACK CFI 4eed7 .cfa: $rsp 136 +
STACK CFI 4eed9 .cfa: $rsp 144 +
STACK CFI 4eedb .cfa: $rsp 152 +
STACK CFI 4eedd .cfa: $rsp 160 +
STACK CFI 4eee4 .cfa: $rsp 168 +
STACK CFI 4eeeb .cfa: $rsp 176 +
STACK CFI 4eef7 .cfa: $rsp 8 +
STACK CFI INIT 4eef8 41 .cfa: $rsp 8 + .ra: .cfa -8 + ^
STACK CFI 4eefc .cfa: $rsp 24 +
STACK CFI 4eefe .cfa: $rsp 32 +
STACK CFI 4ef00 .cfa: $rsp 40 +
STACK CFI 4ef02 .cfa: $rsp 48 +
STACK CFI 4ef04 .cfa: $rsp 56 +
STACK CFI 4ef06 .cfa: $rsp 64 +
STACK CFI 4ef08 .cfa: $rsp 72 +
STACK CFI 4ef0a .cfa: $rsp 80 +
STACK CFI 4ef0c .cfa: $rsp 88 +
STACK CFI 4ef0e .cfa: $rsp 96 +
STACK CFI 4ef10 .cfa: $rsp 104 +
STACK CFI 4ef12 .cfa: $rsp 112 +
STACK CFI 4ef14 .cfa: $rsp 120 +
STACK CFI 4ef16 .cfa: $rsp 128 +
STACK CFI 4ef18 .cfa: $rsp 136 +
STACK CFI 4ef1a .cfa: $rsp 144 +
STACK CFI 4ef1c .cfa: $rsp 152 +
STACK CFI 4ef1e .cfa: $rsp 160 +
STACK CFI 4ef25 .cfa: $rsp 168 +
STACK CFI 4ef2c .cfa: $rsp 176 +
STACK CFI 4ef38 .cfa: $rsp 8 +
STACK CFI INIT 4ef39 41 .cfa: $rsp 8 + .ra: .cfa -8 + ^
STACK CFI 4ef3d .cfa: $rsp 24 +
STACK CFI 4ef3f .cfa: $rsp 32 +
STACK CFI 4ef41 .cfa: $rsp 40 +
STACK CFI 4ef43 .cfa: $rsp 48 +
STACK CFI 4ef45 .cfa: $rsp 56 +
STACK CFI 4ef47 .cfa: $rsp 64 +
STACK CFI 4ef49 .cfa: $rsp 72 +
STACK CFI 4ef4b .cfa: $rsp 80 +
STACK CFI 4ef4d .cfa: $rsp 88 +
STACK CFI 4ef4f .cfa: $rsp 96 +
STACK CFI 4ef51 .cfa: $rsp 104 +
STACK CFI 4ef53 .cfa: $rsp 112 +
STACK CFI 4ef55 .cfa: $rsp 120 +
STACK CFI 4ef57 .cfa: $rsp 128 +
STACK CFI 4ef59 .cfa: $rsp 136 +
STACK CFI 4ef5b .cfa: $rsp 144 +
STACK CFI 4ef5d .cfa: $rsp 152 +
STACK CFI 4ef5f .cfa: $rsp 160 +
STACK CFI 4ef66 .cfa: $rsp 168 +
STACK CFI 4ef6d .cfa: $rsp 176 +
STACK CFI 4ef79 .cfa: $rsp 8 +
STACK CFI INIT 4ef7a 41 .cfa: $rsp 8 + .ra: .cfa -8 + ^
STACK CFI 4ef7e .cfa: $rsp 24 +
STACK CFI 4ef80 .cfa: $rsp 32 +
STACK CFI 4ef82 .cfa: $rsp 40 +
STACK CFI 4ef84 .cfa: $rsp 48 +
STACK CFI 4ef86 .cfa: $rsp 56 +
STACK CFI 4ef88 .cfa: $rsp 64 +
STACK CFI 4ef8a .cfa: $rsp 72 +
STACK CFI 4ef8c .cfa: $rsp 80 +
STACK CFI 4ef8e .cfa: $rsp 88 +
STACK CFI 4ef90 .cfa: $rsp 96 +
STACK CFI 4ef92 .cfa: $rsp 104 +
STACK CFI 4ef94 .cfa: $rsp 112 +
STACK CFI 4ef96 .cfa: $rsp 120 +
STACK CFI 4ef98 .cfa: $rsp 128 +
STACK CFI 4ef9a .cfa: $rsp 136 +
STACK CFI 4ef9c .cfa: $rsp 144 +
STACK CFI 4ef9e .cfa: $rsp 152 +
STACK CFI 4efa0 .cfa: $rsp 160 +
STACK CFI 4efa7 .cfa: $rsp 168 +
STACK CFI 4efae .cfa: $rsp 176 +
STACK CFI 4efba .cfa: $rsp 8 +
STACK CFI INIT 4efbb 41 .cfa: $rsp 8 + .ra: .cfa -8 + ^
STACK CFI 4efbf .cfa: $rsp 24 +
STACK CFI 4efc1 .cfa: $rsp 32 +
STACK CFI 4efc3 .cfa: $rsp 40 +
STACK CFI 4efc5 .cfa: $rsp 48 +
STACK CFI 4efc7 .cfa: $rsp 56 +
STACK CFI 4efc9 .cfa: $rsp 64 +
STACK CFI 4efcb .cfa: $rsp 72 +
STACK CFI 4efcd .cfa: $rsp 80 +
STACK CFI 4efcf .cfa: $rsp 88 +
STACK CFI 4efd1 .cfa: $rsp 96 +
STACK CFI 4efd3 .cfa: $rsp 104 +
STACK CFI 4efd5 .cfa: $rsp 112 +
STACK CFI 4efd7 .cfa: $rsp 120 +
STACK CFI 4efd9 .cfa: $rsp 128 +
STACK CFI 4efdb .cfa: $rsp 136 +
STACK CFI 4efdd .cfa: $rsp 144 +
STACK CFI 4efdf .cfa: $rsp 152 +
STACK CFI 4efe1 .cfa: $rsp 160 +
STACK CFI 4efe8 .cfa: $rsp 168 +
STACK CFI 4efef .cfa: $rsp 176 +
STACK CFI 4effb .cfa: $rsp 8 +
STACK CFI INIT 4effc 41 .cfa: $rsp 8 + .ra: .cfa -8 + ^
STACK CFI 4f000 .cfa: $rsp 24 +
STACK CFI 4f002 .cfa: $rsp 32 +
STACK CFI 4f004 .cfa: $rsp 40 +
STACK CFI 4f006 .cfa: $rsp 48 +
STACK CFI 4f008 .cfa: $rsp 56 +
STACK CFI 4f00a .cfa: $rsp 64 +
STACK CFI 4f00c .cfa: $rsp 72 +
STACK CFI 4f00e .cfa: $rsp 80 +
STACK CFI 4f010 .cfa: $rsp 88 +
STACK CFI 4f012 .cfa: $rsp 96 +
STACK CFI 4f014 .cfa: $rsp 104 +
STACK CFI 4f016 .cfa: $rsp 112 +
STACK CFI 4f018 .cfa: $rsp 120 +
STACK CFI 4f01a .cfa: $rsp 128 +
STACK CFI 4f01c .cfa: $rsp 136 +
STACK CFI 4f01e .cfa: $rsp 144 +
STACK CFI 4f020 .cfa: $rsp 152 +
STACK CFI 4f022 .cfa: $rsp 160 +
STACK CFI 4f029 .cfa: $rsp 168 +
STACK CFI 4f030 .cfa: $rsp 176 +
STACK CFI 4f03c .cfa: $rsp 8 +
STACK CFI INIT 4f03d 41 .cfa: $rsp 8 + .ra: .cfa -8 + ^
STACK CFI 4f041 .cfa: $rsp 24 +
STACK CFI 4f043 .cfa: $rsp 32 +
STACK CFI 4f045 .cfa: $rsp 40 +
STACK CFI 4f047 .cfa: $rsp 48 +
STACK CFI 4f049 .cfa: $rsp 56 +
STACK CFI 4f04b .cfa: $rsp 64 +
STACK CFI 4f04d .cfa: $rsp 72 +
STACK CFI 4f04f .cfa: $rsp 80 +
STACK CFI 4f051 .cfa: $rsp 88 +
STACK CFI 4f053 .cfa: $rsp 96 +
STACK CFI 4f055 .cfa: $rsp 104 +
STACK CFI 4f057 .cfa: $rsp 112 +
STACK CFI 4f059 .cfa: $rsp 120 +
STACK CFI 4f05b .cfa: $rsp 128 +
STACK CFI 4f05d .cfa: $rsp 136 +
STACK CFI 4f05f .cfa: $rsp 144 +
STACK CFI 4f061 .cfa: $rsp 152 +
STACK CFI 4f063 .cfa: $rsp 160 +
STACK CFI 4f06a .cfa: $rsp 168 +
STACK CFI 4f071 .cfa: $rsp 176 +
STACK CFI 4f07d .cfa: $rsp 8 +
STACK CFI INIT 4f07e 41 .cfa: $rsp 8 + .ra: .cfa -8 + ^
STACK CFI 4f082 .cfa: $rsp 24 +
STACK CFI 4f084 .cfa: $rsp 32 +
STACK CFI 4f086 .cfa: $rsp 40 +
STACK CFI 4f088 .cfa: $rsp 48 +
STACK CFI 4f08a .cfa: $rsp 56 +
STACK CFI 4f08c .cfa: $rsp 64 +
STACK CFI 4f08e .cfa: $rsp 72 +
STACK CFI 4f090 .cfa: $rsp 80 +
STACK CFI 4f092 .cfa: $rsp 88 +
STACK CFI 4f094 .cfa: $rsp 96 +
STACK CFI 4f096 .cfa: $rsp 104 +
STACK CFI 4f098 .cfa: $rsp 112 +
STACK CFI 4f09a .cfa: $rsp 120 +
STACK CFI 4f09c .cfa: $rsp 128 +
STACK CFI 4f09e .cfa: $rsp 136 +
STACK CFI 4f0a0 .cfa: $rsp 144 +
STACK CFI 4f0a2 .cfa: $rsp 152 +
STACK CFI 4f0a4 .cfa: $rsp 160 +
STACK CFI 4f0ab .cfa: $rsp 168 +
STACK CFI 4f0b2 .cfa: $rsp 176 +
STACK CFI 4f0be .cfa: $rsp 8 +
STACK CFI INIT 4f0bf 41 .cfa: $rsp 8 + .ra: .cfa -8 + ^
STACK CFI 4f0c3 .cfa: $rsp 24 +
STACK CFI 4f0c5 .cfa: $rsp 32 +
STACK CFI 4f0c7 .cfa: $rsp 40 +
STACK CFI 4f0c9 .cfa: $rsp 48 +
STACK CFI 4f0cb .cfa: $rsp 56 +
STACK CFI 4f0cd .cfa: $rsp 64 +
STACK CFI 4f0cf .cfa: $rsp 72 +
STACK CFI 4f0d1 .cfa: $rsp 80 +
STACK CFI 4f0d3 .cfa: $rsp 88 +
STACK CFI 4f0d5 .cfa: $rsp 96 +
STACK CFI 4f0d7 .cfa: $rsp 104 +
STACK CFI 4f0d9 .cfa: $rsp 112 +
STACK CFI 4f0db .cfa: $rsp 120 +
STACK CFI 4f0dd .cfa: $rsp 128 +
STACK CFI 4f0df .cfa: $rsp 136 +
STACK CFI 4f0e1 .cfa: $rsp 144 +
STACK CFI 4f0e3 .cfa: $rsp 152 +
STACK CFI 4f0e5 .cfa: $rsp 160 +
STACK CFI 4f0ec .cfa: $rsp 168 +
STACK CFI 4f0f3 .cfa: $rsp 176 +
STACK CFI 4f0ff .cfa: $rsp 8 +
STACK CFI INIT 4f100 41 .cfa: $rsp 8 + .ra: .cfa -8 + ^
STACK CFI 4f104 .cfa: $rsp 24 +
STACK CFI 4f106 .cfa: $rsp 32 +
STACK CFI 4f108 .cfa: $rsp 40 +
STACK CFI 4f10a .cfa: $rsp 48 +
STACK CFI 4f10c .cfa: $rsp 56 +
STACK CFI 4f10e .cfa: $rsp 64 +
STACK CFI 4f110 .cfa: $rsp 72 +
STACK CFI 4f112 .cfa: $rsp 80 +
STACK CFI 4f114 .cfa: $rsp 88 +
STACK CFI 4f116 .cfa: $rsp 96 +
STACK CFI 4f118 .cfa: $rsp 104 +
STACK CFI 4f11a .cfa: $rsp 112 +
STACK CFI 4f11c .cfa: $rsp 120 +
STACK CFI 4f11e .cfa: $rsp 128 +
STACK CFI 4f120 .cfa: $rsp 136 +
STACK CFI 4f122 .cfa: $rsp 144 +
STACK CFI 4f124 .cfa: $rsp 152 +
STACK CFI 4f126 .cfa: $rsp 160 +
STACK CFI 4f12d .cfa: $rsp 168 +
STACK CFI 4f134 .cfa: $rsp 176 +
STACK CFI 4f140 .cfa: $rsp 8 +
STACK CFI INIT 4f141 41 .cfa: $rsp 8 + .ra: .cfa -8 + ^
STACK CFI 4f145 .cfa: $rsp 24 +
STACK CFI 4f147 .cfa: $rsp 32 +
STACK CFI 4f149 .cfa: $rsp 40 +
STACK CFI 4f14b .cfa: $rsp 48 +
STACK CFI 4f14d .cfa: $rsp 56 +
STACK CFI 4f14f .cfa: $rsp 64 +
STACK CFI 4f151 .cfa: $rsp 72 +
STACK CFI 4f153 .cfa: $rsp 80 +
STACK CFI 4f155 .cfa: $rsp 88 +
STACK CFI 4f157 .cfa: $rsp 96 +
STACK CFI 4f159 .cfa: $rsp 104 +
STACK CFI 4f15b .cfa: $rsp 112 +
STACK CFI 4f15d .cfa: $rsp 120 +
STACK CFI 4f15f .cfa: $rsp 128 +
STACK CFI 4f161 .cfa: $rsp 136 +
STACK CFI 4f163 .cfa: $rsp 144 +
STACK CFI 4f165 .cfa: $rsp 152 +
STACK CFI 4f167 .cfa: $rsp 160 +
STACK CFI 4f16e .cfa: $rsp 168 +
STACK CFI 4f175 .cfa: $rsp 176 +
STACK CFI 4f181 .cfa: $rsp 8 +
STACK CFI INIT 4f182 41 .cfa: $rsp 8 + .ra: .cfa -8 + ^
STACK CFI 4f186 .cfa: $rsp 24 +
STACK CFI 4f188 .cfa: $rsp 32 +
STACK CFI 4f18a .cfa: $rsp 40 +
STACK CFI 4f18c .cfa: $rsp 48 +
STACK CFI 4f18e .cfa: $rsp 56 +
STACK CFI 4f190 .cfa: $rsp 64 +
STACK CFI 4f192 .cfa: $rsp 72 +
STACK CFI 4f194 .cfa: $rsp 80 +
STACK CFI 4f196 .cfa: $rsp 88 +
STACK CFI 4f198 .cfa: $rsp 96 +
STACK CFI 4f19a .cfa: $rsp 104 +
STACK CFI 4f19c .cfa: $rsp 112 +
STACK CFI 4f19e .cfa: $rsp 120 +
STACK CFI 4f1a0 .cfa: $rsp 128 +
STACK CFI 4f1a2 .cfa: $rsp 136 +
STACK CFI 4f1a4 .cfa: $rsp 144 +
STACK CFI 4f1a6 .cfa: $rsp 152 +
STACK CFI 4f1a8 .cfa: $rsp 160 +
STACK CFI 4f1af .cfa: $rsp 168 +
STACK CFI 4f1b6 .cfa: $rsp 176 +
STACK CFI 4f1c2 .cfa: $rsp 8 +
STACK CFI INIT 4f1c3 41 .cfa: $rsp 8 + .ra: .cfa -8 + ^
STACK CFI 4f1c7 .cfa: $rsp 24 +
STACK CFI 4f1c9 .cfa: $rsp 32 +
STACK CFI 4f1cb .cfa: $rsp 40 +
STACK CFI 4f1cd .cfa: $rsp 48 +
STACK CFI 4f1cf .cfa: $rsp 56 +
STACK CFI 4f1d1 .cfa: $rsp 64 +
STACK CFI 4f1d3 .cfa: $rsp 72 +
STACK CFI 4f1d5 .cfa: $rsp 80 +
STACK CFI 4f1d7 .cfa: $rsp 88 +
STACK CFI 4f1d9 .cfa: $rsp 96 +
STACK CFI 4f1db .cfa: $rsp 104 +
STACK CFI 4f1dd .cfa: $rsp 112 +
STACK CFI 4f1df .cfa: $rsp 120 +
STACK CFI 4f1e1 .cfa: $rsp 128 +
STACK CFI 4f1e3 .cfa: $rsp 136 +
STACK CFI 4f1e5 .cfa: $rsp 144 +
STACK CFI 4f1e7 .cfa: $rsp 152 +
STACK CFI 4f1e9 .cfa: $rsp 160 +
STACK CFI 4f1f0 .cfa: $rsp 168 +
STACK CFI 4f1f7 .cfa: $rsp 176 +
STACK CFI 4f203 .cfa: $rsp 8 +
STACK CFI INIT 4f204 41 .cfa: $rsp 8 + .ra: .cfa -8 + ^
STACK CFI 4f208 .cfa: $rsp 24 +
STACK CFI 4f20a .cfa: $rsp 32 +
STACK CFI 4f20c .cfa: $rsp 40 +
STACK CFI 4f20e .cfa: $rsp 48 +
STACK CFI 4f210 .cfa: $rsp 56 +
STACK CFI 4f212 .cfa: $rsp 64 +
STACK CFI 4f214 .cfa: $rsp 72 +
STACK CFI 4f216 .cfa: $rsp 80 +
STACK CFI 4f218 .cfa: $rsp 88 +
STACK CFI 4f21a .cfa: $rsp 96 +
STACK CFI 4f21c .cfa: $rsp 104 +
STACK CFI 4f21e .cfa: $rsp 112 +
STACK CFI 4f220 .cfa: $rsp 120 +
STACK CFI 4f222 .cfa: $rsp 128 +
STACK CFI 4f224 .cfa: $rsp 136 +
STACK CFI 4f226 .cfa: $rsp 144 +
STACK CFI 4f228 .cfa: $rsp 152 +
STACK CFI 4f22a .cfa: $rsp 160 +
STACK CFI 4f231 .cfa: $rsp 168 +
STACK CFI 4f238 .cfa: $rsp 176 +
STACK CFI 4f244 .cfa: $rsp 8 +
STACK CFI INIT 4f245 41 .cfa: $rsp 8 + .ra: .cfa -8 + ^
STACK CFI 4f249 .cfa: $rsp 24 +
STACK CFI 4f24b .cfa: $rsp 32 +
STACK CFI 4f24d .cfa: $rsp 40 +
STACK CFI 4f24f .cfa: $rsp 48 +
STACK CFI 4f251 .cfa: $rsp 56 +
STACK CFI 4f253 .cfa: $rsp 64 +
STACK CFI 4f255 .cfa: $rsp 72 +
STACK CFI 4f257 .cfa: $rsp 80 +
STACK CFI 4f259 .cfa: $rsp 88 +
STACK CFI 4f25b .cfa: $rsp 96 +
STACK CFI 4f25d .cfa: $rsp 104 +
STACK CFI 4f25f .cfa: $rsp 112 +
STACK CFI 4f261 .cfa: $rsp 120 +
STACK CFI 4f263 .cfa: $rsp 128 +
STACK CFI 4f265 .cfa: $rsp 136 +
STACK CFI 4f267 .cfa: $rsp 144 +
STACK CFI 4f269 .cfa: $rsp 152 +
STACK CFI 4f26b .cfa: $rsp 160 +
STACK CFI 4f272 .cfa: $rsp 168 +
STACK CFI 4f279 .cfa: $rsp 176 +
STACK CFI 4f285 .cfa: $rsp 8 +
STACK CFI INIT 4f286 41 .cfa: $rsp 8 + .ra: .cfa -8 + ^
STACK CFI 4f28a .cfa: $rsp 24 +
STACK CFI 4f28c .cfa: $rsp 32 +
STACK CFI 4f28e .cfa: $rsp 40 +
STACK CFI 4f290 .cfa: $rsp 48 +
STACK CFI 4f292 .cfa: $rsp 56 +
STACK CFI 4f294 .cfa: $rsp 64 +
STACK CFI 4f296 .cfa: $rsp 72 +
STACK CFI 4f298 .cfa: $rsp 80 +
STACK CFI 4f29a .cfa: $rsp 88 +
STACK CFI 4f29c .cfa: $rsp 96 +
STACK CFI 4f29e .cfa: $rsp 104 +
STACK CFI 4f2a0 .cfa: $rsp 112 +
STACK CFI 4f2a2 .cfa: $rsp 120 +
STACK CFI 4f2a4 .cfa: $rsp 128 +
STACK CFI 4f2a6 .cfa: $rsp 136 +
STACK CFI 4f2a8 .cfa: $rsp 144 +
STACK CFI 4f2aa .cfa: $rsp 152 +
STACK CFI 4f2ac .cfa: $rsp 160 +
STACK CFI 4f2b3 .cfa: $rsp 168 +
STACK CFI 4f2ba .cfa: $rsp 176 +
STACK CFI 4f2c6 .cfa: $rsp 8 +
STACK CFI INIT 4f2c7 41 .cfa: $rsp 8 + .ra: .cfa -8 + ^
STACK CFI 4f2cb .cfa: $rsp 24 +
STACK CFI 4f2cd .cfa: $rsp 32 +
STACK CFI 4f2cf .cfa: $rsp 40 +
STACK CFI 4f2d1 .cfa: $rsp 48 +
STACK CFI 4f2d3 .cfa: $rsp 56 +
STACK CFI 4f2d5 .cfa: $rsp 64 +
STACK CFI 4f2d7 .cfa: $rsp 72 +
STACK CFI 4f2d9 .cfa: $rsp 80 +
STACK CFI 4f2db .cfa: $rsp 88 +
STACK CFI 4f2dd .cfa: $rsp 96 +
STACK CFI 4f2df .cfa: $rsp 104 +
STACK CFI 4f2e1 .cfa: $rsp 112 +
STACK CFI 4f2e3 .cfa: $rsp 120 +
STACK CFI 4f2e5 .cfa: $rsp 128 +
STACK CFI 4f2e7 .cfa: $rsp 136 +
STACK CFI 4f2e9 .cfa: $rsp 144 +
STACK CFI 4f2eb .cfa: $rsp 152 +
STACK CFI 4f2ed .cfa: $rsp 160 +
STACK CFI 4f2f4 .cfa: $rsp 168 +
STACK CFI 4f2fb .cfa: $rsp 176 +
STACK CFI 4f307 .cfa: $rsp 8 +
STACK CFI INIT 4f308 41 .cfa: $rsp 8 + .ra: .cfa -8 + ^
STACK CFI 4f30c .cfa: $rsp 24 +
STACK CFI 4f30e .cfa: $rsp 32 +
STACK CFI 4f310 .cfa: $rsp 40 +
STACK CFI 4f312 .cfa: $rsp 48 +
STACK CFI 4f314 .cfa: $rsp 56 +
STACK CFI 4f316 .cfa: $rsp 64 +
STACK CFI 4f318 .cfa: $rsp 72 +
STACK CFI 4f31a .cfa: $rsp 80 +
STACK CFI 4f31c .cfa: $rsp 88 +
STACK CFI 4f31e .cfa: $rsp 96 +
STACK CFI 4f320 .cfa: $rsp 104 +
STACK CFI 4f322 .cfa: $rsp 112 +
STACK CFI 4f324 .cfa: $rsp 120 +
STACK CFI 4f326 .cfa: $rsp 128 +
STACK CFI 4f328 .cfa: $rsp 136 +
STACK CFI 4f32a .cfa: $rsp 144 +
STACK CFI 4f32c .cfa: $rsp 152 +
STACK CFI 4f32e .cfa: $rsp 160 +
STACK CFI 4f335 .cfa: $rsp 168 +
STACK CFI 4f33c .cfa: $rsp 176 +
STACK CFI 4f348 .cfa: $rsp 8 +
STACK CFI INIT 4f349 41 .cfa: $rsp 8 + .ra: .cfa -8 + ^
STACK CFI 4f34d .cfa: $rsp 24 +
STACK CFI 4f34f .cfa: $rsp 32 +
STACK CFI 4f351 .cfa: $rsp 40 +
STACK CFI 4f353 .cfa: $rsp 48 +
STACK CFI 4f355 .cfa: $rsp 56 +
STACK CFI 4f357 .cfa: $rsp 64 +
STACK CFI 4f359 .cfa: $rsp 72 +
STACK CFI 4f35b .cfa: $rsp 80 +
STACK CFI 4f35d .cfa: $rsp 88 +
STACK CFI 4f35f .cfa: $rsp 96 +
STACK CFI 4f361 .cfa: $rsp 104 +
STACK CFI 4f363 .cfa: $rsp 112 +
STACK CFI 4f365 .cfa: $rsp 120 +
STACK CFI 4f367 .cfa: $rsp 128 +
STACK CFI 4f369 .cfa: $rsp 136 +
STACK CFI 4f36b .cfa: $rsp 144 +
STACK CFI 4f36d .cfa: $rsp 152 +
STACK CFI 4f36f .cfa: $rsp 160 +
STACK CFI 4f376 .cfa: $rsp 168 +
STACK CFI 4f37d .cfa: $rsp 176 +
STACK CFI 4f389 .cfa: $rsp 8 +
STACK CFI INIT 4f38a 41 .cfa: $rsp 8 + .ra: .cfa -8 + ^
STACK CFI 4f38e .cfa: $rsp 24 +
STACK CFI 4f390 .cfa: $rsp 32 +
STACK CFI 4f392 .cfa: $rsp 40 +
STACK CFI 4f394 .cfa: $rsp 48 +
STACK CFI 4f396 .cfa: $rsp 56 +
STACK CFI 4f398 .cfa: $rsp 64 +
STACK CFI 4f39a .cfa: $rsp 72 +
STACK CFI 4f39c .cfa: $rsp 80 +
STACK CFI 4f39e .cfa: $rsp 88 +
STACK CFI 4f3a0 .cfa: $rsp 96 +
STACK CFI 4f3a2 .cfa: $rsp 104 +
STACK CFI 4f3a4 .cfa: $rsp 112 +
STACK CFI 4f3a6 .cfa: $rsp 120 +
STACK CFI 4f3a8 .cfa: $rsp 128 +
STACK CFI 4f3aa .cfa: $rsp 136 +
STACK CFI 4f3ac .cfa: $rsp 144 +
STACK CFI 4f3ae .cfa: $rsp 152 +
STACK CFI 4f3b0 .cfa: $rsp 160 +
STACK CFI 4f3b7 .cfa: $rsp 168 +
STACK CFI 4f3be .cfa: $rsp 176 +
STACK CFI 4f3ca .cfa: $rsp 8 +
STACK CFI INIT 4f3cb 41 .cfa: $rsp 8 + .ra: .cfa -8 + ^
STACK CFI 4f3cf .cfa: $rsp 24 +
STACK CFI 4f3d1 .cfa: $rsp 32 +
STACK CFI 4f3d3 .cfa: $rsp 40 +
STACK CFI 4f3d5 .cfa: $rsp 48 +
STACK CFI 4f3d7 .cfa: $rsp 56 +
STACK CFI 4f3d9 .cfa: $rsp 64 +
STACK CFI 4f3db .cfa: $rsp 72 +
STACK CFI 4f3dd .cfa: $rsp 80 +
STACK CFI 4f3df .cfa: $rsp 88 +
STACK CFI 4f3e1 .cfa: $rsp 96 +
STACK CFI 4f3e3 .cfa: $rsp 104 +
STACK CFI 4f3e5 .cfa: $rsp 112 +
STACK CFI 4f3e7 .cfa: $rsp 120 +
STACK CFI 4f3e9 .cfa: $rsp 128 +
STACK CFI 4f3eb .cfa: $rsp 136 +
STACK CFI 4f3ed .cfa: $rsp 144 +
STACK CFI 4f3ef .cfa: $rsp 152 +
STACK CFI 4f3f1 .cfa: $rsp 160 +
STACK CFI 4f3f8 .cfa: $rsp 168 +
STACK CFI 4f3ff .cfa: $rsp 176 +
STACK CFI 4f40b .cfa: $rsp 8 +
STACK CFI INIT 4f40c 41 .cfa: $rsp 8 + .ra: .cfa -8 + ^
STACK CFI 4f410 .cfa: $rsp 24 +
STACK CFI 4f412 .cfa: $rsp 32 +
STACK CFI 4f414 .cfa: $rsp 40 +
STACK CFI 4f416 .cfa: $rsp 48 +
STACK CFI 4f418 .cfa: $rsp 56 +
STACK CFI 4f41a .cfa: $rsp 64 +
STACK CFI 4f41c .cfa: $rsp 72 +
STACK CFI 4f41e .cfa: $rsp 80 +
STACK CFI 4f420 .cfa: $rsp 88 +
STACK CFI 4f422 .cfa: $rsp 96 +
STACK CFI 4f424 .cfa: $rsp 104 +
STACK CFI 4f426 .cfa: $rsp 112 +
STACK CFI 4f428 .cfa: $rsp 120 +
STACK CFI 4f42a .cfa: $rsp 128 +
STACK CFI 4f42c .cfa: $rsp 136 +
STACK CFI 4f42e .cfa: $rsp 144 +
STACK CFI 4f430 .cfa: $rsp 152 +
STACK CFI 4f432 .cfa: $rsp 160 +
STACK CFI 4f439 .cfa: $rsp 168 +
STACK CFI 4f440 .cfa: $rsp 176 +
STACK CFI 4f44c .cfa: $rsp 8 +
STACK CFI INIT 4f44d 41 .cfa: $rsp 8 + .ra: .cfa -8 + ^
STACK CFI 4f451 .cfa: $rsp 24 +
STACK CFI 4f453 .cfa: $rsp 32 +
STACK CFI 4f455 .cfa: $rsp 40 +
STACK CFI 4f457 .cfa: $rsp 48 +
STACK CFI 4f459 .cfa: $rsp 56 +
STACK CFI 4f45b .cfa: $rsp 64 +
STACK CFI 4f45d .cfa: $rsp 72 +
STACK CFI 4f45f .cfa: $rsp 80 +
STACK CFI 4f461 .cfa: $rsp 88 +
STACK CFI 4f463 .cfa: $rsp 96 +
STACK CFI 4f465 .cfa: $rsp 104 +
STACK CFI 4f467 .cfa: $rsp 112 +
STACK CFI 4f469 .cfa: $rsp 120 +
STACK CFI 4f46b .cfa: $rsp 128 +
STACK CFI 4f46d .cfa: $rsp 136 +
STACK CFI 4f46f .cfa: $rsp 144 +
STACK CFI 4f471 .cfa: $rsp 152 +
STACK CFI 4f473 .cfa: $rsp 160 +
STACK CFI 4f47a .cfa: $rsp 168 +
STACK CFI 4f481 .cfa: $rsp 176 +
STACK CFI 4f48d .cfa: $rsp 8 +
STACK CFI INIT 4f48e 41 .cfa: $rsp 8 + .ra: .cfa -8 + ^
STACK CFI 4f492 .cfa: $rsp 24 +
STACK CFI 4f494 .cfa: $rsp 32 +
STACK CFI 4f496 .cfa: $rsp 40 +
STACK CFI 4f498 .cfa: $rsp 48 +
STACK CFI 4f49a .cfa: $rsp 56 +
STACK CFI 4f49c .cfa: $rsp 64 +
STACK CFI 4f49e .cfa: $rsp 72 +
STACK CFI 4f4a0 .cfa: $rsp 80 +
STACK CFI 4f4a2 .cfa: $rsp 88 +
STACK CFI 4f4a4 .cfa: $rsp 96 +
STACK CFI 4f4a6 .cfa: $rsp 104 +
STACK CFI 4f4a8 .cfa: $rsp 112 +
STACK CFI 4f4aa .cfa: $rsp 120 +
STACK CFI 4f4ac .cfa: $rsp 128 +
STACK CFI 4f4ae .cfa: $rsp 136 +
STACK CFI 4f4b0 .cfa: $rsp 144 +
STACK CFI 4f4b2 .cfa: $rsp 152 +
STACK CFI 4f4b4 .cfa: $rsp 160 +
STACK CFI 4f4bb .cfa: $rsp 168 +
STACK CFI 4f4c2 .cfa: $rsp 176 +
STACK CFI 4f4ce .cfa: $rsp 8 +
STACK CFI INIT 4f4cf 41 .cfa: $rsp 8 + .ra: .cfa -8 + ^
STACK CFI 4f4d3 .cfa: $rsp 24 +
STACK CFI 4f4d5 .cfa: $rsp 32 +
STACK CFI 4f4d7 .cfa: $rsp 40 +
STACK CFI 4f4d9 .cfa: $rsp 48 +
STACK CFI 4f4db .cfa: $rsp 56 +
STACK CFI 4f4dd .cfa: $rsp 64 +
STACK CFI 4f4df .cfa: $rsp 72 +
STACK CFI 4f4e1 .cfa: $rsp 80 +
STACK CFI 4f4e3 .cfa: $rsp 88 +
STACK CFI 4f4e5 .cfa: $rsp 96 +
STACK CFI 4f4e7 .cfa: $rsp 104 +
STACK CFI 4f4e9 .cfa: $rsp 112 +
STACK CFI 4f4eb .cfa: $rsp 120 +
STACK CFI 4f4ed .cfa: $rsp 128 +
STACK CFI 4f4ef .cfa: $rsp 136 +
STACK CFI 4f4f1 .cfa: $rsp 144 +
STACK CFI 4f4f3 .cfa: $rsp 152 +
STACK CFI 4f4f5 .cfa: $rsp 160 +
STACK CFI 4f4fc .cfa: $rsp 168 +
STACK CFI 4f503 .cfa: $rsp 176 +
STACK CFI 4f50f .cfa: $rsp 8 +
STACK CFI INIT 4f510 41 .cfa: $rsp 8 + .ra: .cfa -8 + ^
STACK CFI 4f514 .cfa: $rsp 24 +
STACK CFI 4f516 .cfa: $rsp 32 +
STACK CFI 4f518 .cfa: $rsp 40 +
STACK CFI 4f51a .cfa: $rsp 48 +
STACK CFI 4f51c .cfa: $rsp 56 +
STACK CFI 4f51e .cfa: $rsp 64 +
STACK CFI 4f520 .cfa: $rsp 72 +
STACK CFI 4f522 .cfa: $rsp 80 +
STACK CFI 4f524 .cfa: $rsp 88 +
STACK CFI 4f526 .cfa: $rsp 96 +
STACK CFI 4f528 .cfa: $rsp 104 +
STACK CFI 4f52a .cfa: $rsp 112 +
STACK CFI 4f52c .cfa: $rsp 120 +
STACK CFI 4f52e .cfa: $rsp 128 +
STACK CFI 4f530 .cfa: $rsp 136 +
STACK CFI 4f532 .cfa: $rsp 144 +
STACK CFI 4f534 .cfa: $rsp 152 +
STACK CFI 4f536 .cfa: $rsp 160 +
STACK CFI 4f53d .cfa: $rsp 168 +
STACK CFI 4f544 .cfa: $rsp 176 +
STACK CFI 4f550 .cfa: $rsp 8 +
STACK CFI INIT 4f551 41 .cfa: $rsp 8 + .ra: .cfa -8 + ^
STACK CFI 4f555 .cfa: $rsp 24 +
STACK CFI 4f557 .cfa: $rsp 32 +
STACK CFI 4f559 .cfa: $rsp 40 +
STACK CFI 4f55b .cfa: $rsp 48 +
STACK CFI 4f55d .cfa: $rsp 56 +
STACK CFI 4f55f .cfa: $rsp 64 +
STACK CFI 4f561 .cfa: $rsp 72 +
STACK CFI 4f563 .cfa: $rsp 80 +
STACK CFI 4f565 .cfa: $rsp 88 +
STACK CFI 4f567 .cfa: $rsp 96 +
STACK CFI 4f569 .cfa: $rsp 104 +
STACK CFI 4f56b .cfa: $rsp 112 +
STACK CFI 4f56d .cfa: $rsp 120 +
STACK CFI 4f56f .cfa: $rsp 128 +
STACK CFI 4f571 .cfa: $rsp 136 +
STACK CFI 4f573 .cfa: $rsp 144 +
STACK CFI 4f575 .cfa: $rsp 152 +
STACK CFI 4f577 .cfa: $rsp 160 +
STACK CFI 4f57e .cfa: $rsp 168 +
STACK CFI 4f585 .cfa: $rsp 176 +
STACK CFI 4f591 .cfa: $rsp 8 +
STACK CFI INIT 4f592 41 .cfa: $rsp 8 + .ra: .cfa -8 + ^
STACK CFI 4f596 .cfa: $rsp 24 +
STACK CFI 4f598 .cfa: $rsp 32 +
STACK CFI 4f59a .cfa: $rsp 40 +
STACK CFI 4f59c .cfa: $rsp 48 +
STACK CFI 4f59e .cfa: $rsp 56 +
STACK CFI 4f5a0 .cfa: $rsp 64 +
STACK CFI 4f5a2 .cfa: $rsp 72 +
STACK CFI 4f5a4 .cfa: $rsp 80 +
STACK CFI 4f5a6 .cfa: $rsp 88 +
STACK CFI 4f5a8 .cfa: $rsp 96 +
STACK CFI 4f5aa .cfa: $rsp 104 +
STACK CFI 4f5ac .cfa: $rsp 112 +
STACK CFI 4f5ae .cfa: $rsp 120 +
STACK CFI 4f5b0 .cfa: $rsp 128 +
STACK CFI 4f5b2 .cfa: $rsp 136 +
STACK CFI 4f5b4 .cfa: $rsp 144 +
STACK CFI 4f5b6 .cfa: $rsp 152 +
STACK CFI 4f5b8 .cfa: $rsp 160 +
STACK CFI 4f5bf .cfa: $rsp 168 +
STACK CFI 4f5c6 .cfa: $rsp 176 +
STACK CFI 4f5d2 .cfa: $rsp 8 +
STACK CFI INIT 4f5d3 41 .cfa: $rsp 8 + .ra: .cfa -8 + ^
STACK CFI 4f5d7 .cfa: $rsp 24 +
STACK CFI 4f5d9 .cfa: $rsp 32 +
STACK CFI 4f5db .cfa: $rsp 40 +
STACK CFI 4f5dd .cfa: $rsp 48 +
STACK CFI 4f5df .cfa: $rsp 56 +
STACK CFI 4f5e1 .cfa: $rsp 64 +
STACK CFI 4f5e3 .cfa: $rsp 72 +
STACK CFI 4f5e5 .cfa: $rsp 80 +
STACK CFI 4f5e7 .cfa: $rsp 88 +
STACK CFI 4f5e9 .cfa: $rsp 96 +
STACK CFI 4f5eb .cfa: $rsp 104 +
STACK CFI 4f5ed .cfa: $rsp 112 +
STACK CFI 4f5ef .cfa: $rsp 120 +
STACK CFI 4f5f1 .cfa: $rsp 128 +
STACK CFI 4f5f3 .cfa: $rsp 136 +
STACK CFI 4f5f5 .cfa: $rsp 144 +
STACK CFI 4f5f7 .cfa: $rsp 152 +
STACK CFI 4f5f9 .cfa: $rsp 160 +
STACK CFI 4f600 .cfa: $rsp 168 +
STACK CFI 4f607 .cfa: $rsp 176 +
STACK CFI 4f613 .cfa: $rsp 8 +
STACK CFI INIT 4f614 41 .cfa: $rsp 8 + .ra: .cfa -8 + ^
STACK CFI 4f618 .cfa: $rsp 24 +
STACK CFI 4f61a .cfa: $rsp 32 +
STACK CFI 4f61c .cfa: $rsp 40 +
STACK CFI 4f61e .cfa: $rsp 48 +
STACK CFI 4f620 .cfa: $rsp 56 +
STACK CFI 4f622 .cfa: $rsp 64 +
STACK CFI 4f624 .cfa: $rsp 72 +
STACK CFI 4f626 .cfa: $rsp 80 +
STACK CFI 4f628 .cfa: $rsp 88 +
STACK CFI 4f62a .cfa: $rsp 96 +
STACK CFI 4f62c .cfa: $rsp 104 +
STACK CFI 4f62e .cfa: $rsp 112 +
STACK CFI 4f630 .cfa: $rsp 120 +
STACK CFI 4f632 .cfa: $rsp 128 +
STACK CFI 4f634 .cfa: $rsp 136 +
STACK CFI 4f636 .cfa: $rsp 144 +
STACK CFI 4f638 .cfa: $rsp 152 +
STACK CFI 4f63a .cfa: $rsp 160 +
STACK CFI 4f641 .cfa: $rsp 168 +
STACK CFI 4f648 .cfa: $rsp 176 +
STACK CFI 4f654 .cfa: $rsp 8 +
STACK CFI INIT 4f655 41 .cfa: $rsp 8 + .ra: .cfa -8 + ^
STACK CFI 4f659 .cfa: $rsp 24 +
STACK CFI 4f65b .cfa: $rsp 32 +
STACK CFI 4f65d .cfa: $rsp 40 +
STACK CFI 4f65f .cfa: $rsp 48 +
STACK CFI 4f661 .cfa: $rsp 56 +
STACK CFI 4f663 .cfa: $rsp 64 +
STACK CFI 4f665 .cfa: $rsp 72 +
STACK CFI 4f667 .cfa: $rsp 80 +
STACK CFI 4f669 .cfa: $rsp 88 +
STACK CFI 4f66b .cfa: $rsp 96 +
STACK CFI 4f66d .cfa: $rsp 104 +
STACK CFI 4f66f .cfa: $rsp 112 +
STACK CFI 4f671 .cfa: $rsp 120 +
STACK CFI 4f673 .cfa: $rsp 128 +
STACK CFI 4f675 .cfa: $rsp 136 +
STACK CFI 4f677 .cfa: $rsp 144 +
STACK CFI 4f679 .cfa: $rsp 152 +
STACK CFI 4f67b .cfa: $rsp 160 +
STACK CFI 4f682 .cfa: $rsp 168 +
STACK CFI 4f689 .cfa: $rsp 176 +
STACK CFI 4f695 .cfa: $rsp 8 +
STACK CFI INIT 4f696 41 .cfa: $rsp 8 + .ra: .cfa -8 + ^
STACK CFI 4f69a .cfa: $rsp 24 +
STACK CFI 4f69c .cfa: $rsp 32 +
STACK CFI 4f69e .cfa: $rsp 40 +
STACK CFI 4f6a0 .cfa: $rsp 48 +
STACK CFI 4f6a2 .cfa: $rsp 56 +
STACK CFI 4f6a4 .cfa: $rsp 64 +
STACK CFI 4f6a6 .cfa: $rsp 72 +
STACK CFI 4f6a8 .cfa: $rsp 80 +
STACK CFI 4f6aa .cfa: $rsp 88 +
STACK CFI 4f6ac .cfa: $rsp 96 +
STACK CFI 4f6ae .cfa: $rsp 104 +
STACK CFI 4f6b0 .cfa: $rsp 112 +
STACK CFI 4f6b2 .cfa: $rsp 120 +
STACK CFI 4f6b4 .cfa: $rsp 128 +
STACK CFI 4f6b6 .cfa: $rsp 136 +
STACK CFI 4f6b8 .cfa: $rsp 144 +
STACK CFI 4f6ba .cfa: $rsp 152 +
STACK CFI 4f6bc .cfa: $rsp 160 +
STACK CFI 4f6c3 .cfa: $rsp 168 +
STACK CFI 4f6ca .cfa: $rsp 176 +
STACK CFI 4f6d6 .cfa: $rsp 8 +
STACK CFI INIT 4f6d7 41 .cfa: $rsp 8 + .ra: .cfa -8 + ^
STACK CFI 4f6db .cfa: $rsp 24 +
STACK CFI 4f6dd .cfa: $rsp 32 +
STACK CFI 4f6df .cfa: $rsp 40 +
STACK CFI 4f6e1 .cfa: $rsp 48 +
STACK CFI 4f6e3 .cfa: $rsp 56 +
STACK CFI 4f6e5 .cfa: $rsp 64 +
STACK CFI 4f6e7 .cfa: $rsp 72 +
STACK CFI 4f6e9 .cfa: $rsp 80 +
STACK CFI 4f6eb .cfa: $rsp 88 +
STACK CFI 4f6ed .cfa: $rsp 96 +
STACK CFI 4f6ef .cfa: $rsp 104 +
STACK CFI 4f6f1 .cfa: $rsp 112 +
STACK CFI 4f6f3 .cfa: $rsp 120 +
STACK CFI 4f6f5 .cfa: $rsp 128 +
STACK CFI 4f6f7 .cfa: $rsp 136 +
STACK CFI 4f6f9 .cfa: $rsp 144 +
STACK CFI 4f6fb .cfa: $rsp 152 +
STACK CFI 4f6fd .cfa: $rsp 160 +
STACK CFI 4f704 .cfa: $rsp 168 +
STACK CFI 4f70b .cfa: $rsp 176 +
STACK CFI 4f717 .cfa: $rsp 8 +
STACK CFI INIT 4f718 41 .cfa: $rsp 8 + .ra: .cfa -8 + ^
STACK CFI 4f71c .cfa: $rsp 24 +
STACK CFI 4f71e .cfa: $rsp 32 +
STACK CFI 4f720 .cfa: $rsp 40 +
STACK CFI 4f722 .cfa: $rsp 48 +
STACK CFI 4f724 .cfa: $rsp 56 +
STACK CFI 4f726 .cfa: $rsp 64 +
STACK CFI 4f728 .cfa: $rsp 72 +
STACK CFI 4f72a .cfa: $rsp 80 +
STACK CFI 4f72c .cfa: $rsp 88 +
STACK CFI 4f72e .cfa: $rsp 96 +
STACK CFI 4f730 .cfa: $rsp 104 +
STACK CFI 4f732 .cfa: $rsp 112 +
STACK CFI 4f734 .cfa: $rsp 120 +
STACK CFI 4f736 .cfa: $rsp 128 +
STACK CFI 4f738 .cfa: $rsp 136 +
STACK CFI 4f73a .cfa: $rsp 144 +
STACK CFI 4f73c .cfa: $rsp 152 +
STACK CFI 4f73e .cfa: $rsp 160 +
STACK CFI 4f745 .cfa: $rsp 168 +
STACK CFI 4f74c .cfa: $rsp 176 +
STACK CFI 4f758 .cfa: $rsp 8 +
STACK CFI INIT 4f759 41 .cfa: $rsp 8 + .ra: .cfa -8 + ^
STACK CFI 4f75d .cfa: $rsp 24 +
STACK CFI 4f75f .cfa: $rsp 32 +
STACK CFI 4f761 .cfa: $rsp 40 +
STACK CFI 4f763 .cfa: $rsp 48 +
STACK CFI 4f765 .cfa: $rsp 56 +
STACK CFI 4f767 .cfa: $rsp 64 +
STACK CFI 4f769 .cfa: $rsp 72 +
STACK CFI 4f76b .cfa: $rsp 80 +
STACK CFI 4f76d .cfa: $rsp 88 +
STACK CFI 4f76f .cfa: $rsp 96 +
STACK CFI 4f771 .cfa: $rsp 104 +
STACK CFI 4f773 .cfa: $rsp 112 +
STACK CFI 4f775 .cfa: $rsp 120 +
STACK CFI 4f777 .cfa: $rsp 128 +
STACK CFI 4f779 .cfa: $rsp 136 +
STACK CFI 4f77b .cfa: $rsp 144 +
STACK CFI 4f77d .cfa: $rsp 152 +
STACK CFI 4f77f .cfa: $rsp 160 +
STACK CFI 4f786 .cfa: $rsp 168 +
STACK CFI 4f78d .cfa: $rsp 176 +
STACK CFI 4f799 .cfa: $rsp 8 +
STACK CFI INIT 4f79a 41 .cfa: $rsp 8 + .ra: .cfa -8 + ^
STACK CFI 4f79e .cfa: $rsp 24 +
STACK CFI 4f7a0 .cfa: $rsp 32 +
STACK CFI 4f7a2 .cfa: $rsp 40 +
STACK CFI 4f7a4 .cfa: $rsp 48 +
STACK CFI 4f7a6 .cfa: $rsp 56 +
STACK CFI 4f7a8 .cfa: $rsp 64 +
STACK CFI 4f7aa .cfa: $rsp 72 +
STACK CFI 4f7ac .cfa: $rsp 80 +
STACK CFI 4f7ae .cfa: $rsp 88 +
STACK CFI 4f7b0 .cfa: $rsp 96 +
STACK CFI 4f7b2 .cfa: $rsp 104 +
STACK CFI 4f7b4 .cfa: $rsp 112 +
STACK CFI 4f7b6 .cfa: $rsp 120 +
STACK CFI 4f7b8 .cfa: $rsp 128 +
STACK CFI 4f7ba .cfa: $rsp 136 +
STACK CFI 4f7bc .cfa: $rsp 144 +
STACK CFI 4f7be .cfa: $rsp 152 +
STACK CFI 4f7c0 .cfa: $rsp 160 +
STACK CFI 4f7c7 .cfa: $rsp 168 +
STACK CFI 4f7ce .cfa: $rsp 176 +
STACK CFI 4f7da .cfa: $rsp 8 +
STACK CFI INIT 4f7db 41 .cfa: $rsp 8 + .ra: .cfa -8 + ^
STACK CFI 4f7df .cfa: $rsp 24 +
STACK CFI 4f7e1 .cfa: $rsp 32 +
STACK CFI 4f7e3 .cfa: $rsp 40 +
STACK CFI 4f7e5 .cfa: $rsp 48 +
STACK CFI 4f7e7 .cfa: $rsp 56 +
STACK CFI 4f7e9 .cfa: $rsp 64 +
STACK CFI 4f7eb .cfa: $rsp 72 +
STACK CFI 4f7ed .cfa: $rsp 80 +
STACK CFI 4f7ef .cfa: $rsp 88 +
STACK CFI 4f7f1 .cfa: $rsp 96 +
STACK CFI 4f7f3 .cfa: $rsp 104 +
STACK CFI 4f7f5 .cfa: $rsp 112 +
STACK CFI 4f7f7 .cfa: $rsp 120 +
STACK CFI 4f7f9 .cfa: $rsp 128 +
STACK CFI 4f7fb .cfa: $rsp 136 +
STACK CFI 4f7fd .cfa: $rsp 144 +
STACK CFI 4f7ff .cfa: $rsp 152 +
STACK CFI 4f801 .cfa: $rsp 160 +
STACK CFI 4f808 .cfa: $rsp 168 +
STACK CFI 4f80f .cfa: $rsp 176 +
STACK CFI 4f81b .cfa: $rsp 8 +
STACK CFI INIT 4f81c 41 .cfa: $rsp 8 + .ra: .cfa -8 + ^
STACK CFI 4f820 .cfa: $rsp 24 +
STACK CFI 4f822 .cfa: $rsp 32 +
STACK CFI 4f824 .cfa: $rsp 40 +
STACK CFI 4f826 .cfa: $rsp 48 +
STACK CFI 4f828 .cfa: $rsp 56 +
STACK CFI 4f82a .cfa: $rsp 64 +
STACK CFI 4f82c .cfa: $rsp 72 +
STACK CFI 4f82e .cfa: $rsp 80 +
STACK CFI 4f830 .cfa: $rsp 88 +
STACK CFI 4f832 .cfa: $rsp 96 +
STACK CFI 4f834 .cfa: $rsp 104 +
STACK CFI 4f836 .cfa: $rsp 112 +
STACK CFI 4f838 .cfa: $rsp 120 +
STACK CFI 4f83a .cfa: $rsp 128 +
STACK CFI 4f83c .cfa: $rsp 136 +
STACK CFI 4f83e .cfa: $rsp 144 +
STACK CFI 4f840 .cfa: $rsp 152 +
STACK CFI 4f842 .cfa: $rsp 160 +
STACK CFI 4f849 .cfa: $rsp 168 +
STACK CFI 4f850 .cfa: $rsp 176 +
STACK CFI 4f85c .cfa: $rsp 8 +
STACK CFI INIT 4f85d 41 .cfa: $rsp 8 + .ra: .cfa -8 + ^
STACK CFI 4f861 .cfa: $rsp 24 +
STACK CFI 4f863 .cfa: $rsp 32 +
STACK CFI 4f865 .cfa: $rsp 40 +
STACK CFI 4f867 .cfa: $rsp 48 +
STACK CFI 4f869 .cfa: $rsp 56 +
STACK CFI 4f86b .cfa: $rsp 64 +
STACK CFI 4f86d .cfa: $rsp 72 +
STACK CFI 4f86f .cfa: $rsp 80 +
STACK CFI 4f871 .cfa: $rsp 88 +
STACK CFI 4f873 .cfa: $rsp 96 +
STACK CFI 4f875 .cfa: $rsp 104 +
STACK CFI 4f877 .cfa: $rsp 112 +
STACK CFI 4f879 .cfa: $rsp 120 +
STACK CFI 4f87b .cfa: $rsp 128 +
STACK CFI 4f87d .cfa: $rsp 136 +
STACK CFI 4f87f .cfa: $rsp 144 +
STACK CFI 4f881 .cfa: $rsp 152 +
STACK CFI 4f883 .cfa: $rsp 160 +
STACK CFI 4f88a .cfa: $rsp 168 +
STACK CFI 4f891 .cfa: $rsp 176 +
STACK CFI 4f89d .cfa: $rsp 8 +
STACK CFI INIT 4f89e 41 .cfa: $rsp 8 + .ra: .cfa -8 + ^
STACK CFI 4f8a2 .cfa: $rsp 24 +
STACK CFI 4f8a4 .cfa: $rsp 32 +
STACK CFI 4f8a6 .cfa: $rsp 40 +
STACK CFI 4f8a8 .cfa: $rsp 48 +
STACK CFI 4f8aa .cfa: $rsp 56 +
STACK CFI 4f8ac .cfa: $rsp 64 +
STACK CFI 4f8ae .cfa: $rsp 72 +
STACK CFI 4f8b0 .cfa: $rsp 80 +
STACK CFI 4f8b2 .cfa: $rsp 88 +
STACK CFI 4f8b4 .cfa: $rsp 96 +
STACK CFI 4f8b6 .cfa: $rsp 104 +
STACK CFI 4f8b8 .cfa: $rsp 112 +
STACK CFI 4f8ba .cfa: $rsp 120 +
STACK CFI 4f8bc .cfa: $rsp 128 +
STACK CFI 4f8be .cfa: $rsp 136 +
STACK CFI 4f8c0 .cfa: $rsp 144 +
STACK CFI 4f8c2 .cfa: $rsp 152 +
STACK CFI 4f8c4 .cfa: $rsp 160 +
STACK CFI 4f8cb .cfa: $rsp 168 +
STACK CFI 4f8d2 .cfa: $rsp 176 +
STACK CFI 4f8de .cfa: $rsp 8 +
STACK CFI INIT 4f8df 41 .cfa: $rsp 8 + .ra: .cfa -8 + ^
STACK CFI 4f8e3 .cfa: $rsp 24 +
STACK CFI 4f8e5 .cfa: $rsp 32 +
STACK CFI 4f8e7 .cfa: $rsp 40 +
STACK CFI 4f8e9 .cfa: $rsp 48 +
STACK CFI 4f8eb .cfa: $rsp 56 +
STACK CFI 4f8ed .cfa: $rsp 64 +
STACK CFI 4f8ef .cfa: $rsp 72 +
STACK CFI 4f8f1 .cfa: $rsp 80 +
STACK CFI 4f8f3 .cfa: $rsp 88 +
STACK CFI 4f8f5 .cfa: $rsp 96 +
STACK CFI 4f8f7 .cfa: $rsp 104 +
STACK CFI 4f8f9 .cfa: $rsp 112 +
STACK CFI 4f8fb .cfa: $rsp 120 +
STACK CFI 4f8fd .cfa: $rsp 128 +
STACK CFI 4f8ff .cfa: $rsp 136 +
STACK CFI 4f901 .cfa: $rsp 144 +
STACK CFI 4f903 .cfa: $rsp 152 +
STACK CFI 4f905 .cfa: $rsp 160 +
STACK CFI 4f90c .cfa: $rsp 168 +
STACK CFI 4f913 .cfa: $rsp 176 +
STACK CFI 4f91f .cfa: $rsp 8 +
STACK CFI INIT 4f920 41 .cfa: $rsp 8 + .ra: .cfa -8 + ^
STACK CFI 4f924 .cfa: $rsp 24 +
STACK CFI 4f926 .cfa: $rsp 32 +
STACK CFI 4f928 .cfa: $rsp 40 +
STACK CFI 4f92a .cfa: $rsp 48 +
STACK CFI 4f92c .cfa: $rsp 56 +
STACK CFI 4f92e .cfa: $rsp 64 +
STACK CFI 4f930 .cfa: $rsp 72 +
STACK CFI 4f932 .cfa: $rsp 80 +
STACK CFI 4f934 .cfa: $rsp 88 +
STACK CFI 4f936 .cfa: $rsp 96 +
STACK CFI 4f938 .cfa: $rsp 104 +
STACK CFI 4f93a .cfa: $rsp 112 +
STACK CFI 4f93c .cfa: $rsp 120 +
STACK CFI 4f93e .cfa: $rsp 128 +
STACK CFI 4f940 .cfa: $rsp 136 +
STACK CFI 4f942 .cfa: $rsp 144 +
STACK CFI 4f944 .cfa: $rsp 152 +
STACK CFI 4f946 .cfa: $rsp 160 +
STACK CFI 4f94d .cfa: $rsp 168 +
STACK CFI 4f954 .cfa: $rsp 176 +
STACK CFI 4f960 .cfa: $rsp 8 +
STACK CFI INIT 4f961 41 .cfa: $rsp 8 + .ra: .cfa -8 + ^
STACK CFI 4f965 .cfa: $rsp 24 +
STACK CFI 4f967 .cfa: $rsp 32 +
STACK CFI 4f969 .cfa: $rsp 40 +
STACK CFI 4f96b .cfa: $rsp 48 +
STACK CFI 4f96d .cfa: $rsp 56 +
STACK CFI 4f96f .cfa: $rsp 64 +
STACK CFI 4f971 .cfa: $rsp 72 +
STACK CFI 4f973 .cfa: $rsp 80 +
STACK CFI 4f975 .cfa: $rsp 88 +
STACK CFI 4f977 .cfa: $rsp 96 +
STACK CFI 4f979 .cfa: $rsp 104 +
STACK CFI 4f97b .cfa: $rsp 112 +
STACK CFI 4f97d .cfa: $rsp 120 +
STACK CFI 4f97f .cfa: $rsp 128 +
STACK CFI 4f981 .cfa: $rsp 136 +
STACK CFI 4f983 .cfa: $rsp 144 +
STACK CFI 4f985 .cfa: $rsp 152 +
STACK CFI 4f987 .cfa: $rsp 160 +
STACK CFI 4f98e .cfa: $rsp 168 +
STACK CFI 4f995 .cfa: $rsp 176 +
STACK CFI 4f9a1 .cfa: $rsp 8 +
STACK CFI INIT 4f9a2 41 .cfa: $rsp 8 + .ra: .cfa -8 + ^
STACK CFI 4f9a6 .cfa: $rsp 24 +
STACK CFI 4f9a8 .cfa: $rsp 32 +
STACK CFI 4f9aa .cfa: $rsp 40 +
STACK CFI 4f9ac .cfa: $rsp 48 +
STACK CFI 4f9ae .cfa: $rsp 56 +
STACK CFI 4f9b0 .cfa: $rsp 64 +
STACK CFI 4f9b2 .cfa: $rsp 72 +
STACK CFI 4f9b4 .cfa: $rsp 80 +
STACK CFI 4f9b6 .cfa: $rsp 88 +
STACK CFI 4f9b8 .cfa: $rsp 96 +
STACK CFI 4f9ba .cfa: $rsp 104 +
STACK CFI 4f9bc .cfa: $rsp 112 +
STACK CFI 4f9be .cfa: $rsp 120 +
STACK CFI 4f9c0 .cfa: $rsp 128 +
STACK CFI 4f9c2 .cfa: $rsp 136 +
STACK CFI 4f9c4 .cfa: $rsp 144 +
STACK CFI 4f9c6 .cfa: $rsp 152 +
STACK CFI 4f9c8 .cfa: $rsp 160 +
STACK CFI 4f9cf .cfa: $rsp 168 +
STACK CFI 4f9d6 .cfa: $rsp 176 +
STACK CFI 4f9e2 .cfa: $rsp 8 +
STACK CFI INIT 4f9e3 41 .cfa: $rsp 8 + .ra: .cfa -8 + ^
STACK CFI 4f9e7 .cfa: $rsp 24 +
STACK CFI 4f9e9 .cfa: $rsp 32 +
STACK CFI 4f9eb .cfa: $rsp 40 +
STACK CFI 4f9ed .cfa: $rsp 48 +
STACK CFI 4f9ef .cfa: $rsp 56 +
STACK CFI 4f9f1 .cfa: $rsp 64 +
STACK CFI 4f9f3 .cfa: $rsp 72 +
STACK CFI 4f9f5 .cfa: $rsp 80 +
STACK CFI 4f9f7 .cfa: $rsp 88 +
STACK CFI 4f9f9 .cfa: $rsp 96 +
STACK CFI 4f9fb .cfa: $rsp 104 +
STACK CFI 4f9fd .cfa: $rsp 112 +
STACK CFI 4f9ff .cfa: $rsp 120 +
STACK CFI 4fa01 .cfa: $rsp 128 +
STACK CFI 4fa03 .cfa: $rsp 136 +
STACK CFI 4fa05 .cfa: $rsp 144 +
STACK CFI 4fa07 .cfa: $rsp 152 +
STACK CFI 4fa09 .cfa: $rsp 160 +
STACK CFI 4fa10 .cfa: $rsp 168 +
STACK CFI 4fa17 .cfa: $rsp 176 +
STACK CFI 4fa23 .cfa: $rsp 8 +
STACK CFI INIT 4fa24 41 .cfa: $rsp 8 + .ra: .cfa -8 + ^
STACK CFI 4fa28 .cfa: $rsp 24 +
STACK CFI 4fa2a .cfa: $rsp 32 +
STACK CFI 4fa2c .cfa: $rsp 40 +
STACK CFI 4fa2e .cfa: $rsp 48 +
STACK CFI 4fa30 .cfa: $rsp 56 +
STACK CFI 4fa32 .cfa: $rsp 64 +
STACK CFI 4fa34 .cfa: $rsp 72 +
STACK CFI 4fa36 .cfa: $rsp 80 +
STACK CFI 4fa38 .cfa: $rsp 88 +
STACK CFI 4fa3a .cfa: $rsp 96 +
STACK CFI 4fa3c .cfa: $rsp 104 +
STACK CFI 4fa3e .cfa: $rsp 112 +
STACK CFI 4fa40 .cfa: $rsp 120 +
STACK CFI 4fa42 .cfa: $rsp 128 +
STACK CFI 4fa44 .cfa: $rsp 136 +
STACK CFI 4fa46 .cfa: $rsp 144 +
STACK CFI 4fa48 .cfa: $rsp 152 +
STACK CFI 4fa4a .cfa: $rsp 160 +
STACK CFI 4fa51 .cfa: $rsp 168 +
STACK CFI 4fa58 .cfa: $rsp 176 +
STACK CFI 4fa64 .cfa: $rsp 8 +
STACK CFI INIT 4fa65 41 .cfa: $rsp 8 + .ra: .cfa -8 + ^
STACK CFI 4fa69 .cfa: $rsp 24 +
STACK CFI 4fa6b .cfa: $rsp 32 +
STACK CFI 4fa6d .cfa: $rsp 40 +
STACK CFI 4fa6f .cfa: $rsp 48 +
STACK CFI 4fa71 .cfa: $rsp 56 +
STACK CFI 4fa73 .cfa: $rsp 64 +
STACK CFI 4fa75 .cfa: $rsp 72 +
STACK CFI 4fa77 .cfa: $rsp 80 +
STACK CFI 4fa79 .cfa: $rsp 88 +
STACK CFI 4fa7b .cfa: $rsp 96 +
STACK CFI 4fa7d .cfa: $rsp 104 +
STACK CFI 4fa7f .cfa: $rsp 112 +
STACK CFI 4fa81 .cfa: $rsp 120 +
STACK CFI 4fa83 .cfa: $rsp 128 +
STACK CFI 4fa85 .cfa: $rsp 136 +
STACK CFI 4fa87 .cfa: $rsp 144 +
STACK CFI 4fa89 .cfa: $rsp 152 +
STACK CFI 4fa8b .cfa: $rsp 160 +
STACK CFI 4fa92 .cfa: $rsp 168 +
STACK CFI 4fa99 .cfa: $rsp 176 +
STACK CFI 4faa5 .cfa: $rsp 8 +
STACK CFI INIT 4faa6 41 .cfa: $rsp 8 + .ra: .cfa -8 + ^
STACK CFI 4faaa .cfa: $rsp 24 +
STACK CFI 4faac .cfa: $rsp 32 +
STACK CFI 4faae .cfa: $rsp 40 +
STACK CFI 4fab0 .cfa: $rsp 48 +
STACK CFI 4fab2 .cfa: $rsp 56 +
STACK CFI 4fab4 .cfa: $rsp 64 +
STACK CFI 4fab6 .cfa: $rsp 72 +
STACK CFI 4fab8 .cfa: $rsp 80 +
STACK CFI 4faba .cfa: $rsp 88 +
STACK CFI 4fabc .cfa: $rsp 96 +
STACK CFI 4fabe .cfa: $rsp 104 +
STACK CFI 4fac0 .cfa: $rsp 112 +
STACK CFI 4fac2 .cfa: $rsp 120 +
STACK CFI 4fac4 .cfa: $rsp 128 +
STACK CFI 4fac6 .cfa: $rsp 136 +
STACK CFI 4fac8 .cfa: $rsp 144 +
STACK CFI 4faca .cfa: $rsp 152 +
STACK CFI 4facc .cfa: $rsp 160 +
STACK CFI 4fad3 .cfa: $rsp 168 +
STACK CFI 4fada .cfa: $rsp 176 +
STACK CFI 4fae6 .cfa: $rsp 8 +
STACK CFI INIT 4fae7 41 .cfa: $rsp 8 + .ra: .cfa -8 + ^
STACK CFI 4faeb .cfa: $rsp 24 +
STACK CFI 4faed .cfa: $rsp 32 +
STACK CFI 4faef .cfa: $rsp 40 +
STACK CFI 4faf1 .cfa: $rsp 48 +
STACK CFI 4faf3 .cfa: $rsp 56 +
STACK CFI 4faf5 .cfa: $rsp 64 +
STACK CFI 4faf7 .cfa: $rsp 72 +
STACK CFI 4faf9 .cfa: $rsp 80 +
STACK CFI 4fafb .cfa: $rsp 88 +
STACK CFI 4fafd .cfa: $rsp 96 +
STACK CFI 4faff .cfa: $rsp 104 +
STACK CFI 4fb01 .cfa: $rsp 112 +
STACK CFI 4fb03 .cfa: $rsp 120 +
STACK CFI 4fb05 .cfa: $rsp 128 +
STACK CFI 4fb07 .cfa: $rsp 136 +
STACK CFI 4fb09 .cfa: $rsp 144 +
STACK CFI 4fb0b .cfa: $rsp 152 +
STACK CFI 4fb0d .cfa: $rsp 160 +
STACK CFI 4fb14 .cfa: $rsp 168 +
STACK CFI 4fb1b .cfa: $rsp 176 +
STACK CFI 4fb27 .cfa: $rsp 8 +
STACK CFI INIT 4fb28 41 .cfa: $rsp 8 + .ra: .cfa -8 + ^
STACK CFI 4fb2c .cfa: $rsp 24 +
STACK CFI 4fb2e .cfa: $rsp 32 +
STACK CFI 4fb30 .cfa: $rsp 40 +
STACK CFI 4fb32 .cfa: $rsp 48 +
STACK CFI 4fb34 .cfa: $rsp 56 +
STACK CFI 4fb36 .cfa: $rsp 64 +
STACK CFI 4fb38 .cfa: $rsp 72 +
STACK CFI 4fb3a .cfa: $rsp 80 +
STACK CFI 4fb3c .cfa: $rsp 88 +
STACK CFI 4fb3e .cfa: $rsp 96 +
STACK CFI 4fb40 .cfa: $rsp 104 +
STACK CFI 4fb42 .cfa: $rsp 112 +
STACK CFI 4fb44 .cfa: $rsp 120 +
STACK CFI 4fb46 .cfa: $rsp 128 +
STACK CFI 4fb48 .cfa: $rsp 136 +
STACK CFI 4fb4a .cfa: $rsp 144 +
STACK CFI 4fb4c .cfa: $rsp 152 +
STACK CFI 4fb4e .cfa: $rsp 160 +
STACK CFI 4fb55 .cfa: $rsp 168 +
STACK CFI 4fb5c .cfa: $rsp 176 +
STACK CFI 4fb68 .cfa: $rsp 8 +
STACK CFI INIT 4fb69 41 .cfa: $rsp 8 + .ra: .cfa -8 + ^
STACK CFI 4fb6d .cfa: $rsp 24 +
STACK CFI 4fb6f .cfa: $rsp 32 +
STACK CFI 4fb71 .cfa: $rsp 40 +
STACK CFI 4fb73 .cfa: $rsp 48 +
STACK CFI 4fb75 .cfa: $rsp 56 +
STACK CFI 4fb77 .cfa: $rsp 64 +
STACK CFI 4fb79 .cfa: $rsp 72 +
STACK CFI 4fb7b .cfa: $rsp 80 +
STACK CFI 4fb7d .cfa: $rsp 88 +
STACK CFI 4fb7f .cfa: $rsp 96 +
STACK CFI 4fb81 .cfa: $rsp 104 +
STACK CFI 4fb83 .cfa: $rsp 112 +
STACK CFI 4fb85 .cfa: $rsp 120 +
STACK CFI 4fb87 .cfa: $rsp 128 +
STACK CFI 4fb89 .cfa: $rsp 136 +
STACK CFI 4fb8b .cfa: $rsp 144 +
STACK CFI 4fb8d .cfa: $rsp 152 +
STACK CFI 4fb8f .cfa: $rsp 160 +
STACK CFI 4fb96 .cfa: $rsp 168 +
STACK CFI 4fb9d .cfa: $rsp 176 +
STACK CFI 4fba9 .cfa: $rsp 8 +
STACK CFI INIT 4fbaa 41 .cfa: $rsp 8 + .ra: .cfa -8 + ^
STACK CFI 4fbae .cfa: $rsp 24 +
STACK CFI 4fbb0 .cfa: $rsp 32 +
STACK CFI 4fbb2 .cfa: $rsp 40 +
STACK CFI 4fbb4 .cfa: $rsp 48 +
STACK CFI 4fbb6 .cfa: $rsp 56 +
STACK CFI 4fbb8 .cfa: $rsp 64 +
STACK CFI 4fbba .cfa: $rsp 72 +
STACK CFI 4fbbc .cfa: $rsp 80 +
STACK CFI 4fbbe .cfa: $rsp 88 +
STACK CFI 4fbc0 .cfa: $rsp 96 +
STACK CFI 4fbc2 .cfa: $rsp 104 +
STACK CFI 4fbc4 .cfa: $rsp 112 +
STACK CFI 4fbc6 .cfa: $rsp 120 +
STACK CFI 4fbc8 .cfa: $rsp 128 +
STACK CFI 4fbca .cfa: $rsp 136 +
STACK CFI 4fbcc .cfa: $rsp 144 +
STACK CFI 4fbce .cfa: $rsp 152 +
STACK CFI 4fbd0 .cfa: $rsp 160 +
STACK CFI 4fbd7 .cfa: $rsp 168 +
STACK CFI 4fbde .cfa: $rsp 176 +
STACK CFI 4fbea .cfa: $rsp 8 +
STACK CFI INIT 4fbeb 41 .cfa: $rsp 8 + .ra: .cfa -8 + ^
STACK CFI 4fbef .cfa: $rsp 24 +
STACK CFI 4fbf1 .cfa: $rsp 32 +
STACK CFI 4fbf3 .cfa: $rsp 40 +
STACK CFI 4fbf5 .cfa: $rsp 48 +
STACK CFI 4fbf7 .cfa: $rsp 56 +
STACK CFI 4fbf9 .cfa: $rsp 64 +
STACK CFI 4fbfb .cfa: $rsp 72 +
STACK CFI 4fbfd .cfa: $rsp 80 +
STACK CFI 4fbff .cfa: $rsp 88 +
STACK CFI 4fc01 .cfa: $rsp 96 +
STACK CFI 4fc03 .cfa: $rsp 104 +
STACK CFI 4fc05 .cfa: $rsp 112 +
STACK CFI 4fc07 .cfa: $rsp 120 +
STACK CFI 4fc09 .cfa: $rsp 128 +
STACK CFI 4fc0b .cfa: $rsp 136 +
STACK CFI 4fc0d .cfa: $rsp 144 +
STACK CFI 4fc0f .cfa: $rsp 152 +
STACK CFI 4fc11 .cfa: $rsp 160 +
STACK CFI 4fc18 .cfa: $rsp 168 +
STACK CFI 4fc1f .cfa: $rsp 176 +
STACK CFI 4fc2b .cfa: $rsp 8 +
STACK CFI INIT 4fc2c 41 .cfa: $rsp 8 + .ra: .cfa -8 + ^
STACK CFI 4fc30 .cfa: $rsp 24 +
STACK CFI 4fc32 .cfa: $rsp 32 +
STACK CFI 4fc34 .cfa: $rsp 40 +
STACK CFI 4fc36 .cfa: $rsp 48 +
STACK CFI 4fc38 .cfa: $rsp 56 +
STACK CFI 4fc3a .cfa: $rsp 64 +
STACK CFI 4fc3c .cfa: $rsp 72 +
STACK CFI 4fc3e .cfa: $rsp 80 +
STACK CFI 4fc40 .cfa: $rsp 88 +
STACK CFI 4fc42 .cfa: $rsp 96 +
STACK CFI 4fc44 .cfa: $rsp 104 +
STACK CFI 4fc46 .cfa: $rsp 112 +
STACK CFI 4fc48 .cfa: $rsp 120 +
STACK CFI 4fc4a .cfa: $rsp 128 +
STACK CFI 4fc4c .cfa: $rsp 136 +
STACK CFI 4fc4e .cfa: $rsp 144 +
STACK CFI 4fc50 .cfa: $rsp 152 +
STACK CFI 4fc52 .cfa: $rsp 160 +
STACK CFI 4fc59 .cfa: $rsp 168 +
STACK CFI 4fc60 .cfa: $rsp 176 +
STACK CFI 4fc6c .cfa: $rsp 8 +
STACK CFI INIT 4fc6d 41 .cfa: $rsp 8 + .ra: .cfa -8 + ^
STACK CFI 4fc71 .cfa: $rsp 24 +
STACK CFI 4fc73 .cfa: $rsp 32 +
STACK CFI 4fc75 .cfa: $rsp 40 +
STACK CFI 4fc77 .cfa: $rsp 48 +
STACK CFI 4fc79 .cfa: $rsp 56 +
STACK CFI 4fc7b .cfa: $rsp 64 +
STACK CFI 4fc7d .cfa: $rsp 72 +
STACK CFI 4fc7f .cfa: $rsp 80 +
STACK CFI 4fc81 .cfa: $rsp 88 +
STACK CFI 4fc83 .cfa: $rsp 96 +
STACK CFI 4fc85 .cfa: $rsp 104 +
STACK CFI 4fc87 .cfa: $rsp 112 +
STACK CFI 4fc89 .cfa: $rsp 120 +
STACK CFI 4fc8b .cfa: $rsp 128 +
STACK CFI 4fc8d .cfa: $rsp 136 +
STACK CFI 4fc8f .cfa: $rsp 144 +
STACK CFI 4fc91 .cfa: $rsp 152 +
STACK CFI 4fc93 .cfa: $rsp 160 +
STACK CFI 4fc9a .cfa: $rsp 168 +
STACK CFI 4fca1 .cfa: $rsp 176 +
STACK CFI 4fcad .cfa: $rsp 8 +
STACK CFI INIT 4fcae 41 .cfa: $rsp 8 + .ra: .cfa -8 + ^
STACK CFI 4fcb2 .cfa: $rsp 24 +
STACK CFI 4fcb4 .cfa: $rsp 32 +
STACK CFI 4fcb6 .cfa: $rsp 40 +
STACK CFI 4fcb8 .cfa: $rsp 48 +
STACK CFI 4fcba .cfa: $rsp 56 +
STACK CFI 4fcbc .cfa: $rsp 64 +
STACK CFI 4fcbe .cfa: $rsp 72 +
STACK CFI 4fcc0 .cfa: $rsp 80 +
STACK CFI 4fcc2 .cfa: $rsp 88 +
STACK CFI 4fcc4 .cfa: $rsp 96 +
STACK CFI 4fcc6 .cfa: $rsp 104 +
STACK CFI 4fcc8 .cfa: $rsp 112 +
STACK CFI 4fcca .cfa: $rsp 120 +
STACK CFI 4fccc .cfa: $rsp 128 +
STACK CFI 4fcce .cfa: $rsp 136 +
STACK CFI 4fcd0 .cfa: $rsp 144 +
STACK CFI 4fcd2 .cfa: $rsp 152 +
STACK CFI 4fcd4 .cfa: $rsp 160 +
STACK CFI 4fcdb .cfa: $rsp 168 +
STACK CFI 4fce2 .cfa: $rsp 176 +
STACK CFI 4fcee .cfa: $rsp 8 +
STACK CFI INIT 4fcef 41 .cfa: $rsp 8 + .ra: .cfa -8 + ^
STACK CFI 4fcf3 .cfa: $rsp 24 +
STACK CFI 4fcf5 .cfa: $rsp 32 +
STACK CFI 4fcf7 .cfa: $rsp 40 +
STACK CFI 4fcf9 .cfa: $rsp 48 +
STACK CFI 4fcfb .cfa: $rsp 56 +
STACK CFI 4fcfd .cfa: $rsp 64 +
STACK CFI 4fcff .cfa: $rsp 72 +
STACK CFI 4fd01 .cfa: $rsp 80 +
STACK CFI 4fd03 .cfa: $rsp 88 +
STACK CFI 4fd05 .cfa: $rsp 96 +
STACK CFI 4fd07 .cfa: $rsp 104 +
STACK CFI 4fd09 .cfa: $rsp 112 +
STACK CFI 4fd0b .cfa: $rsp 120 +
STACK CFI 4fd0d .cfa: $rsp 128 +
STACK CFI 4fd0f .cfa: $rsp 136 +
STACK CFI 4fd11 .cfa: $rsp 144 +
STACK CFI 4fd13 .cfa: $rsp 152 +
STACK CFI 4fd15 .cfa: $rsp 160 +
STACK CFI 4fd1c .cfa: $rsp 168 +
STACK CFI 4fd23 .cfa: $rsp 176 +
STACK CFI 4fd2f .cfa: $rsp 8 +
STACK CFI INIT 4fd30 41 .cfa: $rsp 8 + .ra: .cfa -8 + ^
STACK CFI 4fd34 .cfa: $rsp 24 +
STACK CFI 4fd36 .cfa: $rsp 32 +
STACK CFI 4fd38 .cfa: $rsp 40 +
STACK CFI 4fd3a .cfa: $rsp 48 +
STACK CFI 4fd3c .cfa: $rsp 56 +
STACK CFI 4fd3e .cfa: $rsp 64 +
STACK CFI 4fd40 .cfa: $rsp 72 +
STACK CFI 4fd42 .cfa: $rsp 80 +
STACK CFI 4fd44 .cfa: $rsp 88 +
STACK CFI 4fd46 .cfa: $rsp 96 +
STACK CFI 4fd48 .cfa: $rsp 104 +
STACK CFI 4fd4a .cfa: $rsp 112 +
STACK CFI 4fd4c .cfa: $rsp 120 +
STACK CFI 4fd4e .cfa: $rsp 128 +
STACK CFI 4fd50 .cfa: $rsp 136 +
STACK CFI 4fd52 .cfa: $rsp 144 +
STACK CFI 4fd54 .cfa: $rsp 152 +
STACK CFI 4fd56 .cfa: $rsp 160 +
STACK CFI 4fd5d .cfa: $rsp 168 +
STACK CFI 4fd64 .cfa: $rsp 176 +
STACK CFI 4fd70 .cfa: $rsp 8 +
STACK CFI INIT 4fd71 41 .cfa: $rsp 8 + .ra: .cfa -8 + ^
STACK CFI 4fd75 .cfa: $rsp 24 +
STACK CFI 4fd77 .cfa: $rsp 32 +
STACK CFI 4fd79 .cfa: $rsp 40 +
STACK CFI 4fd7b .cfa: $rsp 48 +
STACK CFI 4fd7d .cfa: $rsp 56 +
STACK CFI 4fd7f .cfa: $rsp 64 +
STACK CFI 4fd81 .cfa: $rsp 72 +
STACK CFI 4fd83 .cfa: $rsp 80 +
STACK CFI 4fd85 .cfa: $rsp 88 +
STACK CFI 4fd87 .cfa: $rsp 96 +
STACK CFI 4fd89 .cfa: $rsp 104 +
STACK CFI 4fd8b .cfa: $rsp 112 +
STACK CFI 4fd8d .cfa: $rsp 120 +
STACK CFI 4fd8f .cfa: $rsp 128 +
STACK CFI 4fd91 .cfa: $rsp 136 +
STACK CFI 4fd93 .cfa: $rsp 144 +
STACK CFI 4fd95 .cfa: $rsp 152 +
STACK CFI 4fd97 .cfa: $rsp 160 +
STACK CFI 4fd9e .cfa: $rsp 168 +
STACK CFI 4fda5 .cfa: $rsp 176 +
STACK CFI 4fdb1 .cfa: $rsp 8 +
STACK CFI INIT 4fdb2 41 .cfa: $rsp 8 + .ra: .cfa -8 + ^
STACK CFI 4fdb6 .cfa: $rsp 24 +
STACK CFI 4fdb8 .cfa: $rsp 32 +
STACK CFI 4fdba .cfa: $rsp 40 +
STACK CFI 4fdbc .cfa: $rsp 48 +
STACK CFI 4fdbe .cfa: $rsp 56 +
STACK CFI 4fdc0 .cfa: $rsp 64 +
STACK CFI 4fdc2 .cfa: $rsp 72 +
STACK CFI 4fdc4 .cfa: $rsp 80 +
STACK CFI 4fdc6 .cfa: $rsp 88 +
STACK CFI 4fdc8 .cfa: $rsp 96 +
STACK CFI 4fdca .cfa: $rsp 104 +
STACK CFI 4fdcc .cfa: $rsp 112 +
STACK CFI 4fdce .cfa: $rsp 120 +
STACK CFI 4fdd0 .cfa: $rsp 128 +
STACK CFI 4fdd2 .cfa: $rsp 136 +
STACK CFI 4fdd4 .cfa: $rsp 144 +
STACK CFI 4fdd6 .cfa: $rsp 152 +
STACK CFI 4fdd8 .cfa: $rsp 160 +
STACK CFI 4fddf .cfa: $rsp 168 +
STACK CFI 4fde6 .cfa: $rsp 176 +
STACK CFI 4fdf2 .cfa: $rsp 8 +
STACK CFI INIT 4fdf3 41 .cfa: $rsp 8 + .ra: .cfa -8 + ^
STACK CFI 4fdf7 .cfa: $rsp 24 +
STACK CFI 4fdf9 .cfa: $rsp 32 +
STACK CFI 4fdfb .cfa: $rsp 40 +
STACK CFI 4fdfd .cfa: $rsp 48 +
STACK CFI 4fdff .cfa: $rsp 56 +
STACK CFI 4fe01 .cfa: $rsp 64 +
STACK CFI 4fe03 .cfa: $rsp 72 +
STACK CFI 4fe05 .cfa: $rsp 80 +
STACK CFI 4fe07 .cfa: $rsp 88 +
STACK CFI 4fe09 .cfa: $rsp 96 +
STACK CFI 4fe0b .cfa: $rsp 104 +
STACK CFI 4fe0d .cfa: $rsp 112 +
STACK CFI 4fe0f .cfa: $rsp 120 +
STACK CFI 4fe11 .cfa: $rsp 128 +
STACK CFI 4fe13 .cfa: $rsp 136 +
STACK CFI 4fe15 .cfa: $rsp 144 +
STACK CFI 4fe17 .cfa: $rsp 152 +
STACK CFI 4fe19 .cfa: $rsp 160 +
STACK CFI 4fe20 .cfa: $rsp 168 +
STACK CFI 4fe27 .cfa: $rsp 176 +
STACK CFI 4fe33 .cfa: $rsp 8 +
STACK CFI INIT 4fe34 41 .cfa: $rsp 8 + .ra: .cfa -8 + ^
STACK CFI 4fe38 .cfa: $rsp 24 +
STACK CFI 4fe3a .cfa: $rsp 32 +
STACK CFI 4fe3c .cfa: $rsp 40 +
STACK CFI 4fe3e .cfa: $rsp 48 +
STACK CFI 4fe40 .cfa: $rsp 56 +
STACK CFI 4fe42 .cfa: $rsp 64 +
STACK CFI 4fe44 .cfa: $rsp 72 +
STACK CFI 4fe46 .cfa: $rsp 80 +
STACK CFI 4fe48 .cfa: $rsp 88 +
STACK CFI 4fe4a .cfa: $rsp 96 +
STACK CFI 4fe4c .cfa: $rsp 104 +
STACK CFI 4fe4e .cfa: $rsp 112 +
STACK CFI 4fe50 .cfa: $rsp 120 +
STACK CFI 4fe52 .cfa: $rsp 128 +
STACK CFI 4fe54 .cfa: $rsp 136 +
STACK CFI 4fe56 .cfa: $rsp 144 +
STACK CFI 4fe58 .cfa: $rsp 152 +
STACK CFI 4fe5a .cfa: $rsp 160 +
STACK CFI 4fe61 .cfa: $rsp 168 +
STACK CFI 4fe68 .cfa: $rsp 176 +
STACK CFI 4fe74 .cfa: $rsp 8 +
STACK CFI INIT 4fe75 41 .cfa: $rsp 8 + .ra: .cfa -8 + ^
STACK CFI 4fe79 .cfa: $rsp 24 +
STACK CFI 4fe7b .cfa: $rsp 32 +
STACK CFI 4fe7d .cfa: $rsp 40 +
STACK CFI 4fe7f .cfa: $rsp 48 +
STACK CFI 4fe81 .cfa: $rsp 56 +
STACK CFI 4fe83 .cfa: $rsp 64 +
STACK CFI 4fe85 .cfa: $rsp 72 +
STACK CFI 4fe87 .cfa: $rsp 80 +
STACK CFI 4fe89 .cfa: $rsp 88 +
STACK CFI 4fe8b .cfa: $rsp 96 +
STACK CFI 4fe8d .cfa: $rsp 104 +
STACK CFI 4fe8f .cfa: $rsp 112 +
STACK CFI 4fe91 .cfa: $rsp 120 +
STACK CFI 4fe93 .cfa: $rsp 128 +
STACK CFI 4fe95 .cfa: $rsp 136 +
STACK CFI 4fe97 .cfa: $rsp 144 +
STACK CFI 4fe99 .cfa: $rsp 152 +
STACK CFI 4fe9b .cfa: $rsp 160 +
STACK CFI 4fea2 .cfa: $rsp 168 +
STACK CFI 4fea9 .cfa: $rsp 176 +
STACK CFI 4feb5 .cfa: $rsp 8 +
STACK CFI INIT 4feb6 41 .cfa: $rsp 8 + .ra: .cfa -8 + ^
STACK CFI 4feba .cfa: $rsp 24 +
STACK CFI 4febc .cfa: $rsp 32 +
STACK CFI 4febe .cfa: $rsp 40 +
STACK CFI 4fec0 .cfa: $rsp 48 +
STACK CFI 4fec2 .cfa: $rsp 56 +
STACK CFI 4fec4 .cfa: $rsp 64 +
STACK CFI 4fec6 .cfa: $rsp 72 +
STACK CFI 4fec8 .cfa: $rsp 80 +
STACK CFI 4feca .cfa: $rsp 88 +
STACK CFI 4fecc .cfa: $rsp 96 +
STACK CFI 4fece .cfa: $rsp 104 +
STACK CFI 4fed0 .cfa: $rsp 112 +
STACK CFI 4fed2 .cfa: $rsp 120 +
STACK CFI 4fed4 .cfa: $rsp 128 +
STACK CFI 4fed6 .cfa: $rsp 136 +
STACK CFI 4fed8 .cfa: $rsp 144 +
STACK CFI 4feda .cfa: $rsp 152 +
STACK CFI 4fedc .cfa: $rsp 160 +
STACK CFI 4fee3 .cfa: $rsp 168 +
STACK CFI 4feea .cfa: $rsp 176 +
STACK CFI 4fef6 .cfa: $rsp 8 +
STACK CFI INIT 4fef7 41 .cfa: $rsp 8 + .ra: .cfa -8 + ^
STACK CFI 4fefb .cfa: $rsp 24 +
STACK CFI 4fefd .cfa: $rsp 32 +
STACK CFI 4feff .cfa: $rsp 40 +
STACK CFI 4ff01 .cfa: $rsp 48 +
STACK CFI 4ff03 .cfa: $rsp 56 +
STACK CFI 4ff05 .cfa: $rsp 64 +
STACK CFI 4ff07 .cfa: $rsp 72 +
STACK CFI 4ff09 .cfa: $rsp 80 +
STACK CFI 4ff0b .cfa: $rsp 88 +
STACK CFI 4ff0d .cfa: $rsp 96 +
STACK CFI 4ff0f .cfa: $rsp 104 +
STACK CFI 4ff11 .cfa: $rsp 112 +
STACK CFI 4ff13 .cfa: $rsp 120 +
STACK CFI 4ff15 .cfa: $rsp 128 +
STACK CFI 4ff17 .cfa: $rsp 136 +
STACK CFI 4ff19 .cfa: $rsp 144 +
STACK CFI 4ff1b .cfa: $rsp 152 +
STACK CFI 4ff1d .cfa: $rsp 160 +
STACK CFI 4ff24 .cfa: $rsp 168 +
STACK CFI 4ff2b .cfa: $rsp 176 +
STACK CFI 4ff37 .cfa: $rsp 8 +
STACK CFI INIT 4ff38 41 .cfa: $rsp 8 + .ra: .cfa -8 + ^
STACK CFI 4ff3c .cfa: $rsp 24 +
STACK CFI 4ff3e .cfa: $rsp 32 +
STACK CFI 4ff40 .cfa: $rsp 40 +
STACK CFI 4ff42 .cfa: $rsp 48 +
STACK CFI 4ff44 .cfa: $rsp 56 +
STACK CFI 4ff46 .cfa: $rsp 64 +
STACK CFI 4ff48 .cfa: $rsp 72 +
STACK CFI 4ff4a .cfa: $rsp 80 +
STACK CFI 4ff4c .cfa: $rsp 88 +
STACK CFI 4ff4e .cfa: $rsp 96 +
STACK CFI 4ff50 .cfa: $rsp 104 +
STACK CFI 4ff52 .cfa: $rsp 112 +
STACK CFI 4ff54 .cfa: $rsp 120 +
STACK CFI 4ff56 .cfa: $rsp 128 +
STACK CFI 4ff58 .cfa: $rsp 136 +
STACK CFI 4ff5a .cfa: $rsp 144 +
STACK CFI 4ff5c .cfa: $rsp 152 +
STACK CFI 4ff5e .cfa: $rsp 160 +
STACK CFI 4ff65 .cfa: $rsp 168 +
STACK CFI 4ff6c .cfa: $rsp 176 +
STACK CFI 4ff78 .cfa: $rsp 8 +
STACK CFI INIT 4ff79 41 .cfa: $rsp 8 + .ra: .cfa -8 + ^
STACK CFI 4ff7d .cfa: $rsp 24 +
STACK CFI 4ff7f .cfa: $rsp 32 +
STACK CFI 4ff81 .cfa: $rsp 40 +
STACK CFI 4ff83 .cfa: $rsp 48 +
STACK CFI 4ff85 .cfa: $rsp 56 +
STACK CFI 4ff87 .cfa: $rsp 64 +
STACK CFI 4ff89 .cfa: $rsp 72 +
STACK CFI 4ff8b .cfa: $rsp 80 +
STACK CFI 4ff8d .cfa: $rsp 88 +
STACK CFI 4ff8f .cfa: $rsp 96 +
STACK CFI 4ff91 .cfa: $rsp 104 +
STACK CFI 4ff93 .cfa: $rsp 112 +
STACK CFI 4ff95 .cfa: $rsp 120 +
STACK CFI 4ff97 .cfa: $rsp 128 +
STACK CFI 4ff99 .cfa: $rsp 136 +
STACK CFI 4ff9b .cfa: $rsp 144 +
STACK CFI 4ff9d .cfa: $rsp 152 +
STACK CFI 4ff9f .cfa: $rsp 160 +
STACK CFI 4ffa6 .cfa: $rsp 168 +
STACK CFI 4ffad .cfa: $rsp 176 +
STACK CFI 4ffb9 .cfa: $rsp 8 +
STACK CFI INIT 4ffba 41 .cfa: $rsp 8 + .ra: .cfa -8 + ^
STACK CFI 4ffbe .cfa: $rsp 24 +
STACK CFI 4ffc0 .cfa: $rsp 32 +
STACK CFI 4ffc2 .cfa: $rsp 40 +
STACK CFI 4ffc4 .cfa: $rsp 48 +
STACK CFI 4ffc6 .cfa: $rsp 56 +
STACK CFI 4ffc8 .cfa: $rsp 64 +
STACK CFI 4ffca .cfa: $rsp 72 +
STACK CFI 4ffcc .cfa: $rsp 80 +
STACK CFI 4ffce .cfa: $rsp 88 +
STACK CFI 4ffd0 .cfa: $rsp 96 +
STACK CFI 4ffd2 .cfa: $rsp 104 +
STACK CFI 4ffd4 .cfa: $rsp 112 +
STACK CFI 4ffd6 .cfa: $rsp 120 +
STACK CFI 4ffd8 .cfa: $rsp 128 +
STACK CFI 4ffda .cfa: $rsp 136 +
STACK CFI 4ffdc .cfa: $rsp 144 +
STACK CFI 4ffde .cfa: $rsp 152 +
STACK CFI 4ffe0 .cfa: $rsp 160 +
STACK CFI 4ffe7 .cfa: $rsp 168 +
STACK CFI 4ffee .cfa: $rsp 176 +
STACK CFI 4fffa .cfa: $rsp 8 +
STACK CFI INIT 4fffb 41 .cfa: $rsp 8 + .ra: .cfa -8 + ^
STACK CFI 4ffff .cfa: $rsp 24 +
STACK CFI 50001 .cfa: $rsp 32 +
STACK CFI 50003 .cfa: $rsp 40 +
STACK CFI 50005 .cfa: $rsp 48 +
STACK CFI 50007 .cfa: $rsp 56 +
STACK CFI 50009 .cfa: $rsp 64 +
STACK CFI 5000b .cfa: $rsp 72 +
STACK CFI 5000d .cfa: $rsp 80 +
STACK CFI 5000f .cfa: $rsp 88 +
STACK CFI 50011 .cfa: $rsp 96 +
STACK CFI 50013 .cfa: $rsp 104 +
STACK CFI 50015 .cfa: $rsp 112 +
STACK CFI 50017 .cfa: $rsp 120 +
STACK CFI 50019 .cfa: $rsp 128 +
STACK CFI 5001b .cfa: $rsp 136 +
STACK CFI 5001d .cfa: $rsp 144 +
STACK CFI 5001f .cfa: $rsp 152 +
STACK CFI 50021 .cfa: $rsp 160 +
STACK CFI 50028 .cfa: $rsp 168 +
STACK CFI 5002f .cfa: $rsp 176 +
STACK CFI 5003b .cfa: $rsp 8 +
STACK CFI INIT 5003c 41 .cfa: $rsp 8 + .ra: .cfa -8 + ^
STACK CFI 50040 .cfa: $rsp 24 +
STACK CFI 50042 .cfa: $rsp 32 +
STACK CFI 50044 .cfa: $rsp 40 +
STACK CFI 50046 .cfa: $rsp 48 +
STACK CFI 50048 .cfa: $rsp 56 +
STACK CFI 5004a .cfa: $rsp 64 +
STACK CFI 5004c .cfa: $rsp 72 +
STACK CFI 5004e .cfa: $rsp 80 +
STACK CFI 50050 .cfa: $rsp 88 +
STACK CFI 50052 .cfa: $rsp 96 +
STACK CFI 50054 .cfa: $rsp 104 +
STACK CFI 50056 .cfa: $rsp 112 +
STACK CFI 50058 .cfa: $rsp 120 +
STACK CFI 5005a .cfa: $rsp 128 +
STACK CFI 5005c .cfa: $rsp 136 +
STACK CFI 5005e .cfa: $rsp 144 +
STACK CFI 50060 .cfa: $rsp 152 +
STACK CFI 50062 .cfa: $rsp 160 +
STACK CFI 50069 .cfa: $rsp 168 +
STACK CFI 50070 .cfa: $rsp 176 +
STACK CFI 5007c .cfa: $rsp 8 +
STACK CFI INIT 5007d 41 .cfa: $rsp 8 + .ra: .cfa -8 + ^
STACK CFI 50081 .cfa: $rsp 24 +
STACK CFI 50083 .cfa: $rsp 32 +
STACK CFI 50085 .cfa: $rsp 40 +
STACK CFI 50087 .cfa: $rsp 48 +
STACK CFI 50089 .cfa: $rsp 56 +
STACK CFI 5008b .cfa: $rsp 64 +
STACK CFI 5008d .cfa: $rsp 72 +
STACK CFI 5008f .cfa: $rsp 80 +
STACK CFI 50091 .cfa: $rsp 88 +
STACK CFI 50093 .cfa: $rsp 96 +
STACK CFI 50095 .cfa: $rsp 104 +
STACK CFI 50097 .cfa: $rsp 112 +
STACK CFI 50099 .cfa: $rsp 120 +
STACK CFI 5009b .cfa: $rsp 128 +
STACK CFI 5009d .cfa: $rsp 136 +
STACK CFI 5009f .cfa: $rsp 144 +
STACK CFI 500a1 .cfa: $rsp 152 +
STACK CFI 500a3 .cfa: $rsp 160 +
STACK CFI 500aa .cfa: $rsp 168 +
STACK CFI 500b1 .cfa: $rsp 176 +
STACK CFI 500bd .cfa: $rsp 8 +
STACK CFI INIT 500be 41 .cfa: $rsp 8 + .ra: .cfa -8 + ^
STACK CFI 500c2 .cfa: $rsp 24 +
STACK CFI 500c4 .cfa: $rsp 32 +
STACK CFI 500c6 .cfa: $rsp 40 +
STACK CFI 500c8 .cfa: $rsp 48 +
STACK CFI 500ca .cfa: $rsp 56 +
STACK CFI 500cc .cfa: $rsp 64 +
STACK CFI 500ce .cfa: $rsp 72 +
STACK CFI 500d0 .cfa: $rsp 80 +
STACK CFI 500d2 .cfa: $rsp 88 +
STACK CFI 500d4 .cfa: $rsp 96 +
STACK CFI 500d6 .cfa: $rsp 104 +
STACK CFI 500d8 .cfa: $rsp 112 +
STACK CFI 500da .cfa: $rsp 120 +
STACK CFI 500dc .cfa: $rsp 128 +
STACK CFI 500de .cfa: $rsp 136 +
STACK CFI 500e0 .cfa: $rsp 144 +
STACK CFI 500e2 .cfa: $rsp 152 +
STACK CFI 500e4 .cfa: $rsp 160 +
STACK CFI 500eb .cfa: $rsp 168 +
STACK CFI 500f2 .cfa: $rsp 176 +
STACK CFI 500fe .cfa: $rsp 8 +
STACK CFI INIT 500ff 41 .cfa: $rsp 8 + .ra: .cfa -8 + ^
STACK CFI 50103 .cfa: $rsp 24 +
STACK CFI 50105 .cfa: $rsp 32 +
STACK CFI 50107 .cfa: $rsp 40 +
STACK CFI 50109 .cfa: $rsp 48 +
STACK CFI 5010b .cfa: $rsp 56 +
STACK CFI 5010d .cfa: $rsp 64 +
STACK CFI 5010f .cfa: $rsp 72 +
STACK CFI 50111 .cfa: $rsp 80 +
STACK CFI 50113 .cfa: $rsp 88 +
STACK CFI 50115 .cfa: $rsp 96 +
STACK CFI 50117 .cfa: $rsp 104 +
STACK CFI 50119 .cfa: $rsp 112 +
STACK CFI 5011b .cfa: $rsp 120 +
STACK CFI 5011d .cfa: $rsp 128 +
STACK CFI 5011f .cfa: $rsp 136 +
STACK CFI 50121 .cfa: $rsp 144 +
STACK CFI 50123 .cfa: $rsp 152 +
STACK CFI 50125 .cfa: $rsp 160 +
STACK CFI 5012c .cfa: $rsp 168 +
STACK CFI 50133 .cfa: $rsp 176 +
STACK CFI 5013f .cfa: $rsp 8 +
STACK CFI INIT 50140 41 .cfa: $rsp 8 + .ra: .cfa -8 + ^
STACK CFI 50144 .cfa: $rsp 24 +
STACK CFI 50146 .cfa: $rsp 32 +
STACK CFI 50148 .cfa: $rsp 40 +
STACK CFI 5014a .cfa: $rsp 48 +
STACK CFI 5014c .cfa: $rsp 56 +
STACK CFI 5014e .cfa: $rsp 64 +
STACK CFI 50150 .cfa: $rsp 72 +
STACK CFI 50152 .cfa: $rsp 80 +
STACK CFI 50154 .cfa: $rsp 88 +
STACK CFI 50156 .cfa: $rsp 96 +
STACK CFI 50158 .cfa: $rsp 104 +
STACK CFI 5015a .cfa: $rsp 112 +
STACK CFI 5015c .cfa: $rsp 120 +
STACK CFI 5015e .cfa: $rsp 128 +
STACK CFI 50160 .cfa: $rsp 136 +
STACK CFI 50162 .cfa: $rsp 144 +
STACK CFI 50164 .cfa: $rsp 152 +
STACK CFI 50166 .cfa: $rsp 160 +
STACK CFI 5016d .cfa: $rsp 168 +
STACK CFI 50174 .cfa: $rsp 176 +
STACK CFI 50180 .cfa: $rsp 8 +
STACK CFI INIT 50181 41 .cfa: $rsp 8 + .ra: .cfa -8 + ^
STACK CFI 50185 .cfa: $rsp 24 +
STACK CFI 50187 .cfa: $rsp 32 +
STACK CFI 50189 .cfa: $rsp 40 +
STACK CFI 5018b .cfa: $rsp 48 +
STACK CFI 5018d .cfa: $rsp 56 +
STACK CFI 5018f .cfa: $rsp 64 +
STACK CFI 50191 .cfa: $rsp 72 +
STACK CFI 50193 .cfa: $rsp 80 +
STACK CFI 50195 .cfa: $rsp 88 +
STACK CFI 50197 .cfa: $rsp 96 +
STACK CFI 50199 .cfa: $rsp 104 +
STACK CFI 5019b .cfa: $rsp 112 +
STACK CFI 5019d .cfa: $rsp 120 +
STACK CFI 5019f .cfa: $rsp 128 +
STACK CFI 501a1 .cfa: $rsp 136 +
STACK CFI 501a3 .cfa: $rsp 144 +
STACK CFI 501a5 .cfa: $rsp 152 +
STACK CFI 501a7 .cfa: $rsp 160 +
STACK CFI 501ae .cfa: $rsp 168 +
STACK CFI 501b5 .cfa: $rsp 176 +
STACK CFI 501c1 .cfa: $rsp 8 +
STACK CFI INIT 501c2 41 .cfa: $rsp 8 + .ra: .cfa -8 + ^
STACK CFI 501c6 .cfa: $rsp 24 +
STACK CFI 501c8 .cfa: $rsp 32 +
STACK CFI 501ca .cfa: $rsp 40 +
STACK CFI 501cc .cfa: $rsp 48 +
STACK CFI 501ce .cfa: $rsp 56 +
STACK CFI 501d0 .cfa: $rsp 64 +
STACK CFI 501d2 .cfa: $rsp 72 +
STACK CFI 501d4 .cfa: $rsp 80 +
STACK CFI 501d6 .cfa: $rsp 88 +
STACK CFI 501d8 .cfa: $rsp 96 +
STACK CFI 501da .cfa: $rsp 104 +
STACK CFI 501dc .cfa: $rsp 112 +
STACK CFI 501de .cfa: $rsp 120 +
STACK CFI 501e0 .cfa: $rsp 128 +
STACK CFI 501e2 .cfa: $rsp 136 +
STACK CFI 501e4 .cfa: $rsp 144 +
STACK CFI 501e6 .cfa: $rsp 152 +
STACK CFI 501e8 .cfa: $rsp 160 +
STACK CFI 501ef .cfa: $rsp 168 +
STACK CFI 501f6 .cfa: $rsp 176 +
STACK CFI 50202 .cfa: $rsp 8 +
STACK CFI INIT 50203 41 .cfa: $rsp 8 + .ra: .cfa -8 + ^
STACK CFI 50207 .cfa: $rsp 24 +
STACK CFI 50209 .cfa: $rsp 32 +
STACK CFI 5020b .cfa: $rsp 40 +
STACK CFI 5020d .cfa: $rsp 48 +
STACK CFI 5020f .cfa: $rsp 56 +
STACK CFI 50211 .cfa: $rsp 64 +
STACK CFI 50213 .cfa: $rsp 72 +
STACK CFI 50215 .cfa: $rsp 80 +
STACK CFI 50217 .cfa: $rsp 88 +
STACK CFI 50219 .cfa: $rsp 96 +
STACK CFI 5021b .cfa: $rsp 104 +
STACK CFI 5021d .cfa: $rsp 112 +
STACK CFI 5021f .cfa: $rsp 120 +
STACK CFI 50221 .cfa: $rsp 128 +
STACK CFI 50223 .cfa: $rsp 136 +
STACK CFI 50225 .cfa: $rsp 144 +
STACK CFI 50227 .cfa: $rsp 152 +
STACK CFI 50229 .cfa: $rsp 160 +
STACK CFI 50230 .cfa: $rsp 168 +
STACK CFI 50237 .cfa: $rsp 176 +
STACK CFI 50243 .cfa: $rsp 8 +
STACK CFI INIT 50244 41 .cfa: $rsp 8 + .ra: .cfa -8 + ^
STACK CFI 50248 .cfa: $rsp 24 +
STACK CFI 5024a .cfa: $rsp 32 +
STACK CFI 5024c .cfa: $rsp 40 +
STACK CFI 5024e .cfa: $rsp 48 +
STACK CFI 50250 .cfa: $rsp 56 +
STACK CFI 50252 .cfa: $rsp 64 +
STACK CFI 50254 .cfa: $rsp 72 +
STACK CFI 50256 .cfa: $rsp 80 +
STACK CFI 50258 .cfa: $rsp 88 +
STACK CFI 5025a .cfa: $rsp 96 +
STACK CFI 5025c .cfa: $rsp 104 +
STACK CFI 5025e .cfa: $rsp 112 +
STACK CFI 50260 .cfa: $rsp 120 +
STACK CFI 50262 .cfa: $rsp 128 +
STACK CFI 50264 .cfa: $rsp 136 +
STACK CFI 50266 .cfa: $rsp 144 +
STACK CFI 50268 .cfa: $rsp 152 +
STACK CFI 5026a .cfa: $rsp 160 +
STACK CFI 50271 .cfa: $rsp 168 +
STACK CFI 50278 .cfa: $rsp 176 +
STACK CFI 50284 .cfa: $rsp 8 +
STACK CFI INIT 50285 41 .cfa: $rsp 8 + .ra: .cfa -8 + ^
STACK CFI 50289 .cfa: $rsp 24 +
STACK CFI 5028b .cfa: $rsp 32 +
STACK CFI 5028d .cfa: $rsp 40 +
STACK CFI 5028f .cfa: $rsp 48 +
STACK CFI 50291 .cfa: $rsp 56 +
STACK CFI 50293 .cfa: $rsp 64 +
STACK CFI 50295 .cfa: $rsp 72 +
STACK CFI 50297 .cfa: $rsp 80 +
STACK CFI 50299 .cfa: $rsp 88 +
STACK CFI 5029b .cfa: $rsp 96 +
STACK CFI 5029d .cfa: $rsp 104 +
STACK CFI 5029f .cfa: $rsp 112 +
STACK CFI 502a1 .cfa: $rsp 120 +
STACK CFI 502a3 .cfa: $rsp 128 +
STACK CFI 502a5 .cfa: $rsp 136 +
STACK CFI 502a7 .cfa: $rsp 144 +
STACK CFI 502a9 .cfa: $rsp 152 +
STACK CFI 502ab .cfa: $rsp 160 +
STACK CFI 502b2 .cfa: $rsp 168 +
STACK CFI 502b9 .cfa: $rsp 176 +
STACK CFI 502c5 .cfa: $rsp 8 +
STACK CFI INIT 502c6 41 .cfa: $rsp 8 + .ra: .cfa -8 + ^
STACK CFI 502ca .cfa: $rsp 24 +
STACK CFI 502cc .cfa: $rsp 32 +
STACK CFI 502ce .cfa: $rsp 40 +
STACK CFI 502d0 .cfa: $rsp 48 +
STACK CFI 502d2 .cfa: $rsp 56 +
STACK CFI 502d4 .cfa: $rsp 64 +
STACK CFI 502d6 .cfa: $rsp 72 +
STACK CFI 502d8 .cfa: $rsp 80 +
STACK CFI 502da .cfa: $rsp 88 +
STACK CFI 502dc .cfa: $rsp 96 +
STACK CFI 502de .cfa: $rsp 104 +
STACK CFI 502e0 .cfa: $rsp 112 +
STACK CFI 502e2 .cfa: $rsp 120 +
STACK CFI 502e4 .cfa: $rsp 128 +
STACK CFI 502e6 .cfa: $rsp 136 +
STACK CFI 502e8 .cfa: $rsp 144 +
STACK CFI 502ea .cfa: $rsp 152 +
STACK CFI 502ec .cfa: $rsp 160 +
STACK CFI 502f3 .cfa: $rsp 168 +
STACK CFI 502fa .cfa: $rsp 176 +
STACK CFI 50306 .cfa: $rsp 8 +
STACK CFI INIT 50307 41 .cfa: $rsp 8 + .ra: .cfa -8 + ^
STACK CFI 5030b .cfa: $rsp 24 +
STACK CFI 5030d .cfa: $rsp 32 +
STACK CFI 5030f .cfa: $rsp 40 +
STACK CFI 50311 .cfa: $rsp 48 +
STACK CFI 50313 .cfa: $rsp 56 +
STACK CFI 50315 .cfa: $rsp 64 +
STACK CFI 50317 .cfa: $rsp 72 +
STACK CFI 50319 .cfa: $rsp 80 +
STACK CFI 5031b .cfa: $rsp 88 +
STACK CFI 5031d .cfa: $rsp 96 +
STACK CFI 5031f .cfa: $rsp 104 +
STACK CFI 50321 .cfa: $rsp 112 +
STACK CFI 50323 .cfa: $rsp 120 +
STACK CFI 50325 .cfa: $rsp 128 +
STACK CFI 50327 .cfa: $rsp 136 +
STACK CFI 50329 .cfa: $rsp 144 +
STACK CFI 5032b .cfa: $rsp 152 +
STACK CFI 5032d .cfa: $rsp 160 +
STACK CFI 50334 .cfa: $rsp 168 +
STACK CFI 5033b .cfa: $rsp 176 +
STACK CFI 50347 .cfa: $rsp 8 +
STACK CFI INIT 50348 41 .cfa: $rsp 8 + .ra: .cfa -8 + ^
STACK CFI 5034c .cfa: $rsp 24 +
STACK CFI 5034e .cfa: $rsp 32 +
STACK CFI 50350 .cfa: $rsp 40 +
STACK CFI 50352 .cfa: $rsp 48 +
STACK CFI 50354 .cfa: $rsp 56 +
STACK CFI 50356 .cfa: $rsp 64 +
STACK CFI 50358 .cfa: $rsp 72 +
STACK CFI 5035a .cfa: $rsp 80 +
STACK CFI 5035c .cfa: $rsp 88 +
STACK CFI 5035e .cfa: $rsp 96 +
STACK CFI 50360 .cfa: $rsp 104 +
STACK CFI 50362 .cfa: $rsp 112 +
STACK CFI 50364 .cfa: $rsp 120 +
STACK CFI 50366 .cfa: $rsp 128 +
STACK CFI 50368 .cfa: $rsp 136 +
STACK CFI 5036a .cfa: $rsp 144 +
STACK CFI 5036c .cfa: $rsp 152 +
STACK CFI 5036e .cfa: $rsp 160 +
STACK CFI 50375 .cfa: $rsp 168 +
STACK CFI 5037c .cfa: $rsp 176 +
STACK CFI 50388 .cfa: $rsp 8 +
STACK CFI INIT 50389 41 .cfa: $rsp 8 + .ra: .cfa -8 + ^
STACK CFI 5038d .cfa: $rsp 24 +
STACK CFI 5038f .cfa: $rsp 32 +
STACK CFI 50391 .cfa: $rsp 40 +
STACK CFI 50393 .cfa: $rsp 48 +
STACK CFI 50395 .cfa: $rsp 56 +
STACK CFI 50397 .cfa: $rsp 64 +
STACK CFI 50399 .cfa: $rsp 72 +
STACK CFI 5039b .cfa: $rsp 80 +
STACK CFI 5039d .cfa: $rsp 88 +
STACK CFI 5039f .cfa: $rsp 96 +
STACK CFI 503a1 .cfa: $rsp 104 +
STACK CFI 503a3 .cfa: $rsp 112 +
STACK CFI 503a5 .cfa: $rsp 120 +
STACK CFI 503a7 .cfa: $rsp 128 +
STACK CFI 503a9 .cfa: $rsp 136 +
STACK CFI 503ab .cfa: $rsp 144 +
STACK CFI 503ad .cfa: $rsp 152 +
STACK CFI 503af .cfa: $rsp 160 +
STACK CFI 503b6 .cfa: $rsp 168 +
STACK CFI 503bd .cfa: $rsp 176 +
STACK CFI 503c9 .cfa: $rsp 8 +
STACK CFI INIT 503ca 41 .cfa: $rsp 8 + .ra: .cfa -8 + ^
STACK CFI 503ce .cfa: $rsp 24 +
STACK CFI 503d0 .cfa: $rsp 32 +
STACK CFI 503d2 .cfa: $rsp 40 +
STACK CFI 503d4 .cfa: $rsp 48 +
STACK CFI 503d6 .cfa: $rsp 56 +
STACK CFI 503d8 .cfa: $rsp 64 +
STACK CFI 503da .cfa: $rsp 72 +
STACK CFI 503dc .cfa: $rsp 80 +
STACK CFI 503de .cfa: $rsp 88 +
STACK CFI 503e0 .cfa: $rsp 96 +
STACK CFI 503e2 .cfa: $rsp 104 +
STACK CFI 503e4 .cfa: $rsp 112 +
STACK CFI 503e6 .cfa: $rsp 120 +
STACK CFI 503e8 .cfa: $rsp 128 +
STACK CFI 503ea .cfa: $rsp 136 +
STACK CFI 503ec .cfa: $rsp 144 +
STACK CFI 503ee .cfa: $rsp 152 +
STACK CFI 503f0 .cfa: $rsp 160 +
STACK CFI 503f7 .cfa: $rsp 168 +
STACK CFI 503fe .cfa: $rsp 176 +
STACK CFI 5040a .cfa: $rsp 8 +
STACK CFI INIT 5040b 41 .cfa: $rsp 8 + .ra: .cfa -8 + ^
STACK CFI 5040f .cfa: $rsp 24 +
STACK CFI 50411 .cfa: $rsp 32 +
STACK CFI 50413 .cfa: $rsp 40 +
STACK CFI 50415 .cfa: $rsp 48 +
STACK CFI 50417 .cfa: $rsp 56 +
STACK CFI 50419 .cfa: $rsp 64 +
STACK CFI 5041b .cfa: $rsp 72 +
STACK CFI 5041d .cfa: $rsp 80 +
STACK CFI 5041f .cfa: $rsp 88 +
STACK CFI 50421 .cfa: $rsp 96 +
STACK CFI 50423 .cfa: $rsp 104 +
STACK CFI 50425 .cfa: $rsp 112 +
STACK CFI 50427 .cfa: $rsp 120 +
STACK CFI 50429 .cfa: $rsp 128 +
STACK CFI 5042b .cfa: $rsp 136 +
STACK CFI 5042d .cfa: $rsp 144 +
STACK CFI 5042f .cfa: $rsp 152 +
STACK CFI 50431 .cfa: $rsp 160 +
STACK CFI 50438 .cfa: $rsp 168 +
STACK CFI 5043f .cfa: $rsp 176 +
STACK CFI 5044b .cfa: $rsp 8 +
STACK CFI INIT 5044c 41 .cfa: $rsp 8 + .ra: .cfa -8 + ^
STACK CFI 50450 .cfa: $rsp 24 +
STACK CFI 50452 .cfa: $rsp 32 +
STACK CFI 50454 .cfa: $rsp 40 +
STACK CFI 50456 .cfa: $rsp 48 +
STACK CFI 50458 .cfa: $rsp 56 +
STACK CFI 5045a .cfa: $rsp 64 +
STACK CFI 5045c .cfa: $rsp 72 +
STACK CFI 5045e .cfa: $rsp 80 +
STACK CFI 50460 .cfa: $rsp 88 +
STACK CFI 50462 .cfa: $rsp 96 +
STACK CFI 50464 .cfa: $rsp 104 +
STACK CFI 50466 .cfa: $rsp 112 +
STACK CFI 50468 .cfa: $rsp 120 +
STACK CFI 5046a .cfa: $rsp 128 +
STACK CFI 5046c .cfa: $rsp 136 +
STACK CFI 5046e .cfa: $rsp 144 +
STACK CFI 50470 .cfa: $rsp 152 +
STACK CFI 50472 .cfa: $rsp 160 +
STACK CFI 50479 .cfa: $rsp 168 +
STACK CFI 50480 .cfa: $rsp 176 +
STACK CFI 5048c .cfa: $rsp 8 +
STACK CFI INIT 5048d 41 .cfa: $rsp 8 + .ra: .cfa -8 + ^
STACK CFI 50491 .cfa: $rsp 24 +
STACK CFI 50493 .cfa: $rsp 32 +
STACK CFI 50495 .cfa: $rsp 40 +
STACK CFI 50497 .cfa: $rsp 48 +
STACK CFI 50499 .cfa: $rsp 56 +
STACK CFI 5049b .cfa: $rsp 64 +
STACK CFI 5049d .cfa: $rsp 72 +
STACK CFI 5049f .cfa: $rsp 80 +
STACK CFI 504a1 .cfa: $rsp 88 +
STACK CFI 504a3 .cfa: $rsp 96 +
STACK CFI 504a5 .cfa: $rsp 104 +
STACK CFI 504a7 .cfa: $rsp 112 +
STACK CFI 504a9 .cfa: $rsp 120 +
STACK CFI 504ab .cfa: $rsp 128 +
STACK CFI 504ad .cfa: $rsp 136 +
STACK CFI 504af .cfa: $rsp 144 +
STACK CFI 504b1 .cfa: $rsp 152 +
STACK CFI 504b3 .cfa: $rsp 160 +
STACK CFI 504ba .cfa: $rsp 168 +
STACK CFI 504c1 .cfa: $rsp 176 +
STACK CFI 504cd .cfa: $rsp 8 +
STACK CFI INIT 504ce 41 .cfa: $rsp 8 + .ra: .cfa -8 + ^
STACK CFI 504d2 .cfa: $rsp 24 +
STACK CFI 504d4 .cfa: $rsp 32 +
STACK CFI 504d6 .cfa: $rsp 40 +
STACK CFI 504d8 .cfa: $rsp 48 +
STACK CFI 504da .cfa: $rsp 56 +
STACK CFI 504dc .cfa: $rsp 64 +
STACK CFI 504de .cfa: $rsp 72 +
STACK CFI 504e0 .cfa: $rsp 80 +
STACK CFI 504e2 .cfa: $rsp 88 +
STACK CFI 504e4 .cfa: $rsp 96 +
STACK CFI 504e6 .cfa: $rsp 104 +
STACK CFI 504e8 .cfa: $rsp 112 +
STACK CFI 504ea .cfa: $rsp 120 +
STACK CFI 504ec .cfa: $rsp 128 +
STACK CFI 504ee .cfa: $rsp 136 +
STACK CFI 504f0 .cfa: $rsp 144 +
STACK CFI 504f2 .cfa: $rsp 152 +
STACK CFI 504f4 .cfa: $rsp 160 +
STACK CFI 504fb .cfa: $rsp 168 +
STACK CFI 50502 .cfa: $rsp 176 +
STACK CFI 5050e .cfa: $rsp 8 +
STACK CFI INIT 5050f 41 .cfa: $rsp 8 + .ra: .cfa -8 + ^
STACK CFI 50513 .cfa: $rsp 24 +
STACK CFI 50515 .cfa: $rsp 32 +
STACK CFI 50517 .cfa: $rsp 40 +
STACK CFI 50519 .cfa: $rsp 48 +
STACK CFI 5051b .cfa: $rsp 56 +
STACK CFI 5051d .cfa: $rsp 64 +
STACK CFI 5051f .cfa: $rsp 72 +
STACK CFI 50521 .cfa: $rsp 80 +
STACK CFI 50523 .cfa: $rsp 88 +
STACK CFI 50525 .cfa: $rsp 96 +
STACK CFI 50527 .cfa: $rsp 104 +
STACK CFI 50529 .cfa: $rsp 112 +
STACK CFI 5052b .cfa: $rsp 120 +
STACK CFI 5052d .cfa: $rsp 128 +
STACK CFI 5052f .cfa: $rsp 136 +
STACK CFI 50531 .cfa: $rsp 144 +
STACK CFI 50533 .cfa: $rsp 152 +
STACK CFI 50535 .cfa: $rsp 160 +
STACK CFI 5053c .cfa: $rsp 168 +
STACK CFI 50543 .cfa: $rsp 176 +
STACK CFI 5054f .cfa: $rsp 8 +
STACK CFI INIT 50550 41 .cfa: $rsp 8 + .ra: .cfa -8 + ^
STACK CFI 50554 .cfa: $rsp 24 +
STACK CFI 50556 .cfa: $rsp 32 +
STACK CFI 50558 .cfa: $rsp 40 +
STACK CFI 5055a .cfa: $rsp 48 +
STACK CFI 5055c .cfa: $rsp 56 +
STACK CFI 5055e .cfa: $rsp 64 +
STACK CFI 50560 .cfa: $rsp 72 +
STACK CFI 50562 .cfa: $rsp 80 +
STACK CFI 50564 .cfa: $rsp 88 +
STACK CFI 50566 .cfa: $rsp 96 +
STACK CFI 50568 .cfa: $rsp 104 +
STACK CFI 5056a .cfa: $rsp 112 +
STACK CFI 5056c .cfa: $rsp 120 +
STACK CFI 5056e .cfa: $rsp 128 +
STACK CFI 50570 .cfa: $rsp 136 +
STACK CFI 50572 .cfa: $rsp 144 +
STACK CFI 50574 .cfa: $rsp 152 +
STACK CFI 50576 .cfa: $rsp 160 +
STACK CFI 5057d .cfa: $rsp 168 +
STACK CFI 50584 .cfa: $rsp 176 +
STACK CFI 50590 .cfa: $rsp 8 +
STACK CFI INIT 50591 41 .cfa: $rsp 8 + .ra: .cfa -8 + ^
STACK CFI 50595 .cfa: $rsp 24 +
STACK CFI 50597 .cfa: $rsp 32 +
STACK CFI 50599 .cfa: $rsp 40 +
STACK CFI 5059b .cfa: $rsp 48 +
STACK CFI 5059d .cfa: $rsp 56 +
STACK CFI 5059f .cfa: $rsp 64 +
STACK CFI 505a1 .cfa: $rsp 72 +
STACK CFI 505a3 .cfa: $rsp 80 +
STACK CFI 505a5 .cfa: $rsp 88 +
STACK CFI 505a7 .cfa: $rsp 96 +
STACK CFI 505a9 .cfa: $rsp 104 +
STACK CFI 505ab .cfa: $rsp 112 +
STACK CFI 505ad .cfa: $rsp 120 +
STACK CFI 505af .cfa: $rsp 128 +
STACK CFI 505b1 .cfa: $rsp 136 +
STACK CFI 505b3 .cfa: $rsp 144 +
STACK CFI 505b5 .cfa: $rsp 152 +
STACK CFI 505b7 .cfa: $rsp 160 +
STACK CFI 505be .cfa: $rsp 168 +
STACK CFI 505c5 .cfa: $rsp 176 +
STACK CFI 505d1 .cfa: $rsp 8 +
STACK CFI INIT 505d2 41 .cfa: $rsp 8 + .ra: .cfa -8 + ^
STACK CFI 505d6 .cfa: $rsp 24 +
STACK CFI 505d8 .cfa: $rsp 32 +
STACK CFI 505da .cfa: $rsp 40 +
STACK CFI 505dc .cfa: $rsp 48 +
STACK CFI 505de .cfa: $rsp 56 +
STACK CFI 505e0 .cfa: $rsp 64 +
STACK CFI 505e2 .cfa: $rsp 72 +
STACK CFI 505e4 .cfa: $rsp 80 +
STACK CFI 505e6 .cfa: $rsp 88 +
STACK CFI 505e8 .cfa: $rsp 96 +
STACK CFI 505ea .cfa: $rsp 104 +
STACK CFI 505ec .cfa: $rsp 112 +
STACK CFI 505ee .cfa: $rsp 120 +
STACK CFI 505f0 .cfa: $rsp 128 +
STACK CFI 505f2 .cfa: $rsp 136 +
STACK CFI 505f4 .cfa: $rsp 144 +
STACK CFI 505f6 .cfa: $rsp 152 +
STACK CFI 505f8 .cfa: $rsp 160 +
STACK CFI 505ff .cfa: $rsp 168 +
STACK CFI 50606 .cfa: $rsp 176 +
STACK CFI 50612 .cfa: $rsp 8 +
STACK CFI INIT 50613 41 .cfa: $rsp 8 + .ra: .cfa -8 + ^
STACK CFI 50617 .cfa: $rsp 24 +
STACK CFI 50619 .cfa: $rsp 32 +
STACK CFI 5061b .cfa: $rsp 40 +
STACK CFI 5061d .cfa: $rsp 48 +
STACK CFI 5061f .cfa: $rsp 56 +
STACK CFI 50621 .cfa: $rsp 64 +
STACK CFI 50623 .cfa: $rsp 72 +
STACK CFI 50625 .cfa: $rsp 80 +
STACK CFI 50627 .cfa: $rsp 88 +
STACK CFI 50629 .cfa: $rsp 96 +
STACK CFI 5062b .cfa: $rsp 104 +
STACK CFI 5062d .cfa: $rsp 112 +
STACK CFI 5062f .cfa: $rsp 120 +
STACK CFI 50631 .cfa: $rsp 128 +
STACK CFI 50633 .cfa: $rsp 136 +
STACK CFI 50635 .cfa: $rsp 144 +
STACK CFI 50637 .cfa: $rsp 152 +
STACK CFI 50639 .cfa: $rsp 160 +
STACK CFI 50640 .cfa: $rsp 168 +
STACK CFI 50647 .cfa: $rsp 176 +
STACK CFI 50653 .cfa: $rsp 8 +
STACK CFI INIT 50654 41 .cfa: $rsp 8 + .ra: .cfa -8 + ^
STACK CFI 50658 .cfa: $rsp 24 +
STACK CFI 5065a .cfa: $rsp 32 +
STACK CFI 5065c .cfa: $rsp 40 +
STACK CFI 5065e .cfa: $rsp 48 +
STACK CFI 50660 .cfa: $rsp 56 +
STACK CFI 50662 .cfa: $rsp 64 +
STACK CFI 50664 .cfa: $rsp 72 +
STACK CFI 50666 .cfa: $rsp 80 +
STACK CFI 50668 .cfa: $rsp 88 +
STACK CFI 5066a .cfa: $rsp 96 +
STACK CFI 5066c .cfa: $rsp 104 +
STACK CFI 5066e .cfa: $rsp 112 +
STACK CFI 50670 .cfa: $rsp 120 +
STACK CFI 50672 .cfa: $rsp 128 +
STACK CFI 50674 .cfa: $rsp 136 +
STACK CFI 50676 .cfa: $rsp 144 +
STACK CFI 50678 .cfa: $rsp 152 +
STACK CFI 5067a .cfa: $rsp 160 +
STACK CFI 50681 .cfa: $rsp 168 +
STACK CFI 50688 .cfa: $rsp 176 +
STACK CFI 50694 .cfa: $rsp 8 +
STACK CFI INIT 50695 41 .cfa: $rsp 8 + .ra: .cfa -8 + ^
STACK CFI 50699 .cfa: $rsp 24 +
STACK CFI 5069b .cfa: $rsp 32 +
STACK CFI 5069d .cfa: $rsp 40 +
STACK CFI 5069f .cfa: $rsp 48 +
STACK CFI 506a1 .cfa: $rsp 56 +
STACK CFI 506a3 .cfa: $rsp 64 +
STACK CFI 506a5 .cfa: $rsp 72 +
STACK CFI 506a7 .cfa: $rsp 80 +
STACK CFI 506a9 .cfa: $rsp 88 +
STACK CFI 506ab .cfa: $rsp 96 +
STACK CFI 506ad .cfa: $rsp 104 +
STACK CFI 506af .cfa: $rsp 112 +
STACK CFI 506b1 .cfa: $rsp 120 +
STACK CFI 506b3 .cfa: $rsp 128 +
STACK CFI 506b5 .cfa: $rsp 136 +
STACK CFI 506b7 .cfa: $rsp 144 +
STACK CFI 506b9 .cfa: $rsp 152 +
STACK CFI 506bb .cfa: $rsp 160 +
STACK CFI 506c2 .cfa: $rsp 168 +
STACK CFI 506c9 .cfa: $rsp 176 +
STACK CFI 506d5 .cfa: $rsp 8 +
STACK CFI INIT 506d6 41 .cfa: $rsp 8 + .ra: .cfa -8 + ^
STACK CFI 506da .cfa: $rsp 24 +
STACK CFI 506dc .cfa: $rsp 32 +
STACK CFI 506de .cfa: $rsp 40 +
STACK CFI 506e0 .cfa: $rsp 48 +
STACK CFI 506e2 .cfa: $rsp 56 +
STACK CFI 506e4 .cfa: $rsp 64 +
STACK CFI 506e6 .cfa: $rsp 72 +
STACK CFI 506e8 .cfa: $rsp 80 +
STACK CFI 506ea .cfa: $rsp 88 +
STACK CFI 506ec .cfa: $rsp 96 +
STACK CFI 506ee .cfa: $rsp 104 +
STACK CFI 506f0 .cfa: $rsp 112 +
STACK CFI 506f2 .cfa: $rsp 120 +
STACK CFI 506f4 .cfa: $rsp 128 +
STACK CFI 506f6 .cfa: $rsp 136 +
STACK CFI 506f8 .cfa: $rsp 144 +
STACK CFI 506fa .cfa: $rsp 152 +
STACK CFI 506fc .cfa: $rsp 160 +
STACK CFI 50703 .cfa: $rsp 168 +
STACK CFI 5070a .cfa: $rsp 176 +
STACK CFI 50716 .cfa: $rsp 8 +
STACK CFI INIT 50717 41 .cfa: $rsp 8 + .ra: .cfa -8 + ^
STACK CFI 5071b .cfa: $rsp 24 +
STACK CFI 5071d .cfa: $rsp 32 +
STACK CFI 5071f .cfa: $rsp 40 +
STACK CFI 50721 .cfa: $rsp 48 +
STACK CFI 50723 .cfa: $rsp 56 +
STACK CFI 50725 .cfa: $rsp 64 +
STACK CFI 50727 .cfa: $rsp 72 +
STACK CFI 50729 .cfa: $rsp 80 +
STACK CFI 5072b .cfa: $rsp 88 +
STACK CFI 5072d .cfa: $rsp 96 +
STACK CFI 5072f .cfa: $rsp 104 +
STACK CFI 50731 .cfa: $rsp 112 +
STACK CFI 50733 .cfa: $rsp 120 +
STACK CFI 50735 .cfa: $rsp 128 +
STACK CFI 50737 .cfa: $rsp 136 +
STACK CFI 50739 .cfa: $rsp 144 +
STACK CFI 5073b .cfa: $rsp 152 +
STACK CFI 5073d .cfa: $rsp 160 +
STACK CFI 50744 .cfa: $rsp 168 +
STACK CFI 5074b .cfa: $rsp 176 +
STACK CFI 50757 .cfa: $rsp 8 +
STACK CFI INIT 50758 41 .cfa: $rsp 8 + .ra: .cfa -8 + ^
STACK CFI 5075c .cfa: $rsp 24 +
STACK CFI 5075e .cfa: $rsp 32 +
STACK CFI 50760 .cfa: $rsp 40 +
STACK CFI 50762 .cfa: $rsp 48 +
STACK CFI 50764 .cfa: $rsp 56 +
STACK CFI 50766 .cfa: $rsp 64 +
STACK CFI 50768 .cfa: $rsp 72 +
STACK CFI 5076a .cfa: $rsp 80 +
STACK CFI 5076c .cfa: $rsp 88 +
STACK CFI 5076e .cfa: $rsp 96 +
STACK CFI 50770 .cfa: $rsp 104 +
STACK CFI 50772 .cfa: $rsp 112 +
STACK CFI 50774 .cfa: $rsp 120 +
STACK CFI 50776 .cfa: $rsp 128 +
STACK CFI 50778 .cfa: $rsp 136 +
STACK CFI 5077a .cfa: $rsp 144 +
STACK CFI 5077c .cfa: $rsp 152 +
STACK CFI 5077e .cfa: $rsp 160 +
STACK CFI 50785 .cfa: $rsp 168 +
STACK CFI 5078c .cfa: $rsp 176 +
STACK CFI 50798 .cfa: $rsp 8 +
STACK CFI INIT 50799 41 .cfa: $rsp 8 + .ra: .cfa -8 + ^
STACK CFI 5079d .cfa: $rsp 24 +
STACK CFI 5079f .cfa: $rsp 32 +
STACK CFI 507a1 .cfa: $rsp 40 +
STACK CFI 507a3 .cfa: $rsp 48 +
STACK CFI 507a5 .cfa: $rsp 56 +
STACK CFI 507a7 .cfa: $rsp 64 +
STACK CFI 507a9 .cfa: $rsp 72 +
STACK CFI 507ab .cfa: $rsp 80 +
STACK CFI 507ad .cfa: $rsp 88 +
STACK CFI 507af .cfa: $rsp 96 +
STACK CFI 507b1 .cfa: $rsp 104 +
STACK CFI 507b3 .cfa: $rsp 112 +
STACK CFI 507b5 .cfa: $rsp 120 +
STACK CFI 507b7 .cfa: $rsp 128 +
STACK CFI 507b9 .cfa: $rsp 136 +
STACK CFI 507bb .cfa: $rsp 144 +
STACK CFI 507bd .cfa: $rsp 152 +
STACK CFI 507bf .cfa: $rsp 160 +
STACK CFI 507c6 .cfa: $rsp 168 +
STACK CFI 507cd .cfa: $rsp 176 +
STACK CFI 507d9 .cfa: $rsp 8 +
STACK CFI INIT 507da 41 .cfa: $rsp 8 + .ra: .cfa -8 + ^
STACK CFI 507de .cfa: $rsp 24 +
STACK CFI 507e0 .cfa: $rsp 32 +
STACK CFI 507e2 .cfa: $rsp 40 +
STACK CFI 507e4 .cfa: $rsp 48 +
STACK CFI 507e6 .cfa: $rsp 56 +
STACK CFI 507e8 .cfa: $rsp 64 +
STACK CFI 507ea .cfa: $rsp 72 +
STACK CFI 507ec .cfa: $rsp 80 +
STACK CFI 507ee .cfa: $rsp 88 +
STACK CFI 507f0 .cfa: $rsp 96 +
STACK CFI 507f2 .cfa: $rsp 104 +
STACK CFI 507f4 .cfa: $rsp 112 +
STACK CFI 507f6 .cfa: $rsp 120 +
STACK CFI 507f8 .cfa: $rsp 128 +
STACK CFI 507fa .cfa: $rsp 136 +
STACK CFI 507fc .cfa: $rsp 144 +
STACK CFI 507fe .cfa: $rsp 152 +
STACK CFI 50800 .cfa: $rsp 160 +
STACK CFI 50807 .cfa: $rsp 168 +
STACK CFI 5080e .cfa: $rsp 176 +
STACK CFI 5081a .cfa: $rsp 8 +
STACK CFI INIT 5081b 41 .cfa: $rsp 8 + .ra: .cfa -8 + ^
STACK CFI 5081f .cfa: $rsp 24 +
STACK CFI 50821 .cfa: $rsp 32 +
STACK CFI 50823 .cfa: $rsp 40 +
STACK CFI 50825 .cfa: $rsp 48 +
STACK CFI 50827 .cfa: $rsp 56 +
STACK CFI 50829 .cfa: $rsp 64 +
STACK CFI 5082b .cfa: $rsp 72 +
STACK CFI 5082d .cfa: $rsp 80 +
STACK CFI 5082f .cfa: $rsp 88 +
STACK CFI 50831 .cfa: $rsp 96 +
STACK CFI 50833 .cfa: $rsp 104 +
STACK CFI 50835 .cfa: $rsp 112 +
STACK CFI 50837 .cfa: $rsp 120 +
STACK CFI 50839 .cfa: $rsp 128 +
STACK CFI 5083b .cfa: $rsp 136 +
STACK CFI 5083d .cfa: $rsp 144 +
STACK CFI 5083f .cfa: $rsp 152 +
STACK CFI 50841 .cfa: $rsp 160 +
STACK CFI 50848 .cfa: $rsp 168 +
STACK CFI 5084f .cfa: $rsp 176 +
STACK CFI 5085b .cfa: $rsp 8 +
STACK CFI INIT 5085c 41 .cfa: $rsp 8 + .ra: .cfa -8 + ^
STACK CFI 50860 .cfa: $rsp 24 +
STACK CFI 50862 .cfa: $rsp 32 +
STACK CFI 50864 .cfa: $rsp 40 +
STACK CFI 50866 .cfa: $rsp 48 +
STACK CFI 50868 .cfa: $rsp 56 +
STACK CFI 5086a .cfa: $rsp 64 +
STACK CFI 5086c .cfa: $rsp 72 +
STACK CFI 5086e .cfa: $rsp 80 +
STACK CFI 50870 .cfa: $rsp 88 +
STACK CFI 50872 .cfa: $rsp 96 +
STACK CFI 50874 .cfa: $rsp 104 +
STACK CFI 50876 .cfa: $rsp 112 +
STACK CFI 50878 .cfa: $rsp 120 +
STACK CFI 5087a .cfa: $rsp 128 +
STACK CFI 5087c .cfa: $rsp 136 +
STACK CFI 5087e .cfa: $rsp 144 +
STACK CFI 50880 .cfa: $rsp 152 +
STACK CFI 50882 .cfa: $rsp 160 +
STACK CFI 50889 .cfa: $rsp 168 +
STACK CFI 50890 .cfa: $rsp 176 +
STACK CFI 5089c .cfa: $rsp 8 +
STACK CFI INIT 5089d 41 .cfa: $rsp 8 + .ra: .cfa -8 + ^
STACK CFI 508a1 .cfa: $rsp 24 +
STACK CFI 508a3 .cfa: $rsp 32 +
STACK CFI 508a5 .cfa: $rsp 40 +
STACK CFI 508a7 .cfa: $rsp 48 +
STACK CFI 508a9 .cfa: $rsp 56 +
STACK CFI 508ab .cfa: $rsp 64 +
STACK CFI 508ad .cfa: $rsp 72 +
STACK CFI 508af .cfa: $rsp 80 +
STACK CFI 508b1 .cfa: $rsp 88 +
STACK CFI 508b3 .cfa: $rsp 96 +
STACK CFI 508b5 .cfa: $rsp 104 +
STACK CFI 508b7 .cfa: $rsp 112 +
STACK CFI 508b9 .cfa: $rsp 120 +
STACK CFI 508bb .cfa: $rsp 128 +
STACK CFI 508bd .cfa: $rsp 136 +
STACK CFI 508bf .cfa: $rsp 144 +
STACK CFI 508c1 .cfa: $rsp 152 +
STACK CFI 508c3 .cfa: $rsp 160 +
STACK CFI 508ca .cfa: $rsp 168 +
STACK CFI 508d1 .cfa: $rsp 176 +
STACK CFI 508dd .cfa: $rsp 8 +
STACK CFI INIT 508de 41 .cfa: $rsp 8 + .ra: .cfa -8 + ^
STACK CFI 508e2 .cfa: $rsp 24 +
STACK CFI 508e4 .cfa: $rsp 32 +
STACK CFI 508e6 .cfa: $rsp 40 +
STACK CFI 508e8 .cfa: $rsp 48 +
STACK CFI 508ea .cfa: $rsp 56 +
STACK CFI 508ec .cfa: $rsp 64 +
STACK CFI 508ee .cfa: $rsp 72 +
STACK CFI 508f0 .cfa: $rsp 80 +
STACK CFI 508f2 .cfa: $rsp 88 +
STACK CFI 508f4 .cfa: $rsp 96 +
STACK CFI 508f6 .cfa: $rsp 104 +
STACK CFI 508f8 .cfa: $rsp 112 +
STACK CFI 508fa .cfa: $rsp 120 +
STACK CFI 508fc .cfa: $rsp 128 +
STACK CFI 508fe .cfa: $rsp 136 +
STACK CFI 50900 .cfa: $rsp 144 +
STACK CFI 50902 .cfa: $rsp 152 +
STACK CFI 50904 .cfa: $rsp 160 +
STACK CFI 5090b .cfa: $rsp 168 +
STACK CFI 50912 .cfa: $rsp 176 +
STACK CFI 5091e .cfa: $rsp 8 +
STACK CFI INIT 5091f 41 .cfa: $rsp 8 + .ra: .cfa -8 + ^
STACK CFI 50923 .cfa: $rsp 24 +
STACK CFI 50925 .cfa: $rsp 32 +
STACK CFI 50927 .cfa: $rsp 40 +
STACK CFI 50929 .cfa: $rsp 48 +
STACK CFI 5092b .cfa: $rsp 56 +
STACK CFI 5092d .cfa: $rsp 64 +
STACK CFI 5092f .cfa: $rsp 72 +
STACK CFI 50931 .cfa: $rsp 80 +
STACK CFI 50933 .cfa: $rsp 88 +
STACK CFI 50935 .cfa: $rsp 96 +
STACK CFI 50937 .cfa: $rsp 104 +
STACK CFI 50939 .cfa: $rsp 112 +
STACK CFI 5093b .cfa: $rsp 120 +
STACK CFI 5093d .cfa: $rsp 128 +
STACK CFI 5093f .cfa: $rsp 136 +
STACK CFI 50941 .cfa: $rsp 144 +
STACK CFI 50943 .cfa: $rsp 152 +
STACK CFI 50945 .cfa: $rsp 160 +
STACK CFI 5094c .cfa: $rsp 168 +
STACK CFI 50953 .cfa: $rsp 176 +
STACK CFI 5095f .cfa: $rsp 8 +
STACK CFI INIT 50960 41 .cfa: $rsp 8 + .ra: .cfa -8 + ^
STACK CFI 50964 .cfa: $rsp 24 +
STACK CFI 50966 .cfa: $rsp 32 +
STACK CFI 50968 .cfa: $rsp 40 +
STACK CFI 5096a .cfa: $rsp 48 +
STACK CFI 5096c .cfa: $rsp 56 +
STACK CFI 5096e .cfa: $rsp 64 +
STACK CFI 50970 .cfa: $rsp 72 +
STACK CFI 50972 .cfa: $rsp 80 +
STACK CFI 50974 .cfa: $rsp 88 +
STACK CFI 50976 .cfa: $rsp 96 +
STACK CFI 50978 .cfa: $rsp 104 +
STACK CFI 5097a .cfa: $rsp 112 +
STACK CFI 5097c .cfa: $rsp 120 +
STACK CFI 5097e .cfa: $rsp 128 +
STACK CFI 50980 .cfa: $rsp 136 +
STACK CFI 50982 .cfa: $rsp 144 +
STACK CFI 50984 .cfa: $rsp 152 +
STACK CFI 50986 .cfa: $rsp 160 +
STACK CFI 5098d .cfa: $rsp 168 +
STACK CFI 50994 .cfa: $rsp 176 +
STACK CFI 509a0 .cfa: $rsp 8 +
STACK CFI INIT 509a1 41 .cfa: $rsp 8 + .ra: .cfa -8 + ^
STACK CFI 509a5 .cfa: $rsp 24 +
STACK CFI 509a7 .cfa: $rsp 32 +
STACK CFI 509a9 .cfa: $rsp 40 +
STACK CFI 509ab .cfa: $rsp 48 +
STACK CFI 509ad .cfa: $rsp 56 +
STACK CFI 509af .cfa: $rsp 64 +
STACK CFI 509b1 .cfa: $rsp 72 +
STACK CFI 509b3 .cfa: $rsp 80 +
STACK CFI 509b5 .cfa: $rsp 88 +
STACK CFI 509b7 .cfa: $rsp 96 +
STACK CFI 509b9 .cfa: $rsp 104 +
STACK CFI 509bb .cfa: $rsp 112 +
STACK CFI 509bd .cfa: $rsp 120 +
STACK CFI 509bf .cfa: $rsp 128 +
STACK CFI 509c1 .cfa: $rsp 136 +
STACK CFI 509c3 .cfa: $rsp 144 +
STACK CFI 509c5 .cfa: $rsp 152 +
STACK CFI 509c7 .cfa: $rsp 160 +
STACK CFI 509ce .cfa: $rsp 168 +
STACK CFI 509d5 .cfa: $rsp 176 +
STACK CFI 509e1 .cfa: $rsp 8 +
STACK CFI INIT 509e2 41 .cfa: $rsp 8 + .ra: .cfa -8 + ^
STACK CFI 509e6 .cfa: $rsp 24 +
STACK CFI 509e8 .cfa: $rsp 32 +
STACK CFI 509ea .cfa: $rsp 40 +
STACK CFI 509ec .cfa: $rsp 48 +
STACK CFI 509ee .cfa: $rsp 56 +
STACK CFI 509f0 .cfa: $rsp 64 +
STACK CFI 509f2 .cfa: $rsp 72 +
STACK CFI 509f4 .cfa: $rsp 80 +
STACK CFI 509f6 .cfa: $rsp 88 +
STACK CFI 509f8 .cfa: $rsp 96 +
STACK CFI 509fa .cfa: $rsp 104 +
STACK CFI 509fc .cfa: $rsp 112 +
STACK CFI 509fe .cfa: $rsp 120 +
STACK CFI 50a00 .cfa: $rsp 128 +
STACK CFI 50a02 .cfa: $rsp 136 +
STACK CFI 50a04 .cfa: $rsp 144 +
STACK CFI 50a06 .cfa: $rsp 152 +
STACK CFI 50a08 .cfa: $rsp 160 +
STACK CFI 50a0f .cfa: $rsp 168 +
STACK CFI 50a16 .cfa: $rsp 176 +
STACK CFI 50a22 .cfa: $rsp 8 +
STACK CFI INIT 50a23 41 .cfa: $rsp 8 + .ra: .cfa -8 + ^
STACK CFI 50a27 .cfa: $rsp 24 +
STACK CFI 50a29 .cfa: $rsp 32 +
STACK CFI 50a2b .cfa: $rsp 40 +
STACK CFI 50a2d .cfa: $rsp 48 +
STACK CFI 50a2f .cfa: $rsp 56 +
STACK CFI 50a31 .cfa: $rsp 64 +
STACK CFI 50a33 .cfa: $rsp 72 +
STACK CFI 50a35 .cfa: $rsp 80 +
STACK CFI 50a37 .cfa: $rsp 88 +
STACK CFI 50a39 .cfa: $rsp 96 +
STACK CFI 50a3b .cfa: $rsp 104 +
STACK CFI 50a3d .cfa: $rsp 112 +
STACK CFI 50a3f .cfa: $rsp 120 +
STACK CFI 50a41 .cfa: $rsp 128 +
STACK CFI 50a43 .cfa: $rsp 136 +
STACK CFI 50a45 .cfa: $rsp 144 +
STACK CFI 50a47 .cfa: $rsp 152 +
STACK CFI 50a49 .cfa: $rsp 160 +
STACK CFI 50a50 .cfa: $rsp 168 +
STACK CFI 50a57 .cfa: $rsp 176 +
STACK CFI 50a63 .cfa: $rsp 8 +
STACK CFI INIT 50a64 41 .cfa: $rsp 8 + .ra: .cfa -8 + ^
STACK CFI 50a68 .cfa: $rsp 24 +
STACK CFI 50a6a .cfa: $rsp 32 +
STACK CFI 50a6c .cfa: $rsp 40 +
STACK CFI 50a6e .cfa: $rsp 48 +
STACK CFI 50a70 .cfa: $rsp 56 +
STACK CFI 50a72 .cfa: $rsp 64 +
STACK CFI 50a74 .cfa: $rsp 72 +
STACK CFI 50a76 .cfa: $rsp 80 +
STACK CFI 50a78 .cfa: $rsp 88 +
STACK CFI 50a7a .cfa: $rsp 96 +
STACK CFI 50a7c .cfa: $rsp 104 +
STACK CFI 50a7e .cfa: $rsp 112 +
STACK CFI 50a80 .cfa: $rsp 120 +
STACK CFI 50a82 .cfa: $rsp 128 +
STACK CFI 50a84 .cfa: $rsp 136 +
STACK CFI 50a86 .cfa: $rsp 144 +
STACK CFI 50a88 .cfa: $rsp 152 +
STACK CFI 50a8a .cfa: $rsp 160 +
STACK CFI 50a91 .cfa: $rsp 168 +
STACK CFI 50a98 .cfa: $rsp 176 +
STACK CFI 50aa4 .cfa: $rsp 8 +
STACK CFI INIT 50aa5 41 .cfa: $rsp 8 + .ra: .cfa -8 + ^
STACK CFI 50aa9 .cfa: $rsp 24 +
STACK CFI 50aab .cfa: $rsp 32 +
STACK CFI 50aad .cfa: $rsp 40 +
STACK CFI 50aaf .cfa: $rsp 48 +
STACK CFI 50ab1 .cfa: $rsp 56 +
STACK CFI 50ab3 .cfa: $rsp 64 +
STACK CFI 50ab5 .cfa: $rsp 72 +
STACK CFI 50ab7 .cfa: $rsp 80 +
STACK CFI 50ab9 .cfa: $rsp 88 +
STACK CFI 50abb .cfa: $rsp 96 +
STACK CFI 50abd .cfa: $rsp 104 +
STACK CFI 50abf .cfa: $rsp 112 +
STACK CFI 50ac1 .cfa: $rsp 120 +
STACK CFI 50ac3 .cfa: $rsp 128 +
STACK CFI 50ac5 .cfa: $rsp 136 +
STACK CFI 50ac7 .cfa: $rsp 144 +
STACK CFI 50ac9 .cfa: $rsp 152 +
STACK CFI 50acb .cfa: $rsp 160 +
STACK CFI 50ad2 .cfa: $rsp 168 +
STACK CFI 50ad9 .cfa: $rsp 176 +
STACK CFI 50ae5 .cfa: $rsp 8 +
STACK CFI INIT 50ae6 41 .cfa: $rsp 8 + .ra: .cfa -8 + ^
STACK CFI 50aea .cfa: $rsp 24 +
STACK CFI 50aec .cfa: $rsp 32 +
STACK CFI 50aee .cfa: $rsp 40 +
STACK CFI 50af0 .cfa: $rsp 48 +
STACK CFI 50af2 .cfa: $rsp 56 +
STACK CFI 50af4 .cfa: $rsp 64 +
STACK CFI 50af6 .cfa: $rsp 72 +
STACK CFI 50af8 .cfa: $rsp 80 +
STACK CFI 50afa .cfa: $rsp 88 +
STACK CFI 50afc .cfa: $rsp 96 +
STACK CFI 50afe .cfa: $rsp 104 +
STACK CFI 50b00 .cfa: $rsp 112 +
STACK CFI 50b02 .cfa: $rsp 120 +
STACK CFI 50b04 .cfa: $rsp 128 +
STACK CFI 50b06 .cfa: $rsp 136 +
STACK CFI 50b08 .cfa: $rsp 144 +
STACK CFI 50b0a .cfa: $rsp 152 +
STACK CFI 50b0c .cfa: $rsp 160 +
STACK CFI 50b13 .cfa: $rsp 168 +
STACK CFI 50b1a .cfa: $rsp 176 +
STACK CFI 50b26 .cfa: $rsp 8 +
STACK CFI INIT 50b27 41 .cfa: $rsp 8 + .ra: .cfa -8 + ^
STACK CFI 50b2b .cfa: $rsp 24 +
STACK CFI 50b2d .cfa: $rsp 32 +
STACK CFI 50b2f .cfa: $rsp 40 +
STACK CFI 50b31 .cfa: $rsp 48 +
STACK CFI 50b33 .cfa: $rsp 56 +
STACK CFI 50b35 .cfa: $rsp 64 +
STACK CFI 50b37 .cfa: $rsp 72 +
STACK CFI 50b39 .cfa: $rsp 80 +
STACK CFI 50b3b .cfa: $rsp 88 +
STACK CFI 50b3d .cfa: $rsp 96 +
STACK CFI 50b3f .cfa: $rsp 104 +
STACK CFI 50b41 .cfa: $rsp 112 +
STACK CFI 50b43 .cfa: $rsp 120 +
STACK CFI 50b45 .cfa: $rsp 128 +
STACK CFI 50b47 .cfa: $rsp 136 +
STACK CFI 50b49 .cfa: $rsp 144 +
STACK CFI 50b4b .cfa: $rsp 152 +
STACK CFI 50b4d .cfa: $rsp 160 +
STACK CFI 50b54 .cfa: $rsp 168 +
STACK CFI 50b5b .cfa: $rsp 176 +
STACK CFI 50b67 .cfa: $rsp 8 +
STACK CFI INIT 50b68 41 .cfa: $rsp 8 + .ra: .cfa -8 + ^
STACK CFI 50b6c .cfa: $rsp 24 +
STACK CFI 50b6e .cfa: $rsp 32 +
STACK CFI 50b70 .cfa: $rsp 40 +
STACK CFI 50b72 .cfa: $rsp 48 +
STACK CFI 50b74 .cfa: $rsp 56 +
STACK CFI 50b76 .cfa: $rsp 64 +
STACK CFI 50b78 .cfa: $rsp 72 +
STACK CFI 50b7a .cfa: $rsp 80 +
STACK CFI 50b7c .cfa: $rsp 88 +
STACK CFI 50b7e .cfa: $rsp 96 +
STACK CFI 50b80 .cfa: $rsp 104 +
STACK CFI 50b82 .cfa: $rsp 112 +
STACK CFI 50b84 .cfa: $rsp 120 +
STACK CFI 50b86 .cfa: $rsp 128 +
STACK CFI 50b88 .cfa: $rsp 136 +
STACK CFI 50b8a .cfa: $rsp 144 +
STACK CFI 50b8c .cfa: $rsp 152 +
STACK CFI 50b8e .cfa: $rsp 160 +
STACK CFI 50b95 .cfa: $rsp 168 +
STACK CFI 50b9c .cfa: $rsp 176 +
STACK CFI 50ba8 .cfa: $rsp 8 +
STACK CFI INIT 50ba9 41 .cfa: $rsp 8 + .ra: .cfa -8 + ^
STACK CFI 50bad .cfa: $rsp 24 +
STACK CFI 50baf .cfa: $rsp 32 +
STACK CFI 50bb1 .cfa: $rsp 40 +
STACK CFI 50bb3 .cfa: $rsp 48 +
STACK CFI 50bb5 .cfa: $rsp 56 +
STACK CFI 50bb7 .cfa: $rsp 64 +
STACK CFI 50bb9 .cfa: $rsp 72 +
STACK CFI 50bbb .cfa: $rsp 80 +
STACK CFI 50bbd .cfa: $rsp 88 +
STACK CFI 50bbf .cfa: $rsp 96 +
STACK CFI 50bc1 .cfa: $rsp 104 +
STACK CFI 50bc3 .cfa: $rsp 112 +
STACK CFI 50bc5 .cfa: $rsp 120 +
STACK CFI 50bc7 .cfa: $rsp 128 +
STACK CFI 50bc9 .cfa: $rsp 136 +
STACK CFI 50bcb .cfa: $rsp 144 +
STACK CFI 50bcd .cfa: $rsp 152 +
STACK CFI 50bcf .cfa: $rsp 160 +
STACK CFI 50bd6 .cfa: $rsp 168 +
STACK CFI 50bdd .cfa: $rsp 176 +
STACK CFI 50be9 .cfa: $rsp 8 +
STACK CFI INIT 50bea 41 .cfa: $rsp 8 + .ra: .cfa -8 + ^
STACK CFI 50bee .cfa: $rsp 24 +
STACK CFI 50bf0 .cfa: $rsp 32 +
STACK CFI 50bf2 .cfa: $rsp 40 +
STACK CFI 50bf4 .cfa: $rsp 48 +
STACK CFI 50bf6 .cfa: $rsp 56 +
STACK CFI 50bf8 .cfa: $rsp 64 +
STACK CFI 50bfa .cfa: $rsp 72 +
STACK CFI 50bfc .cfa: $rsp 80 +
STACK CFI 50bfe .cfa: $rsp 88 +
STACK CFI 50c00 .cfa: $rsp 96 +
STACK CFI 50c02 .cfa: $rsp 104 +
STACK CFI 50c04 .cfa: $rsp 112 +
STACK CFI 50c06 .cfa: $rsp 120 +
STACK CFI 50c08 .cfa: $rsp 128 +
STACK CFI 50c0a .cfa: $rsp 136 +
STACK CFI 50c0c .cfa: $rsp 144 +
STACK CFI 50c0e .cfa: $rsp 152 +
STACK CFI 50c10 .cfa: $rsp 160 +
STACK CFI 50c17 .cfa: $rsp 168 +
STACK CFI 50c1e .cfa: $rsp 176 +
STACK CFI 50c2a .cfa: $rsp 8 +
STACK CFI INIT 50c2b 41 .cfa: $rsp 8 + .ra: .cfa -8 + ^
STACK CFI 50c2f .cfa: $rsp 24 +
STACK CFI 50c31 .cfa: $rsp 32 +
STACK CFI 50c33 .cfa: $rsp 40 +
STACK CFI 50c35 .cfa: $rsp 48 +
STACK CFI 50c37 .cfa: $rsp 56 +
STACK CFI 50c39 .cfa: $rsp 64 +
STACK CFI 50c3b .cfa: $rsp 72 +
STACK CFI 50c3d .cfa: $rsp 80 +
STACK CFI 50c3f .cfa: $rsp 88 +
STACK CFI 50c41 .cfa: $rsp 96 +
STACK CFI 50c43 .cfa: $rsp 104 +
STACK CFI 50c45 .cfa: $rsp 112 +
STACK CFI 50c47 .cfa: $rsp 120 +
STACK CFI 50c49 .cfa: $rsp 128 +
STACK CFI 50c4b .cfa: $rsp 136 +
STACK CFI 50c4d .cfa: $rsp 144 +
STACK CFI 50c4f .cfa: $rsp 152 +
STACK CFI 50c51 .cfa: $rsp 160 +
STACK CFI 50c58 .cfa: $rsp 168 +
STACK CFI 50c5f .cfa: $rsp 176 +
STACK CFI 50c6b .cfa: $rsp 8 +
STACK CFI INIT 50c6c 41 .cfa: $rsp 8 + .ra: .cfa -8 + ^
STACK CFI 50c70 .cfa: $rsp 24 +
STACK CFI 50c72 .cfa: $rsp 32 +
STACK CFI 50c74 .cfa: $rsp 40 +
STACK CFI 50c76 .cfa: $rsp 48 +
STACK CFI 50c78 .cfa: $rsp 56 +
STACK CFI 50c7a .cfa: $rsp 64 +
STACK CFI 50c7c .cfa: $rsp 72 +
STACK CFI 50c7e .cfa: $rsp 80 +
STACK CFI 50c80 .cfa: $rsp 88 +
STACK CFI 50c82 .cfa: $rsp 96 +
STACK CFI 50c84 .cfa: $rsp 104 +
STACK CFI 50c86 .cfa: $rsp 112 +
STACK CFI 50c88 .cfa: $rsp 120 +
STACK CFI 50c8a .cfa: $rsp 128 +
STACK CFI 50c8c .cfa: $rsp 136 +
STACK CFI 50c8e .cfa: $rsp 144 +
STACK CFI 50c90 .cfa: $rsp 152 +
STACK CFI 50c92 .cfa: $rsp 160 +
STACK CFI 50c99 .cfa: $rsp 168 +
STACK CFI 50ca0 .cfa: $rsp 176 +
STACK CFI 50cac .cfa: $rsp 8 +
STACK CFI INIT 50cad 41 .cfa: $rsp 8 + .ra: .cfa -8 + ^
STACK CFI 50cb1 .cfa: $rsp 24 +
STACK CFI 50cb3 .cfa: $rsp 32 +
STACK CFI 50cb5 .cfa: $rsp 40 +
STACK CFI 50cb7 .cfa: $rsp 48 +
STACK CFI 50cb9 .cfa: $rsp 56 +
STACK CFI 50cbb .cfa: $rsp 64 +
STACK CFI 50cbd .cfa: $rsp 72 +
STACK CFI 50cbf .cfa: $rsp 80 +
STACK CFI 50cc1 .cfa: $rsp 88 +
STACK CFI 50cc3 .cfa: $rsp 96 +
STACK CFI 50cc5 .cfa: $rsp 104 +
STACK CFI 50cc7 .cfa: $rsp 112 +
STACK CFI 50cc9 .cfa: $rsp 120 +
STACK CFI 50ccb .cfa: $rsp 128 +
STACK CFI 50ccd .cfa: $rsp 136 +
STACK CFI 50ccf .cfa: $rsp 144 +
STACK CFI 50cd1 .cfa: $rsp 152 +
STACK CFI 50cd3 .cfa: $rsp 160 +
STACK CFI 50cda .cfa: $rsp 168 +
STACK CFI 50ce1 .cfa: $rsp 176 +
STACK CFI 50ced .cfa: $rsp 8 +
STACK CFI INIT 50cee 41 .cfa: $rsp 8 + .ra: .cfa -8 + ^
STACK CFI 50cf2 .cfa: $rsp 24 +
STACK CFI 50cf4 .cfa: $rsp 32 +
STACK CFI 50cf6 .cfa: $rsp 40 +
STACK CFI 50cf8 .cfa: $rsp 48 +
STACK CFI 50cfa .cfa: $rsp 56 +
STACK CFI 50cfc .cfa: $rsp 64 +
STACK CFI 50cfe .cfa: $rsp 72 +
STACK CFI 50d00 .cfa: $rsp 80 +
STACK CFI 50d02 .cfa: $rsp 88 +
STACK CFI 50d04 .cfa: $rsp 96 +
STACK CFI 50d06 .cfa: $rsp 104 +
STACK CFI 50d08 .cfa: $rsp 112 +
STACK CFI 50d0a .cfa: $rsp 120 +
STACK CFI 50d0c .cfa: $rsp 128 +
STACK CFI 50d0e .cfa: $rsp 136 +
STACK CFI 50d10 .cfa: $rsp 144 +
STACK CFI 50d12 .cfa: $rsp 152 +
STACK CFI 50d14 .cfa: $rsp 160 +
STACK CFI 50d1b .cfa: $rsp 168 +
STACK CFI 50d22 .cfa: $rsp 176 +
STACK CFI 50d2e .cfa: $rsp 8 +
STACK CFI INIT 50d2f 41 .cfa: $rsp 8 + .ra: .cfa -8 + ^
STACK CFI 50d33 .cfa: $rsp 24 +
STACK CFI 50d35 .cfa: $rsp 32 +
STACK CFI 50d37 .cfa: $rsp 40 +
STACK CFI 50d39 .cfa: $rsp 48 +
STACK CFI 50d3b .cfa: $rsp 56 +
STACK CFI 50d3d .cfa: $rsp 64 +
STACK CFI 50d3f .cfa: $rsp 72 +
STACK CFI 50d41 .cfa: $rsp 80 +
STACK CFI 50d43 .cfa: $rsp 88 +
STACK CFI 50d45 .cfa: $rsp 96 +
STACK CFI 50d47 .cfa: $rsp 104 +
STACK CFI 50d49 .cfa: $rsp 112 +
STACK CFI 50d4b .cfa: $rsp 120 +
STACK CFI 50d4d .cfa: $rsp 128 +
STACK CFI 50d4f .cfa: $rsp 136 +
STACK CFI 50d51 .cfa: $rsp 144 +
STACK CFI 50d53 .cfa: $rsp 152 +
STACK CFI 50d55 .cfa: $rsp 160 +
STACK CFI 50d5c .cfa: $rsp 168 +
STACK CFI 50d63 .cfa: $rsp 176 +
STACK CFI 50d6f .cfa: $rsp 8 +
STACK CFI INIT 50d70 41 .cfa: $rsp 8 + .ra: .cfa -8 + ^
STACK CFI 50d74 .cfa: $rsp 24 +
STACK CFI 50d76 .cfa: $rsp 32 +
STACK CFI 50d78 .cfa: $rsp 40 +
STACK CFI 50d7a .cfa: $rsp 48 +
STACK CFI 50d7c .cfa: $rsp 56 +
STACK CFI 50d7e .cfa: $rsp 64 +
STACK CFI 50d80 .cfa: $rsp 72 +
STACK CFI 50d82 .cfa: $rsp 80 +
STACK CFI 50d84 .cfa: $rsp 88 +
STACK CFI 50d86 .cfa: $rsp 96 +
STACK CFI 50d88 .cfa: $rsp 104 +
STACK CFI 50d8a .cfa: $rsp 112 +
STACK CFI 50d8c .cfa: $rsp 120 +
STACK CFI 50d8e .cfa: $rsp 128 +
STACK CFI 50d90 .cfa: $rsp 136 +
STACK CFI 50d92 .cfa: $rsp 144 +
STACK CFI 50d94 .cfa: $rsp 152 +
STACK CFI 50d96 .cfa: $rsp 160 +
STACK CFI 50d9d .cfa: $rsp 168 +
STACK CFI 50da4 .cfa: $rsp 176 +
STACK CFI 50db0 .cfa: $rsp 8 +
STACK CFI INIT 50db1 41 .cfa: $rsp 8 + .ra: .cfa -8 + ^
STACK CFI 50db5 .cfa: $rsp 24 +
STACK CFI 50db7 .cfa: $rsp 32 +
STACK CFI 50db9 .cfa: $rsp 40 +
STACK CFI 50dbb .cfa: $rsp 48 +
STACK CFI 50dbd .cfa: $rsp 56 +
STACK CFI 50dbf .cfa: $rsp 64 +
STACK CFI 50dc1 .cfa: $rsp 72 +
STACK CFI 50dc3 .cfa: $rsp 80 +
STACK CFI 50dc5 .cfa: $rsp 88 +
STACK CFI 50dc7 .cfa: $rsp 96 +
STACK CFI 50dc9 .cfa: $rsp 104 +
STACK CFI 50dcb .cfa: $rsp 112 +
STACK CFI 50dcd .cfa: $rsp 120 +
STACK CFI 50dcf .cfa: $rsp 128 +
STACK CFI 50dd1 .cfa: $rsp 136 +
STACK CFI 50dd3 .cfa: $rsp 144 +
STACK CFI 50dd5 .cfa: $rsp 152 +
STACK CFI 50dd7 .cfa: $rsp 160 +
STACK CFI 50dde .cfa: $rsp 168 +
STACK CFI 50de5 .cfa: $rsp 176 +
STACK CFI 50df1 .cfa: $rsp 8 +
STACK CFI INIT 50df2 41 .cfa: $rsp 8 + .ra: .cfa -8 + ^
STACK CFI 50df6 .cfa: $rsp 24 +
STACK CFI 50df8 .cfa: $rsp 32 +
STACK CFI 50dfa .cfa: $rsp 40 +
STACK CFI 50dfc .cfa: $rsp 48 +
STACK CFI 50dfe .cfa: $rsp 56 +
STACK CFI 50e00 .cfa: $rsp 64 +
STACK CFI 50e02 .cfa: $rsp 72 +
STACK CFI 50e04 .cfa: $rsp 80 +
STACK CFI 50e06 .cfa: $rsp 88 +
STACK CFI 50e08 .cfa: $rsp 96 +
STACK CFI 50e0a .cfa: $rsp 104 +
STACK CFI 50e0c .cfa: $rsp 112 +
STACK CFI 50e0e .cfa: $rsp 120 +
STACK CFI 50e10 .cfa: $rsp 128 +
STACK CFI 50e12 .cfa: $rsp 136 +
STACK CFI 50e14 .cfa: $rsp 144 +
STACK CFI 50e16 .cfa: $rsp 152 +
STACK CFI 50e18 .cfa: $rsp 160 +
STACK CFI 50e1f .cfa: $rsp 168 +
STACK CFI 50e26 .cfa: $rsp 176 +
STACK CFI 50e32 .cfa: $rsp 8 +
STACK CFI INIT 50e33 41 .cfa: $rsp 8 + .ra: .cfa -8 + ^
STACK CFI 50e37 .cfa: $rsp 24 +
STACK CFI 50e39 .cfa: $rsp 32 +
STACK CFI 50e3b .cfa: $rsp 40 +
STACK CFI 50e3d .cfa: $rsp 48 +
STACK CFI 50e3f .cfa: $rsp 56 +
STACK CFI 50e41 .cfa: $rsp 64 +
STACK CFI 50e43 .cfa: $rsp 72 +
STACK CFI 50e45 .cfa: $rsp 80 +
STACK CFI 50e47 .cfa: $rsp 88 +
STACK CFI 50e49 .cfa: $rsp 96 +
STACK CFI 50e4b .cfa: $rsp 104 +
STACK CFI 50e4d .cfa: $rsp 112 +
STACK CFI 50e4f .cfa: $rsp 120 +
STACK CFI 50e51 .cfa: $rsp 128 +
STACK CFI 50e53 .cfa: $rsp 136 +
STACK CFI 50e55 .cfa: $rsp 144 +
STACK CFI 50e57 .cfa: $rsp 152 +
STACK CFI 50e59 .cfa: $rsp 160 +
STACK CFI 50e60 .cfa: $rsp 168 +
STACK CFI 50e67 .cfa: $rsp 176 +
STACK CFI 50e73 .cfa: $rsp 8 +
STACK CFI INIT 50e74 41 .cfa: $rsp 8 + .ra: .cfa -8 + ^
STACK CFI 50e78 .cfa: $rsp 24 +
STACK CFI 50e7a .cfa: $rsp 32 +
STACK CFI 50e7c .cfa: $rsp 40 +
STACK CFI 50e7e .cfa: $rsp 48 +
STACK CFI 50e80 .cfa: $rsp 56 +
STACK CFI 50e82 .cfa: $rsp 64 +
STACK CFI 50e84 .cfa: $rsp 72 +
STACK CFI 50e86 .cfa: $rsp 80 +
STACK CFI 50e88 .cfa: $rsp 88 +
STACK CFI 50e8a .cfa: $rsp 96 +
STACK CFI 50e8c .cfa: $rsp 104 +
STACK CFI 50e8e .cfa: $rsp 112 +
STACK CFI 50e90 .cfa: $rsp 120 +
STACK CFI 50e92 .cfa: $rsp 128 +
STACK CFI 50e94 .cfa: $rsp 136 +
STACK CFI 50e96 .cfa: $rsp 144 +
STACK CFI 50e98 .cfa: $rsp 152 +
STACK CFI 50e9a .cfa: $rsp 160 +
STACK CFI 50ea1 .cfa: $rsp 168 +
STACK CFI 50ea8 .cfa: $rsp 176 +
STACK CFI 50eb4 .cfa: $rsp 8 +
STACK CFI INIT 50eb5 41 .cfa: $rsp 8 + .ra: .cfa -8 + ^
STACK CFI 50eb9 .cfa: $rsp 24 +
STACK CFI 50ebb .cfa: $rsp 32 +
STACK CFI 50ebd .cfa: $rsp 40 +
STACK CFI 50ebf .cfa: $rsp 48 +
STACK CFI 50ec1 .cfa: $rsp 56 +
STACK CFI 50ec3 .cfa: $rsp 64 +
STACK CFI 50ec5 .cfa: $rsp 72 +
STACK CFI 50ec7 .cfa: $rsp 80 +
STACK CFI 50ec9 .cfa: $rsp 88 +
STACK CFI 50ecb .cfa: $rsp 96 +
STACK CFI 50ecd .cfa: $rsp 104 +
STACK CFI 50ecf .cfa: $rsp 112 +
STACK CFI 50ed1 .cfa: $rsp 120 +
STACK CFI 50ed3 .cfa: $rsp 128 +
STACK CFI 50ed5 .cfa: $rsp 136 +
STACK CFI 50ed7 .cfa: $rsp 144 +
STACK CFI 50ed9 .cfa: $rsp 152 +
STACK CFI 50edb .cfa: $rsp 160 +
STACK CFI 50ee2 .cfa: $rsp 168 +
STACK CFI 50ee9 .cfa: $rsp 176 +
STACK CFI 50ef5 .cfa: $rsp 8 +
STACK CFI INIT 50ef6 41 .cfa: $rsp 8 + .ra: .cfa -8 + ^
STACK CFI 50efa .cfa: $rsp 24 +
STACK CFI 50efc .cfa: $rsp 32 +
STACK CFI 50efe .cfa: $rsp 40 +
STACK CFI 50f00 .cfa: $rsp 48 +
STACK CFI 50f02 .cfa: $rsp 56 +
STACK CFI 50f04 .cfa: $rsp 64 +
STACK CFI 50f06 .cfa: $rsp 72 +
STACK CFI 50f08 .cfa: $rsp 80 +
STACK CFI 50f0a .cfa: $rsp 88 +
STACK CFI 50f0c .cfa: $rsp 96 +
STACK CFI 50f0e .cfa: $rsp 104 +
STACK CFI 50f10 .cfa: $rsp 112 +
STACK CFI 50f12 .cfa: $rsp 120 +
STACK CFI 50f14 .cfa: $rsp 128 +
STACK CFI 50f16 .cfa: $rsp 136 +
STACK CFI 50f18 .cfa: $rsp 144 +
STACK CFI 50f1a .cfa: $rsp 152 +
STACK CFI 50f1c .cfa: $rsp 160 +
STACK CFI 50f23 .cfa: $rsp 168 +
STACK CFI 50f2a .cfa: $rsp 176 +
STACK CFI 50f36 .cfa: $rsp 8 +
STACK CFI INIT 50f37 41 .cfa: $rsp 8 + .ra: .cfa -8 + ^
STACK CFI 50f3b .cfa: $rsp 24 +
STACK CFI 50f3d .cfa: $rsp 32 +
STACK CFI 50f3f .cfa: $rsp 40 +
STACK CFI 50f41 .cfa: $rsp 48 +
STACK CFI 50f43 .cfa: $rsp 56 +
STACK CFI 50f45 .cfa: $rsp 64 +
STACK CFI 50f47 .cfa: $rsp 72 +
STACK CFI 50f49 .cfa: $rsp 80 +
STACK CFI 50f4b .cfa: $rsp 88 +
STACK CFI 50f4d .cfa: $rsp 96 +
STACK CFI 50f4f .cfa: $rsp 104 +
STACK CFI 50f51 .cfa: $rsp 112 +
STACK CFI 50f53 .cfa: $rsp 120 +
STACK CFI 50f55 .cfa: $rsp 128 +
STACK CFI 50f57 .cfa: $rsp 136 +
STACK CFI 50f59 .cfa: $rsp 144 +
STACK CFI 50f5b .cfa: $rsp 152 +
STACK CFI 50f5d .cfa: $rsp 160 +
STACK CFI 50f64 .cfa: $rsp 168 +
STACK CFI 50f6b .cfa: $rsp 176 +
STACK CFI 50f77 .cfa: $rsp 8 +
STACK CFI INIT 50f78 41 .cfa: $rsp 8 + .ra: .cfa -8 + ^
STACK CFI 50f7c .cfa: $rsp 24 +
STACK CFI 50f7e .cfa: $rsp 32 +
STACK CFI 50f80 .cfa: $rsp 40 +
STACK CFI 50f82 .cfa: $rsp 48 +
STACK CFI 50f84 .cfa: $rsp 56 +
STACK CFI 50f86 .cfa: $rsp 64 +
STACK CFI 50f88 .cfa: $rsp 72 +
STACK CFI 50f8a .cfa: $rsp 80 +
STACK CFI 50f8c .cfa: $rsp 88 +
STACK CFI 50f8e .cfa: $rsp 96 +
STACK CFI 50f90 .cfa: $rsp 104 +
STACK CFI 50f92 .cfa: $rsp 112 +
STACK CFI 50f94 .cfa: $rsp 120 +
STACK CFI 50f96 .cfa: $rsp 128 +
STACK CFI 50f98 .cfa: $rsp 136 +
STACK CFI 50f9a .cfa: $rsp 144 +
STACK CFI 50f9c .cfa: $rsp 152 +
STACK CFI 50f9e .cfa: $rsp 160 +
STACK CFI 50fa5 .cfa: $rsp 168 +
STACK CFI 50fac .cfa: $rsp 176 +
STACK CFI 50fb8 .cfa: $rsp 8 +
STACK CFI INIT 50fb9 41 .cfa: $rsp 8 + .ra: .cfa -8 + ^
STACK CFI 50fbd .cfa: $rsp 24 +
STACK CFI 50fbf .cfa: $rsp 32 +
STACK CFI 50fc1 .cfa: $rsp 40 +
STACK CFI 50fc3 .cfa: $rsp 48 +
STACK CFI 50fc5 .cfa: $rsp 56 +
STACK CFI 50fc7 .cfa: $rsp 64 +
STACK CFI 50fc9 .cfa: $rsp 72 +
STACK CFI 50fcb .cfa: $rsp 80 +
STACK CFI 50fcd .cfa: $rsp 88 +
STACK CFI 50fcf .cfa: $rsp 96 +
STACK CFI 50fd1 .cfa: $rsp 104 +
STACK CFI 50fd3 .cfa: $rsp 112 +
STACK CFI 50fd5 .cfa: $rsp 120 +
STACK CFI 50fd7 .cfa: $rsp 128 +
STACK CFI 50fd9 .cfa: $rsp 136 +
STACK CFI 50fdb .cfa: $rsp 144 +
STACK CFI 50fdd .cfa: $rsp 152 +
STACK CFI 50fdf .cfa: $rsp 160 +
STACK CFI 50fe6 .cfa: $rsp 168 +
STACK CFI 50fed .cfa: $rsp 176 +
STACK CFI 50ff9 .cfa: $rsp 8 +
STACK CFI INIT 50ffa 41 .cfa: $rsp 8 + .ra: .cfa -8 + ^
STACK CFI 50ffe .cfa: $rsp 24 +
STACK CFI 51000 .cfa: $rsp 32 +
STACK CFI 51002 .cfa: $rsp 40 +
STACK CFI 51004 .cfa: $rsp 48 +
STACK CFI 51006 .cfa: $rsp 56 +
STACK CFI 51008 .cfa: $rsp 64 +
STACK CFI 5100a .cfa: $rsp 72 +
STACK CFI 5100c .cfa: $rsp 80 +
STACK CFI 5100e .cfa: $rsp 88 +
STACK CFI 51010 .cfa: $rsp 96 +
STACK CFI 51012 .cfa: $rsp 104 +
STACK CFI 51014 .cfa: $rsp 112 +
STACK CFI 51016 .cfa: $rsp 120 +
STACK CFI 51018 .cfa: $rsp 128 +
STACK CFI 5101a .cfa: $rsp 136 +
STACK CFI 5101c .cfa: $rsp 144 +
STACK CFI 5101e .cfa: $rsp 152 +
STACK CFI 51020 .cfa: $rsp 160 +
STACK CFI 51027 .cfa: $rsp 168 +
STACK CFI 5102e .cfa: $rsp 176 +
STACK CFI 5103a .cfa: $rsp 8 +
STACK CFI INIT 5103b 41 .cfa: $rsp 8 + .ra: .cfa -8 + ^
STACK CFI 5103f .cfa: $rsp 24 +
STACK CFI 51041 .cfa: $rsp 32 +
STACK CFI 51043 .cfa: $rsp 40 +
STACK CFI 51045 .cfa: $rsp 48 +
STACK CFI 51047 .cfa: $rsp 56 +
STACK CFI 51049 .cfa: $rsp 64 +
STACK CFI 5104b .cfa: $rsp 72 +
STACK CFI 5104d .cfa: $rsp 80 +
STACK CFI 5104f .cfa: $rsp 88 +
STACK CFI 51051 .cfa: $rsp 96 +
STACK CFI 51053 .cfa: $rsp 104 +
STACK CFI 51055 .cfa: $rsp 112 +
STACK CFI 51057 .cfa: $rsp 120 +
STACK CFI 51059 .cfa: $rsp 128 +
STACK CFI 5105b .cfa: $rsp 136 +
STACK CFI 5105d .cfa: $rsp 144 +
STACK CFI 5105f .cfa: $rsp 152 +
STACK CFI 51061 .cfa: $rsp 160 +
STACK CFI 51068 .cfa: $rsp 168 +
STACK CFI 5106f .cfa: $rsp 176 +
STACK CFI 5107b .cfa: $rsp 8 +
STACK CFI INIT 5107c 41 .cfa: $rsp 8 + .ra: .cfa -8 + ^
STACK CFI 51080 .cfa: $rsp 24 +
STACK CFI 51082 .cfa: $rsp 32 +
STACK CFI 51084 .cfa: $rsp 40 +
STACK CFI 51086 .cfa: $rsp 48 +
STACK CFI 51088 .cfa: $rsp 56 +
STACK CFI 5108a .cfa: $rsp 64 +
STACK CFI 5108c .cfa: $rsp 72 +
STACK CFI 5108e .cfa: $rsp 80 +
STACK CFI 51090 .cfa: $rsp 88 +
STACK CFI 51092 .cfa: $rsp 96 +
STACK CFI 51094 .cfa: $rsp 104 +
STACK CFI 51096 .cfa: $rsp 112 +
STACK CFI 51098 .cfa: $rsp 120 +
STACK CFI 5109a .cfa: $rsp 128 +
STACK CFI 5109c .cfa: $rsp 136 +
STACK CFI 5109e .cfa: $rsp 144 +
STACK CFI 510a0 .cfa: $rsp 152 +
STACK CFI 510a2 .cfa: $rsp 160 +
STACK CFI 510a9 .cfa: $rsp 168 +
STACK CFI 510b0 .cfa: $rsp 176 +
STACK CFI 510bc .cfa: $rsp 8 +
STACK CFI INIT 510bd 41 .cfa: $rsp 8 + .ra: .cfa -8 + ^
STACK CFI 510c1 .cfa: $rsp 24 +
STACK CFI 510c3 .cfa: $rsp 32 +
STACK CFI 510c5 .cfa: $rsp 40 +
STACK CFI 510c7 .cfa: $rsp 48 +
STACK CFI 510c9 .cfa: $rsp 56 +
STACK CFI 510cb .cfa: $rsp 64 +
STACK CFI 510cd .cfa: $rsp 72 +
STACK CFI 510cf .cfa: $rsp 80 +
STACK CFI 510d1 .cfa: $rsp 88 +
STACK CFI 510d3 .cfa: $rsp 96 +
STACK CFI 510d5 .cfa: $rsp 104 +
STACK CFI 510d7 .cfa: $rsp 112 +
STACK CFI 510d9 .cfa: $rsp 120 +
STACK CFI 510db .cfa: $rsp 128 +
STACK CFI 510dd .cfa: $rsp 136 +
STACK CFI 510df .cfa: $rsp 144 +
STACK CFI 510e1 .cfa: $rsp 152 +
STACK CFI 510e3 .cfa: $rsp 160 +
STACK CFI 510ea .cfa: $rsp 168 +
STACK CFI 510f1 .cfa: $rsp 176 +
STACK CFI 510fd .cfa: $rsp 8 +
STACK CFI INIT 510fe 41 .cfa: $rsp 8 + .ra: .cfa -8 + ^
STACK CFI 51102 .cfa: $rsp 24 +
STACK CFI 51104 .cfa: $rsp 32 +
STACK CFI 51106 .cfa: $rsp 40 +
STACK CFI 51108 .cfa: $rsp 48 +
STACK CFI 5110a .cfa: $rsp 56 +
STACK CFI 5110c .cfa: $rsp 64 +
STACK CFI 5110e .cfa: $rsp 72 +
STACK CFI 51110 .cfa: $rsp 80 +
STACK CFI 51112 .cfa: $rsp 88 +
STACK CFI 51114 .cfa: $rsp 96 +
STACK CFI 51116 .cfa: $rsp 104 +
STACK CFI 51118 .cfa: $rsp 112 +
STACK CFI 5111a .cfa: $rsp 120 +
STACK CFI 5111c .cfa: $rsp 128 +
STACK CFI 5111e .cfa: $rsp 136 +
STACK CFI 51120 .cfa: $rsp 144 +
STACK CFI 51122 .cfa: $rsp 152 +
STACK CFI 51124 .cfa: $rsp 160 +
STACK CFI 5112b .cfa: $rsp 168 +
STACK CFI 51132 .cfa: $rsp 176 +
STACK CFI 5113e .cfa: $rsp 8 +
STACK CFI INIT 5113f 41 .cfa: $rsp 8 + .ra: .cfa -8 + ^
STACK CFI 51143 .cfa: $rsp 24 +
STACK CFI 51145 .cfa: $rsp 32 +
STACK CFI 51147 .cfa: $rsp 40 +
STACK CFI 51149 .cfa: $rsp 48 +
STACK CFI 5114b .cfa: $rsp 56 +
STACK CFI 5114d .cfa: $rsp 64 +
STACK CFI 5114f .cfa: $rsp 72 +
STACK CFI 51151 .cfa: $rsp 80 +
STACK CFI 51153 .cfa: $rsp 88 +
STACK CFI 51155 .cfa: $rsp 96 +
STACK CFI 51157 .cfa: $rsp 104 +
STACK CFI 51159 .cfa: $rsp 112 +
STACK CFI 5115b .cfa: $rsp 120 +
STACK CFI 5115d .cfa: $rsp 128 +
STACK CFI 5115f .cfa: $rsp 136 +
STACK CFI 51161 .cfa: $rsp 144 +
STACK CFI 51163 .cfa: $rsp 152 +
STACK CFI 51165 .cfa: $rsp 160 +
STACK CFI 5116c .cfa: $rsp 168 +
STACK CFI 51173 .cfa: $rsp 176 +
STACK CFI 5117f .cfa: $rsp 8 +
STACK CFI INIT 51180 41 .cfa: $rsp 8 + .ra: .cfa -8 + ^
STACK CFI 51184 .cfa: $rsp 24 +
STACK CFI 51186 .cfa: $rsp 32 +
STACK CFI 51188 .cfa: $rsp 40 +
STACK CFI 5118a .cfa: $rsp 48 +
STACK CFI 5118c .cfa: $rsp 56 +
STACK CFI 5118e .cfa: $rsp 64 +
STACK CFI 51190 .cfa: $rsp 72 +
STACK CFI 51192 .cfa: $rsp 80 +
STACK CFI 51194 .cfa: $rsp 88 +
STACK CFI 51196 .cfa: $rsp 96 +
STACK CFI 51198 .cfa: $rsp 104 +
STACK CFI 5119a .cfa: $rsp 112 +
STACK CFI 5119c .cfa: $rsp 120 +
STACK CFI 5119e .cfa: $rsp 128 +
STACK CFI 511a0 .cfa: $rsp 136 +
STACK CFI 511a2 .cfa: $rsp 144 +
STACK CFI 511a4 .cfa: $rsp 152 +
STACK CFI 511a6 .cfa: $rsp 160 +
STACK CFI 511ad .cfa: $rsp 168 +
STACK CFI 511b4 .cfa: $rsp 176 +
STACK CFI 511c0 .cfa: $rsp 8 +
STACK CFI INIT 511c1 41 .cfa: $rsp 8 + .ra: .cfa -8 + ^
STACK CFI 511c5 .cfa: $rsp 24 +
STACK CFI 511c7 .cfa: $rsp 32 +
STACK CFI 511c9 .cfa: $rsp 40 +
STACK CFI 511cb .cfa: $rsp 48 +
STACK CFI 511cd .cfa: $rsp 56 +
STACK CFI 511cf .cfa: $rsp 64 +
STACK CFI 511d1 .cfa: $rsp 72 +
STACK CFI 511d3 .cfa: $rsp 80 +
STACK CFI 511d5 .cfa: $rsp 88 +
STACK CFI 511d7 .cfa: $rsp 96 +
STACK CFI 511d9 .cfa: $rsp 104 +
STACK CFI 511db .cfa: $rsp 112 +
STACK CFI 511dd .cfa: $rsp 120 +
STACK CFI 511df .cfa: $rsp 128 +
STACK CFI 511e1 .cfa: $rsp 136 +
STACK CFI 511e3 .cfa: $rsp 144 +
STACK CFI 511e5 .cfa: $rsp 152 +
STACK CFI 511e7 .cfa: $rsp 160 +
STACK CFI 511ee .cfa: $rsp 168 +
STACK CFI 511f5 .cfa: $rsp 176 +
STACK CFI 51201 .cfa: $rsp 8 +
STACK CFI INIT 51202 41 .cfa: $rsp 8 + .ra: .cfa -8 + ^
STACK CFI 51206 .cfa: $rsp 24 +
STACK CFI 51208 .cfa: $rsp 32 +
STACK CFI 5120a .cfa: $rsp 40 +
STACK CFI 5120c .cfa: $rsp 48 +
STACK CFI 5120e .cfa: $rsp 56 +
STACK CFI 51210 .cfa: $rsp 64 +
STACK CFI 51212 .cfa: $rsp 72 +
STACK CFI 51214 .cfa: $rsp 80 +
STACK CFI 51216 .cfa: $rsp 88 +
STACK CFI 51218 .cfa: $rsp 96 +
STACK CFI 5121a .cfa: $rsp 104 +
STACK CFI 5121c .cfa: $rsp 112 +
STACK CFI 5121e .cfa: $rsp 120 +
STACK CFI 51220 .cfa: $rsp 128 +
STACK CFI 51222 .cfa: $rsp 136 +
STACK CFI 51224 .cfa: $rsp 144 +
STACK CFI 51226 .cfa: $rsp 152 +
STACK CFI 51228 .cfa: $rsp 160 +
STACK CFI 5122f .cfa: $rsp 168 +
STACK CFI 51236 .cfa: $rsp 176 +
STACK CFI 51242 .cfa: $rsp 8 +
STACK CFI INIT 51243 41 .cfa: $rsp 8 + .ra: .cfa -8 + ^
STACK CFI 51247 .cfa: $rsp 24 +
STACK CFI 51249 .cfa: $rsp 32 +
STACK CFI 5124b .cfa: $rsp 40 +
STACK CFI 5124d .cfa: $rsp 48 +
STACK CFI 5124f .cfa: $rsp 56 +
STACK CFI 51251 .cfa: $rsp 64 +
STACK CFI 51253 .cfa: $rsp 72 +
STACK CFI 51255 .cfa: $rsp 80 +
STACK CFI 51257 .cfa: $rsp 88 +
STACK CFI 51259 .cfa: $rsp 96 +
STACK CFI 5125b .cfa: $rsp 104 +
STACK CFI 5125d .cfa: $rsp 112 +
STACK CFI 5125f .cfa: $rsp 120 +
STACK CFI 51261 .cfa: $rsp 128 +
STACK CFI 51263 .cfa: $rsp 136 +
STACK CFI 51265 .cfa: $rsp 144 +
STACK CFI 51267 .cfa: $rsp 152 +
STACK CFI 51269 .cfa: $rsp 160 +
STACK CFI 51270 .cfa: $rsp 168 +
STACK CFI 51277 .cfa: $rsp 176 +
STACK CFI 51283 .cfa: $rsp 8 +
STACK CFI INIT 51284 41 .cfa: $rsp 8 + .ra: .cfa -8 + ^
STACK CFI 51288 .cfa: $rsp 24 +
STACK CFI 5128a .cfa: $rsp 32 +
STACK CFI 5128c .cfa: $rsp 40 +
STACK CFI 5128e .cfa: $rsp 48 +
STACK CFI 51290 .cfa: $rsp 56 +
STACK CFI 51292 .cfa: $rsp 64 +
STACK CFI 51294 .cfa: $rsp 72 +
STACK CFI 51296 .cfa: $rsp 80 +
STACK CFI 51298 .cfa: $rsp 88 +
STACK CFI 5129a .cfa: $rsp 96 +
STACK CFI 5129c .cfa: $rsp 104 +
STACK CFI 5129e .cfa: $rsp 112 +
STACK CFI 512a0 .cfa: $rsp 120 +
STACK CFI 512a2 .cfa: $rsp 128 +
STACK CFI 512a4 .cfa: $rsp 136 +
STACK CFI 512a6 .cfa: $rsp 144 +
STACK CFI 512a8 .cfa: $rsp 152 +
STACK CFI 512aa .cfa: $rsp 160 +
STACK CFI 512b1 .cfa: $rsp 168 +
STACK CFI 512b8 .cfa: $rsp 176 +
STACK CFI 512c4 .cfa: $rsp 8 +
STACK CFI INIT 512c5 41 .cfa: $rsp 8 + .ra: .cfa -8 + ^
STACK CFI 512c9 .cfa: $rsp 24 +
STACK CFI 512cb .cfa: $rsp 32 +
STACK CFI 512cd .cfa: $rsp 40 +
STACK CFI 512cf .cfa: $rsp 48 +
STACK CFI 512d1 .cfa: $rsp 56 +
STACK CFI 512d3 .cfa: $rsp 64 +
STACK CFI 512d5 .cfa: $rsp 72 +
STACK CFI 512d7 .cfa: $rsp 80 +
STACK CFI 512d9 .cfa: $rsp 88 +
STACK CFI 512db .cfa: $rsp 96 +
STACK CFI 512dd .cfa: $rsp 104 +
STACK CFI 512df .cfa: $rsp 112 +
STACK CFI 512e1 .cfa: $rsp 120 +
STACK CFI 512e3 .cfa: $rsp 128 +
STACK CFI 512e5 .cfa: $rsp 136 +
STACK CFI 512e7 .cfa: $rsp 144 +
STACK CFI 512e9 .cfa: $rsp 152 +
STACK CFI 512eb .cfa: $rsp 160 +
STACK CFI 512f2 .cfa: $rsp 168 +
STACK CFI 512f9 .cfa: $rsp 176 +
STACK CFI 51305 .cfa: $rsp 8 +
STACK CFI INIT 51306 41 .cfa: $rsp 8 + .ra: .cfa -8 + ^
STACK CFI 5130a .cfa: $rsp 24 +
STACK CFI 5130c .cfa: $rsp 32 +
STACK CFI 5130e .cfa: $rsp 40 +
STACK CFI 51310 .cfa: $rsp 48 +
STACK CFI 51312 .cfa: $rsp 56 +
STACK CFI 51314 .cfa: $rsp 64 +
STACK CFI 51316 .cfa: $rsp 72 +
STACK CFI 51318 .cfa: $rsp 80 +
STACK CFI 5131a .cfa: $rsp 88 +
STACK CFI 5131c .cfa: $rsp 96 +
STACK CFI 5131e .cfa: $rsp 104 +
STACK CFI 51320 .cfa: $rsp 112 +
STACK CFI 51322 .cfa: $rsp 120 +
STACK CFI 51324 .cfa: $rsp 128 +
STACK CFI 51326 .cfa: $rsp 136 +
STACK CFI 51328 .cfa: $rsp 144 +
STACK CFI 5132a .cfa: $rsp 152 +
STACK CFI 5132c .cfa: $rsp 160 +
STACK CFI 51333 .cfa: $rsp 168 +
STACK CFI 5133a .cfa: $rsp 176 +
STACK CFI 51346 .cfa: $rsp 8 +
STACK CFI INIT 51347 41 .cfa: $rsp 8 + .ra: .cfa -8 + ^
STACK CFI 5134b .cfa: $rsp 24 +
STACK CFI 5134d .cfa: $rsp 32 +
STACK CFI 5134f .cfa: $rsp 40 +
STACK CFI 51351 .cfa: $rsp 48 +
STACK CFI 51353 .cfa: $rsp 56 +
STACK CFI 51355 .cfa: $rsp 64 +
STACK CFI 51357 .cfa: $rsp 72 +
STACK CFI 51359 .cfa: $rsp 80 +
STACK CFI 5135b .cfa: $rsp 88 +
STACK CFI 5135d .cfa: $rsp 96 +
STACK CFI 5135f .cfa: $rsp 104 +
STACK CFI 51361 .cfa: $rsp 112 +
STACK CFI 51363 .cfa: $rsp 120 +
STACK CFI 51365 .cfa: $rsp 128 +
STACK CFI 51367 .cfa: $rsp 136 +
STACK CFI 51369 .cfa: $rsp 144 +
STACK CFI 5136b .cfa: $rsp 152 +
STACK CFI 5136d .cfa: $rsp 160 +
STACK CFI 51374 .cfa: $rsp 168 +
STACK CFI 5137b .cfa: $rsp 176 +
STACK CFI 51387 .cfa: $rsp 8 +
STACK CFI INIT 51388 41 .cfa: $rsp 8 + .ra: .cfa -8 + ^
STACK CFI 5138c .cfa: $rsp 24 +
STACK CFI 5138e .cfa: $rsp 32 +
STACK CFI 51390 .cfa: $rsp 40 +
STACK CFI 51392 .cfa: $rsp 48 +
STACK CFI 51394 .cfa: $rsp 56 +
STACK CFI 51396 .cfa: $rsp 64 +
STACK CFI 51398 .cfa: $rsp 72 +
STACK CFI 5139a .cfa: $rsp 80 +
STACK CFI 5139c .cfa: $rsp 88 +
STACK CFI 5139e .cfa: $rsp 96 +
STACK CFI 513a0 .cfa: $rsp 104 +
STACK CFI 513a2 .cfa: $rsp 112 +
STACK CFI 513a4 .cfa: $rsp 120 +
STACK CFI 513a6 .cfa: $rsp 128 +
STACK CFI 513a8 .cfa: $rsp 136 +
STACK CFI 513aa .cfa: $rsp 144 +
STACK CFI 513ac .cfa: $rsp 152 +
STACK CFI 513ae .cfa: $rsp 160 +
STACK CFI 513b5 .cfa: $rsp 168 +
STACK CFI 513bc .cfa: $rsp 176 +
STACK CFI 513c8 .cfa: $rsp 8 +
STACK CFI INIT 513c9 41 .cfa: $rsp 8 + .ra: .cfa -8 + ^
STACK CFI 513cd .cfa: $rsp 24 +
STACK CFI 513cf .cfa: $rsp 32 +
STACK CFI 513d1 .cfa: $rsp 40 +
STACK CFI 513d3 .cfa: $rsp 48 +
STACK CFI 513d5 .cfa: $rsp 56 +
STACK CFI 513d7 .cfa: $rsp 64 +
STACK CFI 513d9 .cfa: $rsp 72 +
STACK CFI 513db .cfa: $rsp 80 +
STACK CFI 513dd .cfa: $rsp 88 +
STACK CFI 513df .cfa: $rsp 96 +
STACK CFI 513e1 .cfa: $rsp 104 +
STACK CFI 513e3 .cfa: $rsp 112 +
STACK CFI 513e5 .cfa: $rsp 120 +
STACK CFI 513e7 .cfa: $rsp 128 +
STACK CFI 513e9 .cfa: $rsp 136 +
STACK CFI 513eb .cfa: $rsp 144 +
STACK CFI 513ed .cfa: $rsp 152 +
STACK CFI 513ef .cfa: $rsp 160 +
STACK CFI 513f6 .cfa: $rsp 168 +
STACK CFI 513fd .cfa: $rsp 176 +
STACK CFI 51409 .cfa: $rsp 8 +
STACK CFI INIT 5140a 41 .cfa: $rsp 8 + .ra: .cfa -8 + ^
STACK CFI 5140e .cfa: $rsp 24 +
STACK CFI 51410 .cfa: $rsp 32 +
STACK CFI 51412 .cfa: $rsp 40 +
STACK CFI 51414 .cfa: $rsp 48 +
STACK CFI 51416 .cfa: $rsp 56 +
STACK CFI 51418 .cfa: $rsp 64 +
STACK CFI 5141a .cfa: $rsp 72 +
STACK CFI 5141c .cfa: $rsp 80 +
STACK CFI 5141e .cfa: $rsp 88 +
STACK CFI 51420 .cfa: $rsp 96 +
STACK CFI 51422 .cfa: $rsp 104 +
STACK CFI 51424 .cfa: $rsp 112 +
STACK CFI 51426 .cfa: $rsp 120 +
STACK CFI 51428 .cfa: $rsp 128 +
STACK CFI 5142a .cfa: $rsp 136 +
STACK CFI 5142c .cfa: $rsp 144 +
STACK CFI 5142e .cfa: $rsp 152 +
STACK CFI 51430 .cfa: $rsp 160 +
STACK CFI 51437 .cfa: $rsp 168 +
STACK CFI 5143e .cfa: $rsp 176 +
STACK CFI 5144a .cfa: $rsp 8 +
STACK CFI INIT 5144b 39 .cfa: $rsp 8 + .ra: .cfa -8 + ^
STACK CFI 5144f .cfa: $rsp 24 +
STACK CFI 51451 .cfa: $rsp 32 +
STACK CFI 51453 .cfa: $rsp 40 +
STACK CFI 51455 .cfa: $rsp 48 +
STACK CFI 51457 .cfa: $rsp 56 +
STACK CFI 51459 .cfa: $rsp 64 +
STACK CFI 5145b .cfa: $rsp 72 +
STACK CFI 5145d .cfa: $rsp 80 +
STACK CFI 5145f .cfa: $rsp 88 +
STACK CFI 51461 .cfa: $rsp 96 +
STACK CFI 51463 .cfa: $rsp 104 +
STACK CFI 51465 .cfa: $rsp 112 +
STACK CFI 51467 .cfa: $rsp 120 +
STACK CFI 51469 .cfa: $rsp 128 +
STACK CFI 51470 .cfa: $rsp 136 +
STACK CFI 51477 .cfa: $rsp 144 +
STACK CFI 51483 .cfa: $rsp 8 +
STACK CFI INIT 51484 39 .cfa: $rsp 8 + .ra: .cfa -8 + ^
STACK CFI 51488 .cfa: $rsp 24 +
STACK CFI 5148a .cfa: $rsp 32 +
STACK CFI 5148c .cfa: $rsp 40 +
STACK CFI 5148e .cfa: $rsp 48 +
STACK CFI 51490 .cfa: $rsp 56 +
STACK CFI 51492 .cfa: $rsp 64 +
STACK CFI 51494 .cfa: $rsp 72 +
STACK CFI 51496 .cfa: $rsp 80 +
STACK CFI 51498 .cfa: $rsp 88 +
STACK CFI 5149a .cfa: $rsp 96 +
STACK CFI 5149c .cfa: $rsp 104 +
STACK CFI 5149e .cfa: $rsp 112 +
STACK CFI 514a0 .cfa: $rsp 120 +
STACK CFI 514a2 .cfa: $rsp 128 +
STACK CFI 514a9 .cfa: $rsp 136 +
STACK CFI 514b0 .cfa: $rsp 144 +
STACK CFI 514bc .cfa: $rsp 8 +
STACK CFI INIT 514bd 39 .cfa: $rsp 8 + .ra: .cfa -8 + ^
STACK CFI 514c1 .cfa: $rsp 24 +
STACK CFI 514c3 .cfa: $rsp 32 +
STACK CFI 514c5 .cfa: $rsp 40 +
STACK CFI 514c7 .cfa: $rsp 48 +
STACK CFI 514c9 .cfa: $rsp 56 +
STACK CFI 514cb .cfa: $rsp 64 +
STACK CFI 514cd .cfa: $rsp 72 +
STACK CFI 514cf .cfa: $rsp 80 +
STACK CFI 514d1 .cfa: $rsp 88 +
STACK CFI 514d3 .cfa: $rsp 96 +
STACK CFI 514d5 .cfa: $rsp 104 +
STACK CFI 514d7 .cfa: $rsp 112 +
STACK CFI 514d9 .cfa: $rsp 120 +
STACK CFI 514db .cfa: $rsp 128 +
STACK CFI 514e2 .cfa: $rsp 136 +
STACK CFI 514e9 .cfa: $rsp 144 +
STACK CFI 514f5 .cfa: $rsp 8 +
STACK CFI INIT 514f6 39 .cfa: $rsp 8 + .ra: .cfa -8 + ^
STACK CFI 514fa .cfa: $rsp 24 +
STACK CFI 514fc .cfa: $rsp 32 +
STACK CFI 514fe .cfa: $rsp 40 +
STACK CFI 51500 .cfa: $rsp 48 +
STACK CFI 51502 .cfa: $rsp 56 +
STACK CFI 51504 .cfa: $rsp 64 +
STACK CFI 51506 .cfa: $rsp 72 +
STACK CFI 51508 .cfa: $rsp 80 +
STACK CFI 5150a .cfa: $rsp 88 +
STACK CFI 5150c .cfa: $rsp 96 +
STACK CFI 5150e .cfa: $rsp 104 +
STACK CFI 51510 .cfa: $rsp 112 +
STACK CFI 51512 .cfa: $rsp 120 +
STACK CFI 51514 .cfa: $rsp 128 +
STACK CFI 5151b .cfa: $rsp 136 +
STACK CFI 51522 .cfa: $rsp 144 +
STACK CFI 5152e .cfa: $rsp 8 +
STACK CFI INIT 5152f 39 .cfa: $rsp 8 + .ra: .cfa -8 + ^
STACK CFI 51533 .cfa: $rsp 24 +
STACK CFI 51535 .cfa: $rsp 32 +
STACK CFI 51537 .cfa: $rsp 40 +
STACK CFI 51539 .cfa: $rsp 48 +
STACK CFI 5153b .cfa: $rsp 56 +
STACK CFI 5153d .cfa: $rsp 64 +
STACK CFI 5153f .cfa: $rsp 72 +
STACK CFI 51541 .cfa: $rsp 80 +
STACK CFI 51543 .cfa: $rsp 88 +
STACK CFI 51545 .cfa: $rsp 96 +
STACK CFI 51547 .cfa: $rsp 104 +
STACK CFI 51549 .cfa: $rsp 112 +
STACK CFI 5154b .cfa: $rsp 120 +
STACK CFI 5154d .cfa: $rsp 128 +
STACK CFI 51554 .cfa: $rsp 136 +
STACK CFI 5155b .cfa: $rsp 144 +
STACK CFI 51567 .cfa: $rsp 8 +
STACK CFI INIT 51568 39 .cfa: $rsp 8 + .ra: .cfa -8 + ^
STACK CFI 5156c .cfa: $rsp 24 +
STACK CFI 5156e .cfa: $rsp 32 +
STACK CFI 51570 .cfa: $rsp 40 +
STACK CFI 51572 .cfa: $rsp 48 +
STACK CFI 51574 .cfa: $rsp 56 +
STACK CFI 51576 .cfa: $rsp 64 +
STACK CFI 51578 .cfa: $rsp 72 +
STACK CFI 5157a .cfa: $rsp 80 +
STACK CFI 5157c .cfa: $rsp 88 +
STACK CFI 5157e .cfa: $rsp 96 +
STACK CFI 51580 .cfa: $rsp 104 +
STACK CFI 51582 .cfa: $rsp 112 +
STACK CFI 51584 .cfa: $rsp 120 +
STACK CFI 51586 .cfa: $rsp 128 +
STACK CFI 5158d .cfa: $rsp 136 +
STACK CFI 51594 .cfa: $rsp 144 +
STACK CFI 515a0 .cfa: $rsp 8 +
STACK CFI INIT 515a1 39 .cfa: $rsp 8 + .ra: .cfa -8 + ^
STACK CFI 515a5 .cfa: $rsp 24 +
STACK CFI 515a7 .cfa: $rsp 32 +
STACK CFI 515a9 .cfa: $rsp 40 +
STACK CFI 515ab .cfa: $rsp 48 +
STACK CFI 515ad .cfa: $rsp 56 +
STACK CFI 515af .cfa: $rsp 64 +
STACK CFI 515b1 .cfa: $rsp 72 +
STACK CFI 515b3 .cfa: $rsp 80 +
STACK CFI 515b5 .cfa: $rsp 88 +
STACK CFI 515b7 .cfa: $rsp 96 +
STACK CFI 515b9 .cfa: $rsp 104 +
STACK CFI 515bb .cfa: $rsp 112 +
STACK CFI 515bd .cfa: $rsp 120 +
STACK CFI 515bf .cfa: $rsp 128 +
STACK CFI 515c6 .cfa: $rsp 136 +
STACK CFI 515cd .cfa: $rsp 144 +
STACK CFI 515d9 .cfa: $rsp 8 +
STACK CFI INIT 515da 39 .cfa: $rsp 8 + .ra: .cfa -8 + ^
STACK CFI 515de .cfa: $rsp 24 +
STACK CFI 515e0 .cfa: $rsp 32 +
STACK CFI 515e2 .cfa: $rsp 40 +
STACK CFI 515e4 .cfa: $rsp 48 +
STACK CFI 515e6 .cfa: $rsp 56 +
STACK CFI 515e8 .cfa: $rsp 64 +
STACK CFI 515ea .cfa: $rsp 72 +
STACK CFI 515ec .cfa: $rsp 80 +
STACK CFI 515ee .cfa: $rsp 88 +
STACK CFI 515f0 .cfa: $rsp 96 +
STACK CFI 515f2 .cfa: $rsp 104 +
STACK CFI 515f4 .cfa: $rsp 112 +
STACK CFI 515f6 .cfa: $rsp 120 +
STACK CFI 515f8 .cfa: $rsp 128 +
STACK CFI 515ff .cfa: $rsp 136 +
STACK CFI 51606 .cfa: $rsp 144 +
STACK CFI 51612 .cfa: $rsp 8 +
STACK CFI INIT 51613 39 .cfa: $rsp 8 + .ra: .cfa -8 + ^
STACK CFI 51617 .cfa: $rsp 24 +
STACK CFI 51619 .cfa: $rsp 32 +
STACK CFI 5161b .cfa: $rsp 40 +
STACK CFI 5161d .cfa: $rsp 48 +
STACK CFI 5161f .cfa: $rsp 56 +
STACK CFI 51621 .cfa: $rsp 64 +
STACK CFI 51623 .cfa: $rsp 72 +
STACK CFI 51625 .cfa: $rsp 80 +
STACK CFI 51627 .cfa: $rsp 88 +
STACK CFI 51629 .cfa: $rsp 96 +
STACK CFI 5162b .cfa: $rsp 104 +
STACK CFI 5162d .cfa: $rsp 112 +
STACK CFI 5162f .cfa: $rsp 120 +
STACK CFI 51631 .cfa: $rsp 128 +
STACK CFI 51638 .cfa: $rsp 136 +
STACK CFI 5163f .cfa: $rsp 144 +
STACK CFI 5164b .cfa: $rsp 8 +
STACK CFI INIT 5164c 39 .cfa: $rsp 8 + .ra: .cfa -8 + ^
STACK CFI 51650 .cfa: $rsp 24 +
STACK CFI 51652 .cfa: $rsp 32 +
STACK CFI 51654 .cfa: $rsp 40 +
STACK CFI 51656 .cfa: $rsp 48 +
STACK CFI 51658 .cfa: $rsp 56 +
STACK CFI 5165a .cfa: $rsp 64 +
STACK CFI 5165c .cfa: $rsp 72 +
STACK CFI 5165e .cfa: $rsp 80 +
STACK CFI 51660 .cfa: $rsp 88 +
STACK CFI 51662 .cfa: $rsp 96 +
STACK CFI 51664 .cfa: $rsp 104 +
STACK CFI 51666 .cfa: $rsp 112 +
STACK CFI 51668 .cfa: $rsp 120 +
STACK CFI 5166a .cfa: $rsp 128 +
STACK CFI 51671 .cfa: $rsp 136 +
STACK CFI 51678 .cfa: $rsp 144 +
STACK CFI 51684 .cfa: $rsp 8 +
STACK CFI INIT 51685 39 .cfa: $rsp 8 + .ra: .cfa -8 + ^
STACK CFI 51689 .cfa: $rsp 24 +
STACK CFI 5168b .cfa: $rsp 32 +
STACK CFI 5168d .cfa: $rsp 40 +
STACK CFI 5168f .cfa: $rsp 48 +
STACK CFI 51691 .cfa: $rsp 56 +
STACK CFI 51693 .cfa: $rsp 64 +
STACK CFI 51695 .cfa: $rsp 72 +
STACK CFI 51697 .cfa: $rsp 80 +
STACK CFI 51699 .cfa: $rsp 88 +
STACK CFI 5169b .cfa: $rsp 96 +
STACK CFI 5169d .cfa: $rsp 104 +
STACK CFI 5169f .cfa: $rsp 112 +
STACK CFI 516a1 .cfa: $rsp 120 +
STACK CFI 516a3 .cfa: $rsp 128 +
STACK CFI 516aa .cfa: $rsp 136 +
STACK CFI 516b1 .cfa: $rsp 144 +
STACK CFI 516bd .cfa: $rsp 8 +
STACK CFI INIT 516be 39 .cfa: $rsp 8 + .ra: .cfa -8 + ^
STACK CFI 516c2 .cfa: $rsp 24 +
STACK CFI 516c4 .cfa: $rsp 32 +
STACK CFI 516c6 .cfa: $rsp 40 +
STACK CFI 516c8 .cfa: $rsp 48 +
STACK CFI 516ca .cfa: $rsp 56 +
STACK CFI 516cc .cfa: $rsp 64 +
STACK CFI 516ce .cfa: $rsp 72 +
STACK CFI 516d0 .cfa: $rsp 80 +
STACK CFI 516d2 .cfa: $rsp 88 +
STACK CFI 516d4 .cfa: $rsp 96 +
STACK CFI 516d6 .cfa: $rsp 104 +
STACK CFI 516d8 .cfa: $rsp 112 +
STACK CFI 516da .cfa: $rsp 120 +
STACK CFI 516dc .cfa: $rsp 128 +
STACK CFI 516e3 .cfa: $rsp 136 +
STACK CFI 516ea .cfa: $rsp 144 +
STACK CFI 516f6 .cfa: $rsp 8 +
STACK CFI INIT 516f7 39 .cfa: $rsp 8 + .ra: .cfa -8 + ^
STACK CFI 516fb .cfa: $rsp 24 +
STACK CFI 516fd .cfa: $rsp 32 +
STACK CFI 516ff .cfa: $rsp 40 +
STACK CFI 51701 .cfa: $rsp 48 +
STACK CFI 51703 .cfa: $rsp 56 +
STACK CFI 51705 .cfa: $rsp 64 +
STACK CFI 51707 .cfa: $rsp 72 +
STACK CFI 51709 .cfa: $rsp 80 +
STACK CFI 5170b .cfa: $rsp 88 +
STACK CFI 5170d .cfa: $rsp 96 +
STACK CFI 5170f .cfa: $rsp 104 +
STACK CFI 51711 .cfa: $rsp 112 +
STACK CFI 51713 .cfa: $rsp 120 +
STACK CFI 51715 .cfa: $rsp 128 +
STACK CFI 5171c .cfa: $rsp 136 +
STACK CFI 51723 .cfa: $rsp 144 +
STACK CFI 5172f .cfa: $rsp 8 +
STACK CFI INIT 51730 39 .cfa: $rsp 8 + .ra: .cfa -8 + ^
STACK CFI 51734 .cfa: $rsp 24 +
STACK CFI 51736 .cfa: $rsp 32 +
STACK CFI 51738 .cfa: $rsp 40 +
STACK CFI 5173a .cfa: $rsp 48 +
STACK CFI 5173c .cfa: $rsp 56 +
STACK CFI 5173e .cfa: $rsp 64 +
STACK CFI 51740 .cfa: $rsp 72 +
STACK CFI 51742 .cfa: $rsp 80 +
STACK CFI 51744 .cfa: $rsp 88 +
STACK CFI 51746 .cfa: $rsp 96 +
STACK CFI 51748 .cfa: $rsp 104 +
STACK CFI 5174a .cfa: $rsp 112 +
STACK CFI 5174c .cfa: $rsp 120 +
STACK CFI 5174e .cfa: $rsp 128 +
STACK CFI 51755 .cfa: $rsp 136 +
STACK CFI 5175c .cfa: $rsp 144 +
STACK CFI 51768 .cfa: $rsp 8 +
STACK CFI INIT 51769 39 .cfa: $rsp 8 + .ra: .cfa -8 + ^
STACK CFI 5176d .cfa: $rsp 24 +
STACK CFI 5176f .cfa: $rsp 32 +
STACK CFI 51771 .cfa: $rsp 40 +
STACK CFI 51773 .cfa: $rsp 48 +
STACK CFI 51775 .cfa: $rsp 56 +
STACK CFI 51777 .cfa: $rsp 64 +
STACK CFI 51779 .cfa: $rsp 72 +
STACK CFI 5177b .cfa: $rsp 80 +
STACK CFI 5177d .cfa: $rsp 88 +
STACK CFI 5177f .cfa: $rsp 96 +
STACK CFI 51781 .cfa: $rsp 104 +
STACK CFI 51783 .cfa: $rsp 112 +
STACK CFI 51785 .cfa: $rsp 120 +
STACK CFI 51787 .cfa: $rsp 128 +
STACK CFI 5178e .cfa: $rsp 136 +
STACK CFI 51795 .cfa: $rsp 144 +
STACK CFI 517a1 .cfa: $rsp 8 +
STACK CFI INIT 517a2 39 .cfa: $rsp 8 + .ra: .cfa -8 + ^
STACK CFI 517a6 .cfa: $rsp 24 +
STACK CFI 517a8 .cfa: $rsp 32 +
STACK CFI 517aa .cfa: $rsp 40 +
STACK CFI 517ac .cfa: $rsp 48 +
STACK CFI 517ae .cfa: $rsp 56 +
STACK CFI 517b0 .cfa: $rsp 64 +
STACK CFI 517b2 .cfa: $rsp 72 +
STACK CFI 517b4 .cfa: $rsp 80 +
STACK CFI 517b6 .cfa: $rsp 88 +
STACK CFI 517b8 .cfa: $rsp 96 +
STACK CFI 517ba .cfa: $rsp 104 +
STACK CFI 517bc .cfa: $rsp 112 +
STACK CFI 517be .cfa: $rsp 120 +
STACK CFI 517c0 .cfa: $rsp 128 +
STACK CFI 517c7 .cfa: $rsp 136 +
STACK CFI 517ce .cfa: $rsp 144 +
STACK CFI 517da .cfa: $rsp 8 +
STACK CFI INIT 517db 39 .cfa: $rsp 8 + .ra: .cfa -8 + ^
STACK CFI 517df .cfa: $rsp 24 +
STACK CFI 517e1 .cfa: $rsp 32 +
STACK CFI 517e3 .cfa: $rsp 40 +
STACK CFI 517e5 .cfa: $rsp 48 +
STACK CFI 517e7 .cfa: $rsp 56 +
STACK CFI 517e9 .cfa: $rsp 64 +
STACK CFI 517eb .cfa: $rsp 72 +
STACK CFI 517ed .cfa: $rsp 80 +
STACK CFI 517ef .cfa: $rsp 88 +
STACK CFI 517f1 .cfa: $rsp 96 +
STACK CFI 517f3 .cfa: $rsp 104 +
STACK CFI 517f5 .cfa: $rsp 112 +
STACK CFI 517f7 .cfa: $rsp 120 +
STACK CFI 517f9 .cfa: $rsp 128 +
STACK CFI 51800 .cfa: $rsp 136 +
STACK CFI 51807 .cfa: $rsp 144 +
STACK CFI 51813 .cfa: $rsp 8 +
STACK CFI INIT 51814 39 .cfa: $rsp 8 + .ra: .cfa -8 + ^
STACK CFI 51818 .cfa: $rsp 24 +
STACK CFI 5181a .cfa: $rsp 32 +
STACK CFI 5181c .cfa: $rsp 40 +
STACK CFI 5181e .cfa: $rsp 48 +
STACK CFI 51820 .cfa: $rsp 56 +
STACK CFI 51822 .cfa: $rsp 64 +
STACK CFI 51824 .cfa: $rsp 72 +
STACK CFI 51826 .cfa: $rsp 80 +
STACK CFI 51828 .cfa: $rsp 88 +
STACK CFI 5182a .cfa: $rsp 96 +
STACK CFI 5182c .cfa: $rsp 104 +
STACK CFI 5182e .cfa: $rsp 112 +
STACK CFI 51830 .cfa: $rsp 120 +
STACK CFI 51832 .cfa: $rsp 128 +
STACK CFI 51839 .cfa: $rsp 136 +
STACK CFI 51840 .cfa: $rsp 144 +
STACK CFI 5184c .cfa: $rsp 8 +
STACK CFI INIT 5184d 39 .cfa: $rsp 8 + .ra: .cfa -8 + ^
STACK CFI 51851 .cfa: $rsp 24 +
STACK CFI 51853 .cfa: $rsp 32 +
STACK CFI 51855 .cfa: $rsp 40 +
STACK CFI 51857 .cfa: $rsp 48 +
STACK CFI 51859 .cfa: $rsp 56 +
STACK CFI 5185b .cfa: $rsp 64 +
STACK CFI 5185d .cfa: $rsp 72 +
STACK CFI 5185f .cfa: $rsp 80 +
STACK CFI 51861 .cfa: $rsp 88 +
STACK CFI 51863 .cfa: $rsp 96 +
STACK CFI 51865 .cfa: $rsp 104 +
STACK CFI 51867 .cfa: $rsp 112 +
STACK CFI 51869 .cfa: $rsp 120 +
STACK CFI 5186b .cfa: $rsp 128 +
STACK CFI 51872 .cfa: $rsp 136 +
STACK CFI 51879 .cfa: $rsp 144 +
STACK CFI 51885 .cfa: $rsp 8 +
STACK CFI INIT 51886 39 .cfa: $rsp 8 + .ra: .cfa -8 + ^
STACK CFI 5188a .cfa: $rsp 24 +
STACK CFI 5188c .cfa: $rsp 32 +
STACK CFI 5188e .cfa: $rsp 40 +
STACK CFI 51890 .cfa: $rsp 48 +
STACK CFI 51892 .cfa: $rsp 56 +
STACK CFI 51894 .cfa: $rsp 64 +
STACK CFI 51896 .cfa: $rsp 72 +
STACK CFI 51898 .cfa: $rsp 80 +
STACK CFI 5189a .cfa: $rsp 88 +
STACK CFI 5189c .cfa: $rsp 96 +
STACK CFI 5189e .cfa: $rsp 104 +
STACK CFI 518a0 .cfa: $rsp 112 +
STACK CFI 518a2 .cfa: $rsp 120 +
STACK CFI 518a4 .cfa: $rsp 128 +
STACK CFI 518ab .cfa: $rsp 136 +
STACK CFI 518b2 .cfa: $rsp 144 +
STACK CFI 518be .cfa: $rsp 8 +
STACK CFI INIT 518bf 39 .cfa: $rsp 8 + .ra: .cfa -8 + ^
STACK CFI 518c3 .cfa: $rsp 24 +
STACK CFI 518c5 .cfa: $rsp 32 +
STACK CFI 518c7 .cfa: $rsp 40 +
STACK CFI 518c9 .cfa: $rsp 48 +
STACK CFI 518cb .cfa: $rsp 56 +
STACK CFI 518cd .cfa: $rsp 64 +
STACK CFI 518cf .cfa: $rsp 72 +
STACK CFI 518d1 .cfa: $rsp 80 +
STACK CFI 518d3 .cfa: $rsp 88 +
STACK CFI 518d5 .cfa: $rsp 96 +
STACK CFI 518d7 .cfa: $rsp 104 +
STACK CFI 518d9 .cfa: $rsp 112 +
STACK CFI 518db .cfa: $rsp 120 +
STACK CFI 518dd .cfa: $rsp 128 +
STACK CFI 518e4 .cfa: $rsp 136 +
STACK CFI 518eb .cfa: $rsp 144 +
STACK CFI 518f7 .cfa: $rsp 8 +
STACK CFI INIT 518f8 39 .cfa: $rsp 8 + .ra: .cfa -8 + ^
STACK CFI 518fc .cfa: $rsp 24 +
STACK CFI 518fe .cfa: $rsp 32 +
STACK CFI 51900 .cfa: $rsp 40 +
STACK CFI 51902 .cfa: $rsp 48 +
STACK CFI 51904 .cfa: $rsp 56 +
STACK CFI 51906 .cfa: $rsp 64 +
STACK CFI 51908 .cfa: $rsp 72 +
STACK CFI 5190a .cfa: $rsp 80 +
STACK CFI 5190c .cfa: $rsp 88 +
STACK CFI 5190e .cfa: $rsp 96 +
STACK CFI 51910 .cfa: $rsp 104 +
STACK CFI 51912 .cfa: $rsp 112 +
STACK CFI 51914 .cfa: $rsp 120 +
STACK CFI 51916 .cfa: $rsp 128 +
STACK CFI 5191d .cfa: $rsp 136 +
STACK CFI 51924 .cfa: $rsp 144 +
STACK CFI 51930 .cfa: $rsp 8 +
STACK CFI INIT 51931 39 .cfa: $rsp 8 + .ra: .cfa -8 + ^
STACK CFI 51935 .cfa: $rsp 24 +
STACK CFI 51937 .cfa: $rsp 32 +
STACK CFI 51939 .cfa: $rsp 40 +
STACK CFI 5193b .cfa: $rsp 48 +
STACK CFI 5193d .cfa: $rsp 56 +
STACK CFI 5193f .cfa: $rsp 64 +
STACK CFI 51941 .cfa: $rsp 72 +
STACK CFI 51943 .cfa: $rsp 80 +
STACK CFI 51945 .cfa: $rsp 88 +
STACK CFI 51947 .cfa: $rsp 96 +
STACK CFI 51949 .cfa: $rsp 104 +
STACK CFI 5194b .cfa: $rsp 112 +
STACK CFI 5194d .cfa: $rsp 120 +
STACK CFI 5194f .cfa: $rsp 128 +
STACK CFI 51956 .cfa: $rsp 136 +
STACK CFI 5195d .cfa: $rsp 144 +
STACK CFI 51969 .cfa: $rsp 8 +
STACK CFI INIT 5196a 39 .cfa: $rsp 8 + .ra: .cfa -8 + ^
STACK CFI 5196e .cfa: $rsp 24 +
STACK CFI 51970 .cfa: $rsp 32 +
STACK CFI 51972 .cfa: $rsp 40 +
STACK CFI 51974 .cfa: $rsp 48 +
STACK CFI 51976 .cfa: $rsp 56 +
STACK CFI 51978 .cfa: $rsp 64 +
STACK CFI 5197a .cfa: $rsp 72 +
STACK CFI 5197c .cfa: $rsp 80 +
STACK CFI 5197e .cfa: $rsp 88 +
STACK CFI 51980 .cfa: $rsp 96 +
STACK CFI 51982 .cfa: $rsp 104 +
STACK CFI 51984 .cfa: $rsp 112 +
STACK CFI 51986 .cfa: $rsp 120 +
STACK CFI 51988 .cfa: $rsp 128 +
STACK CFI 5198f .cfa: $rsp 136 +
STACK CFI 51996 .cfa: $rsp 144 +
STACK CFI 519a2 .cfa: $rsp 8 +
STACK CFI INIT 519a3 39 .cfa: $rsp 8 + .ra: .cfa -8 + ^
STACK CFI 519a7 .cfa: $rsp 24 +
STACK CFI 519a9 .cfa: $rsp 32 +
STACK CFI 519ab .cfa: $rsp 40 +
STACK CFI 519ad .cfa: $rsp 48 +
STACK CFI 519af .cfa: $rsp 56 +
STACK CFI 519b1 .cfa: $rsp 64 +
STACK CFI 519b3 .cfa: $rsp 72 +
STACK CFI 519b5 .cfa: $rsp 80 +
STACK CFI 519b7 .cfa: $rsp 88 +
STACK CFI 519b9 .cfa: $rsp 96 +
STACK CFI 519bb .cfa: $rsp 104 +
STACK CFI 519bd .cfa: $rsp 112 +
STACK CFI 519bf .cfa: $rsp 120 +
STACK CFI 519c1 .cfa: $rsp 128 +
STACK CFI 519c8 .cfa: $rsp 136 +
STACK CFI 519cf .cfa: $rsp 144 +
STACK CFI 519db .cfa: $rsp 8 +
STACK CFI INIT 519dc 39 .cfa: $rsp 8 + .ra: .cfa -8 + ^
STACK CFI 519e0 .cfa: $rsp 24 +
STACK CFI 519e2 .cfa: $rsp 32 +
STACK CFI 519e4 .cfa: $rsp 40 +
STACK CFI 519e6 .cfa: $rsp 48 +
STACK CFI 519e8 .cfa: $rsp 56 +
STACK CFI 519ea .cfa: $rsp 64 +
STACK CFI 519ec .cfa: $rsp 72 +
STACK CFI 519ee .cfa: $rsp 80 +
STACK CFI 519f0 .cfa: $rsp 88 +
STACK CFI 519f2 .cfa: $rsp 96 +
STACK CFI 519f4 .cfa: $rsp 104 +
STACK CFI 519f6 .cfa: $rsp 112 +
STACK CFI 519f8 .cfa: $rsp 120 +
STACK CFI 519fa .cfa: $rsp 128 +
STACK CFI 51a01 .cfa: $rsp 136 +
STACK CFI 51a08 .cfa: $rsp 144 +
STACK CFI 51a14 .cfa: $rsp 8 +
STACK CFI INIT 51a15 39 .cfa: $rsp 8 + .ra: .cfa -8 + ^
STACK CFI 51a19 .cfa: $rsp 24 +
STACK CFI 51a1b .cfa: $rsp 32 +
STACK CFI 51a1d .cfa: $rsp 40 +
STACK CFI 51a1f .cfa: $rsp 48 +
STACK CFI 51a21 .cfa: $rsp 56 +
STACK CFI 51a23 .cfa: $rsp 64 +
STACK CFI 51a25 .cfa: $rsp 72 +
STACK CFI 51a27 .cfa: $rsp 80 +
STACK CFI 51a29 .cfa: $rsp 88 +
STACK CFI 51a2b .cfa: $rsp 96 +
STACK CFI 51a2d .cfa: $rsp 104 +
STACK CFI 51a2f .cfa: $rsp 112 +
STACK CFI 51a31 .cfa: $rsp 120 +
STACK CFI 51a33 .cfa: $rsp 128 +
STACK CFI 51a3a .cfa: $rsp 136 +
STACK CFI 51a41 .cfa: $rsp 144 +
STACK CFI 51a4d .cfa: $rsp 8 +
STACK CFI INIT 51a4e 39 .cfa: $rsp 8 + .ra: .cfa -8 + ^
STACK CFI 51a52 .cfa: $rsp 24 +
STACK CFI 51a54 .cfa: $rsp 32 +
STACK CFI 51a56 .cfa: $rsp 40 +
STACK CFI 51a58 .cfa: $rsp 48 +
STACK CFI 51a5a .cfa: $rsp 56 +
STACK CFI 51a5c .cfa: $rsp 64 +
STACK CFI 51a5e .cfa: $rsp 72 +
STACK CFI 51a60 .cfa: $rsp 80 +
STACK CFI 51a62 .cfa: $rsp 88 +
STACK CFI 51a64 .cfa: $rsp 96 +
STACK CFI 51a66 .cfa: $rsp 104 +
STACK CFI 51a68 .cfa: $rsp 112 +
STACK CFI 51a6a .cfa: $rsp 120 +
STACK CFI 51a6c .cfa: $rsp 128 +
STACK CFI 51a73 .cfa: $rsp 136 +
STACK CFI 51a7a .cfa: $rsp 144 +
STACK CFI 51a86 .cfa: $rsp 8 +
STACK CFI INIT 51a87 39 .cfa: $rsp 8 + .ra: .cfa -8 + ^
STACK CFI 51a8b .cfa: $rsp 24 +
STACK CFI 51a8d .cfa: $rsp 32 +
STACK CFI 51a8f .cfa: $rsp 40 +
STACK CFI 51a91 .cfa: $rsp 48 +
STACK CFI 51a93 .cfa: $rsp 56 +
STACK CFI 51a95 .cfa: $rsp 64 +
STACK CFI 51a97 .cfa: $rsp 72 +
STACK CFI 51a99 .cfa: $rsp 80 +
STACK CFI 51a9b .cfa: $rsp 88 +
STACK CFI 51a9d .cfa: $rsp 96 +
STACK CFI 51a9f .cfa: $rsp 104 +
STACK CFI 51aa1 .cfa: $rsp 112 +
STACK CFI 51aa3 .cfa: $rsp 120 +
STACK CFI 51aa5 .cfa: $rsp 128 +
STACK CFI 51aac .cfa: $rsp 136 +
STACK CFI 51ab3 .cfa: $rsp 144 +
STACK CFI 51abf .cfa: $rsp 8 +
STACK CFI INIT 51ac0 39 .cfa: $rsp 8 + .ra: .cfa -8 + ^
STACK CFI 51ac4 .cfa: $rsp 24 +
STACK CFI 51ac6 .cfa: $rsp 32 +
STACK CFI 51ac8 .cfa: $rsp 40 +
STACK CFI 51aca .cfa: $rsp 48 +
STACK CFI 51acc .cfa: $rsp 56 +
STACK CFI 51ace .cfa: $rsp 64 +
STACK CFI 51ad0 .cfa: $rsp 72 +
STACK CFI 51ad2 .cfa: $rsp 80 +
STACK CFI 51ad4 .cfa: $rsp 88 +
STACK CFI 51ad6 .cfa: $rsp 96 +
STACK CFI 51ad8 .cfa: $rsp 104 +
STACK CFI 51ada .cfa: $rsp 112 +
STACK CFI 51adc .cfa: $rsp 120 +
STACK CFI 51ade .cfa: $rsp 128 +
STACK CFI 51ae5 .cfa: $rsp 136 +
STACK CFI 51aec .cfa: $rsp 144 +
STACK CFI 51af8 .cfa: $rsp 8 +
STACK CFI INIT 51af9 39 .cfa: $rsp 8 + .ra: .cfa -8 + ^
STACK CFI 51afd .cfa: $rsp 24 +
STACK CFI 51aff .cfa: $rsp 32 +
STACK CFI 51b01 .cfa: $rsp 40 +
STACK CFI 51b03 .cfa: $rsp 48 +
STACK CFI 51b05 .cfa: $rsp 56 +
STACK CFI 51b07 .cfa: $rsp 64 +
STACK CFI 51b09 .cfa: $rsp 72 +
STACK CFI 51b0b .cfa: $rsp 80 +
STACK CFI 51b0d .cfa: $rsp 88 +
STACK CFI 51b0f .cfa: $rsp 96 +
STACK CFI 51b11 .cfa: $rsp 104 +
STACK CFI 51b13 .cfa: $rsp 112 +
STACK CFI 51b15 .cfa: $rsp 120 +
STACK CFI 51b17 .cfa: $rsp 128 +
STACK CFI 51b1e .cfa: $rsp 136 +
STACK CFI 51b25 .cfa: $rsp 144 +
STACK CFI 51b31 .cfa: $rsp 8 +
STACK CFI INIT 51b32 39 .cfa: $rsp 8 + .ra: .cfa -8 + ^
STACK CFI 51b36 .cfa: $rsp 24 +
STACK CFI 51b38 .cfa: $rsp 32 +
STACK CFI 51b3a .cfa: $rsp 40 +
STACK CFI 51b3c .cfa: $rsp 48 +
STACK CFI 51b3e .cfa: $rsp 56 +
STACK CFI 51b40 .cfa: $rsp 64 +
STACK CFI 51b42 .cfa: $rsp 72 +
STACK CFI 51b44 .cfa: $rsp 80 +
STACK CFI 51b46 .cfa: $rsp 88 +
STACK CFI 51b48 .cfa: $rsp 96 +
STACK CFI 51b4a .cfa: $rsp 104 +
STACK CFI 51b4c .cfa: $rsp 112 +
STACK CFI 51b4e .cfa: $rsp 120 +
STACK CFI 51b50 .cfa: $rsp 128 +
STACK CFI 51b57 .cfa: $rsp 136 +
STACK CFI 51b5e .cfa: $rsp 144 +
STACK CFI 51b6a .cfa: $rsp 8 +
STACK CFI INIT 51b6b 39 .cfa: $rsp 8 + .ra: .cfa -8 + ^
STACK CFI 51b6f .cfa: $rsp 24 +
STACK CFI 51b71 .cfa: $rsp 32 +
STACK CFI 51b73 .cfa: $rsp 40 +
STACK CFI 51b75 .cfa: $rsp 48 +
STACK CFI 51b77 .cfa: $rsp 56 +
STACK CFI 51b79 .cfa: $rsp 64 +
STACK CFI 51b7b .cfa: $rsp 72 +
STACK CFI 51b7d .cfa: $rsp 80 +
STACK CFI 51b7f .cfa: $rsp 88 +
STACK CFI 51b81 .cfa: $rsp 96 +
STACK CFI 51b83 .cfa: $rsp 104 +
STACK CFI 51b85 .cfa: $rsp 112 +
STACK CFI 51b87 .cfa: $rsp 120 +
STACK CFI 51b89 .cfa: $rsp 128 +
STACK CFI 51b90 .cfa: $rsp 136 +
STACK CFI 51b97 .cfa: $rsp 144 +
STACK CFI 51ba3 .cfa: $rsp 8 +
STACK CFI INIT 51ba4 39 .cfa: $rsp 8 + .ra: .cfa -8 + ^
STACK CFI 51ba8 .cfa: $rsp 24 +
STACK CFI 51baa .cfa: $rsp 32 +
STACK CFI 51bac .cfa: $rsp 40 +
STACK CFI 51bae .cfa: $rsp 48 +
STACK CFI 51bb0 .cfa: $rsp 56 +
STACK CFI 51bb2 .cfa: $rsp 64 +
STACK CFI 51bb4 .cfa: $rsp 72 +
STACK CFI 51bb6 .cfa: $rsp 80 +
STACK CFI 51bb8 .cfa: $rsp 88 +
STACK CFI 51bba .cfa: $rsp 96 +
STACK CFI 51bbc .cfa: $rsp 104 +
STACK CFI 51bbe .cfa: $rsp 112 +
STACK CFI 51bc0 .cfa: $rsp 120 +
STACK CFI 51bc2 .cfa: $rsp 128 +
STACK CFI 51bc9 .cfa: $rsp 136 +
STACK CFI 51bd0 .cfa: $rsp 144 +
STACK CFI 51bdc .cfa: $rsp 8 +
STACK CFI INIT 51bdd 39 .cfa: $rsp 8 + .ra: .cfa -8 + ^
STACK CFI 51be1 .cfa: $rsp 24 +
STACK CFI 51be3 .cfa: $rsp 32 +
STACK CFI 51be5 .cfa: $rsp 40 +
STACK CFI 51be7 .cfa: $rsp 48 +
STACK CFI 51be9 .cfa: $rsp 56 +
STACK CFI 51beb .cfa: $rsp 64 +
STACK CFI 51bed .cfa: $rsp 72 +
STACK CFI 51bef .cfa: $rsp 80 +
STACK CFI 51bf1 .cfa: $rsp 88 +
STACK CFI 51bf3 .cfa: $rsp 96 +
STACK CFI 51bf5 .cfa: $rsp 104 +
STACK CFI 51bf7 .cfa: $rsp 112 +
STACK CFI 51bf9 .cfa: $rsp 120 +
STACK CFI 51bfb .cfa: $rsp 128 +
STACK CFI 51c02 .cfa: $rsp 136 +
STACK CFI 51c09 .cfa: $rsp 144 +
STACK CFI 51c15 .cfa: $rsp 8 +
STACK CFI INIT 51c16 39 .cfa: $rsp 8 + .ra: .cfa -8 + ^
STACK CFI 51c1a .cfa: $rsp 24 +
STACK CFI 51c1c .cfa: $rsp 32 +
STACK CFI 51c1e .cfa: $rsp 40 +
STACK CFI 51c20 .cfa: $rsp 48 +
STACK CFI 51c22 .cfa: $rsp 56 +
STACK CFI 51c24 .cfa: $rsp 64 +
STACK CFI 51c26 .cfa: $rsp 72 +
STACK CFI 51c28 .cfa: $rsp 80 +
STACK CFI 51c2a .cfa: $rsp 88 +
STACK CFI 51c2c .cfa: $rsp 96 +
STACK CFI 51c2e .cfa: $rsp 104 +
STACK CFI 51c30 .cfa: $rsp 112 +
STACK CFI 51c32 .cfa: $rsp 120 +
STACK CFI 51c34 .cfa: $rsp 128 +
STACK CFI 51c3b .cfa: $rsp 136 +
STACK CFI 51c42 .cfa: $rsp 144 +
STACK CFI 51c4e .cfa: $rsp 8 +
STACK CFI INIT 51c4f 39 .cfa: $rsp 8 + .ra: .cfa -8 + ^
STACK CFI 51c53 .cfa: $rsp 24 +
STACK CFI 51c55 .cfa: $rsp 32 +
STACK CFI 51c57 .cfa: $rsp 40 +
STACK CFI 51c59 .cfa: $rsp 48 +
STACK CFI 51c5b .cfa: $rsp 56 +
STACK CFI 51c5d .cfa: $rsp 64 +
STACK CFI 51c5f .cfa: $rsp 72 +
STACK CFI 51c61 .cfa: $rsp 80 +
STACK CFI 51c63 .cfa: $rsp 88 +
STACK CFI 51c65 .cfa: $rsp 96 +
STACK CFI 51c67 .cfa: $rsp 104 +
STACK CFI 51c69 .cfa: $rsp 112 +
STACK CFI 51c6b .cfa: $rsp 120 +
STACK CFI 51c6d .cfa: $rsp 128 +
STACK CFI 51c74 .cfa: $rsp 136 +
STACK CFI 51c7b .cfa: $rsp 144 +
STACK CFI 51c87 .cfa: $rsp 8 +
STACK CFI INIT 51c88 39 .cfa: $rsp 8 + .ra: .cfa -8 + ^
STACK CFI 51c8c .cfa: $rsp 24 +
STACK CFI 51c8e .cfa: $rsp 32 +
STACK CFI 51c90 .cfa: $rsp 40 +
STACK CFI 51c92 .cfa: $rsp 48 +
STACK CFI 51c94 .cfa: $rsp 56 +
STACK CFI 51c96 .cfa: $rsp 64 +
STACK CFI 51c98 .cfa: $rsp 72 +
STACK CFI 51c9a .cfa: $rsp 80 +
STACK CFI 51c9c .cfa: $rsp 88 +
STACK CFI 51c9e .cfa: $rsp 96 +
STACK CFI 51ca0 .cfa: $rsp 104 +
STACK CFI 51ca2 .cfa: $rsp 112 +
STACK CFI 51ca4 .cfa: $rsp 120 +
STACK CFI 51ca6 .cfa: $rsp 128 +
STACK CFI 51cad .cfa: $rsp 136 +
STACK CFI 51cb4 .cfa: $rsp 144 +
STACK CFI 51cc0 .cfa: $rsp 8 +
STACK CFI INIT 51cc1 39 .cfa: $rsp 8 + .ra: .cfa -8 + ^
STACK CFI 51cc5 .cfa: $rsp 24 +
STACK CFI 51cc7 .cfa: $rsp 32 +
STACK CFI 51cc9 .cfa: $rsp 40 +
STACK CFI 51ccb .cfa: $rsp 48 +
STACK CFI 51ccd .cfa: $rsp 56 +
STACK CFI 51ccf .cfa: $rsp 64 +
STACK CFI 51cd1 .cfa: $rsp 72 +
STACK CFI 51cd3 .cfa: $rsp 80 +
STACK CFI 51cd5 .cfa: $rsp 88 +
STACK CFI 51cd7 .cfa: $rsp 96 +
STACK CFI 51cd9 .cfa: $rsp 104 +
STACK CFI 51cdb .cfa: $rsp 112 +
STACK CFI 51cdd .cfa: $rsp 120 +
STACK CFI 51cdf .cfa: $rsp 128 +
STACK CFI 51ce6 .cfa: $rsp 136 +
STACK CFI 51ced .cfa: $rsp 144 +
STACK CFI 51cf9 .cfa: $rsp 8 +
STACK CFI INIT 51cfa 39 .cfa: $rsp 8 + .ra: .cfa -8 + ^
STACK CFI 51cfe .cfa: $rsp 24 +
STACK CFI 51d00 .cfa: $rsp 32 +
STACK CFI 51d02 .cfa: $rsp 40 +
STACK CFI 51d04 .cfa: $rsp 48 +
STACK CFI 51d06 .cfa: $rsp 56 +
STACK CFI 51d08 .cfa: $rsp 64 +
STACK CFI 51d0a .cfa: $rsp 72 +
STACK CFI 51d0c .cfa: $rsp 80 +
STACK CFI 51d0e .cfa: $rsp 88 +
STACK CFI 51d10 .cfa: $rsp 96 +
STACK CFI 51d12 .cfa: $rsp 104 +
STACK CFI 51d14 .cfa: $rsp 112 +
STACK CFI 51d16 .cfa: $rsp 120 +
STACK CFI 51d18 .cfa: $rsp 128 +
STACK CFI 51d1f .cfa: $rsp 136 +
STACK CFI 51d26 .cfa: $rsp 144 +
STACK CFI 51d32 .cfa: $rsp 8 +
STACK CFI INIT 51d33 39 .cfa: $rsp 8 + .ra: .cfa -8 + ^
STACK CFI 51d37 .cfa: $rsp 24 +
STACK CFI 51d39 .cfa: $rsp 32 +
STACK CFI 51d3b .cfa: $rsp 40 +
STACK CFI 51d3d .cfa: $rsp 48 +
STACK CFI 51d3f .cfa: $rsp 56 +
STACK CFI 51d41 .cfa: $rsp 64 +
STACK CFI 51d43 .cfa: $rsp 72 +
STACK CFI 51d45 .cfa: $rsp 80 +
STACK CFI 51d47 .cfa: $rsp 88 +
STACK CFI 51d49 .cfa: $rsp 96 +
STACK CFI 51d4b .cfa: $rsp 104 +
STACK CFI 51d4d .cfa: $rsp 112 +
STACK CFI 51d4f .cfa: $rsp 120 +
STACK CFI 51d51 .cfa: $rsp 128 +
STACK CFI 51d58 .cfa: $rsp 136 +
STACK CFI 51d5f .cfa: $rsp 144 +
STACK CFI 51d6b .cfa: $rsp 8 +
STACK CFI INIT 51d6c 39 .cfa: $rsp 8 + .ra: .cfa -8 + ^
STACK CFI 51d70 .cfa: $rsp 24 +
STACK CFI 51d72 .cfa: $rsp 32 +
STACK CFI 51d74 .cfa: $rsp 40 +
STACK CFI 51d76 .cfa: $rsp 48 +
STACK CFI 51d78 .cfa: $rsp 56 +
STACK CFI 51d7a .cfa: $rsp 64 +
STACK CFI 51d7c .cfa: $rsp 72 +
STACK CFI 51d7e .cfa: $rsp 80 +
STACK CFI 51d80 .cfa: $rsp 88 +
STACK CFI 51d82 .cfa: $rsp 96 +
STACK CFI 51d84 .cfa: $rsp 104 +
STACK CFI 51d86 .cfa: $rsp 112 +
STACK CFI 51d88 .cfa: $rsp 120 +
STACK CFI 51d8a .cfa: $rsp 128 +
STACK CFI 51d91 .cfa: $rsp 136 +
STACK CFI 51d98 .cfa: $rsp 144 +
STACK CFI 51da4 .cfa: $rsp 8 +
STACK CFI INIT 51da5 39 .cfa: $rsp 8 + .ra: .cfa -8 + ^
STACK CFI 51da9 .cfa: $rsp 24 +
STACK CFI 51dab .cfa: $rsp 32 +
STACK CFI 51dad .cfa: $rsp 40 +
STACK CFI 51daf .cfa: $rsp 48 +
STACK CFI 51db1 .cfa: $rsp 56 +
STACK CFI 51db3 .cfa: $rsp 64 +
STACK CFI 51db5 .cfa: $rsp 72 +
STACK CFI 51db7 .cfa: $rsp 80 +
STACK CFI 51db9 .cfa: $rsp 88 +
STACK CFI 51dbb .cfa: $rsp 96 +
STACK CFI 51dbd .cfa: $rsp 104 +
STACK CFI 51dbf .cfa: $rsp 112 +
STACK CFI 51dc1 .cfa: $rsp 120 +
STACK CFI 51dc3 .cfa: $rsp 128 +
STACK CFI 51dca .cfa: $rsp 136 +
STACK CFI 51dd1 .cfa: $rsp 144 +
STACK CFI 51ddd .cfa: $rsp 8 +
STACK CFI INIT 51dde 39 .cfa: $rsp 8 + .ra: .cfa -8 + ^
STACK CFI 51de2 .cfa: $rsp 24 +
STACK CFI 51de4 .cfa: $rsp 32 +
STACK CFI 51de6 .cfa: $rsp 40 +
STACK CFI 51de8 .cfa: $rsp 48 +
STACK CFI 51dea .cfa: $rsp 56 +
STACK CFI 51dec .cfa: $rsp 64 +
STACK CFI 51dee .cfa: $rsp 72 +
STACK CFI 51df0 .cfa: $rsp 80 +
STACK CFI 51df2 .cfa: $rsp 88 +
STACK CFI 51df4 .cfa: $rsp 96 +
STACK CFI 51df6 .cfa: $rsp 104 +
STACK CFI 51df8 .cfa: $rsp 112 +
STACK CFI 51dfa .cfa: $rsp 120 +
STACK CFI 51dfc .cfa: $rsp 128 +
STACK CFI 51e03 .cfa: $rsp 136 +
STACK CFI 51e0a .cfa: $rsp 144 +
STACK CFI 51e16 .cfa: $rsp 8 +
STACK CFI INIT 51e17 39 .cfa: $rsp 8 + .ra: .cfa -8 + ^
STACK CFI 51e1b .cfa: $rsp 24 +
STACK CFI 51e1d .cfa: $rsp 32 +
STACK CFI 51e1f .cfa: $rsp 40 +
STACK CFI 51e21 .cfa: $rsp 48 +
STACK CFI 51e23 .cfa: $rsp 56 +
STACK CFI 51e25 .cfa: $rsp 64 +
STACK CFI 51e27 .cfa: $rsp 72 +
STACK CFI 51e29 .cfa: $rsp 80 +
STACK CFI 51e2b .cfa: $rsp 88 +
STACK CFI 51e2d .cfa: $rsp 96 +
STACK CFI 51e2f .cfa: $rsp 104 +
STACK CFI 51e31 .cfa: $rsp 112 +
STACK CFI 51e33 .cfa: $rsp 120 +
STACK CFI 51e35 .cfa: $rsp 128 +
STACK CFI 51e3c .cfa: $rsp 136 +
STACK CFI 51e43 .cfa: $rsp 144 +
STACK CFI 51e4f .cfa: $rsp 8 +
STACK CFI INIT 51e50 39 .cfa: $rsp 8 + .ra: .cfa -8 + ^
STACK CFI 51e54 .cfa: $rsp 24 +
STACK CFI 51e56 .cfa: $rsp 32 +
STACK CFI 51e58 .cfa: $rsp 40 +
STACK CFI 51e5a .cfa: $rsp 48 +
STACK CFI 51e5c .cfa: $rsp 56 +
STACK CFI 51e5e .cfa: $rsp 64 +
STACK CFI 51e60 .cfa: $rsp 72 +
STACK CFI 51e62 .cfa: $rsp 80 +
STACK CFI 51e64 .cfa: $rsp 88 +
STACK CFI 51e66 .cfa: $rsp 96 +
STACK CFI 51e68 .cfa: $rsp 104 +
STACK CFI 51e6a .cfa: $rsp 112 +
STACK CFI 51e6c .cfa: $rsp 120 +
STACK CFI 51e6e .cfa: $rsp 128 +
STACK CFI 51e75 .cfa: $rsp 136 +
STACK CFI 51e7c .cfa: $rsp 144 +
STACK CFI 51e88 .cfa: $rsp 8 +
STACK CFI INIT 51e89 39 .cfa: $rsp 8 + .ra: .cfa -8 + ^
STACK CFI 51e8d .cfa: $rsp 24 +
STACK CFI 51e8f .cfa: $rsp 32 +
STACK CFI 51e91 .cfa: $rsp 40 +
STACK CFI 51e93 .cfa: $rsp 48 +
STACK CFI 51e95 .cfa: $rsp 56 +
STACK CFI 51e97 .cfa: $rsp 64 +
STACK CFI 51e99 .cfa: $rsp 72 +
STACK CFI 51e9b .cfa: $rsp 80 +
STACK CFI 51e9d .cfa: $rsp 88 +
STACK CFI 51e9f .cfa: $rsp 96 +
STACK CFI 51ea1 .cfa: $rsp 104 +
STACK CFI 51ea3 .cfa: $rsp 112 +
STACK CFI 51ea5 .cfa: $rsp 120 +
STACK CFI 51ea7 .cfa: $rsp 128 +
STACK CFI 51eae .cfa: $rsp 136 +
STACK CFI 51eb5 .cfa: $rsp 144 +
STACK CFI 51ec1 .cfa: $rsp 8 +
STACK CFI INIT 51ec2 39 .cfa: $rsp 8 + .ra: .cfa -8 + ^
STACK CFI 51ec6 .cfa: $rsp 24 +
STACK CFI 51ec8 .cfa: $rsp 32 +
STACK CFI 51eca .cfa: $rsp 40 +
STACK CFI 51ecc .cfa: $rsp 48 +
STACK CFI 51ece .cfa: $rsp 56 +
STACK CFI 51ed0 .cfa: $rsp 64 +
STACK CFI 51ed2 .cfa: $rsp 72 +
STACK CFI 51ed4 .cfa: $rsp 80 +
STACK CFI 51ed6 .cfa: $rsp 88 +
STACK CFI 51ed8 .cfa: $rsp 96 +
STACK CFI 51eda .cfa: $rsp 104 +
STACK CFI 51edc .cfa: $rsp 112 +
STACK CFI 51ede .cfa: $rsp 120 +
STACK CFI 51ee0 .cfa: $rsp 128 +
STACK CFI 51ee7 .cfa: $rsp 136 +
STACK CFI 51eee .cfa: $rsp 144 +
STACK CFI 51efa .cfa: $rsp 8 +
STACK CFI INIT 51efb 39 .cfa: $rsp 8 + .ra: .cfa -8 + ^
STACK CFI 51eff .cfa: $rsp 24 +
STACK CFI 51f01 .cfa: $rsp 32 +
STACK CFI 51f03 .cfa: $rsp 40 +
STACK CFI 51f05 .cfa: $rsp 48 +
STACK CFI 51f07 .cfa: $rsp 56 +
STACK CFI 51f09 .cfa: $rsp 64 +
STACK CFI 51f0b .cfa: $rsp 72 +
STACK CFI 51f0d .cfa: $rsp 80 +
STACK CFI 51f0f .cfa: $rsp 88 +
STACK CFI 51f11 .cfa: $rsp 96 +
STACK CFI 51f13 .cfa: $rsp 104 +
STACK CFI 51f15 .cfa: $rsp 112 +
STACK CFI 51f17 .cfa: $rsp 120 +
STACK CFI 51f19 .cfa: $rsp 128 +
STACK CFI 51f20 .cfa: $rsp 136 +
STACK CFI 51f27 .cfa: $rsp 144 +
STACK CFI 51f33 .cfa: $rsp 8 +
STACK CFI INIT 51f34 39 .cfa: $rsp 8 + .ra: .cfa -8 + ^
STACK CFI 51f38 .cfa: $rsp 24 +
STACK CFI 51f3a .cfa: $rsp 32 +
STACK CFI 51f3c .cfa: $rsp 40 +
STACK CFI 51f3e .cfa: $rsp 48 +
STACK CFI 51f40 .cfa: $rsp 56 +
STACK CFI 51f42 .cfa: $rsp 64 +
STACK CFI 51f44 .cfa: $rsp 72 +
STACK CFI 51f46 .cfa: $rsp 80 +
STACK CFI 51f48 .cfa: $rsp 88 +
STACK CFI 51f4a .cfa: $rsp 96 +
STACK CFI 51f4c .cfa: $rsp 104 +
STACK CFI 51f4e .cfa: $rsp 112 +
STACK CFI 51f50 .cfa: $rsp 120 +
STACK CFI 51f52 .cfa: $rsp 128 +
STACK CFI 51f59 .cfa: $rsp 136 +
STACK CFI 51f60 .cfa: $rsp 144 +
STACK CFI 51f6c .cfa: $rsp 8 +
STACK CFI INIT 51f6d 39 .cfa: $rsp 8 + .ra: .cfa -8 + ^
STACK CFI 51f71 .cfa: $rsp 24 +
STACK CFI 51f73 .cfa: $rsp 32 +
STACK CFI 51f75 .cfa: $rsp 40 +
STACK CFI 51f77 .cfa: $rsp 48 +
STACK CFI 51f79 .cfa: $rsp 56 +
STACK CFI 51f7b .cfa: $rsp 64 +
STACK CFI 51f7d .cfa: $rsp 72 +
STACK CFI 51f7f .cfa: $rsp 80 +
STACK CFI 51f81 .cfa: $rsp 88 +
STACK CFI 51f83 .cfa: $rsp 96 +
STACK CFI 51f85 .cfa: $rsp 104 +
STACK CFI 51f87 .cfa: $rsp 112 +
STACK CFI 51f89 .cfa: $rsp 120 +
STACK CFI 51f8b .cfa: $rsp 128 +
STACK CFI 51f92 .cfa: $rsp 136 +
STACK CFI 51f99 .cfa: $rsp 144 +
STACK CFI 51fa5 .cfa: $rsp 8 +
STACK CFI INIT 51fa6 39 .cfa: $rsp 8 + .ra: .cfa -8 + ^
STACK CFI 51faa .cfa: $rsp 24 +
STACK CFI 51fac .cfa: $rsp 32 +
STACK CFI 51fae .cfa: $rsp 40 +
STACK CFI 51fb0 .cfa: $rsp 48 +
STACK CFI 51fb2 .cfa: $rsp 56 +
STACK CFI 51fb4 .cfa: $rsp 64 +
STACK CFI 51fb6 .cfa: $rsp 72 +
STACK CFI 51fb8 .cfa: $rsp 80 +
STACK CFI 51fba .cfa: $rsp 88 +
STACK CFI 51fbc .cfa: $rsp 96 +
STACK CFI 51fbe .cfa: $rsp 104 +
STACK CFI 51fc0 .cfa: $rsp 112 +
STACK CFI 51fc2 .cfa: $rsp 120 +
STACK CFI 51fc4 .cfa: $rsp 128 +
STACK CFI 51fcb .cfa: $rsp 136 +
STACK CFI 51fd2 .cfa: $rsp 144 +
STACK CFI 51fde .cfa: $rsp 8 +
STACK CFI INIT 51fdf 39 .cfa: $rsp 8 + .ra: .cfa -8 + ^
STACK CFI 51fe3 .cfa: $rsp 24 +
STACK CFI 51fe5 .cfa: $rsp 32 +
STACK CFI 51fe7 .cfa: $rsp 40 +
STACK CFI 51fe9 .cfa: $rsp 48 +
STACK CFI 51feb .cfa: $rsp 56 +
STACK CFI 51fed .cfa: $rsp 64 +
STACK CFI 51fef .cfa: $rsp 72 +
STACK CFI 51ff1 .cfa: $rsp 80 +
STACK CFI 51ff3 .cfa: $rsp 88 +
STACK CFI 51ff5 .cfa: $rsp 96 +
STACK CFI 51ff7 .cfa: $rsp 104 +
STACK CFI 51ff9 .cfa: $rsp 112 +
STACK CFI 51ffb .cfa: $rsp 120 +
STACK CFI 51ffd .cfa: $rsp 128 +
STACK CFI 52004 .cfa: $rsp 136 +
STACK CFI 5200b .cfa: $rsp 144 +
STACK CFI 52017 .cfa: $rsp 8 +
STACK CFI INIT 52018 39 .cfa: $rsp 8 + .ra: .cfa -8 + ^
STACK CFI 5201c .cfa: $rsp 24 +
STACK CFI 5201e .cfa: $rsp 32 +
STACK CFI 52020 .cfa: $rsp 40 +
STACK CFI 52022 .cfa: $rsp 48 +
STACK CFI 52024 .cfa: $rsp 56 +
STACK CFI 52026 .cfa: $rsp 64 +
STACK CFI 52028 .cfa: $rsp 72 +
STACK CFI 5202a .cfa: $rsp 80 +
STACK CFI 5202c .cfa: $rsp 88 +
STACK CFI 5202e .cfa: $rsp 96 +
STACK CFI 52030 .cfa: $rsp 104 +
STACK CFI 52032 .cfa: $rsp 112 +
STACK CFI 52034 .cfa: $rsp 120 +
STACK CFI 52036 .cfa: $rsp 128 +
STACK CFI 5203d .cfa: $rsp 136 +
STACK CFI 52044 .cfa: $rsp 144 +
STACK CFI 52050 .cfa: $rsp 8 +
STACK CFI INIT 52051 39 .cfa: $rsp 8 + .ra: .cfa -8 + ^
STACK CFI 52055 .cfa: $rsp 24 +
STACK CFI 52057 .cfa: $rsp 32 +
STACK CFI 52059 .cfa: $rsp 40 +
STACK CFI 5205b .cfa: $rsp 48 +
STACK CFI 5205d .cfa: $rsp 56 +
STACK CFI 5205f .cfa: $rsp 64 +
STACK CFI 52061 .cfa: $rsp 72 +
STACK CFI 52063 .cfa: $rsp 80 +
STACK CFI 52065 .cfa: $rsp 88 +
STACK CFI 52067 .cfa: $rsp 96 +
STACK CFI 52069 .cfa: $rsp 104 +
STACK CFI 5206b .cfa: $rsp 112 +
STACK CFI 5206d .cfa: $rsp 120 +
STACK CFI 5206f .cfa: $rsp 128 +
STACK CFI 52076 .cfa: $rsp 136 +
STACK CFI 5207d .cfa: $rsp 144 +
STACK CFI 52089 .cfa: $rsp 8 +
STACK CFI INIT 5208a 39 .cfa: $rsp 8 + .ra: .cfa -8 + ^
STACK CFI 5208e .cfa: $rsp 24 +
STACK CFI 52090 .cfa: $rsp 32 +
STACK CFI 52092 .cfa: $rsp 40 +
STACK CFI 52094 .cfa: $rsp 48 +
STACK CFI 52096 .cfa: $rsp 56 +
STACK CFI 52098 .cfa: $rsp 64 +
STACK CFI 5209a .cfa: $rsp 72 +
STACK CFI 5209c .cfa: $rsp 80 +
STACK CFI 5209e .cfa: $rsp 88 +
STACK CFI 520a0 .cfa: $rsp 96 +
STACK CFI 520a2 .cfa: $rsp 104 +
STACK CFI 520a4 .cfa: $rsp 112 +
STACK CFI 520a6 .cfa: $rsp 120 +
STACK CFI 520a8 .cfa: $rsp 128 +
STACK CFI 520af .cfa: $rsp 136 +
STACK CFI 520b6 .cfa: $rsp 144 +
STACK CFI 520c2 .cfa: $rsp 8 +
STACK CFI INIT 520c3 39 .cfa: $rsp 8 + .ra: .cfa -8 + ^
STACK CFI 520c7 .cfa: $rsp 24 +
STACK CFI 520c9 .cfa: $rsp 32 +
STACK CFI 520cb .cfa: $rsp 40 +
STACK CFI 520cd .cfa: $rsp 48 +
STACK CFI 520cf .cfa: $rsp 56 +
STACK CFI 520d1 .cfa: $rsp 64 +
STACK CFI 520d3 .cfa: $rsp 72 +
STACK CFI 520d5 .cfa: $rsp 80 +
STACK CFI 520d7 .cfa: $rsp 88 +
STACK CFI 520d9 .cfa: $rsp 96 +
STACK CFI 520db .cfa: $rsp 104 +
STACK CFI 520dd .cfa: $rsp 112 +
STACK CFI 520df .cfa: $rsp 120 +
STACK CFI 520e1 .cfa: $rsp 128 +
STACK CFI 520e8 .cfa: $rsp 136 +
STACK CFI 520ef .cfa: $rsp 144 +
STACK CFI 520fb .cfa: $rsp 8 +
STACK CFI INIT 520fc 39 .cfa: $rsp 8 + .ra: .cfa -8 + ^
STACK CFI 52100 .cfa: $rsp 24 +
STACK CFI 52102 .cfa: $rsp 32 +
STACK CFI 52104 .cfa: $rsp 40 +
STACK CFI 52106 .cfa: $rsp 48 +
STACK CFI 52108 .cfa: $rsp 56 +
STACK CFI 5210a .cfa: $rsp 64 +
STACK CFI 5210c .cfa: $rsp 72 +
STACK CFI 5210e .cfa: $rsp 80 +
STACK CFI 52110 .cfa: $rsp 88 +
STACK CFI 52112 .cfa: $rsp 96 +
STACK CFI 52114 .cfa: $rsp 104 +
STACK CFI 52116 .cfa: $rsp 112 +
STACK CFI 52118 .cfa: $rsp 120 +
STACK CFI 5211a .cfa: $rsp 128 +
STACK CFI 52121 .cfa: $rsp 136 +
STACK CFI 52128 .cfa: $rsp 144 +
STACK CFI 52134 .cfa: $rsp 8 +
STACK CFI INIT 52135 39 .cfa: $rsp 8 + .ra: .cfa -8 + ^
STACK CFI 52139 .cfa: $rsp 24 +
STACK CFI 5213b .cfa: $rsp 32 +
STACK CFI 5213d .cfa: $rsp 40 +
STACK CFI 5213f .cfa: $rsp 48 +
STACK CFI 52141 .cfa: $rsp 56 +
STACK CFI 52143 .cfa: $rsp 64 +
STACK CFI 52145 .cfa: $rsp 72 +
STACK CFI 52147 .cfa: $rsp 80 +
STACK CFI 52149 .cfa: $rsp 88 +
STACK CFI 5214b .cfa: $rsp 96 +
STACK CFI 5214d .cfa: $rsp 104 +
STACK CFI 5214f .cfa: $rsp 112 +
STACK CFI 52151 .cfa: $rsp 120 +
STACK CFI 52153 .cfa: $rsp 128 +
STACK CFI 5215a .cfa: $rsp 136 +
STACK CFI 52161 .cfa: $rsp 144 +
STACK CFI 5216d .cfa: $rsp 8 +
STACK CFI INIT 5216e 39 .cfa: $rsp 8 + .ra: .cfa -8 + ^
STACK CFI 52172 .cfa: $rsp 24 +
STACK CFI 52174 .cfa: $rsp 32 +
STACK CFI 52176 .cfa: $rsp 40 +
STACK CFI 52178 .cfa: $rsp 48 +
STACK CFI 5217a .cfa: $rsp 56 +
STACK CFI 5217c .cfa: $rsp 64 +
STACK CFI 5217e .cfa: $rsp 72 +
STACK CFI 52180 .cfa: $rsp 80 +
STACK CFI 52182 .cfa: $rsp 88 +
STACK CFI 52184 .cfa: $rsp 96 +
STACK CFI 52186 .cfa: $rsp 104 +
STACK CFI 52188 .cfa: $rsp 112 +
STACK CFI 5218a .cfa: $rsp 120 +
STACK CFI 5218c .cfa: $rsp 128 +
STACK CFI 52193 .cfa: $rsp 136 +
STACK CFI 5219a .cfa: $rsp 144 +
STACK CFI 521a6 .cfa: $rsp 8 +
STACK CFI INIT 521a7 39 .cfa: $rsp 8 + .ra: .cfa -8 + ^
STACK CFI 521ab .cfa: $rsp 24 +
STACK CFI 521ad .cfa: $rsp 32 +
STACK CFI 521af .cfa: $rsp 40 +
STACK CFI 521b1 .cfa: $rsp 48 +
STACK CFI 521b3 .cfa: $rsp 56 +
STACK CFI 521b5 .cfa: $rsp 64 +
STACK CFI 521b7 .cfa: $rsp 72 +
STACK CFI 521b9 .cfa: $rsp 80 +
STACK CFI 521bb .cfa: $rsp 88 +
STACK CFI 521bd .cfa: $rsp 96 +
STACK CFI 521bf .cfa: $rsp 104 +
STACK CFI 521c1 .cfa: $rsp 112 +
STACK CFI 521c3 .cfa: $rsp 120 +
STACK CFI 521c5 .cfa: $rsp 128 +
STACK CFI 521cc .cfa: $rsp 136 +
STACK CFI 521d3 .cfa: $rsp 144 +
STACK CFI 521df .cfa: $rsp 8 +
STACK CFI INIT 521e0 39 .cfa: $rsp 8 + .ra: .cfa -8 + ^
STACK CFI 521e4 .cfa: $rsp 24 +
STACK CFI 521e6 .cfa: $rsp 32 +
STACK CFI 521e8 .cfa: $rsp 40 +
STACK CFI 521ea .cfa: $rsp 48 +
STACK CFI 521ec .cfa: $rsp 56 +
STACK CFI 521ee .cfa: $rsp 64 +
STACK CFI 521f0 .cfa: $rsp 72 +
STACK CFI 521f2 .cfa: $rsp 80 +
STACK CFI 521f4 .cfa: $rsp 88 +
STACK CFI 521f6 .cfa: $rsp 96 +
STACK CFI 521f8 .cfa: $rsp 104 +
STACK CFI 521fa .cfa: $rsp 112 +
STACK CFI 521fc .cfa: $rsp 120 +
STACK CFI 521fe .cfa: $rsp 128 +
STACK CFI 52205 .cfa: $rsp 136 +
STACK CFI 5220c .cfa: $rsp 144 +
STACK CFI 52218 .cfa: $rsp 8 +
STACK CFI INIT 52219 39 .cfa: $rsp 8 + .ra: .cfa -8 + ^
STACK CFI 5221d .cfa: $rsp 24 +
STACK CFI 5221f .cfa: $rsp 32 +
STACK CFI 52221 .cfa: $rsp 40 +
STACK CFI 52223 .cfa: $rsp 48 +
STACK CFI 52225 .cfa: $rsp 56 +
STACK CFI 52227 .cfa: $rsp 64 +
STACK CFI 52229 .cfa: $rsp 72 +
STACK CFI 5222b .cfa: $rsp 80 +
STACK CFI 5222d .cfa: $rsp 88 +
STACK CFI 5222f .cfa: $rsp 96 +
STACK CFI 52231 .cfa: $rsp 104 +
STACK CFI 52233 .cfa: $rsp 112 +
STACK CFI 52235 .cfa: $rsp 120 +
STACK CFI 52237 .cfa: $rsp 128 +
STACK CFI 5223e .cfa: $rsp 136 +
STACK CFI 52245 .cfa: $rsp 144 +
STACK CFI 52251 .cfa: $rsp 8 +
STACK CFI INIT 52252 39 .cfa: $rsp 8 + .ra: .cfa -8 + ^
STACK CFI 52256 .cfa: $rsp 24 +
STACK CFI 52258 .cfa: $rsp 32 +
STACK CFI 5225a .cfa: $rsp 40 +
STACK CFI 5225c .cfa: $rsp 48 +
STACK CFI 5225e .cfa: $rsp 56 +
STACK CFI 52260 .cfa: $rsp 64 +
STACK CFI 52262 .cfa: $rsp 72 +
STACK CFI 52264 .cfa: $rsp 80 +
STACK CFI 52266 .cfa: $rsp 88 +
STACK CFI 52268 .cfa: $rsp 96 +
STACK CFI 5226a .cfa: $rsp 104 +
STACK CFI 5226c .cfa: $rsp 112 +
STACK CFI 5226e .cfa: $rsp 120 +
STACK CFI 52270 .cfa: $rsp 128 +
STACK CFI 52277 .cfa: $rsp 136 +
STACK CFI 5227e .cfa: $rsp 144 +
STACK CFI 5228a .cfa: $rsp 8 +
STACK CFI INIT 5228b 39 .cfa: $rsp 8 + .ra: .cfa -8 + ^
STACK CFI 5228f .cfa: $rsp 24 +
STACK CFI 52291 .cfa: $rsp 32 +
STACK CFI 52293 .cfa: $rsp 40 +
STACK CFI 52295 .cfa: $rsp 48 +
STACK CFI 52297 .cfa: $rsp 56 +
STACK CFI 52299 .cfa: $rsp 64 +
STACK CFI 5229b .cfa: $rsp 72 +
STACK CFI 5229d .cfa: $rsp 80 +
STACK CFI 5229f .cfa: $rsp 88 +
STACK CFI 522a1 .cfa: $rsp 96 +
STACK CFI 522a3 .cfa: $rsp 104 +
STACK CFI 522a5 .cfa: $rsp 112 +
STACK CFI 522a7 .cfa: $rsp 120 +
STACK CFI 522a9 .cfa: $rsp 128 +
STACK CFI 522b0 .cfa: $rsp 136 +
STACK CFI 522b7 .cfa: $rsp 144 +
STACK CFI 522c3 .cfa: $rsp 8 +
STACK CFI INIT 522c4 39 .cfa: $rsp 8 + .ra: .cfa -8 + ^
STACK CFI 522c8 .cfa: $rsp 24 +
STACK CFI 522ca .cfa: $rsp 32 +
STACK CFI 522cc .cfa: $rsp 40 +
STACK CFI 522ce .cfa: $rsp 48 +
STACK CFI 522d0 .cfa: $rsp 56 +
STACK CFI 522d2 .cfa: $rsp 64 +
STACK CFI 522d4 .cfa: $rsp 72 +
STACK CFI 522d6 .cfa: $rsp 80 +
STACK CFI 522d8 .cfa: $rsp 88 +
STACK CFI 522da .cfa: $rsp 96 +
STACK CFI 522dc .cfa: $rsp 104 +
STACK CFI 522de .cfa: $rsp 112 +
STACK CFI 522e0 .cfa: $rsp 120 +
STACK CFI 522e2 .cfa: $rsp 128 +
STACK CFI 522e9 .cfa: $rsp 136 +
STACK CFI 522f0 .cfa: $rsp 144 +
STACK CFI 522fc .cfa: $rsp 8 +
STACK CFI INIT 522fd 39 .cfa: $rsp 8 + .ra: .cfa -8 + ^
STACK CFI 52301 .cfa: $rsp 24 +
STACK CFI 52303 .cfa: $rsp 32 +
STACK CFI 52305 .cfa: $rsp 40 +
STACK CFI 52307 .cfa: $rsp 48 +
STACK CFI 52309 .cfa: $rsp 56 +
STACK CFI 5230b .cfa: $rsp 64 +
STACK CFI 5230d .cfa: $rsp 72 +
STACK CFI 5230f .cfa: $rsp 80 +
STACK CFI 52311 .cfa: $rsp 88 +
STACK CFI 52313 .cfa: $rsp 96 +
STACK CFI 52315 .cfa: $rsp 104 +
STACK CFI 52317 .cfa: $rsp 112 +
STACK CFI 52319 .cfa: $rsp 120 +
STACK CFI 5231b .cfa: $rsp 128 +
STACK CFI 52322 .cfa: $rsp 136 +
STACK CFI 52329 .cfa: $rsp 144 +
STACK CFI 52335 .cfa: $rsp 8 +
STACK CFI INIT 52336 39 .cfa: $rsp 8 + .ra: .cfa -8 + ^
STACK CFI 5233a .cfa: $rsp 24 +
STACK CFI 5233c .cfa: $rsp 32 +
STACK CFI 5233e .cfa: $rsp 40 +
STACK CFI 52340 .cfa: $rsp 48 +
STACK CFI 52342 .cfa: $rsp 56 +
STACK CFI 52344 .cfa: $rsp 64 +
STACK CFI 52346 .cfa: $rsp 72 +
STACK CFI 52348 .cfa: $rsp 80 +
STACK CFI 5234a .cfa: $rsp 88 +
STACK CFI 5234c .cfa: $rsp 96 +
STACK CFI 5234e .cfa: $rsp 104 +
STACK CFI 52350 .cfa: $rsp 112 +
STACK CFI 52352 .cfa: $rsp 120 +
STACK CFI 52354 .cfa: $rsp 128 +
STACK CFI 5235b .cfa: $rsp 136 +
STACK CFI 52362 .cfa: $rsp 144 +
STACK CFI 5236e .cfa: $rsp 8 +
STACK CFI INIT 5236f 39 .cfa: $rsp 8 + .ra: .cfa -8 + ^
STACK CFI 52373 .cfa: $rsp 24 +
STACK CFI 52375 .cfa: $rsp 32 +
STACK CFI 52377 .cfa: $rsp 40 +
STACK CFI 52379 .cfa: $rsp 48 +
STACK CFI 5237b .cfa: $rsp 56 +
STACK CFI 5237d .cfa: $rsp 64 +
STACK CFI 5237f .cfa: $rsp 72 +
STACK CFI 52381 .cfa: $rsp 80 +
STACK CFI 52383 .cfa: $rsp 88 +
STACK CFI 52385 .cfa: $rsp 96 +
STACK CFI 52387 .cfa: $rsp 104 +
STACK CFI 52389 .cfa: $rsp 112 +
STACK CFI 5238b .cfa: $rsp 120 +
STACK CFI 5238d .cfa: $rsp 128 +
STACK CFI 52394 .cfa: $rsp 136 +
STACK CFI 5239b .cfa: $rsp 144 +
STACK CFI 523a7 .cfa: $rsp 8 +
STACK CFI INIT 523a8 39 .cfa: $rsp 8 + .ra: .cfa -8 + ^
STACK CFI 523ac .cfa: $rsp 24 +
STACK CFI 523ae .cfa: $rsp 32 +
STACK CFI 523b0 .cfa: $rsp 40 +
STACK CFI 523b2 .cfa: $rsp 48 +
STACK CFI 523b4 .cfa: $rsp 56 +
STACK CFI 523b6 .cfa: $rsp 64 +
STACK CFI 523b8 .cfa: $rsp 72 +
STACK CFI 523ba .cfa: $rsp 80 +
STACK CFI 523bc .cfa: $rsp 88 +
STACK CFI 523be .cfa: $rsp 96 +
STACK CFI 523c0 .cfa: $rsp 104 +
STACK CFI 523c2 .cfa: $rsp 112 +
STACK CFI 523c4 .cfa: $rsp 120 +
STACK CFI 523c6 .cfa: $rsp 128 +
STACK CFI 523cd .cfa: $rsp 136 +
STACK CFI 523d4 .cfa: $rsp 144 +
STACK CFI 523e0 .cfa: $rsp 8 +
STACK CFI INIT 523e1 39 .cfa: $rsp 8 + .ra: .cfa -8 + ^
STACK CFI 523e5 .cfa: $rsp 24 +
STACK CFI 523e7 .cfa: $rsp 32 +
STACK CFI 523e9 .cfa: $rsp 40 +
STACK CFI 523eb .cfa: $rsp 48 +
STACK CFI 523ed .cfa: $rsp 56 +
STACK CFI 523ef .cfa: $rsp 64 +
STACK CFI 523f1 .cfa: $rsp 72 +
STACK CFI 523f3 .cfa: $rsp 80 +
STACK CFI 523f5 .cfa: $rsp 88 +
STACK CFI 523f7 .cfa: $rsp 96 +
STACK CFI 523f9 .cfa: $rsp 104 +
STACK CFI 523fb .cfa: $rsp 112 +
STACK CFI 523fd .cfa: $rsp 120 +
STACK CFI 523ff .cfa: $rsp 128 +
STACK CFI 52406 .cfa: $rsp 136 +
STACK CFI 5240d .cfa: $rsp 144 +
STACK CFI 52419 .cfa: $rsp 8 +
STACK CFI INIT 5241a 39 .cfa: $rsp 8 + .ra: .cfa -8 + ^
STACK CFI 5241e .cfa: $rsp 24 +
STACK CFI 52420 .cfa: $rsp 32 +
STACK CFI 52422 .cfa: $rsp 40 +
STACK CFI 52424 .cfa: $rsp 48 +
STACK CFI 52426 .cfa: $rsp 56 +
STACK CFI 52428 .cfa: $rsp 64 +
STACK CFI 5242a .cfa: $rsp 72 +
STACK CFI 5242c .cfa: $rsp 80 +
STACK CFI 5242e .cfa: $rsp 88 +
STACK CFI 52430 .cfa: $rsp 96 +
STACK CFI 52432 .cfa: $rsp 104 +
STACK CFI 52434 .cfa: $rsp 112 +
STACK CFI 52436 .cfa: $rsp 120 +
STACK CFI 52438 .cfa: $rsp 128 +
STACK CFI 5243f .cfa: $rsp 136 +
STACK CFI 52446 .cfa: $rsp 144 +
STACK CFI 52452 .cfa: $rsp 8 +
STACK CFI INIT 52453 39 .cfa: $rsp 8 + .ra: .cfa -8 + ^
STACK CFI 52457 .cfa: $rsp 24 +
STACK CFI 52459 .cfa: $rsp 32 +
STACK CFI 5245b .cfa: $rsp 40 +
STACK CFI 5245d .cfa: $rsp 48 +
STACK CFI 5245f .cfa: $rsp 56 +
STACK CFI 52461 .cfa: $rsp 64 +
STACK CFI 52463 .cfa: $rsp 72 +
STACK CFI 52465 .cfa: $rsp 80 +
STACK CFI 52467 .cfa: $rsp 88 +
STACK CFI 52469 .cfa: $rsp 96 +
STACK CFI 5246b .cfa: $rsp 104 +
STACK CFI 5246d .cfa: $rsp 112 +
STACK CFI 5246f .cfa: $rsp 120 +
STACK CFI 52471 .cfa: $rsp 128 +
STACK CFI 52478 .cfa: $rsp 136 +
STACK CFI 5247f .cfa: $rsp 144 +
STACK CFI 5248b .cfa: $rsp 8 +
STACK CFI INIT 5248c 39 .cfa: $rsp 8 + .ra: .cfa -8 + ^
STACK CFI 52490 .cfa: $rsp 24 +
STACK CFI 52492 .cfa: $rsp 32 +
STACK CFI 52494 .cfa: $rsp 40 +
STACK CFI 52496 .cfa: $rsp 48 +
STACK CFI 52498 .cfa: $rsp 56 +
STACK CFI 5249a .cfa: $rsp 64 +
STACK CFI 5249c .cfa: $rsp 72 +
STACK CFI 5249e .cfa: $rsp 80 +
STACK CFI 524a0 .cfa: $rsp 88 +
STACK CFI 524a2 .cfa: $rsp 96 +
STACK CFI 524a4 .cfa: $rsp 104 +
STACK CFI 524a6 .cfa: $rsp 112 +
STACK CFI 524a8 .cfa: $rsp 120 +
STACK CFI 524aa .cfa: $rsp 128 +
STACK CFI 524b1 .cfa: $rsp 136 +
STACK CFI 524b8 .cfa: $rsp 144 +
STACK CFI 524c4 .cfa: $rsp 8 +
STACK CFI INIT 524c5 39 .cfa: $rsp 8 + .ra: .cfa -8 + ^
STACK CFI 524c9 .cfa: $rsp 24 +
STACK CFI 524cb .cfa: $rsp 32 +
STACK CFI 524cd .cfa: $rsp 40 +
STACK CFI 524cf .cfa: $rsp 48 +
STACK CFI 524d1 .cfa: $rsp 56 +
STACK CFI 524d3 .cfa: $rsp 64 +
STACK CFI 524d5 .cfa: $rsp 72 +
STACK CFI 524d7 .cfa: $rsp 80 +
STACK CFI 524d9 .cfa: $rsp 88 +
STACK CFI 524db .cfa: $rsp 96 +
STACK CFI 524dd .cfa: $rsp 104 +
STACK CFI 524df .cfa: $rsp 112 +
STACK CFI 524e1 .cfa: $rsp 120 +
STACK CFI 524e3 .cfa: $rsp 128 +
STACK CFI 524ea .cfa: $rsp 136 +
STACK CFI 524f1 .cfa: $rsp 144 +
STACK CFI 524fd .cfa: $rsp 8 +
STACK CFI INIT 524fe 39 .cfa: $rsp 8 + .ra: .cfa -8 + ^
STACK CFI 52502 .cfa: $rsp 24 +
STACK CFI 52504 .cfa: $rsp 32 +
STACK CFI 52506 .cfa: $rsp 40 +
STACK CFI 52508 .cfa: $rsp 48 +
STACK CFI 5250a .cfa: $rsp 56 +
STACK CFI 5250c .cfa: $rsp 64 +
STACK CFI 5250e .cfa: $rsp 72 +
STACK CFI 52510 .cfa: $rsp 80 +
STACK CFI 52512 .cfa: $rsp 88 +
STACK CFI 52514 .cfa: $rsp 96 +
STACK CFI 52516 .cfa: $rsp 104 +
STACK CFI 52518 .cfa: $rsp 112 +
STACK CFI 5251a .cfa: $rsp 120 +
STACK CFI 5251c .cfa: $rsp 128 +
STACK CFI 52523 .cfa: $rsp 136 +
STACK CFI 5252a .cfa: $rsp 144 +
STACK CFI 52536 .cfa: $rsp 8 +
STACK CFI INIT 52537 39 .cfa: $rsp 8 + .ra: .cfa -8 + ^
STACK CFI 5253b .cfa: $rsp 24 +
STACK CFI 5253d .cfa: $rsp 32 +
STACK CFI 5253f .cfa: $rsp 40 +
STACK CFI 52541 .cfa: $rsp 48 +
STACK CFI 52543 .cfa: $rsp 56 +
STACK CFI 52545 .cfa: $rsp 64 +
STACK CFI 52547 .cfa: $rsp 72 +
STACK CFI 52549 .cfa: $rsp 80 +
STACK CFI 5254b .cfa: $rsp 88 +
STACK CFI 5254d .cfa: $rsp 96 +
STACK CFI 5254f .cfa: $rsp 104 +
STACK CFI 52551 .cfa: $rsp 112 +
STACK CFI 52553 .cfa: $rsp 120 +
STACK CFI 52555 .cfa: $rsp 128 +
STACK CFI 5255c .cfa: $rsp 136 +
STACK CFI 52563 .cfa: $rsp 144 +
STACK CFI 5256f .cfa: $rsp 8 +
STACK CFI INIT 52570 39 .cfa: $rsp 8 + .ra: .cfa -8 + ^
STACK CFI 52574 .cfa: $rsp 24 +
STACK CFI 52576 .cfa: $rsp 32 +
STACK CFI 52578 .cfa: $rsp 40 +
STACK CFI 5257a .cfa: $rsp 48 +
STACK CFI 5257c .cfa: $rsp 56 +
STACK CFI 5257e .cfa: $rsp 64 +
STACK CFI 52580 .cfa: $rsp 72 +
STACK CFI 52582 .cfa: $rsp 80 +
STACK CFI 52584 .cfa: $rsp 88 +
STACK CFI 52586 .cfa: $rsp 96 +
STACK CFI 52588 .cfa: $rsp 104 +
STACK CFI 5258a .cfa: $rsp 112 +
STACK CFI 5258c .cfa: $rsp 120 +
STACK CFI 5258e .cfa: $rsp 128 +
STACK CFI 52595 .cfa: $rsp 136 +
STACK CFI 5259c .cfa: $rsp 144 +
STACK CFI 525a8 .cfa: $rsp 8 +
STACK CFI INIT 525a9 39 .cfa: $rsp 8 + .ra: .cfa -8 + ^
STACK CFI 525ad .cfa: $rsp 24 +
STACK CFI 525af .cfa: $rsp 32 +
STACK CFI 525b1 .cfa: $rsp 40 +
STACK CFI 525b3 .cfa: $rsp 48 +
STACK CFI 525b5 .cfa: $rsp 56 +
STACK CFI 525b7 .cfa: $rsp 64 +
STACK CFI 525b9 .cfa: $rsp 72 +
STACK CFI 525bb .cfa: $rsp 80 +
STACK CFI 525bd .cfa: $rsp 88 +
STACK CFI 525bf .cfa: $rsp 96 +
STACK CFI 525c1 .cfa: $rsp 104 +
STACK CFI 525c3 .cfa: $rsp 112 +
STACK CFI 525c5 .cfa: $rsp 120 +
STACK CFI 525c7 .cfa: $rsp 128 +
STACK CFI 525ce .cfa: $rsp 136 +
STACK CFI 525d5 .cfa: $rsp 144 +
STACK CFI 525e1 .cfa: $rsp 8 +
STACK CFI INIT 525e2 39 .cfa: $rsp 8 + .ra: .cfa -8 + ^
STACK CFI 525e6 .cfa: $rsp 24 +
STACK CFI 525e8 .cfa: $rsp 32 +
STACK CFI 525ea .cfa: $rsp 40 +
STACK CFI 525ec .cfa: $rsp 48 +
STACK CFI 525ee .cfa: $rsp 56 +
STACK CFI 525f0 .cfa: $rsp 64 +
STACK CFI 525f2 .cfa: $rsp 72 +
STACK CFI 525f4 .cfa: $rsp 80 +
STACK CFI 525f6 .cfa: $rsp 88 +
STACK CFI 525f8 .cfa: $rsp 96 +
STACK CFI 525fa .cfa: $rsp 104 +
STACK CFI 525fc .cfa: $rsp 112 +
STACK CFI 525fe .cfa: $rsp 120 +
STACK CFI 52600 .cfa: $rsp 128 +
STACK CFI 52607 .cfa: $rsp 136 +
STACK CFI 5260e .cfa: $rsp 144 +
STACK CFI 5261a .cfa: $rsp 8 +
STACK CFI INIT 5261b 39 .cfa: $rsp 8 + .ra: .cfa -8 + ^
STACK CFI 5261f .cfa: $rsp 24 +
STACK CFI 52621 .cfa: $rsp 32 +
STACK CFI 52623 .cfa: $rsp 40 +
STACK CFI 52625 .cfa: $rsp 48 +
STACK CFI 52627 .cfa: $rsp 56 +
STACK CFI 52629 .cfa: $rsp 64 +
STACK CFI 5262b .cfa: $rsp 72 +
STACK CFI 5262d .cfa: $rsp 80 +
STACK CFI 5262f .cfa: $rsp 88 +
STACK CFI 52631 .cfa: $rsp 96 +
STACK CFI 52633 .cfa: $rsp 104 +
STACK CFI 52635 .cfa: $rsp 112 +
STACK CFI 52637 .cfa: $rsp 120 +
STACK CFI 52639 .cfa: $rsp 128 +
STACK CFI 52640 .cfa: $rsp 136 +
STACK CFI 52647 .cfa: $rsp 144 +
STACK CFI 52653 .cfa: $rsp 8 +
STACK CFI INIT 52654 39 .cfa: $rsp 8 + .ra: .cfa -8 + ^
STACK CFI 52658 .cfa: $rsp 24 +
STACK CFI 5265a .cfa: $rsp 32 +
STACK CFI 5265c .cfa: $rsp 40 +
STACK CFI 5265e .cfa: $rsp 48 +
STACK CFI 52660 .cfa: $rsp 56 +
STACK CFI 52662 .cfa: $rsp 64 +
STACK CFI 52664 .cfa: $rsp 72 +
STACK CFI 52666 .cfa: $rsp 80 +
STACK CFI 52668 .cfa: $rsp 88 +
STACK CFI 5266a .cfa: $rsp 96 +
STACK CFI 5266c .cfa: $rsp 104 +
STACK CFI 5266e .cfa: $rsp 112 +
STACK CFI 52670 .cfa: $rsp 120 +
STACK CFI 52672 .cfa: $rsp 128 +
STACK CFI 52679 .cfa: $rsp 136 +
STACK CFI 52680 .cfa: $rsp 144 +
STACK CFI 5268c .cfa: $rsp 8 +
STACK CFI INIT 5268d 39 .cfa: $rsp 8 + .ra: .cfa -8 + ^
STACK CFI 52691 .cfa: $rsp 24 +
STACK CFI 52693 .cfa: $rsp 32 +
STACK CFI 52695 .cfa: $rsp 40 +
STACK CFI 52697 .cfa: $rsp 48 +
STACK CFI 52699 .cfa: $rsp 56 +
STACK CFI 5269b .cfa: $rsp 64 +
STACK CFI 5269d .cfa: $rsp 72 +
STACK CFI 5269f .cfa: $rsp 80 +
STACK CFI 526a1 .cfa: $rsp 88 +
STACK CFI 526a3 .cfa: $rsp 96 +
STACK CFI 526a5 .cfa: $rsp 104 +
STACK CFI 526a7 .cfa: $rsp 112 +
STACK CFI 526a9 .cfa: $rsp 120 +
STACK CFI 526ab .cfa: $rsp 128 +
STACK CFI 526b2 .cfa: $rsp 136 +
STACK CFI 526b9 .cfa: $rsp 144 +
STACK CFI 526c5 .cfa: $rsp 8 +
STACK CFI INIT 526c6 39 .cfa: $rsp 8 + .ra: .cfa -8 + ^
STACK CFI 526ca .cfa: $rsp 24 +
STACK CFI 526cc .cfa: $rsp 32 +
STACK CFI 526ce .cfa: $rsp 40 +
STACK CFI 526d0 .cfa: $rsp 48 +
STACK CFI 526d2 .cfa: $rsp 56 +
STACK CFI 526d4 .cfa: $rsp 64 +
STACK CFI 526d6 .cfa: $rsp 72 +
STACK CFI 526d8 .cfa: $rsp 80 +
STACK CFI 526da .cfa: $rsp 88 +
STACK CFI 526dc .cfa: $rsp 96 +
STACK CFI 526de .cfa: $rsp 104 +
STACK CFI 526e0 .cfa: $rsp 112 +
STACK CFI 526e2 .cfa: $rsp 120 +
STACK CFI 526e4 .cfa: $rsp 128 +
STACK CFI 526eb .cfa: $rsp 136 +
STACK CFI 526f2 .cfa: $rsp 144 +
STACK CFI 526fe .cfa: $rsp 8 +
STACK CFI INIT 526ff 39 .cfa: $rsp 8 + .ra: .cfa -8 + ^
STACK CFI 52703 .cfa: $rsp 24 +
STACK CFI 52705 .cfa: $rsp 32 +
STACK CFI 52707 .cfa: $rsp 40 +
STACK CFI 52709 .cfa: $rsp 48 +
STACK CFI 5270b .cfa: $rsp 56 +
STACK CFI 5270d .cfa: $rsp 64 +
STACK CFI 5270f .cfa: $rsp 72 +
STACK CFI 52711 .cfa: $rsp 80 +
STACK CFI 52713 .cfa: $rsp 88 +
STACK CFI 52715 .cfa: $rsp 96 +
STACK CFI 52717 .cfa: $rsp 104 +
STACK CFI 52719 .cfa: $rsp 112 +
STACK CFI 5271b .cfa: $rsp 120 +
STACK CFI 5271d .cfa: $rsp 128 +
STACK CFI 52724 .cfa: $rsp 136 +
STACK CFI 5272b .cfa: $rsp 144 +
STACK CFI 52737 .cfa: $rsp 8 +
STACK CFI INIT 52738 39 .cfa: $rsp 8 + .ra: .cfa -8 + ^
STACK CFI 5273c .cfa: $rsp 24 +
STACK CFI 5273e .cfa: $rsp 32 +
STACK CFI 52740 .cfa: $rsp 40 +
STACK CFI 52742 .cfa: $rsp 48 +
STACK CFI 52744 .cfa: $rsp 56 +
STACK CFI 52746 .cfa: $rsp 64 +
STACK CFI 52748 .cfa: $rsp 72 +
STACK CFI 5274a .cfa: $rsp 80 +
STACK CFI 5274c .cfa: $rsp 88 +
STACK CFI 5274e .cfa: $rsp 96 +
STACK CFI 52750 .cfa: $rsp 104 +
STACK CFI 52752 .cfa: $rsp 112 +
STACK CFI 52754 .cfa: $rsp 120 +
STACK CFI 52756 .cfa: $rsp 128 +
STACK CFI 5275d .cfa: $rsp 136 +
STACK CFI 52764 .cfa: $rsp 144 +
STACK CFI 52770 .cfa: $rsp 8 +
STACK CFI INIT 52771 39 .cfa: $rsp 8 + .ra: .cfa -8 + ^
STACK CFI 52775 .cfa: $rsp 24 +
STACK CFI 52777 .cfa: $rsp 32 +
STACK CFI 52779 .cfa: $rsp 40 +
STACK CFI 5277b .cfa: $rsp 48 +
STACK CFI 5277d .cfa: $rsp 56 +
STACK CFI 5277f .cfa: $rsp 64 +
STACK CFI 52781 .cfa: $rsp 72 +
STACK CFI 52783 .cfa: $rsp 80 +
STACK CFI 52785 .cfa: $rsp 88 +
STACK CFI 52787 .cfa: $rsp 96 +
STACK CFI 52789 .cfa: $rsp 104 +
STACK CFI 5278b .cfa: $rsp 112 +
STACK CFI 5278d .cfa: $rsp 120 +
STACK CFI 5278f .cfa: $rsp 128 +
STACK CFI 52796 .cfa: $rsp 136 +
STACK CFI 5279d .cfa: $rsp 144 +
STACK CFI 527a9 .cfa: $rsp 8 +
STACK CFI INIT 527aa 39 .cfa: $rsp 8 + .ra: .cfa -8 + ^
STACK CFI 527ae .cfa: $rsp 24 +
STACK CFI 527b0 .cfa: $rsp 32 +
STACK CFI 527b2 .cfa: $rsp 40 +
STACK CFI 527b4 .cfa: $rsp 48 +
STACK CFI 527b6 .cfa: $rsp 56 +
STACK CFI 527b8 .cfa: $rsp 64 +
STACK CFI 527ba .cfa: $rsp 72 +
STACK CFI 527bc .cfa: $rsp 80 +
STACK CFI 527be .cfa: $rsp 88 +
STACK CFI 527c0 .cfa: $rsp 96 +
STACK CFI 527c2 .cfa: $rsp 104 +
STACK CFI 527c4 .cfa: $rsp 112 +
STACK CFI 527c6 .cfa: $rsp 120 +
STACK CFI 527c8 .cfa: $rsp 128 +
STACK CFI 527cf .cfa: $rsp 136 +
STACK CFI 527d6 .cfa: $rsp 144 +
STACK CFI 527e2 .cfa: $rsp 8 +
STACK CFI INIT 527e3 39 .cfa: $rsp 8 + .ra: .cfa -8 + ^
STACK CFI 527e7 .cfa: $rsp 24 +
STACK CFI 527e9 .cfa: $rsp 32 +
STACK CFI 527eb .cfa: $rsp 40 +
STACK CFI 527ed .cfa: $rsp 48 +
STACK CFI 527ef .cfa: $rsp 56 +
STACK CFI 527f1 .cfa: $rsp 64 +
STACK CFI 527f3 .cfa: $rsp 72 +
STACK CFI 527f5 .cfa: $rsp 80 +
STACK CFI 527f7 .cfa: $rsp 88 +
STACK CFI 527f9 .cfa: $rsp 96 +
STACK CFI 527fb .cfa: $rsp 104 +
STACK CFI 527fd .cfa: $rsp 112 +
STACK CFI 527ff .cfa: $rsp 120 +
STACK CFI 52801 .cfa: $rsp 128 +
STACK CFI 52808 .cfa: $rsp 136 +
STACK CFI 5280f .cfa: $rsp 144 +
STACK CFI 5281b .cfa: $rsp 8 +
STACK CFI INIT 5281c 39 .cfa: $rsp 8 + .ra: .cfa -8 + ^
STACK CFI 52820 .cfa: $rsp 24 +
STACK CFI 52822 .cfa: $rsp 32 +
STACK CFI 52824 .cfa: $rsp 40 +
STACK CFI 52826 .cfa: $rsp 48 +
STACK CFI 52828 .cfa: $rsp 56 +
STACK CFI 5282a .cfa: $rsp 64 +
STACK CFI 5282c .cfa: $rsp 72 +
STACK CFI 5282e .cfa: $rsp 80 +
STACK CFI 52830 .cfa: $rsp 88 +
STACK CFI 52832 .cfa: $rsp 96 +
STACK CFI 52834 .cfa: $rsp 104 +
STACK CFI 52836 .cfa: $rsp 112 +
STACK CFI 52838 .cfa: $rsp 120 +
STACK CFI 5283a .cfa: $rsp 128 +
STACK CFI 52841 .cfa: $rsp 136 +
STACK CFI 52848 .cfa: $rsp 144 +
STACK CFI 52854 .cfa: $rsp 8 +
STACK CFI INIT 52855 39 .cfa: $rsp 8 + .ra: .cfa -8 + ^
STACK CFI 52859 .cfa: $rsp 24 +
STACK CFI 5285b .cfa: $rsp 32 +
STACK CFI 5285d .cfa: $rsp 40 +
STACK CFI 5285f .cfa: $rsp 48 +
STACK CFI 52861 .cfa: $rsp 56 +
STACK CFI 52863 .cfa: $rsp 64 +
STACK CFI 52865 .cfa: $rsp 72 +
STACK CFI 52867 .cfa: $rsp 80 +
STACK CFI 52869 .cfa: $rsp 88 +
STACK CFI 5286b .cfa: $rsp 96 +
STACK CFI 5286d .cfa: $rsp 104 +
STACK CFI 5286f .cfa: $rsp 112 +
STACK CFI 52871 .cfa: $rsp 120 +
STACK CFI 52873 .cfa: $rsp 128 +
STACK CFI 5287a .cfa: $rsp 136 +
STACK CFI 52881 .cfa: $rsp 144 +
STACK CFI 5288d .cfa: $rsp 8 +
STACK CFI INIT 5288e 39 .cfa: $rsp 8 + .ra: .cfa -8 + ^
STACK CFI 52892 .cfa: $rsp 24 +
STACK CFI 52894 .cfa: $rsp 32 +
STACK CFI 52896 .cfa: $rsp 40 +
STACK CFI 52898 .cfa: $rsp 48 +
STACK CFI 5289a .cfa: $rsp 56 +
STACK CFI 5289c .cfa: $rsp 64 +
STACK CFI 5289e .cfa: $rsp 72 +
STACK CFI 528a0 .cfa: $rsp 80 +
STACK CFI 528a2 .cfa: $rsp 88 +
STACK CFI 528a4 .cfa: $rsp 96 +
STACK CFI 528a6 .cfa: $rsp 104 +
STACK CFI 528a8 .cfa: $rsp 112 +
STACK CFI 528aa .cfa: $rsp 120 +
STACK CFI 528ac .cfa: $rsp 128 +
STACK CFI 528b3 .cfa: $rsp 136 +
STACK CFI 528ba .cfa: $rsp 144 +
STACK CFI 528c6 .cfa: $rsp 8 +
STACK CFI INIT 528c7 39 .cfa: $rsp 8 + .ra: .cfa -8 + ^
STACK CFI 528cb .cfa: $rsp 24 +
STACK CFI 528cd .cfa: $rsp 32 +
STACK CFI 528cf .cfa: $rsp 40 +
STACK CFI 528d1 .cfa: $rsp 48 +
STACK CFI 528d3 .cfa: $rsp 56 +
STACK CFI 528d5 .cfa: $rsp 64 +
STACK CFI 528d7 .cfa: $rsp 72 +
STACK CFI 528d9 .cfa: $rsp 80 +
STACK CFI 528db .cfa: $rsp 88 +
STACK CFI 528dd .cfa: $rsp 96 +
STACK CFI 528df .cfa: $rsp 104 +
STACK CFI 528e1 .cfa: $rsp 112 +
STACK CFI 528e3 .cfa: $rsp 120 +
STACK CFI 528e5 .cfa: $rsp 128 +
STACK CFI 528ec .cfa: $rsp 136 +
STACK CFI 528f3 .cfa: $rsp 144 +
STACK CFI 528ff .cfa: $rsp 8 +
STACK CFI INIT 52900 39 .cfa: $rsp 8 + .ra: .cfa -8 + ^
STACK CFI 52904 .cfa: $rsp 24 +
STACK CFI 52906 .cfa: $rsp 32 +
STACK CFI 52908 .cfa: $rsp 40 +
STACK CFI 5290a .cfa: $rsp 48 +
STACK CFI 5290c .cfa: $rsp 56 +
STACK CFI 5290e .cfa: $rsp 64 +
STACK CFI 52910 .cfa: $rsp 72 +
STACK CFI 52912 .cfa: $rsp 80 +
STACK CFI 52914 .cfa: $rsp 88 +
STACK CFI 52916 .cfa: $rsp 96 +
STACK CFI 52918 .cfa: $rsp 104 +
STACK CFI 5291a .cfa: $rsp 112 +
STACK CFI 5291c .cfa: $rsp 120 +
STACK CFI 5291e .cfa: $rsp 128 +
STACK CFI 52925 .cfa: $rsp 136 +
STACK CFI 5292c .cfa: $rsp 144 +
STACK CFI 52938 .cfa: $rsp 8 +
STACK CFI INIT 52939 39 .cfa: $rsp 8 + .ra: .cfa -8 + ^
STACK CFI 5293d .cfa: $rsp 24 +
STACK CFI 5293f .cfa: $rsp 32 +
STACK CFI 52941 .cfa: $rsp 40 +
STACK CFI 52943 .cfa: $rsp 48 +
STACK CFI 52945 .cfa: $rsp 56 +
STACK CFI 52947 .cfa: $rsp 64 +
STACK CFI 52949 .cfa: $rsp 72 +
STACK CFI 5294b .cfa: $rsp 80 +
STACK CFI 5294d .cfa: $rsp 88 +
STACK CFI 5294f .cfa: $rsp 96 +
STACK CFI 52951 .cfa: $rsp 104 +
STACK CFI 52953 .cfa: $rsp 112 +
STACK CFI 52955 .cfa: $rsp 120 +
STACK CFI 52957 .cfa: $rsp 128 +
STACK CFI 5295e .cfa: $rsp 136 +
STACK CFI 52965 .cfa: $rsp 144 +
STACK CFI 52971 .cfa: $rsp 8 +
STACK CFI INIT 52972 39 .cfa: $rsp 8 + .ra: .cfa -8 + ^
STACK CFI 52976 .cfa: $rsp 24 +
STACK CFI 52978 .cfa: $rsp 32 +
STACK CFI 5297a .cfa: $rsp 40 +
STACK CFI 5297c .cfa: $rsp 48 +
STACK CFI 5297e .cfa: $rsp 56 +
STACK CFI 52980 .cfa: $rsp 64 +
STACK CFI 52982 .cfa: $rsp 72 +
STACK CFI 52984 .cfa: $rsp 80 +
STACK CFI 52986 .cfa: $rsp 88 +
STACK CFI 52988 .cfa: $rsp 96 +
STACK CFI 5298a .cfa: $rsp 104 +
STACK CFI 5298c .cfa: $rsp 112 +
STACK CFI 5298e .cfa: $rsp 120 +
STACK CFI 52990 .cfa: $rsp 128 +
STACK CFI 52997 .cfa: $rsp 136 +
STACK CFI 5299e .cfa: $rsp 144 +
STACK CFI 529aa .cfa: $rsp 8 +
STACK CFI INIT 529ab 39 .cfa: $rsp 8 + .ra: .cfa -8 + ^
STACK CFI 529af .cfa: $rsp 24 +
STACK CFI 529b1 .cfa: $rsp 32 +
STACK CFI 529b3 .cfa: $rsp 40 +
STACK CFI 529b5 .cfa: $rsp 48 +
STACK CFI 529b7 .cfa: $rsp 56 +
STACK CFI 529b9 .cfa: $rsp 64 +
STACK CFI 529bb .cfa: $rsp 72 +
STACK CFI 529bd .cfa: $rsp 80 +
STACK CFI 529bf .cfa: $rsp 88 +
STACK CFI 529c1 .cfa: $rsp 96 +
STACK CFI 529c3 .cfa: $rsp 104 +
STACK CFI 529c5 .cfa: $rsp 112 +
STACK CFI 529c7 .cfa: $rsp 120 +
STACK CFI 529c9 .cfa: $rsp 128 +
STACK CFI 529d0 .cfa: $rsp 136 +
STACK CFI 529d7 .cfa: $rsp 144 +
STACK CFI 529e3 .cfa: $rsp 8 +
STACK CFI INIT 529e4 39 .cfa: $rsp 8 + .ra: .cfa -8 + ^
STACK CFI 529e8 .cfa: $rsp 24 +
STACK CFI 529ea .cfa: $rsp 32 +
STACK CFI 529ec .cfa: $rsp 40 +
STACK CFI 529ee .cfa: $rsp 48 +
STACK CFI 529f0 .cfa: $rsp 56 +
STACK CFI 529f2 .cfa: $rsp 64 +
STACK CFI 529f4 .cfa: $rsp 72 +
STACK CFI 529f6 .cfa: $rsp 80 +
STACK CFI 529f8 .cfa: $rsp 88 +
STACK CFI 529fa .cfa: $rsp 96 +
STACK CFI 529fc .cfa: $rsp 104 +
STACK CFI 529fe .cfa: $rsp 112 +
STACK CFI 52a00 .cfa: $rsp 120 +
STACK CFI 52a02 .cfa: $rsp 128 +
STACK CFI 52a09 .cfa: $rsp 136 +
STACK CFI 52a10 .cfa: $rsp 144 +
STACK CFI 52a1c .cfa: $rsp 8 +
STACK CFI INIT 52a1d 39 .cfa: $rsp 8 + .ra: .cfa -8 + ^
STACK CFI 52a21 .cfa: $rsp 24 +
STACK CFI 52a23 .cfa: $rsp 32 +
STACK CFI 52a25 .cfa: $rsp 40 +
STACK CFI 52a27 .cfa: $rsp 48 +
STACK CFI 52a29 .cfa: $rsp 56 +
STACK CFI 52a2b .cfa: $rsp 64 +
STACK CFI 52a2d .cfa: $rsp 72 +
STACK CFI 52a2f .cfa: $rsp 80 +
STACK CFI 52a31 .cfa: $rsp 88 +
STACK CFI 52a33 .cfa: $rsp 96 +
STACK CFI 52a35 .cfa: $rsp 104 +
STACK CFI 52a37 .cfa: $rsp 112 +
STACK CFI 52a39 .cfa: $rsp 120 +
STACK CFI 52a3b .cfa: $rsp 128 +
STACK CFI 52a42 .cfa: $rsp 136 +
STACK CFI 52a49 .cfa: $rsp 144 +
STACK CFI 52a55 .cfa: $rsp 8 +
STACK CFI INIT 52a56 39 .cfa: $rsp 8 + .ra: .cfa -8 + ^
STACK CFI 52a5a .cfa: $rsp 24 +
STACK CFI 52a5c .cfa: $rsp 32 +
STACK CFI 52a5e .cfa: $rsp 40 +
STACK CFI 52a60 .cfa: $rsp 48 +
STACK CFI 52a62 .cfa: $rsp 56 +
STACK CFI 52a64 .cfa: $rsp 64 +
STACK CFI 52a66 .cfa: $rsp 72 +
STACK CFI 52a68 .cfa: $rsp 80 +
STACK CFI 52a6a .cfa: $rsp 88 +
STACK CFI 52a6c .cfa: $rsp 96 +
STACK CFI 52a6e .cfa: $rsp 104 +
STACK CFI 52a70 .cfa: $rsp 112 +
STACK CFI 52a72 .cfa: $rsp 120 +
STACK CFI 52a74 .cfa: $rsp 128 +
STACK CFI 52a7b .cfa: $rsp 136 +
STACK CFI 52a82 .cfa: $rsp 144 +
STACK CFI 52a8e .cfa: $rsp 8 +
STACK CFI INIT 52a8f 39 .cfa: $rsp 8 + .ra: .cfa -8 + ^
STACK CFI 52a93 .cfa: $rsp 24 +
STACK CFI 52a95 .cfa: $rsp 32 +
STACK CFI 52a97 .cfa: $rsp 40 +
STACK CFI 52a99 .cfa: $rsp 48 +
STACK CFI 52a9b .cfa: $rsp 56 +
STACK CFI 52a9d .cfa: $rsp 64 +
STACK CFI 52a9f .cfa: $rsp 72 +
STACK CFI 52aa1 .cfa: $rsp 80 +
STACK CFI 52aa3 .cfa: $rsp 88 +
STACK CFI 52aa5 .cfa: $rsp 96 +
STACK CFI 52aa7 .cfa: $rsp 104 +
STACK CFI 52aa9 .cfa: $rsp 112 +
STACK CFI 52aab .cfa: $rsp 120 +
STACK CFI 52aad .cfa: $rsp 128 +
STACK CFI 52ab4 .cfa: $rsp 136 +
STACK CFI 52abb .cfa: $rsp 144 +
STACK CFI 52ac7 .cfa: $rsp 8 +
STACK CFI INIT 52ac8 39 .cfa: $rsp 8 + .ra: .cfa -8 + ^
STACK CFI 52acc .cfa: $rsp 24 +
STACK CFI 52ace .cfa: $rsp 32 +
STACK CFI 52ad0 .cfa: $rsp 40 +
STACK CFI 52ad2 .cfa: $rsp 48 +
STACK CFI 52ad4 .cfa: $rsp 56 +
STACK CFI 52ad6 .cfa: $rsp 64 +
STACK CFI 52ad8 .cfa: $rsp 72 +
STACK CFI 52ada .cfa: $rsp 80 +
STACK CFI 52adc .cfa: $rsp 88 +
STACK CFI 52ade .cfa: $rsp 96 +
STACK CFI 52ae0 .cfa: $rsp 104 +
STACK CFI 52ae2 .cfa: $rsp 112 +
STACK CFI 52ae4 .cfa: $rsp 120 +
STACK CFI 52ae6 .cfa: $rsp 128 +
STACK CFI 52aed .cfa: $rsp 136 +
STACK CFI 52af4 .cfa: $rsp 144 +
STACK CFI 52b00 .cfa: $rsp 8 +
STACK CFI INIT 52b01 39 .cfa: $rsp 8 + .ra: .cfa -8 + ^
STACK CFI 52b05 .cfa: $rsp 24 +
STACK CFI 52b07 .cfa: $rsp 32 +
STACK CFI 52b09 .cfa: $rsp 40 +
STACK CFI 52b0b .cfa: $rsp 48 +
STACK CFI 52b0d .cfa: $rsp 56 +
STACK CFI 52b0f .cfa: $rsp 64 +
STACK CFI 52b11 .cfa: $rsp 72 +
STACK CFI 52b13 .cfa: $rsp 80 +
STACK CFI 52b15 .cfa: $rsp 88 +
STACK CFI 52b17 .cfa: $rsp 96 +
STACK CFI 52b19 .cfa: $rsp 104 +
STACK CFI 52b1b .cfa: $rsp 112 +
STACK CFI 52b1d .cfa: $rsp 120 +
STACK CFI 52b1f .cfa: $rsp 128 +
STACK CFI 52b26 .cfa: $rsp 136 +
STACK CFI 52b2d .cfa: $rsp 144 +
STACK CFI 52b39 .cfa: $rsp 8 +
STACK CFI INIT 52b3a 39 .cfa: $rsp 8 + .ra: .cfa -8 + ^
STACK CFI 52b3e .cfa: $rsp 24 +
STACK CFI 52b40 .cfa: $rsp 32 +
STACK CFI 52b42 .cfa: $rsp 40 +
STACK CFI 52b44 .cfa: $rsp 48 +
STACK CFI 52b46 .cfa: $rsp 56 +
STACK CFI 52b48 .cfa: $rsp 64 +
STACK CFI 52b4a .cfa: $rsp 72 +
STACK CFI 52b4c .cfa: $rsp 80 +
STACK CFI 52b4e .cfa: $rsp 88 +
STACK CFI 52b50 .cfa: $rsp 96 +
STACK CFI 52b52 .cfa: $rsp 104 +
STACK CFI 52b54 .cfa: $rsp 112 +
STACK CFI 52b56 .cfa: $rsp 120 +
STACK CFI 52b58 .cfa: $rsp 128 +
STACK CFI 52b5f .cfa: $rsp 136 +
STACK CFI 52b66 .cfa: $rsp 144 +
STACK CFI 52b72 .cfa: $rsp 8 +
STACK CFI INIT 52b73 39 .cfa: $rsp 8 + .ra: .cfa -8 + ^
STACK CFI 52b77 .cfa: $rsp 24 +
STACK CFI 52b79 .cfa: $rsp 32 +
STACK CFI 52b7b .cfa: $rsp 40 +
STACK CFI 52b7d .cfa: $rsp 48 +
STACK CFI 52b7f .cfa: $rsp 56 +
STACK CFI 52b81 .cfa: $rsp 64 +
STACK CFI 52b83 .cfa: $rsp 72 +
STACK CFI 52b85 .cfa: $rsp 80 +
STACK CFI 52b87 .cfa: $rsp 88 +
STACK CFI 52b89 .cfa: $rsp 96 +
STACK CFI 52b8b .cfa: $rsp 104 +
STACK CFI 52b8d .cfa: $rsp 112 +
STACK CFI 52b8f .cfa: $rsp 120 +
STACK CFI 52b91 .cfa: $rsp 128 +
STACK CFI 52b98 .cfa: $rsp 136 +
STACK CFI 52b9f .cfa: $rsp 144 +
STACK CFI 52bab .cfa: $rsp 8 +
STACK CFI INIT 52bac 39 .cfa: $rsp 8 + .ra: .cfa -8 + ^
STACK CFI 52bb0 .cfa: $rsp 24 +
STACK CFI 52bb2 .cfa: $rsp 32 +
STACK CFI 52bb4 .cfa: $rsp 40 +
STACK CFI 52bb6 .cfa: $rsp 48 +
STACK CFI 52bb8 .cfa: $rsp 56 +
STACK CFI 52bba .cfa: $rsp 64 +
STACK CFI 52bbc .cfa: $rsp 72 +
STACK CFI 52bbe .cfa: $rsp 80 +
STACK CFI 52bc0 .cfa: $rsp 88 +
STACK CFI 52bc2 .cfa: $rsp 96 +
STACK CFI 52bc4 .cfa: $rsp 104 +
STACK CFI 52bc6 .cfa: $rsp 112 +
STACK CFI 52bc8 .cfa: $rsp 120 +
STACK CFI 52bca .cfa: $rsp 128 +
STACK CFI 52bd1 .cfa: $rsp 136 +
STACK CFI 52bd8 .cfa: $rsp 144 +
STACK CFI 52be4 .cfa: $rsp 8 +
STACK CFI INIT 52be5 39 .cfa: $rsp 8 + .ra: .cfa -8 + ^
STACK CFI 52be9 .cfa: $rsp 24 +
STACK CFI 52beb .cfa: $rsp 32 +
STACK CFI 52bed .cfa: $rsp 40 +
STACK CFI 52bef .cfa: $rsp 48 +
STACK CFI 52bf1 .cfa: $rsp 56 +
STACK CFI 52bf3 .cfa: $rsp 64 +
STACK CFI 52bf5 .cfa: $rsp 72 +
STACK CFI 52bf7 .cfa: $rsp 80 +
STACK CFI 52bf9 .cfa: $rsp 88 +
STACK CFI 52bfb .cfa: $rsp 96 +
STACK CFI 52bfd .cfa: $rsp 104 +
STACK CFI 52bff .cfa: $rsp 112 +
STACK CFI 52c01 .cfa: $rsp 120 +
STACK CFI 52c03 .cfa: $rsp 128 +
STACK CFI 52c0a .cfa: $rsp 136 +
STACK CFI 52c11 .cfa: $rsp 144 +
STACK CFI 52c1d .cfa: $rsp 8 +
STACK CFI INIT 52c1e 39 .cfa: $rsp 8 + .ra: .cfa -8 + ^
STACK CFI 52c22 .cfa: $rsp 24 +
STACK CFI 52c24 .cfa: $rsp 32 +
STACK CFI 52c26 .cfa: $rsp 40 +
STACK CFI 52c28 .cfa: $rsp 48 +
STACK CFI 52c2a .cfa: $rsp 56 +
STACK CFI 52c2c .cfa: $rsp 64 +
STACK CFI 52c2e .cfa: $rsp 72 +
STACK CFI 52c30 .cfa: $rsp 80 +
STACK CFI 52c32 .cfa: $rsp 88 +
STACK CFI 52c34 .cfa: $rsp 96 +
STACK CFI 52c36 .cfa: $rsp 104 +
STACK CFI 52c38 .cfa: $rsp 112 +
STACK CFI 52c3a .cfa: $rsp 120 +
STACK CFI 52c3c .cfa: $rsp 128 +
STACK CFI 52c43 .cfa: $rsp 136 +
STACK CFI 52c4a .cfa: $rsp 144 +
STACK CFI 52c56 .cfa: $rsp 8 +
STACK CFI INIT 52c57 39 .cfa: $rsp 8 + .ra: .cfa -8 + ^
STACK CFI 52c5b .cfa: $rsp 24 +
STACK CFI 52c5d .cfa: $rsp 32 +
STACK CFI 52c5f .cfa: $rsp 40 +
STACK CFI 52c61 .cfa: $rsp 48 +
STACK CFI 52c63 .cfa: $rsp 56 +
STACK CFI 52c65 .cfa: $rsp 64 +
STACK CFI 52c67 .cfa: $rsp 72 +
STACK CFI 52c69 .cfa: $rsp 80 +
STACK CFI 52c6b .cfa: $rsp 88 +
STACK CFI 52c6d .cfa: $rsp 96 +
STACK CFI 52c6f .cfa: $rsp 104 +
STACK CFI 52c71 .cfa: $rsp 112 +
STACK CFI 52c73 .cfa: $rsp 120 +
STACK CFI 52c75 .cfa: $rsp 128 +
STACK CFI 52c7c .cfa: $rsp 136 +
STACK CFI 52c83 .cfa: $rsp 144 +
STACK CFI 52c8f .cfa: $rsp 8 +
STACK CFI INIT 52c90 39 .cfa: $rsp 8 + .ra: .cfa -8 + ^
STACK CFI 52c94 .cfa: $rsp 24 +
STACK CFI 52c96 .cfa: $rsp 32 +
STACK CFI 52c98 .cfa: $rsp 40 +
STACK CFI 52c9a .cfa: $rsp 48 +
STACK CFI 52c9c .cfa: $rsp 56 +
STACK CFI 52c9e .cfa: $rsp 64 +
STACK CFI 52ca0 .cfa: $rsp 72 +
STACK CFI 52ca2 .cfa: $rsp 80 +
STACK CFI 52ca4 .cfa: $rsp 88 +
STACK CFI 52ca6 .cfa: $rsp 96 +
STACK CFI 52ca8 .cfa: $rsp 104 +
STACK CFI 52caa .cfa: $rsp 112 +
STACK CFI 52cac .cfa: $rsp 120 +
STACK CFI 52cae .cfa: $rsp 128 +
STACK CFI 52cb5 .cfa: $rsp 136 +
STACK CFI 52cbc .cfa: $rsp 144 +
STACK CFI 52cc8 .cfa: $rsp 8 +
STACK CFI INIT 52cc9 39 .cfa: $rsp 8 + .ra: .cfa -8 + ^
STACK CFI 52ccd .cfa: $rsp 24 +
STACK CFI 52ccf .cfa: $rsp 32 +
STACK CFI 52cd1 .cfa: $rsp 40 +
STACK CFI 52cd3 .cfa: $rsp 48 +
STACK CFI 52cd5 .cfa: $rsp 56 +
STACK CFI 52cd7 .cfa: $rsp 64 +
STACK CFI 52cd9 .cfa: $rsp 72 +
STACK CFI 52cdb .cfa: $rsp 80 +
STACK CFI 52cdd .cfa: $rsp 88 +
STACK CFI 52cdf .cfa: $rsp 96 +
STACK CFI 52ce1 .cfa: $rsp 104 +
STACK CFI 52ce3 .cfa: $rsp 112 +
STACK CFI 52ce5 .cfa: $rsp 120 +
STACK CFI 52ce7 .cfa: $rsp 128 +
STACK CFI 52cee .cfa: $rsp 136 +
STACK CFI 52cf5 .cfa: $rsp 144 +
STACK CFI 52d01 .cfa: $rsp 8 +
STACK CFI INIT 52d02 39 .cfa: $rsp 8 + .ra: .cfa -8 + ^
STACK CFI 52d06 .cfa: $rsp 24 +
STACK CFI 52d08 .cfa: $rsp 32 +
STACK CFI 52d0a .cfa: $rsp 40 +
STACK CFI 52d0c .cfa: $rsp 48 +
STACK CFI 52d0e .cfa: $rsp 56 +
STACK CFI 52d10 .cfa: $rsp 64 +
STACK CFI 52d12 .cfa: $rsp 72 +
STACK CFI 52d14 .cfa: $rsp 80 +
STACK CFI 52d16 .cfa: $rsp 88 +
STACK CFI 52d18 .cfa: $rsp 96 +
STACK CFI 52d1a .cfa: $rsp 104 +
STACK CFI 52d1c .cfa: $rsp 112 +
STACK CFI 52d1e .cfa: $rsp 120 +
STACK CFI 52d20 .cfa: $rsp 128 +
STACK CFI 52d27 .cfa: $rsp 136 +
STACK CFI 52d2e .cfa: $rsp 144 +
STACK CFI 52d3a .cfa: $rsp 8 +
STACK CFI INIT 52d3b 39 .cfa: $rsp 8 + .ra: .cfa -8 + ^
STACK CFI 52d3f .cfa: $rsp 24 +
STACK CFI 52d41 .cfa: $rsp 32 +
STACK CFI 52d43 .cfa: $rsp 40 +
STACK CFI 52d45 .cfa: $rsp 48 +
STACK CFI 52d47 .cfa: $rsp 56 +
STACK CFI 52d49 .cfa: $rsp 64 +
STACK CFI 52d4b .cfa: $rsp 72 +
STACK CFI 52d4d .cfa: $rsp 80 +
STACK CFI 52d4f .cfa: $rsp 88 +
STACK CFI 52d51 .cfa: $rsp 96 +
STACK CFI 52d53 .cfa: $rsp 104 +
STACK CFI 52d55 .cfa: $rsp 112 +
STACK CFI 52d57 .cfa: $rsp 120 +
STACK CFI 52d59 .cfa: $rsp 128 +
STACK CFI 52d60 .cfa: $rsp 136 +
STACK CFI 52d67 .cfa: $rsp 144 +
STACK CFI 52d73 .cfa: $rsp 8 +
STACK CFI INIT 52d74 39 .cfa: $rsp 8 + .ra: .cfa -8 + ^
STACK CFI 52d78 .cfa: $rsp 24 +
STACK CFI 52d7a .cfa: $rsp 32 +
STACK CFI 52d7c .cfa: $rsp 40 +
STACK CFI 52d7e .cfa: $rsp 48 +
STACK CFI 52d80 .cfa: $rsp 56 +
STACK CFI 52d82 .cfa: $rsp 64 +
STACK CFI 52d84 .cfa: $rsp 72 +
STACK CFI 52d86 .cfa: $rsp 80 +
STACK CFI 52d88 .cfa: $rsp 88 +
STACK CFI 52d8a .cfa: $rsp 96 +
STACK CFI 52d8c .cfa: $rsp 104 +
STACK CFI 52d8e .cfa: $rsp 112 +
STACK CFI 52d90 .cfa: $rsp 120 +
STACK CFI 52d92 .cfa: $rsp 128 +
STACK CFI 52d99 .cfa: $rsp 136 +
STACK CFI 52da0 .cfa: $rsp 144 +
STACK CFI 52dac .cfa: $rsp 8 +
STACK CFI INIT 52dad 39 .cfa: $rsp 8 + .ra: .cfa -8 + ^
STACK CFI 52db1 .cfa: $rsp 24 +
STACK CFI 52db3 .cfa: $rsp 32 +
STACK CFI 52db5 .cfa: $rsp 40 +
STACK CFI 52db7 .cfa: $rsp 48 +
STACK CFI 52db9 .cfa: $rsp 56 +
STACK CFI 52dbb .cfa: $rsp 64 +
STACK CFI 52dbd .cfa: $rsp 72 +
STACK CFI 52dbf .cfa: $rsp 80 +
STACK CFI 52dc1 .cfa: $rsp 88 +
STACK CFI 52dc3 .cfa: $rsp 96 +
STACK CFI 52dc5 .cfa: $rsp 104 +
STACK CFI 52dc7 .cfa: $rsp 112 +
STACK CFI 52dc9 .cfa: $rsp 120 +
STACK CFI 52dcb .cfa: $rsp 128 +
STACK CFI 52dd2 .cfa: $rsp 136 +
STACK CFI 52dd9 .cfa: $rsp 144 +
STACK CFI 52de5 .cfa: $rsp 8 +
STACK CFI INIT 52de6 39 .cfa: $rsp 8 + .ra: .cfa -8 + ^
STACK CFI 52dea .cfa: $rsp 24 +
STACK CFI 52dec .cfa: $rsp 32 +
STACK CFI 52dee .cfa: $rsp 40 +
STACK CFI 52df0 .cfa: $rsp 48 +
STACK CFI 52df2 .cfa: $rsp 56 +
STACK CFI 52df4 .cfa: $rsp 64 +
STACK CFI 52df6 .cfa: $rsp 72 +
STACK CFI 52df8 .cfa: $rsp 80 +
STACK CFI 52dfa .cfa: $rsp 88 +
STACK CFI 52dfc .cfa: $rsp 96 +
STACK CFI 52dfe .cfa: $rsp 104 +
STACK CFI 52e00 .cfa: $rsp 112 +
STACK CFI 52e02 .cfa: $rsp 120 +
STACK CFI 52e04 .cfa: $rsp 128 +
STACK CFI 52e0b .cfa: $rsp 136 +
STACK CFI 52e12 .cfa: $rsp 144 +
STACK CFI 52e1e .cfa: $rsp 8 +
STACK CFI INIT 52e1f 39 .cfa: $rsp 8 + .ra: .cfa -8 + ^
STACK CFI 52e23 .cfa: $rsp 24 +
STACK CFI 52e25 .cfa: $rsp 32 +
STACK CFI 52e27 .cfa: $rsp 40 +
STACK CFI 52e29 .cfa: $rsp 48 +
STACK CFI 52e2b .cfa: $rsp 56 +
STACK CFI 52e2d .cfa: $rsp 64 +
STACK CFI 52e2f .cfa: $rsp 72 +
STACK CFI 52e31 .cfa: $rsp 80 +
STACK CFI 52e33 .cfa: $rsp 88 +
STACK CFI 52e35 .cfa: $rsp 96 +
STACK CFI 52e37 .cfa: $rsp 104 +
STACK CFI 52e39 .cfa: $rsp 112 +
STACK CFI 52e3b .cfa: $rsp 120 +
STACK CFI 52e3d .cfa: $rsp 128 +
STACK CFI 52e44 .cfa: $rsp 136 +
STACK CFI 52e4b .cfa: $rsp 144 +
STACK CFI 52e57 .cfa: $rsp 8 +
STACK CFI INIT 52e58 39 .cfa: $rsp 8 + .ra: .cfa -8 + ^
STACK CFI 52e5c .cfa: $rsp 24 +
STACK CFI 52e5e .cfa: $rsp 32 +
STACK CFI 52e60 .cfa: $rsp 40 +
STACK CFI 52e62 .cfa: $rsp 48 +
STACK CFI 52e64 .cfa: $rsp 56 +
STACK CFI 52e66 .cfa: $rsp 64 +
STACK CFI 52e68 .cfa: $rsp 72 +
STACK CFI 52e6a .cfa: $rsp 80 +
STACK CFI 52e6c .cfa: $rsp 88 +
STACK CFI 52e6e .cfa: $rsp 96 +
STACK CFI 52e70 .cfa: $rsp 104 +
STACK CFI 52e72 .cfa: $rsp 112 +
STACK CFI 52e74 .cfa: $rsp 120 +
STACK CFI 52e76 .cfa: $rsp 128 +
STACK CFI 52e7d .cfa: $rsp 136 +
STACK CFI 52e84 .cfa: $rsp 144 +
STACK CFI 52e90 .cfa: $rsp 8 +
STACK CFI INIT 52e91 39 .cfa: $rsp 8 + .ra: .cfa -8 + ^
STACK CFI 52e95 .cfa: $rsp 24 +
STACK CFI 52e97 .cfa: $rsp 32 +
STACK CFI 52e99 .cfa: $rsp 40 +
STACK CFI 52e9b .cfa: $rsp 48 +
STACK CFI 52e9d .cfa: $rsp 56 +
STACK CFI 52e9f .cfa: $rsp 64 +
STACK CFI 52ea1 .cfa: $rsp 72 +
STACK CFI 52ea3 .cfa: $rsp 80 +
STACK CFI 52ea5 .cfa: $rsp 88 +
STACK CFI 52ea7 .cfa: $rsp 96 +
STACK CFI 52ea9 .cfa: $rsp 104 +
STACK CFI 52eab .cfa: $rsp 112 +
STACK CFI 52ead .cfa: $rsp 120 +
STACK CFI 52eaf .cfa: $rsp 128 +
STACK CFI 52eb6 .cfa: $rsp 136 +
STACK CFI 52ebd .cfa: $rsp 144 +
STACK CFI 52ec9 .cfa: $rsp 8 +
STACK CFI INIT 52eca 39 .cfa: $rsp 8 + .ra: .cfa -8 + ^
STACK CFI 52ece .cfa: $rsp 24 +
STACK CFI 52ed0 .cfa: $rsp 32 +
STACK CFI 52ed2 .cfa: $rsp 40 +
STACK CFI 52ed4 .cfa: $rsp 48 +
STACK CFI 52ed6 .cfa: $rsp 56 +
STACK CFI 52ed8 .cfa: $rsp 64 +
STACK CFI 52eda .cfa: $rsp 72 +
STACK CFI 52edc .cfa: $rsp 80 +
STACK CFI 52ede .cfa: $rsp 88 +
STACK CFI 52ee0 .cfa: $rsp 96 +
STACK CFI 52ee2 .cfa: $rsp 104 +
STACK CFI 52ee4 .cfa: $rsp 112 +
STACK CFI 52ee6 .cfa: $rsp 120 +
STACK CFI 52ee8 .cfa: $rsp 128 +
STACK CFI 52eef .cfa: $rsp 136 +
STACK CFI 52ef6 .cfa: $rsp 144 +
STACK CFI 52f02 .cfa: $rsp 8 +
STACK CFI INIT 52f03 39 .cfa: $rsp 8 + .ra: .cfa -8 + ^
STACK CFI 52f07 .cfa: $rsp 24 +
STACK CFI 52f09 .cfa: $rsp 32 +
STACK CFI 52f0b .cfa: $rsp 40 +
STACK CFI 52f0d .cfa: $rsp 48 +
STACK CFI 52f0f .cfa: $rsp 56 +
STACK CFI 52f11 .cfa: $rsp 64 +
STACK CFI 52f13 .cfa: $rsp 72 +
STACK CFI 52f15 .cfa: $rsp 80 +
STACK CFI 52f17 .cfa: $rsp 88 +
STACK CFI 52f19 .cfa: $rsp 96 +
STACK CFI 52f1b .cfa: $rsp 104 +
STACK CFI 52f1d .cfa: $rsp 112 +
STACK CFI 52f1f .cfa: $rsp 120 +
STACK CFI 52f21 .cfa: $rsp 128 +
STACK CFI 52f28 .cfa: $rsp 136 +
STACK CFI 52f2f .cfa: $rsp 144 +
STACK CFI 52f3b .cfa: $rsp 8 +
STACK CFI INIT 52f3c 39 .cfa: $rsp 8 + .ra: .cfa -8 + ^
STACK CFI 52f40 .cfa: $rsp 24 +
STACK CFI 52f42 .cfa: $rsp 32 +
STACK CFI 52f44 .cfa: $rsp 40 +
STACK CFI 52f46 .cfa: $rsp 48 +
STACK CFI 52f48 .cfa: $rsp 56 +
STACK CFI 52f4a .cfa: $rsp 64 +
STACK CFI 52f4c .cfa: $rsp 72 +
STACK CFI 52f4e .cfa: $rsp 80 +
STACK CFI 52f50 .cfa: $rsp 88 +
STACK CFI 52f52 .cfa: $rsp 96 +
STACK CFI 52f54 .cfa: $rsp 104 +
STACK CFI 52f56 .cfa: $rsp 112 +
STACK CFI 52f58 .cfa: $rsp 120 +
STACK CFI 52f5a .cfa: $rsp 128 +
STACK CFI 52f61 .cfa: $rsp 136 +
STACK CFI 52f68 .cfa: $rsp 144 +
STACK CFI 52f74 .cfa: $rsp 8 +
STACK CFI INIT 52f75 39 .cfa: $rsp 8 + .ra: .cfa -8 + ^
STACK CFI 52f79 .cfa: $rsp 24 +
STACK CFI 52f7b .cfa: $rsp 32 +
STACK CFI 52f7d .cfa: $rsp 40 +
STACK CFI 52f7f .cfa: $rsp 48 +
STACK CFI 52f81 .cfa: $rsp 56 +
STACK CFI 52f83 .cfa: $rsp 64 +
STACK CFI 52f85 .cfa: $rsp 72 +
STACK CFI 52f87 .cfa: $rsp 80 +
STACK CFI 52f89 .cfa: $rsp 88 +
STACK CFI 52f8b .cfa: $rsp 96 +
STACK CFI 52f8d .cfa: $rsp 104 +
STACK CFI 52f8f .cfa: $rsp 112 +
STACK CFI 52f91 .cfa: $rsp 120 +
STACK CFI 52f93 .cfa: $rsp 128 +
STACK CFI 52f9a .cfa: $rsp 136 +
STACK CFI 52fa1 .cfa: $rsp 144 +
STACK CFI 52fad .cfa: $rsp 8 +
STACK CFI INIT 52fae 39 .cfa: $rsp 8 + .ra: .cfa -8 + ^
STACK CFI 52fb2 .cfa: $rsp 24 +
STACK CFI 52fb4 .cfa: $rsp 32 +
STACK CFI 52fb6 .cfa: $rsp 40 +
STACK CFI 52fb8 .cfa: $rsp 48 +
STACK CFI 52fba .cfa: $rsp 56 +
STACK CFI 52fbc .cfa: $rsp 64 +
STACK CFI 52fbe .cfa: $rsp 72 +
STACK CFI 52fc0 .cfa: $rsp 80 +
STACK CFI 52fc2 .cfa: $rsp 88 +
STACK CFI 52fc4 .cfa: $rsp 96 +
STACK CFI 52fc6 .cfa: $rsp 104 +
STACK CFI 52fc8 .cfa: $rsp 112 +
STACK CFI 52fca .cfa: $rsp 120 +
STACK CFI 52fcc .cfa: $rsp 128 +
STACK CFI 52fd3 .cfa: $rsp 136 +
STACK CFI 52fda .cfa: $rsp 144 +
STACK CFI 52fe6 .cfa: $rsp 8 +
STACK CFI INIT 52fe7 39 .cfa: $rsp 8 + .ra: .cfa -8 + ^
STACK CFI 52feb .cfa: $rsp 24 +
STACK CFI 52fed .cfa: $rsp 32 +
STACK CFI 52fef .cfa: $rsp 40 +
STACK CFI 52ff1 .cfa: $rsp 48 +
STACK CFI 52ff3 .cfa: $rsp 56 +
STACK CFI 52ff5 .cfa: $rsp 64 +
STACK CFI 52ff7 .cfa: $rsp 72 +
STACK CFI 52ff9 .cfa: $rsp 80 +
STACK CFI 52ffb .cfa: $rsp 88 +
STACK CFI 52ffd .cfa: $rsp 96 +
STACK CFI 52fff .cfa: $rsp 104 +
STACK CFI 53001 .cfa: $rsp 112 +
STACK CFI 53003 .cfa: $rsp 120 +
STACK CFI 53005 .cfa: $rsp 128 +
STACK CFI 5300c .cfa: $rsp 136 +
STACK CFI 53013 .cfa: $rsp 144 +
STACK CFI 5301f .cfa: $rsp 8 +
STACK CFI INIT 53020 39 .cfa: $rsp 8 + .ra: .cfa -8 + ^
STACK CFI 53024 .cfa: $rsp 24 +
STACK CFI 53026 .cfa: $rsp 32 +
STACK CFI 53028 .cfa: $rsp 40 +
STACK CFI 5302a .cfa: $rsp 48 +
STACK CFI 5302c .cfa: $rsp 56 +
STACK CFI 5302e .cfa: $rsp 64 +
STACK CFI 53030 .cfa: $rsp 72 +
STACK CFI 53032 .cfa: $rsp 80 +
STACK CFI 53034 .cfa: $rsp 88 +
STACK CFI 53036 .cfa: $rsp 96 +
STACK CFI 53038 .cfa: $rsp 104 +
STACK CFI 5303a .cfa: $rsp 112 +
STACK CFI 5303c .cfa: $rsp 120 +
STACK CFI 5303e .cfa: $rsp 128 +
STACK CFI 53045 .cfa: $rsp 136 +
STACK CFI 5304c .cfa: $rsp 144 +
STACK CFI 53058 .cfa: $rsp 8 +
STACK CFI INIT 53059 39 .cfa: $rsp 8 + .ra: .cfa -8 + ^
STACK CFI 5305d .cfa: $rsp 24 +
STACK CFI 5305f .cfa: $rsp 32 +
STACK CFI 53061 .cfa: $rsp 40 +
STACK CFI 53063 .cfa: $rsp 48 +
STACK CFI 53065 .cfa: $rsp 56 +
STACK CFI 53067 .cfa: $rsp 64 +
STACK CFI 53069 .cfa: $rsp 72 +
STACK CFI 5306b .cfa: $rsp 80 +
STACK CFI 5306d .cfa: $rsp 88 +
STACK CFI 5306f .cfa: $rsp 96 +
STACK CFI 53071 .cfa: $rsp 104 +
STACK CFI 53073 .cfa: $rsp 112 +
STACK CFI 53075 .cfa: $rsp 120 +
STACK CFI 53077 .cfa: $rsp 128 +
STACK CFI 5307e .cfa: $rsp 136 +
STACK CFI 53085 .cfa: $rsp 144 +
STACK CFI 53091 .cfa: $rsp 8 +
STACK CFI INIT 53092 39 .cfa: $rsp 8 + .ra: .cfa -8 + ^
STACK CFI 53096 .cfa: $rsp 24 +
STACK CFI 53098 .cfa: $rsp 32 +
STACK CFI 5309a .cfa: $rsp 40 +
STACK CFI 5309c .cfa: $rsp 48 +
STACK CFI 5309e .cfa: $rsp 56 +
STACK CFI 530a0 .cfa: $rsp 64 +
STACK CFI 530a2 .cfa: $rsp 72 +
STACK CFI 530a4 .cfa: $rsp 80 +
STACK CFI 530a6 .cfa: $rsp 88 +
STACK CFI 530a8 .cfa: $rsp 96 +
STACK CFI 530aa .cfa: $rsp 104 +
STACK CFI 530ac .cfa: $rsp 112 +
STACK CFI 530ae .cfa: $rsp 120 +
STACK CFI 530b0 .cfa: $rsp 128 +
STACK CFI 530b7 .cfa: $rsp 136 +
STACK CFI 530be .cfa: $rsp 144 +
STACK CFI 530ca .cfa: $rsp 8 +
STACK CFI INIT 530cb 39 .cfa: $rsp 8 + .ra: .cfa -8 + ^
STACK CFI 530cf .cfa: $rsp 24 +
STACK CFI 530d1 .cfa: $rsp 32 +
STACK CFI 530d3 .cfa: $rsp 40 +
STACK CFI 530d5 .cfa: $rsp 48 +
STACK CFI 530d7 .cfa: $rsp 56 +
STACK CFI 530d9 .cfa: $rsp 64 +
STACK CFI 530db .cfa: $rsp 72 +
STACK CFI 530dd .cfa: $rsp 80 +
STACK CFI 530df .cfa: $rsp 88 +
STACK CFI 530e1 .cfa: $rsp 96 +
STACK CFI 530e3 .cfa: $rsp 104 +
STACK CFI 530e5 .cfa: $rsp 112 +
STACK CFI 530e7 .cfa: $rsp 120 +
STACK CFI 530e9 .cfa: $rsp 128 +
STACK CFI 530f0 .cfa: $rsp 136 +
STACK CFI 530f7 .cfa: $rsp 144 +
STACK CFI 53103 .cfa: $rsp 8 +
STACK CFI INIT 53104 39 .cfa: $rsp 8 + .ra: .cfa -8 + ^
STACK CFI 53108 .cfa: $rsp 24 +
STACK CFI 5310a .cfa: $rsp 32 +
STACK CFI 5310c .cfa: $rsp 40 +
STACK CFI 5310e .cfa: $rsp 48 +
STACK CFI 53110 .cfa: $rsp 56 +
STACK CFI 53112 .cfa: $rsp 64 +
STACK CFI 53114 .cfa: $rsp 72 +
STACK CFI 53116 .cfa: $rsp 80 +
STACK CFI 53118 .cfa: $rsp 88 +
STACK CFI 5311a .cfa: $rsp 96 +
STACK CFI 5311c .cfa: $rsp 104 +
STACK CFI 5311e .cfa: $rsp 112 +
STACK CFI 53120 .cfa: $rsp 120 +
STACK CFI 53122 .cfa: $rsp 128 +
STACK CFI 53129 .cfa: $rsp 136 +
STACK CFI 53130 .cfa: $rsp 144 +
STACK CFI 5313c .cfa: $rsp 8 +
STACK CFI INIT 5313d 39 .cfa: $rsp 8 + .ra: .cfa -8 + ^
STACK CFI 53141 .cfa: $rsp 24 +
STACK CFI 53143 .cfa: $rsp 32 +
STACK CFI 53145 .cfa: $rsp 40 +
STACK CFI 53147 .cfa: $rsp 48 +
STACK CFI 53149 .cfa: $rsp 56 +
STACK CFI 5314b .cfa: $rsp 64 +
STACK CFI 5314d .cfa: $rsp 72 +
STACK CFI 5314f .cfa: $rsp 80 +
STACK CFI 53151 .cfa: $rsp 88 +
STACK CFI 53153 .cfa: $rsp 96 +
STACK CFI 53155 .cfa: $rsp 104 +
STACK CFI 53157 .cfa: $rsp 112 +
STACK CFI 53159 .cfa: $rsp 120 +
STACK CFI 5315b .cfa: $rsp 128 +
STACK CFI 53162 .cfa: $rsp 136 +
STACK CFI 53169 .cfa: $rsp 144 +
STACK CFI 53175 .cfa: $rsp 8 +
STACK CFI INIT 53176 39 .cfa: $rsp 8 + .ra: .cfa -8 + ^
STACK CFI 5317a .cfa: $rsp 24 +
STACK CFI 5317c .cfa: $rsp 32 +
STACK CFI 5317e .cfa: $rsp 40 +
STACK CFI 53180 .cfa: $rsp 48 +
STACK CFI 53182 .cfa: $rsp 56 +
STACK CFI 53184 .cfa: $rsp 64 +
STACK CFI 53186 .cfa: $rsp 72 +
STACK CFI 53188 .cfa: $rsp 80 +
STACK CFI 5318a .cfa: $rsp 88 +
STACK CFI 5318c .cfa: $rsp 96 +
STACK CFI 5318e .cfa: $rsp 104 +
STACK CFI 53190 .cfa: $rsp 112 +
STACK CFI 53192 .cfa: $rsp 120 +
STACK CFI 53194 .cfa: $rsp 128 +
STACK CFI 5319b .cfa: $rsp 136 +
STACK CFI 531a2 .cfa: $rsp 144 +
STACK CFI 531ae .cfa: $rsp 8 +
STACK CFI INIT 531af 39 .cfa: $rsp 8 + .ra: .cfa -8 + ^
STACK CFI 531b3 .cfa: $rsp 24 +
STACK CFI 531b5 .cfa: $rsp 32 +
STACK CFI 531b7 .cfa: $rsp 40 +
STACK CFI 531b9 .cfa: $rsp 48 +
STACK CFI 531bb .cfa: $rsp 56 +
STACK CFI 531bd .cfa: $rsp 64 +
STACK CFI 531bf .cfa: $rsp 72 +
STACK CFI 531c1 .cfa: $rsp 80 +
STACK CFI 531c3 .cfa: $rsp 88 +
STACK CFI 531c5 .cfa: $rsp 96 +
STACK CFI 531c7 .cfa: $rsp 104 +
STACK CFI 531c9 .cfa: $rsp 112 +
STACK CFI 531cb .cfa: $rsp 120 +
STACK CFI 531cd .cfa: $rsp 128 +
STACK CFI 531d4 .cfa: $rsp 136 +
STACK CFI 531db .cfa: $rsp 144 +
STACK CFI 531e7 .cfa: $rsp 8 +
STACK CFI INIT 531e8 39 .cfa: $rsp 8 + .ra: .cfa -8 + ^
STACK CFI 531ec .cfa: $rsp 24 +
STACK CFI 531ee .cfa: $rsp 32 +
STACK CFI 531f0 .cfa: $rsp 40 +
STACK CFI 531f2 .cfa: $rsp 48 +
STACK CFI 531f4 .cfa: $rsp 56 +
STACK CFI 531f6 .cfa: $rsp 64 +
STACK CFI 531f8 .cfa: $rsp 72 +
STACK CFI 531fa .cfa: $rsp 80 +
STACK CFI 531fc .cfa: $rsp 88 +
STACK CFI 531fe .cfa: $rsp 96 +
STACK CFI 53200 .cfa: $rsp 104 +
STACK CFI 53202 .cfa: $rsp 112 +
STACK CFI 53204 .cfa: $rsp 120 +
STACK CFI 53206 .cfa: $rsp 128 +
STACK CFI 5320d .cfa: $rsp 136 +
STACK CFI 53214 .cfa: $rsp 144 +
STACK CFI 53220 .cfa: $rsp 8 +
STACK CFI INIT 53221 39 .cfa: $rsp 8 + .ra: .cfa -8 + ^
STACK CFI 53225 .cfa: $rsp 24 +
STACK CFI 53227 .cfa: $rsp 32 +
STACK CFI 53229 .cfa: $rsp 40 +
STACK CFI 5322b .cfa: $rsp 48 +
STACK CFI 5322d .cfa: $rsp 56 +
STACK CFI 5322f .cfa: $rsp 64 +
STACK CFI 53231 .cfa: $rsp 72 +
STACK CFI 53233 .cfa: $rsp 80 +
STACK CFI 53235 .cfa: $rsp 88 +
STACK CFI 53237 .cfa: $rsp 96 +
STACK CFI 53239 .cfa: $rsp 104 +
STACK CFI 5323b .cfa: $rsp 112 +
STACK CFI 5323d .cfa: $rsp 120 +
STACK CFI 5323f .cfa: $rsp 128 +
STACK CFI 53246 .cfa: $rsp 136 +
STACK CFI 5324d .cfa: $rsp 144 +
STACK CFI 53259 .cfa: $rsp 8 +
STACK CFI INIT 5325a 39 .cfa: $rsp 8 + .ra: .cfa -8 + ^
STACK CFI 5325e .cfa: $rsp 24 +
STACK CFI 53260 .cfa: $rsp 32 +
STACK CFI 53262 .cfa: $rsp 40 +
STACK CFI 53264 .cfa: $rsp 48 +
STACK CFI 53266 .cfa: $rsp 56 +
STACK CFI 53268 .cfa: $rsp 64 +
STACK CFI 5326a .cfa: $rsp 72 +
STACK CFI 5326c .cfa: $rsp 80 +
STACK CFI 5326e .cfa: $rsp 88 +
STACK CFI 53270 .cfa: $rsp 96 +
STACK CFI 53272 .cfa: $rsp 104 +
STACK CFI 53274 .cfa: $rsp 112 +
STACK CFI 53276 .cfa: $rsp 120 +
STACK CFI 53278 .cfa: $rsp 128 +
STACK CFI 5327f .cfa: $rsp 136 +
STACK CFI 53286 .cfa: $rsp 144 +
STACK CFI 53292 .cfa: $rsp 8 +
STACK CFI INIT 53293 39 .cfa: $rsp 8 + .ra: .cfa -8 + ^
STACK CFI 53297 .cfa: $rsp 24 +
STACK CFI 53299 .cfa: $rsp 32 +
STACK CFI 5329b .cfa: $rsp 40 +
STACK CFI 5329d .cfa: $rsp 48 +
STACK CFI 5329f .cfa: $rsp 56 +
STACK CFI 532a1 .cfa: $rsp 64 +
STACK CFI 532a3 .cfa: $rsp 72 +
STACK CFI 532a5 .cfa: $rsp 80 +
STACK CFI 532a7 .cfa: $rsp 88 +
STACK CFI 532a9 .cfa: $rsp 96 +
STACK CFI 532ab .cfa: $rsp 104 +
STACK CFI 532ad .cfa: $rsp 112 +
STACK CFI 532af .cfa: $rsp 120 +
STACK CFI 532b1 .cfa: $rsp 128 +
STACK CFI 532b8 .cfa: $rsp 136 +
STACK CFI 532bf .cfa: $rsp 144 +
STACK CFI 532cb .cfa: $rsp 8 +
STACK CFI INIT 532cc 39 .cfa: $rsp 8 + .ra: .cfa -8 + ^
STACK CFI 532d0 .cfa: $rsp 24 +
STACK CFI 532d2 .cfa: $rsp 32 +
STACK CFI 532d4 .cfa: $rsp 40 +
STACK CFI 532d6 .cfa: $rsp 48 +
STACK CFI 532d8 .cfa: $rsp 56 +
STACK CFI 532da .cfa: $rsp 64 +
STACK CFI 532dc .cfa: $rsp 72 +
STACK CFI 532de .cfa: $rsp 80 +
STACK CFI 532e0 .cfa: $rsp 88 +
STACK CFI 532e2 .cfa: $rsp 96 +
STACK CFI 532e4 .cfa: $rsp 104 +
STACK CFI 532e6 .cfa: $rsp 112 +
STACK CFI 532e8 .cfa: $rsp 120 +
STACK CFI 532ea .cfa: $rsp 128 +
STACK CFI 532f1 .cfa: $rsp 136 +
STACK CFI 532f8 .cfa: $rsp 144 +
STACK CFI 53304 .cfa: $rsp 8 +
STACK CFI INIT 53305 39 .cfa: $rsp 8 + .ra: .cfa -8 + ^
STACK CFI 53309 .cfa: $rsp 24 +
STACK CFI 5330b .cfa: $rsp 32 +
STACK CFI 5330d .cfa: $rsp 40 +
STACK CFI 5330f .cfa: $rsp 48 +
STACK CFI 53311 .cfa: $rsp 56 +
STACK CFI 53313 .cfa: $rsp 64 +
STACK CFI 53315 .cfa: $rsp 72 +
STACK CFI 53317 .cfa: $rsp 80 +
STACK CFI 53319 .cfa: $rsp 88 +
STACK CFI 5331b .cfa: $rsp 96 +
STACK CFI 5331d .cfa: $rsp 104 +
STACK CFI 5331f .cfa: $rsp 112 +
STACK CFI 53321 .cfa: $rsp 120 +
STACK CFI 53323 .cfa: $rsp 128 +
STACK CFI 5332a .cfa: $rsp 136 +
STACK CFI 53331 .cfa: $rsp 144 +
STACK CFI 5333d .cfa: $rsp 8 +
STACK CFI INIT 5333e 39 .cfa: $rsp 8 + .ra: .cfa -8 + ^
STACK CFI 53342 .cfa: $rsp 24 +
STACK CFI 53344 .cfa: $rsp 32 +
STACK CFI 53346 .cfa: $rsp 40 +
STACK CFI 53348 .cfa: $rsp 48 +
STACK CFI 5334a .cfa: $rsp 56 +
STACK CFI 5334c .cfa: $rsp 64 +
STACK CFI 5334e .cfa: $rsp 72 +
STACK CFI 53350 .cfa: $rsp 80 +
STACK CFI 53352 .cfa: $rsp 88 +
STACK CFI 53354 .cfa: $rsp 96 +
STACK CFI 53356 .cfa: $rsp 104 +
STACK CFI 53358 .cfa: $rsp 112 +
STACK CFI 5335a .cfa: $rsp 120 +
STACK CFI 5335c .cfa: $rsp 128 +
STACK CFI 53363 .cfa: $rsp 136 +
STACK CFI 5336a .cfa: $rsp 144 +
STACK CFI 53376 .cfa: $rsp 8 +
STACK CFI INIT 53377 39 .cfa: $rsp 8 + .ra: .cfa -8 + ^
STACK CFI 5337b .cfa: $rsp 24 +
STACK CFI 5337d .cfa: $rsp 32 +
STACK CFI 5337f .cfa: $rsp 40 +
STACK CFI 53381 .cfa: $rsp 48 +
STACK CFI 53383 .cfa: $rsp 56 +
STACK CFI 53385 .cfa: $rsp 64 +
STACK CFI 53387 .cfa: $rsp 72 +
STACK CFI 53389 .cfa: $rsp 80 +
STACK CFI 5338b .cfa: $rsp 88 +
STACK CFI 5338d .cfa: $rsp 96 +
STACK CFI 5338f .cfa: $rsp 104 +
STACK CFI 53391 .cfa: $rsp 112 +
STACK CFI 53393 .cfa: $rsp 120 +
STACK CFI 53395 .cfa: $rsp 128 +
STACK CFI 5339c .cfa: $rsp 136 +
STACK CFI 533a3 .cfa: $rsp 144 +
STACK CFI 533af .cfa: $rsp 8 +
STACK CFI INIT 533b0 39 .cfa: $rsp 8 + .ra: .cfa -8 + ^
STACK CFI 533b4 .cfa: $rsp 24 +
STACK CFI 533b6 .cfa: $rsp 32 +
STACK CFI 533b8 .cfa: $rsp 40 +
STACK CFI 533ba .cfa: $rsp 48 +
STACK CFI 533bc .cfa: $rsp 56 +
STACK CFI 533be .cfa: $rsp 64 +
STACK CFI 533c0 .cfa: $rsp 72 +
STACK CFI 533c2 .cfa: $rsp 80 +
STACK CFI 533c4 .cfa: $rsp 88 +
STACK CFI 533c6 .cfa: $rsp 96 +
STACK CFI 533c8 .cfa: $rsp 104 +
STACK CFI 533ca .cfa: $rsp 112 +
STACK CFI 533cc .cfa: $rsp 120 +
STACK CFI 533ce .cfa: $rsp 128 +
STACK CFI 533d5 .cfa: $rsp 136 +
STACK CFI 533dc .cfa: $rsp 144 +
STACK CFI 533e8 .cfa: $rsp 8 +
STACK CFI INIT 533e9 39 .cfa: $rsp 8 + .ra: .cfa -8 + ^
STACK CFI 533ed .cfa: $rsp 24 +
STACK CFI 533ef .cfa: $rsp 32 +
STACK CFI 533f1 .cfa: $rsp 40 +
STACK CFI 533f3 .cfa: $rsp 48 +
STACK CFI 533f5 .cfa: $rsp 56 +
STACK CFI 533f7 .cfa: $rsp 64 +
STACK CFI 533f9 .cfa: $rsp 72 +
STACK CFI 533fb .cfa: $rsp 80 +
STACK CFI 533fd .cfa: $rsp 88 +
STACK CFI 533ff .cfa: $rsp 96 +
STACK CFI 53401 .cfa: $rsp 104 +
STACK CFI 53403 .cfa: $rsp 112 +
STACK CFI 53405 .cfa: $rsp 120 +
STACK CFI 53407 .cfa: $rsp 128 +
STACK CFI 5340e .cfa: $rsp 136 +
STACK CFI 53415 .cfa: $rsp 144 +
STACK CFI 53421 .cfa: $rsp 8 +
STACK CFI INIT 53422 39 .cfa: $rsp 8 + .ra: .cfa -8 + ^
STACK CFI 53426 .cfa: $rsp 24 +
STACK CFI 53428 .cfa: $rsp 32 +
STACK CFI 5342a .cfa: $rsp 40 +
STACK CFI 5342c .cfa: $rsp 48 +
STACK CFI 5342e .cfa: $rsp 56 +
STACK CFI 53430 .cfa: $rsp 64 +
STACK CFI 53432 .cfa: $rsp 72 +
STACK CFI 53434 .cfa: $rsp 80 +
STACK CFI 53436 .cfa: $rsp 88 +
STACK CFI 53438 .cfa: $rsp 96 +
STACK CFI 5343a .cfa: $rsp 104 +
STACK CFI 5343c .cfa: $rsp 112 +
STACK CFI 5343e .cfa: $rsp 120 +
STACK CFI 53440 .cfa: $rsp 128 +
STACK CFI 53447 .cfa: $rsp 136 +
STACK CFI 5344e .cfa: $rsp 144 +
STACK CFI 5345a .cfa: $rsp 8 +
STACK CFI INIT 5345b 39 .cfa: $rsp 8 + .ra: .cfa -8 + ^
STACK CFI 5345f .cfa: $rsp 24 +
STACK CFI 53461 .cfa: $rsp 32 +
STACK CFI 53463 .cfa: $rsp 40 +
STACK CFI 53465 .cfa: $rsp 48 +
STACK CFI 53467 .cfa: $rsp 56 +
STACK CFI 53469 .cfa: $rsp 64 +
STACK CFI 5346b .cfa: $rsp 72 +
STACK CFI 5346d .cfa: $rsp 80 +
STACK CFI 5346f .cfa: $rsp 88 +
STACK CFI 53471 .cfa: $rsp 96 +
STACK CFI 53473 .cfa: $rsp 104 +
STACK CFI 53475 .cfa: $rsp 112 +
STACK CFI 53477 .cfa: $rsp 120 +
STACK CFI 53479 .cfa: $rsp 128 +
STACK CFI 53480 .cfa: $rsp 136 +
STACK CFI 53487 .cfa: $rsp 144 +
STACK CFI 53493 .cfa: $rsp 8 +
STACK CFI INIT 53494 39 .cfa: $rsp 8 + .ra: .cfa -8 + ^
STACK CFI 53498 .cfa: $rsp 24 +
STACK CFI 5349a .cfa: $rsp 32 +
STACK CFI 5349c .cfa: $rsp 40 +
STACK CFI 5349e .cfa: $rsp 48 +
STACK CFI 534a0 .cfa: $rsp 56 +
STACK CFI 534a2 .cfa: $rsp 64 +
STACK CFI 534a4 .cfa: $rsp 72 +
STACK CFI 534a6 .cfa: $rsp 80 +
STACK CFI 534a8 .cfa: $rsp 88 +
STACK CFI 534aa .cfa: $rsp 96 +
STACK CFI 534ac .cfa: $rsp 104 +
STACK CFI 534ae .cfa: $rsp 112 +
STACK CFI 534b0 .cfa: $rsp 120 +
STACK CFI 534b2 .cfa: $rsp 128 +
STACK CFI 534b9 .cfa: $rsp 136 +
STACK CFI 534c0 .cfa: $rsp 144 +
STACK CFI 534cc .cfa: $rsp 8 +
STACK CFI INIT 534cd 39 .cfa: $rsp 8 + .ra: .cfa -8 + ^
STACK CFI 534d1 .cfa: $rsp 24 +
STACK CFI 534d3 .cfa: $rsp 32 +
STACK CFI 534d5 .cfa: $rsp 40 +
STACK CFI 534d7 .cfa: $rsp 48 +
STACK CFI 534d9 .cfa: $rsp 56 +
STACK CFI 534db .cfa: $rsp 64 +
STACK CFI 534dd .cfa: $rsp 72 +
STACK CFI 534df .cfa: $rsp 80 +
STACK CFI 534e1 .cfa: $rsp 88 +
STACK CFI 534e3 .cfa: $rsp 96 +
STACK CFI 534e5 .cfa: $rsp 104 +
STACK CFI 534e7 .cfa: $rsp 112 +
STACK CFI 534e9 .cfa: $rsp 120 +
STACK CFI 534eb .cfa: $rsp 128 +
STACK CFI 534f2 .cfa: $rsp 136 +
STACK CFI 534f9 .cfa: $rsp 144 +
STACK CFI 53505 .cfa: $rsp 8 +
STACK CFI INIT 53506 39 .cfa: $rsp 8 + .ra: .cfa -8 + ^
STACK CFI 5350a .cfa: $rsp 24 +
STACK CFI 5350c .cfa: $rsp 32 +
STACK CFI 5350e .cfa: $rsp 40 +
STACK CFI 53510 .cfa: $rsp 48 +
STACK CFI 53512 .cfa: $rsp 56 +
STACK CFI 53514 .cfa: $rsp 64 +
STACK CFI 53516 .cfa: $rsp 72 +
STACK CFI 53518 .cfa: $rsp 80 +
STACK CFI 5351a .cfa: $rsp 88 +
STACK CFI 5351c .cfa: $rsp 96 +
STACK CFI 5351e .cfa: $rsp 104 +
STACK CFI 53520 .cfa: $rsp 112 +
STACK CFI 53522 .cfa: $rsp 120 +
STACK CFI 53524 .cfa: $rsp 128 +
STACK CFI 5352b .cfa: $rsp 136 +
STACK CFI 53532 .cfa: $rsp 144 +
STACK CFI 5353e .cfa: $rsp 8 +
STACK CFI INIT 5353f 39 .cfa: $rsp 8 + .ra: .cfa -8 + ^
STACK CFI 53543 .cfa: $rsp 24 +
STACK CFI 53545 .cfa: $rsp 32 +
STACK CFI 53547 .cfa: $rsp 40 +
STACK CFI 53549 .cfa: $rsp 48 +
STACK CFI 5354b .cfa: $rsp 56 +
STACK CFI 5354d .cfa: $rsp 64 +
STACK CFI 5354f .cfa: $rsp 72 +
STACK CFI 53551 .cfa: $rsp 80 +
STACK CFI 53553 .cfa: $rsp 88 +
STACK CFI 53555 .cfa: $rsp 96 +
STACK CFI 53557 .cfa: $rsp 104 +
STACK CFI 53559 .cfa: $rsp 112 +
STACK CFI 5355b .cfa: $rsp 120 +
STACK CFI 5355d .cfa: $rsp 128 +
STACK CFI 53564 .cfa: $rsp 136 +
STACK CFI 5356b .cfa: $rsp 144 +
STACK CFI 53577 .cfa: $rsp 8 +
STACK CFI INIT 53578 39 .cfa: $rsp 8 + .ra: .cfa -8 + ^
STACK CFI 5357c .cfa: $rsp 24 +
STACK CFI 5357e .cfa: $rsp 32 +
STACK CFI 53580 .cfa: $rsp 40 +
STACK CFI 53582 .cfa: $rsp 48 +
STACK CFI 53584 .cfa: $rsp 56 +
STACK CFI 53586 .cfa: $rsp 64 +
STACK CFI 53588 .cfa: $rsp 72 +
STACK CFI 5358a .cfa: $rsp 80 +
STACK CFI 5358c .cfa: $rsp 88 +
STACK CFI 5358e .cfa: $rsp 96 +
STACK CFI 53590 .cfa: $rsp 104 +
STACK CFI 53592 .cfa: $rsp 112 +
STACK CFI 53594 .cfa: $rsp 120 +
STACK CFI 53596 .cfa: $rsp 128 +
STACK CFI 5359d .cfa: $rsp 136 +
STACK CFI 535a4 .cfa: $rsp 144 +
STACK CFI 535b0 .cfa: $rsp 8 +
STACK CFI INIT 535b1 39 .cfa: $rsp 8 + .ra: .cfa -8 + ^
STACK CFI 535b5 .cfa: $rsp 24 +
STACK CFI 535b7 .cfa: $rsp 32 +
STACK CFI 535b9 .cfa: $rsp 40 +
STACK CFI 535bb .cfa: $rsp 48 +
STACK CFI 535bd .cfa: $rsp 56 +
STACK CFI 535bf .cfa: $rsp 64 +
STACK CFI 535c1 .cfa: $rsp 72 +
STACK CFI 535c3 .cfa: $rsp 80 +
STACK CFI 535c5 .cfa: $rsp 88 +
STACK CFI 535c7 .cfa: $rsp 96 +
STACK CFI 535c9 .cfa: $rsp 104 +
STACK CFI 535cb .cfa: $rsp 112 +
STACK CFI 535cd .cfa: $rsp 120 +
STACK CFI 535cf .cfa: $rsp 128 +
STACK CFI 535d6 .cfa: $rsp 136 +
STACK CFI 535dd .cfa: $rsp 144 +
STACK CFI 535e9 .cfa: $rsp 8 +
STACK CFI INIT 535ea 39 .cfa: $rsp 8 + .ra: .cfa -8 + ^
STACK CFI 535ee .cfa: $rsp 24 +
STACK CFI 535f0 .cfa: $rsp 32 +
STACK CFI 535f2 .cfa: $rsp 40 +
STACK CFI 535f4 .cfa: $rsp 48 +
STACK CFI 535f6 .cfa: $rsp 56 +
STACK CFI 535f8 .cfa: $rsp 64 +
STACK CFI 535fa .cfa: $rsp 72 +
STACK CFI 535fc .cfa: $rsp 80 +
STACK CFI 535fe .cfa: $rsp 88 +
STACK CFI 53600 .cfa: $rsp 96 +
STACK CFI 53602 .cfa: $rsp 104 +
STACK CFI 53604 .cfa: $rsp 112 +
STACK CFI 53606 .cfa: $rsp 120 +
STACK CFI 53608 .cfa: $rsp 128 +
STACK CFI 5360f .cfa: $rsp 136 +
STACK CFI 53616 .cfa: $rsp 144 +
STACK CFI 53622 .cfa: $rsp 8 +
STACK CFI INIT 53623 39 .cfa: $rsp 8 + .ra: .cfa -8 + ^
STACK CFI 53627 .cfa: $rsp 24 +
STACK CFI 53629 .cfa: $rsp 32 +
STACK CFI 5362b .cfa: $rsp 40 +
STACK CFI 5362d .cfa: $rsp 48 +
STACK CFI 5362f .cfa: $rsp 56 +
STACK CFI 53631 .cfa: $rsp 64 +
STACK CFI 53633 .cfa: $rsp 72 +
STACK CFI 53635 .cfa: $rsp 80 +
STACK CFI 53637 .cfa: $rsp 88 +
STACK CFI 53639 .cfa: $rsp 96 +
STACK CFI 5363b .cfa: $rsp 104 +
STACK CFI 5363d .cfa: $rsp 112 +
STACK CFI 5363f .cfa: $rsp 120 +
STACK CFI 53641 .cfa: $rsp 128 +
STACK CFI 53648 .cfa: $rsp 136 +
STACK CFI 5364f .cfa: $rsp 144 +
STACK CFI 5365b .cfa: $rsp 8 +
STACK CFI INIT 5365c 39 .cfa: $rsp 8 + .ra: .cfa -8 + ^
STACK CFI 53660 .cfa: $rsp 24 +
STACK CFI 53662 .cfa: $rsp 32 +
STACK CFI 53664 .cfa: $rsp 40 +
STACK CFI 53666 .cfa: $rsp 48 +
STACK CFI 53668 .cfa: $rsp 56 +
STACK CFI 5366a .cfa: $rsp 64 +
STACK CFI 5366c .cfa: $rsp 72 +
STACK CFI 5366e .cfa: $rsp 80 +
STACK CFI 53670 .cfa: $rsp 88 +
STACK CFI 53672 .cfa: $rsp 96 +
STACK CFI 53674 .cfa: $rsp 104 +
STACK CFI 53676 .cfa: $rsp 112 +
STACK CFI 53678 .cfa: $rsp 120 +
STACK CFI 5367a .cfa: $rsp 128 +
STACK CFI 53681 .cfa: $rsp 136 +
STACK CFI 53688 .cfa: $rsp 144 +
STACK CFI 53694 .cfa: $rsp 8 +
STACK CFI INIT 53695 39 .cfa: $rsp 8 + .ra: .cfa -8 + ^
STACK CFI 53699 .cfa: $rsp 24 +
STACK CFI 5369b .cfa: $rsp 32 +
STACK CFI 5369d .cfa: $rsp 40 +
STACK CFI 5369f .cfa: $rsp 48 +
STACK CFI 536a1 .cfa: $rsp 56 +
STACK CFI 536a3 .cfa: $rsp 64 +
STACK CFI 536a5 .cfa: $rsp 72 +
STACK CFI 536a7 .cfa: $rsp 80 +
STACK CFI 536a9 .cfa: $rsp 88 +
STACK CFI 536ab .cfa: $rsp 96 +
STACK CFI 536ad .cfa: $rsp 104 +
STACK CFI 536af .cfa: $rsp 112 +
STACK CFI 536b1 .cfa: $rsp 120 +
STACK CFI 536b3 .cfa: $rsp 128 +
STACK CFI 536ba .cfa: $rsp 136 +
STACK CFI 536c1 .cfa: $rsp 144 +
STACK CFI 536cd .cfa: $rsp 8 +
STACK CFI INIT 536ce 39 .cfa: $rsp 8 + .ra: .cfa -8 + ^
STACK CFI 536d2 .cfa: $rsp 24 +
STACK CFI 536d4 .cfa: $rsp 32 +
STACK CFI 536d6 .cfa: $rsp 40 +
STACK CFI 536d8 .cfa: $rsp 48 +
STACK CFI 536da .cfa: $rsp 56 +
STACK CFI 536dc .cfa: $rsp 64 +
STACK CFI 536de .cfa: $rsp 72 +
STACK CFI 536e0 .cfa: $rsp 80 +
STACK CFI 536e2 .cfa: $rsp 88 +
STACK CFI 536e4 .cfa: $rsp 96 +
STACK CFI 536e6 .cfa: $rsp 104 +
STACK CFI 536e8 .cfa: $rsp 112 +
STACK CFI 536ea .cfa: $rsp 120 +
STACK CFI 536ec .cfa: $rsp 128 +
STACK CFI 536f3 .cfa: $rsp 136 +
STACK CFI 536fa .cfa: $rsp 144 +
STACK CFI 53706 .cfa: $rsp 8 +
STACK CFI INIT 53707 39 .cfa: $rsp 8 + .ra: .cfa -8 + ^
STACK CFI 5370b .cfa: $rsp 24 +
STACK CFI 5370d .cfa: $rsp 32 +
STACK CFI 5370f .cfa: $rsp 40 +
STACK CFI 53711 .cfa: $rsp 48 +
STACK CFI 53713 .cfa: $rsp 56 +
STACK CFI 53715 .cfa: $rsp 64 +
STACK CFI 53717 .cfa: $rsp 72 +
STACK CFI 53719 .cfa: $rsp 80 +
STACK CFI 5371b .cfa: $rsp 88 +
STACK CFI 5371d .cfa: $rsp 96 +
STACK CFI 5371f .cfa: $rsp 104 +
STACK CFI 53721 .cfa: $rsp 112 +
STACK CFI 53723 .cfa: $rsp 120 +
STACK CFI 53725 .cfa: $rsp 128 +
STACK CFI 5372c .cfa: $rsp 136 +
STACK CFI 53733 .cfa: $rsp 144 +
STACK CFI 5373f .cfa: $rsp 8 +
STACK CFI INIT 53740 39 .cfa: $rsp 8 + .ra: .cfa -8 + ^
STACK CFI 53744 .cfa: $rsp 24 +
STACK CFI 53746 .cfa: $rsp 32 +
STACK CFI 53748 .cfa: $rsp 40 +
STACK CFI 5374a .cfa: $rsp 48 +
STACK CFI 5374c .cfa: $rsp 56 +
STACK CFI 5374e .cfa: $rsp 64 +
STACK CFI 53750 .cfa: $rsp 72 +
STACK CFI 53752 .cfa: $rsp 80 +
STACK CFI 53754 .cfa: $rsp 88 +
STACK CFI 53756 .cfa: $rsp 96 +
STACK CFI 53758 .cfa: $rsp 104 +
STACK CFI 5375a .cfa: $rsp 112 +
STACK CFI 5375c .cfa: $rsp 120 +
STACK CFI 5375e .cfa: $rsp 128 +
STACK CFI 53765 .cfa: $rsp 136 +
STACK CFI 5376c .cfa: $rsp 144 +
STACK CFI 53778 .cfa: $rsp 8 +
STACK CFI INIT 53779 39 .cfa: $rsp 8 + .ra: .cfa -8 + ^
STACK CFI 5377d .cfa: $rsp 24 +
STACK CFI 5377f .cfa: $rsp 32 +
STACK CFI 53781 .cfa: $rsp 40 +
STACK CFI 53783 .cfa: $rsp 48 +
STACK CFI 53785 .cfa: $rsp 56 +
STACK CFI 53787 .cfa: $rsp 64 +
STACK CFI 53789 .cfa: $rsp 72 +
STACK CFI 5378b .cfa: $rsp 80 +
STACK CFI 5378d .cfa: $rsp 88 +
STACK CFI 5378f .cfa: $rsp 96 +
STACK CFI 53791 .cfa: $rsp 104 +
STACK CFI 53793 .cfa: $rsp 112 +
STACK CFI 53795 .cfa: $rsp 120 +
STACK CFI 53797 .cfa: $rsp 128 +
STACK CFI 5379e .cfa: $rsp 136 +
STACK CFI 537a5 .cfa: $rsp 144 +
STACK CFI 537b1 .cfa: $rsp 8 +
STACK CFI INIT 537b2 39 .cfa: $rsp 8 + .ra: .cfa -8 + ^
STACK CFI 537b6 .cfa: $rsp 24 +
STACK CFI 537b8 .cfa: $rsp 32 +
STACK CFI 537ba .cfa: $rsp 40 +
STACK CFI 537bc .cfa: $rsp 48 +
STACK CFI 537be .cfa: $rsp 56 +
STACK CFI 537c0 .cfa: $rsp 64 +
STACK CFI 537c2 .cfa: $rsp 72 +
STACK CFI 537c4 .cfa: $rsp 80 +
STACK CFI 537c6 .cfa: $rsp 88 +
STACK CFI 537c8 .cfa: $rsp 96 +
STACK CFI 537ca .cfa: $rsp 104 +
STACK CFI 537cc .cfa: $rsp 112 +
STACK CFI 537ce .cfa: $rsp 120 +
STACK CFI 537d0 .cfa: $rsp 128 +
STACK CFI 537d7 .cfa: $rsp 136 +
STACK CFI 537de .cfa: $rsp 144 +
STACK CFI 537ea .cfa: $rsp 8 +
STACK CFI INIT 537eb 39 .cfa: $rsp 8 + .ra: .cfa -8 + ^
STACK CFI 537ef .cfa: $rsp 24 +
STACK CFI 537f1 .cfa: $rsp 32 +
STACK CFI 537f3 .cfa: $rsp 40 +
STACK CFI 537f5 .cfa: $rsp 48 +
STACK CFI 537f7 .cfa: $rsp 56 +
STACK CFI 537f9 .cfa: $rsp 64 +
STACK CFI 537fb .cfa: $rsp 72 +
STACK CFI 537fd .cfa: $rsp 80 +
STACK CFI 537ff .cfa: $rsp 88 +
STACK CFI 53801 .cfa: $rsp 96 +
STACK CFI 53803 .cfa: $rsp 104 +
STACK CFI 53805 .cfa: $rsp 112 +
STACK CFI 53807 .cfa: $rsp 120 +
STACK CFI 53809 .cfa: $rsp 128 +
STACK CFI 53810 .cfa: $rsp 136 +
STACK CFI 53817 .cfa: $rsp 144 +
STACK CFI 53823 .cfa: $rsp 8 +
STACK CFI INIT 53824 39 .cfa: $rsp 8 + .ra: .cfa -8 + ^
STACK CFI 53828 .cfa: $rsp 24 +
STACK CFI 5382a .cfa: $rsp 32 +
STACK CFI 5382c .cfa: $rsp 40 +
STACK CFI 5382e .cfa: $rsp 48 +
STACK CFI 53830 .cfa: $rsp 56 +
STACK CFI 53832 .cfa: $rsp 64 +
STACK CFI 53834 .cfa: $rsp 72 +
STACK CFI 53836 .cfa: $rsp 80 +
STACK CFI 53838 .cfa: $rsp 88 +
STACK CFI 5383a .cfa: $rsp 96 +
STACK CFI 5383c .cfa: $rsp 104 +
STACK CFI 5383e .cfa: $rsp 112 +
STACK CFI 53840 .cfa: $rsp 120 +
STACK CFI 53842 .cfa: $rsp 128 +
STACK CFI 53849 .cfa: $rsp 136 +
STACK CFI 53850 .cfa: $rsp 144 +
STACK CFI 5385c .cfa: $rsp 8 +
STACK CFI INIT 5385d 39 .cfa: $rsp 8 + .ra: .cfa -8 + ^
STACK CFI 53861 .cfa: $rsp 24 +
STACK CFI 53863 .cfa: $rsp 32 +
STACK CFI 53865 .cfa: $rsp 40 +
STACK CFI 53867 .cfa: $rsp 48 +
STACK CFI 53869 .cfa: $rsp 56 +
STACK CFI 5386b .cfa: $rsp 64 +
STACK CFI 5386d .cfa: $rsp 72 +
STACK CFI 5386f .cfa: $rsp 80 +
STACK CFI 53871 .cfa: $rsp 88 +
STACK CFI 53873 .cfa: $rsp 96 +
STACK CFI 53875 .cfa: $rsp 104 +
STACK CFI 53877 .cfa: $rsp 112 +
STACK CFI 53879 .cfa: $rsp 120 +
STACK CFI 5387b .cfa: $rsp 128 +
STACK CFI 53882 .cfa: $rsp 136 +
STACK CFI 53889 .cfa: $rsp 144 +
STACK CFI 53895 .cfa: $rsp 8 +
STACK CFI INIT 53896 39 .cfa: $rsp 8 + .ra: .cfa -8 + ^
STACK CFI 5389a .cfa: $rsp 24 +
STACK CFI 5389c .cfa: $rsp 32 +
STACK CFI 5389e .cfa: $rsp 40 +
STACK CFI 538a0 .cfa: $rsp 48 +
STACK CFI 538a2 .cfa: $rsp 56 +
STACK CFI 538a4 .cfa: $rsp 64 +
STACK CFI 538a6 .cfa: $rsp 72 +
STACK CFI 538a8 .cfa: $rsp 80 +
STACK CFI 538aa .cfa: $rsp 88 +
STACK CFI 538ac .cfa: $rsp 96 +
STACK CFI 538ae .cfa: $rsp 104 +
STACK CFI 538b0 .cfa: $rsp 112 +
STACK CFI 538b2 .cfa: $rsp 120 +
STACK CFI 538b4 .cfa: $rsp 128 +
STACK CFI 538bb .cfa: $rsp 136 +
STACK CFI 538c2 .cfa: $rsp 144 +
STACK CFI 538ce .cfa: $rsp 8 +
STACK CFI INIT 538cf 39 .cfa: $rsp 8 + .ra: .cfa -8 + ^
STACK CFI 538d3 .cfa: $rsp 24 +
STACK CFI 538d5 .cfa: $rsp 32 +
STACK CFI 538d7 .cfa: $rsp 40 +
STACK CFI 538d9 .cfa: $rsp 48 +
STACK CFI 538db .cfa: $rsp 56 +
STACK CFI 538dd .cfa: $rsp 64 +
STACK CFI 538df .cfa: $rsp 72 +
STACK CFI 538e1 .cfa: $rsp 80 +
STACK CFI 538e3 .cfa: $rsp 88 +
STACK CFI 538e5 .cfa: $rsp 96 +
STACK CFI 538e7 .cfa: $rsp 104 +
STACK CFI 538e9 .cfa: $rsp 112 +
STACK CFI 538eb .cfa: $rsp 120 +
STACK CFI 538ed .cfa: $rsp 128 +
STACK CFI 538f4 .cfa: $rsp 136 +
STACK CFI 538fb .cfa: $rsp 144 +
STACK CFI 53907 .cfa: $rsp 8 +
STACK CFI INIT 53908 39 .cfa: $rsp 8 + .ra: .cfa -8 + ^
STACK CFI 5390c .cfa: $rsp 24 +
STACK CFI 5390e .cfa: $rsp 32 +
STACK CFI 53910 .cfa: $rsp 40 +
STACK CFI 53912 .cfa: $rsp 48 +
STACK CFI 53914 .cfa: $rsp 56 +
STACK CFI 53916 .cfa: $rsp 64 +
STACK CFI 53918 .cfa: $rsp 72 +
STACK CFI 5391a .cfa: $rsp 80 +
STACK CFI 5391c .cfa: $rsp 88 +
STACK CFI 5391e .cfa: $rsp 96 +
STACK CFI 53920 .cfa: $rsp 104 +
STACK CFI 53922 .cfa: $rsp 112 +
STACK CFI 53924 .cfa: $rsp 120 +
STACK CFI 53926 .cfa: $rsp 128 +
STACK CFI 5392d .cfa: $rsp 136 +
STACK CFI 53934 .cfa: $rsp 144 +
STACK CFI 53940 .cfa: $rsp 8 +
STACK CFI INIT 53941 39 .cfa: $rsp 8 + .ra: .cfa -8 + ^
STACK CFI 53945 .cfa: $rsp 24 +
STACK CFI 53947 .cfa: $rsp 32 +
STACK CFI 53949 .cfa: $rsp 40 +
STACK CFI 5394b .cfa: $rsp 48 +
STACK CFI 5394d .cfa: $rsp 56 +
STACK CFI 5394f .cfa: $rsp 64 +
STACK CFI 53951 .cfa: $rsp 72 +
STACK CFI 53953 .cfa: $rsp 80 +
STACK CFI 53955 .cfa: $rsp 88 +
STACK CFI 53957 .cfa: $rsp 96 +
STACK CFI 53959 .cfa: $rsp 104 +
STACK CFI 5395b .cfa: $rsp 112 +
STACK CFI 5395d .cfa: $rsp 120 +
STACK CFI 5395f .cfa: $rsp 128 +
STACK CFI 53966 .cfa: $rsp 136 +
STACK CFI 5396d .cfa: $rsp 144 +
STACK CFI 53979 .cfa: $rsp 8 +
STACK CFI INIT 5397a 39 .cfa: $rsp 8 + .ra: .cfa -8 + ^
STACK CFI 5397e .cfa: $rsp 24 +
STACK CFI 53980 .cfa: $rsp 32 +
STACK CFI 53982 .cfa: $rsp 40 +
STACK CFI 53984 .cfa: $rsp 48 +
STACK CFI 53986 .cfa: $rsp 56 +
STACK CFI 53988 .cfa: $rsp 64 +
STACK CFI 5398a .cfa: $rsp 72 +
STACK CFI 5398c .cfa: $rsp 80 +
STACK CFI 5398e .cfa: $rsp 88 +
STACK CFI 53990 .cfa: $rsp 96 +
STACK CFI 53992 .cfa: $rsp 104 +
STACK CFI 53994 .cfa: $rsp 112 +
STACK CFI 53996 .cfa: $rsp 120 +
STACK CFI 53998 .cfa: $rsp 128 +
STACK CFI 5399f .cfa: $rsp 136 +
STACK CFI 539a6 .cfa: $rsp 144 +
STACK CFI 539b2 .cfa: $rsp 8 +
STACK CFI INIT 539b3 39 .cfa: $rsp 8 + .ra: .cfa -8 + ^
STACK CFI 539b7 .cfa: $rsp 24 +
STACK CFI 539b9 .cfa: $rsp 32 +
STACK CFI 539bb .cfa: $rsp 40 +
STACK CFI 539bd .cfa: $rsp 48 +
STACK CFI 539bf .cfa: $rsp 56 +
STACK CFI 539c1 .cfa: $rsp 64 +
STACK CFI 539c3 .cfa: $rsp 72 +
STACK CFI 539c5 .cfa: $rsp 80 +
STACK CFI 539c7 .cfa: $rsp 88 +
STACK CFI 539c9 .cfa: $rsp 96 +
STACK CFI 539cb .cfa: $rsp 104 +
STACK CFI 539cd .cfa: $rsp 112 +
STACK CFI 539cf .cfa: $rsp 120 +
STACK CFI 539d1 .cfa: $rsp 128 +
STACK CFI 539d8 .cfa: $rsp 136 +
STACK CFI 539df .cfa: $rsp 144 +
STACK CFI 539eb .cfa: $rsp 8 +
STACK CFI INIT 539ec 39 .cfa: $rsp 8 + .ra: .cfa -8 + ^
STACK CFI 539f0 .cfa: $rsp 24 +
STACK CFI 539f2 .cfa: $rsp 32 +
STACK CFI 539f4 .cfa: $rsp 40 +
STACK CFI 539f6 .cfa: $rsp 48 +
STACK CFI 539f8 .cfa: $rsp 56 +
STACK CFI 539fa .cfa: $rsp 64 +
STACK CFI 539fc .cfa: $rsp 72 +
STACK CFI 539fe .cfa: $rsp 80 +
STACK CFI 53a00 .cfa: $rsp 88 +
STACK CFI 53a02 .cfa: $rsp 96 +
STACK CFI 53a04 .cfa: $rsp 104 +
STACK CFI 53a06 .cfa: $rsp 112 +
STACK CFI 53a08 .cfa: $rsp 120 +
STACK CFI 53a0a .cfa: $rsp 128 +
STACK CFI 53a11 .cfa: $rsp 136 +
STACK CFI 53a18 .cfa: $rsp 144 +
STACK CFI 53a24 .cfa: $rsp 8 +
STACK CFI INIT 53a25 39 .cfa: $rsp 8 + .ra: .cfa -8 + ^
STACK CFI 53a29 .cfa: $rsp 24 +
STACK CFI 53a2b .cfa: $rsp 32 +
STACK CFI 53a2d .cfa: $rsp 40 +
STACK CFI 53a2f .cfa: $rsp 48 +
STACK CFI 53a31 .cfa: $rsp 56 +
STACK CFI 53a33 .cfa: $rsp 64 +
STACK CFI 53a35 .cfa: $rsp 72 +
STACK CFI 53a37 .cfa: $rsp 80 +
STACK CFI 53a39 .cfa: $rsp 88 +
STACK CFI 53a3b .cfa: $rsp 96 +
STACK CFI 53a3d .cfa: $rsp 104 +
STACK CFI 53a3f .cfa: $rsp 112 +
STACK CFI 53a41 .cfa: $rsp 120 +
STACK CFI 53a43 .cfa: $rsp 128 +
STACK CFI 53a4a .cfa: $rsp 136 +
STACK CFI 53a51 .cfa: $rsp 144 +
STACK CFI 53a5d .cfa: $rsp 8 +
STACK CFI INIT 53a5e 39 .cfa: $rsp 8 + .ra: .cfa -8 + ^
STACK CFI 53a62 .cfa: $rsp 24 +
STACK CFI 53a64 .cfa: $rsp 32 +
STACK CFI 53a66 .cfa: $rsp 40 +
STACK CFI 53a68 .cfa: $rsp 48 +
STACK CFI 53a6a .cfa: $rsp 56 +
STACK CFI 53a6c .cfa: $rsp 64 +
STACK CFI 53a6e .cfa: $rsp 72 +
STACK CFI 53a70 .cfa: $rsp 80 +
STACK CFI 53a72 .cfa: $rsp 88 +
STACK CFI 53a74 .cfa: $rsp 96 +
STACK CFI 53a76 .cfa: $rsp 104 +
STACK CFI 53a78 .cfa: $rsp 112 +
STACK CFI 53a7a .cfa: $rsp 120 +
STACK CFI 53a7c .cfa: $rsp 128 +
STACK CFI 53a83 .cfa: $rsp 136 +
STACK CFI 53a8a .cfa: $rsp 144 +
STACK CFI 53a96 .cfa: $rsp 8 +
STACK CFI INIT 53a97 39 .cfa: $rsp 8 + .ra: .cfa -8 + ^
STACK CFI 53a9b .cfa: $rsp 24 +
STACK CFI 53a9d .cfa: $rsp 32 +
STACK CFI 53a9f .cfa: $rsp 40 +
STACK CFI 53aa1 .cfa: $rsp 48 +
STACK CFI 53aa3 .cfa: $rsp 56 +
STACK CFI 53aa5 .cfa: $rsp 64 +
STACK CFI 53aa7 .cfa: $rsp 72 +
STACK CFI 53aa9 .cfa: $rsp 80 +
STACK CFI 53aab .cfa: $rsp 88 +
STACK CFI 53aad .cfa: $rsp 96 +
STACK CFI 53aaf .cfa: $rsp 104 +
STACK CFI 53ab1 .cfa: $rsp 112 +
STACK CFI 53ab3 .cfa: $rsp 120 +
STACK CFI 53ab5 .cfa: $rsp 128 +
STACK CFI 53abc .cfa: $rsp 136 +
STACK CFI 53ac3 .cfa: $rsp 144 +
STACK CFI 53acf .cfa: $rsp 8 +
STACK CFI INIT 53ad0 39 .cfa: $rsp 8 + .ra: .cfa -8 + ^
STACK CFI 53ad4 .cfa: $rsp 24 +
STACK CFI 53ad6 .cfa: $rsp 32 +
STACK CFI 53ad8 .cfa: $rsp 40 +
STACK CFI 53ada .cfa: $rsp 48 +
STACK CFI 53adc .cfa: $rsp 56 +
STACK CFI 53ade .cfa: $rsp 64 +
STACK CFI 53ae0 .cfa: $rsp 72 +
STACK CFI 53ae2 .cfa: $rsp 80 +
STACK CFI 53ae4 .cfa: $rsp 88 +
STACK CFI 53ae6 .cfa: $rsp 96 +
STACK CFI 53ae8 .cfa: $rsp 104 +
STACK CFI 53aea .cfa: $rsp 112 +
STACK CFI 53aec .cfa: $rsp 120 +
STACK CFI 53aee .cfa: $rsp 128 +
STACK CFI 53af5 .cfa: $rsp 136 +
STACK CFI 53afc .cfa: $rsp 144 +
STACK CFI 53b08 .cfa: $rsp 8 +
STACK CFI INIT 53b09 39 .cfa: $rsp 8 + .ra: .cfa -8 + ^
STACK CFI 53b0d .cfa: $rsp 24 +
STACK CFI 53b0f .cfa: $rsp 32 +
STACK CFI 53b11 .cfa: $rsp 40 +
STACK CFI 53b13 .cfa: $rsp 48 +
STACK CFI 53b15 .cfa: $rsp 56 +
STACK CFI 53b17 .cfa: $rsp 64 +
STACK CFI 53b19 .cfa: $rsp 72 +
STACK CFI 53b1b .cfa: $rsp 80 +
STACK CFI 53b1d .cfa: $rsp 88 +
STACK CFI 53b1f .cfa: $rsp 96 +
STACK CFI 53b21 .cfa: $rsp 104 +
STACK CFI 53b23 .cfa: $rsp 112 +
STACK CFI 53b25 .cfa: $rsp 120 +
STACK CFI 53b27 .cfa: $rsp 128 +
STACK CFI 53b2e .cfa: $rsp 136 +
STACK CFI 53b35 .cfa: $rsp 144 +
STACK CFI 53b41 .cfa: $rsp 8 +
STACK CFI INIT 53b42 39 .cfa: $rsp 8 + .ra: .cfa -8 + ^
STACK CFI 53b46 .cfa: $rsp 24 +
STACK CFI 53b48 .cfa: $rsp 32 +
STACK CFI 53b4a .cfa: $rsp 40 +
STACK CFI 53b4c .cfa: $rsp 48 +
STACK CFI 53b4e .cfa: $rsp 56 +
STACK CFI 53b50 .cfa: $rsp 64 +
STACK CFI 53b52 .cfa: $rsp 72 +
STACK CFI 53b54 .cfa: $rsp 80 +
STACK CFI 53b56 .cfa: $rsp 88 +
STACK CFI 53b58 .cfa: $rsp 96 +
STACK CFI 53b5a .cfa: $rsp 104 +
STACK CFI 53b5c .cfa: $rsp 112 +
STACK CFI 53b5e .cfa: $rsp 120 +
STACK CFI 53b60 .cfa: $rsp 128 +
STACK CFI 53b67 .cfa: $rsp 136 +
STACK CFI 53b6e .cfa: $rsp 144 +
STACK CFI 53b7a .cfa: $rsp 8 +
STACK CFI INIT 53b7b 39 .cfa: $rsp 8 + .ra: .cfa -8 + ^
STACK CFI 53b7f .cfa: $rsp 24 +
STACK CFI 53b81 .cfa: $rsp 32 +
STACK CFI 53b83 .cfa: $rsp 40 +
STACK CFI 53b85 .cfa: $rsp 48 +
STACK CFI 53b87 .cfa: $rsp 56 +
STACK CFI 53b89 .cfa: $rsp 64 +
STACK CFI 53b8b .cfa: $rsp 72 +
STACK CFI 53b8d .cfa: $rsp 80 +
STACK CFI 53b8f .cfa: $rsp 88 +
STACK CFI 53b91 .cfa: $rsp 96 +
STACK CFI 53b93 .cfa: $rsp 104 +
STACK CFI 53b95 .cfa: $rsp 112 +
STACK CFI 53b97 .cfa: $rsp 120 +
STACK CFI 53b99 .cfa: $rsp 128 +
STACK CFI 53ba0 .cfa: $rsp 136 +
STACK CFI 53ba7 .cfa: $rsp 144 +
STACK CFI 53bb3 .cfa: $rsp 8 +
STACK CFI INIT 53bb4 39 .cfa: $rsp 8 + .ra: .cfa -8 + ^
STACK CFI 53bb8 .cfa: $rsp 24 +
STACK CFI 53bba .cfa: $rsp 32 +
STACK CFI 53bbc .cfa: $rsp 40 +
STACK CFI 53bbe .cfa: $rsp 48 +
STACK CFI 53bc0 .cfa: $rsp 56 +
STACK CFI 53bc2 .cfa: $rsp 64 +
STACK CFI 53bc4 .cfa: $rsp 72 +
STACK CFI 53bc6 .cfa: $rsp 80 +
STACK CFI 53bc8 .cfa: $rsp 88 +
STACK CFI 53bca .cfa: $rsp 96 +
STACK CFI 53bcc .cfa: $rsp 104 +
STACK CFI 53bce .cfa: $rsp 112 +
STACK CFI 53bd0 .cfa: $rsp 120 +
STACK CFI 53bd2 .cfa: $rsp 128 +
STACK CFI 53bd9 .cfa: $rsp 136 +
STACK CFI 53be0 .cfa: $rsp 144 +
STACK CFI 53bec .cfa: $rsp 8 +
STACK CFI INIT 53bed 39 .cfa: $rsp 8 + .ra: .cfa -8 + ^
STACK CFI 53bf1 .cfa: $rsp 24 +
STACK CFI 53bf3 .cfa: $rsp 32 +
STACK CFI 53bf5 .cfa: $rsp 40 +
STACK CFI 53bf7 .cfa: $rsp 48 +
STACK CFI 53bf9 .cfa: $rsp 56 +
STACK CFI 53bfb .cfa: $rsp 64 +
STACK CFI 53bfd .cfa: $rsp 72 +
STACK CFI 53bff .cfa: $rsp 80 +
STACK CFI 53c01 .cfa: $rsp 88 +
STACK CFI 53c03 .cfa: $rsp 96 +
STACK CFI 53c05 .cfa: $rsp 104 +
STACK CFI 53c07 .cfa: $rsp 112 +
STACK CFI 53c09 .cfa: $rsp 120 +
STACK CFI 53c0b .cfa: $rsp 128 +
STACK CFI 53c12 .cfa: $rsp 136 +
STACK CFI 53c19 .cfa: $rsp 144 +
STACK CFI 53c25 .cfa: $rsp 8 +
STACK CFI INIT 53c26 39 .cfa: $rsp 8 + .ra: .cfa -8 + ^
STACK CFI 53c2a .cfa: $rsp 24 +
STACK CFI 53c2c .cfa: $rsp 32 +
STACK CFI 53c2e .cfa: $rsp 40 +
STACK CFI 53c30 .cfa: $rsp 48 +
STACK CFI 53c32 .cfa: $rsp 56 +
STACK CFI 53c34 .cfa: $rsp 64 +
STACK CFI 53c36 .cfa: $rsp 72 +
STACK CFI 53c38 .cfa: $rsp 80 +
STACK CFI 53c3a .cfa: $rsp 88 +
STACK CFI 53c3c .cfa: $rsp 96 +
STACK CFI 53c3e .cfa: $rsp 104 +
STACK CFI 53c40 .cfa: $rsp 112 +
STACK CFI 53c42 .cfa: $rsp 120 +
STACK CFI 53c44 .cfa: $rsp 128 +
STACK CFI 53c4b .cfa: $rsp 136 +
STACK CFI 53c52 .cfa: $rsp 144 +
STACK CFI 53c5e .cfa: $rsp 8 +
STACK CFI INIT 53c5f 39 .cfa: $rsp 8 + .ra: .cfa -8 + ^
STACK CFI 53c63 .cfa: $rsp 24 +
STACK CFI 53c65 .cfa: $rsp 32 +
STACK CFI 53c67 .cfa: $rsp 40 +
STACK CFI 53c69 .cfa: $rsp 48 +
STACK CFI 53c6b .cfa: $rsp 56 +
STACK CFI 53c6d .cfa: $rsp 64 +
STACK CFI 53c6f .cfa: $rsp 72 +
STACK CFI 53c71 .cfa: $rsp 80 +
STACK CFI 53c73 .cfa: $rsp 88 +
STACK CFI 53c75 .cfa: $rsp 96 +
STACK CFI 53c77 .cfa: $rsp 104 +
STACK CFI 53c79 .cfa: $rsp 112 +
STACK CFI 53c7b .cfa: $rsp 120 +
STACK CFI 53c7d .cfa: $rsp 128 +
STACK CFI 53c84 .cfa: $rsp 136 +
STACK CFI 53c8b .cfa: $rsp 144 +
STACK CFI 53c97 .cfa: $rsp 8 +
STACK CFI INIT 53c98 39 .cfa: $rsp 8 + .ra: .cfa -8 + ^
STACK CFI 53c9c .cfa: $rsp 24 +
STACK CFI 53c9e .cfa: $rsp 32 +
STACK CFI 53ca0 .cfa: $rsp 40 +
STACK CFI 53ca2 .cfa: $rsp 48 +
STACK CFI 53ca4 .cfa: $rsp 56 +
STACK CFI 53ca6 .cfa: $rsp 64 +
STACK CFI 53ca8 .cfa: $rsp 72 +
STACK CFI 53caa .cfa: $rsp 80 +
STACK CFI 53cac .cfa: $rsp 88 +
STACK CFI 53cae .cfa: $rsp 96 +
STACK CFI 53cb0 .cfa: $rsp 104 +
STACK CFI 53cb2 .cfa: $rsp 112 +
STACK CFI 53cb4 .cfa: $rsp 120 +
STACK CFI 53cb6 .cfa: $rsp 128 +
STACK CFI 53cbd .cfa: $rsp 136 +
STACK CFI 53cc4 .cfa: $rsp 144 +
STACK CFI 53cd0 .cfa: $rsp 8 +
STACK CFI INIT 53cd1 39 .cfa: $rsp 8 + .ra: .cfa -8 + ^
STACK CFI 53cd5 .cfa: $rsp 24 +
STACK CFI 53cd7 .cfa: $rsp 32 +
STACK CFI 53cd9 .cfa: $rsp 40 +
STACK CFI 53cdb .cfa: $rsp 48 +
STACK CFI 53cdd .cfa: $rsp 56 +
STACK CFI 53cdf .cfa: $rsp 64 +
STACK CFI 53ce1 .cfa: $rsp 72 +
STACK CFI 53ce3 .cfa: $rsp 80 +
STACK CFI 53ce5 .cfa: $rsp 88 +
STACK CFI 53ce7 .cfa: $rsp 96 +
STACK CFI 53ce9 .cfa: $rsp 104 +
STACK CFI 53ceb .cfa: $rsp 112 +
STACK CFI 53ced .cfa: $rsp 120 +
STACK CFI 53cef .cfa: $rsp 128 +
STACK CFI 53cf6 .cfa: $rsp 136 +
STACK CFI 53cfd .cfa: $rsp 144 +
STACK CFI 53d09 .cfa: $rsp 8 +
STACK CFI INIT 53d0a 39 .cfa: $rsp 8 + .ra: .cfa -8 + ^
STACK CFI 53d0e .cfa: $rsp 24 +
STACK CFI 53d10 .cfa: $rsp 32 +
STACK CFI 53d12 .cfa: $rsp 40 +
STACK CFI 53d14 .cfa: $rsp 48 +
STACK CFI 53d16 .cfa: $rsp 56 +
STACK CFI 53d18 .cfa: $rsp 64 +
STACK CFI 53d1a .cfa: $rsp 72 +
STACK CFI 53d1c .cfa: $rsp 80 +
STACK CFI 53d1e .cfa: $rsp 88 +
STACK CFI 53d20 .cfa: $rsp 96 +
STACK CFI 53d22 .cfa: $rsp 104 +
STACK CFI 53d24 .cfa: $rsp 112 +
STACK CFI 53d26 .cfa: $rsp 120 +
STACK CFI 53d28 .cfa: $rsp 128 +
STACK CFI 53d2f .cfa: $rsp 136 +
STACK CFI 53d36 .cfa: $rsp 144 +
STACK CFI 53d42 .cfa: $rsp 8 +
STACK CFI INIT 53d43 39 .cfa: $rsp 8 + .ra: .cfa -8 + ^
STACK CFI 53d47 .cfa: $rsp 24 +
STACK CFI 53d49 .cfa: $rsp 32 +
STACK CFI 53d4b .cfa: $rsp 40 +
STACK CFI 53d4d .cfa: $rsp 48 +
STACK CFI 53d4f .cfa: $rsp 56 +
STACK CFI 53d51 .cfa: $rsp 64 +
STACK CFI 53d53 .cfa: $rsp 72 +
STACK CFI 53d55 .cfa: $rsp 80 +
STACK CFI 53d57 .cfa: $rsp 88 +
STACK CFI 53d59 .cfa: $rsp 96 +
STACK CFI 53d5b .cfa: $rsp 104 +
STACK CFI 53d5d .cfa: $rsp 112 +
STACK CFI 53d5f .cfa: $rsp 120 +
STACK CFI 53d61 .cfa: $rsp 128 +
STACK CFI 53d68 .cfa: $rsp 136 +
STACK CFI 53d6f .cfa: $rsp 144 +
STACK CFI 53d7b .cfa: $rsp 8 +
STACK CFI INIT 53d7c 39 .cfa: $rsp 8 + .ra: .cfa -8 + ^
STACK CFI 53d80 .cfa: $rsp 24 +
STACK CFI 53d82 .cfa: $rsp 32 +
STACK CFI 53d84 .cfa: $rsp 40 +
STACK CFI 53d86 .cfa: $rsp 48 +
STACK CFI 53d88 .cfa: $rsp 56 +
STACK CFI 53d8a .cfa: $rsp 64 +
STACK CFI 53d8c .cfa: $rsp 72 +
STACK CFI 53d8e .cfa: $rsp 80 +
STACK CFI 53d90 .cfa: $rsp 88 +
STACK CFI 53d92 .cfa: $rsp 96 +
STACK CFI 53d94 .cfa: $rsp 104 +
STACK CFI 53d96 .cfa: $rsp 112 +
STACK CFI 53d98 .cfa: $rsp 120 +
STACK CFI 53d9a .cfa: $rsp 128 +
STACK CFI 53da1 .cfa: $rsp 136 +
STACK CFI 53da8 .cfa: $rsp 144 +
STACK CFI 53db4 .cfa: $rsp 8 +
STACK CFI INIT 53db5 39 .cfa: $rsp 8 + .ra: .cfa -8 + ^
STACK CFI 53db9 .cfa: $rsp 24 +
STACK CFI 53dbb .cfa: $rsp 32 +
STACK CFI 53dbd .cfa: $rsp 40 +
STACK CFI 53dbf .cfa: $rsp 48 +
STACK CFI 53dc1 .cfa: $rsp 56 +
STACK CFI 53dc3 .cfa: $rsp 64 +
STACK CFI 53dc5 .cfa: $rsp 72 +
STACK CFI 53dc7 .cfa: $rsp 80 +
STACK CFI 53dc9 .cfa: $rsp 88 +
STACK CFI 53dcb .cfa: $rsp 96 +
STACK CFI 53dcd .cfa: $rsp 104 +
STACK CFI 53dcf .cfa: $rsp 112 +
STACK CFI 53dd1 .cfa: $rsp 120 +
STACK CFI 53dd3 .cfa: $rsp 128 +
STACK CFI 53dda .cfa: $rsp 136 +
STACK CFI 53de1 .cfa: $rsp 144 +
STACK CFI 53ded .cfa: $rsp 8 +
STACK CFI INIT 53dee 39 .cfa: $rsp 8 + .ra: .cfa -8 + ^
STACK CFI 53df2 .cfa: $rsp 24 +
STACK CFI 53df4 .cfa: $rsp 32 +
STACK CFI 53df6 .cfa: $rsp 40 +
STACK CFI 53df8 .cfa: $rsp 48 +
STACK CFI 53dfa .cfa: $rsp 56 +
STACK CFI 53dfc .cfa: $rsp 64 +
STACK CFI 53dfe .cfa: $rsp 72 +
STACK CFI 53e00 .cfa: $rsp 80 +
STACK CFI 53e02 .cfa: $rsp 88 +
STACK CFI 53e04 .cfa: $rsp 96 +
STACK CFI 53e06 .cfa: $rsp 104 +
STACK CFI 53e08 .cfa: $rsp 112 +
STACK CFI 53e0a .cfa: $rsp 120 +
STACK CFI 53e0c .cfa: $rsp 128 +
STACK CFI 53e13 .cfa: $rsp 136 +
STACK CFI 53e1a .cfa: $rsp 144 +
STACK CFI 53e26 .cfa: $rsp 8 +
STACK CFI INIT 53e27 39 .cfa: $rsp 8 + .ra: .cfa -8 + ^
STACK CFI 53e2b .cfa: $rsp 24 +
STACK CFI 53e2d .cfa: $rsp 32 +
STACK CFI 53e2f .cfa: $rsp 40 +
STACK CFI 53e31 .cfa: $rsp 48 +
STACK CFI 53e33 .cfa: $rsp 56 +
STACK CFI 53e35 .cfa: $rsp 64 +
STACK CFI 53e37 .cfa: $rsp 72 +
STACK CFI 53e39 .cfa: $rsp 80 +
STACK CFI 53e3b .cfa: $rsp 88 +
STACK CFI 53e3d .cfa: $rsp 96 +
STACK CFI 53e3f .cfa: $rsp 104 +
STACK CFI 53e41 .cfa: $rsp 112 +
STACK CFI 53e43 .cfa: $rsp 120 +
STACK CFI 53e45 .cfa: $rsp 128 +
STACK CFI 53e4c .cfa: $rsp 136 +
STACK CFI 53e53 .cfa: $rsp 144 +
STACK CFI 53e5f .cfa: $rsp 8 +
STACK CFI INIT 53e60 39 .cfa: $rsp 8 + .ra: .cfa -8 + ^
STACK CFI 53e64 .cfa: $rsp 24 +
STACK CFI 53e66 .cfa: $rsp 32 +
STACK CFI 53e68 .cfa: $rsp 40 +
STACK CFI 53e6a .cfa: $rsp 48 +
STACK CFI 53e6c .cfa: $rsp 56 +
STACK CFI 53e6e .cfa: $rsp 64 +
STACK CFI 53e70 .cfa: $rsp 72 +
STACK CFI 53e72 .cfa: $rsp 80 +
STACK CFI 53e74 .cfa: $rsp 88 +
STACK CFI 53e76 .cfa: $rsp 96 +
STACK CFI 53e78 .cfa: $rsp 104 +
STACK CFI 53e7a .cfa: $rsp 112 +
STACK CFI 53e7c .cfa: $rsp 120 +
STACK CFI 53e7e .cfa: $rsp 128 +
STACK CFI 53e85 .cfa: $rsp 136 +
STACK CFI 53e8c .cfa: $rsp 144 +
STACK CFI 53e98 .cfa: $rsp 8 +
STACK CFI INIT 53e99 39 .cfa: $rsp 8 + .ra: .cfa -8 + ^
STACK CFI 53e9d .cfa: $rsp 24 +
STACK CFI 53e9f .cfa: $rsp 32 +
STACK CFI 53ea1 .cfa: $rsp 40 +
STACK CFI 53ea3 .cfa: $rsp 48 +
STACK CFI 53ea5 .cfa: $rsp 56 +
STACK CFI 53ea7 .cfa: $rsp 64 +
STACK CFI 53ea9 .cfa: $rsp 72 +
STACK CFI 53eab .cfa: $rsp 80 +
STACK CFI 53ead .cfa: $rsp 88 +
STACK CFI 53eaf .cfa: $rsp 96 +
STACK CFI 53eb1 .cfa: $rsp 104 +
STACK CFI 53eb3 .cfa: $rsp 112 +
STACK CFI 53eb5 .cfa: $rsp 120 +
STACK CFI 53eb7 .cfa: $rsp 128 +
STACK CFI 53ebe .cfa: $rsp 136 +
STACK CFI 53ec5 .cfa: $rsp 144 +
STACK CFI 53ed1 .cfa: $rsp 8 +
STACK CFI INIT 53ed2 39 .cfa: $rsp 8 + .ra: .cfa -8 + ^
STACK CFI 53ed6 .cfa: $rsp 24 +
STACK CFI 53ed8 .cfa: $rsp 32 +
STACK CFI 53eda .cfa: $rsp 40 +
STACK CFI 53edc .cfa: $rsp 48 +
STACK CFI 53ede .cfa: $rsp 56 +
STACK CFI 53ee0 .cfa: $rsp 64 +
STACK CFI 53ee2 .cfa: $rsp 72 +
STACK CFI 53ee4 .cfa: $rsp 80 +
STACK CFI 53ee6 .cfa: $rsp 88 +
STACK CFI 53ee8 .cfa: $rsp 96 +
STACK CFI 53eea .cfa: $rsp 104 +
STACK CFI 53eec .cfa: $rsp 112 +
STACK CFI 53eee .cfa: $rsp 120 +
STACK CFI 53ef0 .cfa: $rsp 128 +
STACK CFI 53ef7 .cfa: $rsp 136 +
STACK CFI 53efe .cfa: $rsp 144 +
STACK CFI 53f0a .cfa: $rsp 8 +
STACK CFI INIT 53f0b 39 .cfa: $rsp 8 + .ra: .cfa -8 + ^
STACK CFI 53f0f .cfa: $rsp 24 +
STACK CFI 53f11 .cfa: $rsp 32 +
STACK CFI 53f13 .cfa: $rsp 40 +
STACK CFI 53f15 .cfa: $rsp 48 +
STACK CFI 53f17 .cfa: $rsp 56 +
STACK CFI 53f19 .cfa: $rsp 64 +
STACK CFI 53f1b .cfa: $rsp 72 +
STACK CFI 53f1d .cfa: $rsp 80 +
STACK CFI 53f1f .cfa: $rsp 88 +
STACK CFI 53f21 .cfa: $rsp 96 +
STACK CFI 53f23 .cfa: $rsp 104 +
STACK CFI 53f25 .cfa: $rsp 112 +
STACK CFI 53f27 .cfa: $rsp 120 +
STACK CFI 53f29 .cfa: $rsp 128 +
STACK CFI 53f30 .cfa: $rsp 136 +
STACK CFI 53f37 .cfa: $rsp 144 +
STACK CFI 53f43 .cfa: $rsp 8 +
STACK CFI INIT 53f44 39 .cfa: $rsp 8 + .ra: .cfa -8 + ^
STACK CFI 53f48 .cfa: $rsp 24 +
STACK CFI 53f4a .cfa: $rsp 32 +
STACK CFI 53f4c .cfa: $rsp 40 +
STACK CFI 53f4e .cfa: $rsp 48 +
STACK CFI 53f50 .cfa: $rsp 56 +
STACK CFI 53f52 .cfa: $rsp 64 +
STACK CFI 53f54 .cfa: $rsp 72 +
STACK CFI 53f56 .cfa: $rsp 80 +
STACK CFI 53f58 .cfa: $rsp 88 +
STACK CFI 53f5a .cfa: $rsp 96 +
STACK CFI 53f5c .cfa: $rsp 104 +
STACK CFI 53f5e .cfa: $rsp 112 +
STACK CFI 53f60 .cfa: $rsp 120 +
STACK CFI 53f62 .cfa: $rsp 128 +
STACK CFI 53f69 .cfa: $rsp 136 +
STACK CFI 53f70 .cfa: $rsp 144 +
STACK CFI 53f7c .cfa: $rsp 8 +
STACK CFI INIT 53f7d 39 .cfa: $rsp 8 + .ra: .cfa -8 + ^
STACK CFI 53f81 .cfa: $rsp 24 +
STACK CFI 53f83 .cfa: $rsp 32 +
STACK CFI 53f85 .cfa: $rsp 40 +
STACK CFI 53f87 .cfa: $rsp 48 +
STACK CFI 53f89 .cfa: $rsp 56 +
STACK CFI 53f8b .cfa: $rsp 64 +
STACK CFI 53f8d .cfa: $rsp 72 +
STACK CFI 53f8f .cfa: $rsp 80 +
STACK CFI 53f91 .cfa: $rsp 88 +
STACK CFI 53f93 .cfa: $rsp 96 +
STACK CFI 53f95 .cfa: $rsp 104 +
STACK CFI 53f97 .cfa: $rsp 112 +
STACK CFI 53f99 .cfa: $rsp 120 +
STACK CFI 53f9b .cfa: $rsp 128 +
STACK CFI 53fa2 .cfa: $rsp 136 +
STACK CFI 53fa9 .cfa: $rsp 144 +
STACK CFI 53fb5 .cfa: $rsp 8 +
STACK CFI INIT 53fb6 39 .cfa: $rsp 8 + .ra: .cfa -8 + ^
STACK CFI 53fba .cfa: $rsp 24 +
STACK CFI 53fbc .cfa: $rsp 32 +
STACK CFI 53fbe .cfa: $rsp 40 +
STACK CFI 53fc0 .cfa: $rsp 48 +
STACK CFI 53fc2 .cfa: $rsp 56 +
STACK CFI 53fc4 .cfa: $rsp 64 +
STACK CFI 53fc6 .cfa: $rsp 72 +
STACK CFI 53fc8 .cfa: $rsp 80 +
STACK CFI 53fca .cfa: $rsp 88 +
STACK CFI 53fcc .cfa: $rsp 96 +
STACK CFI 53fce .cfa: $rsp 104 +
STACK CFI 53fd0 .cfa: $rsp 112 +
STACK CFI 53fd2 .cfa: $rsp 120 +
STACK CFI 53fd4 .cfa: $rsp 128 +
STACK CFI 53fdb .cfa: $rsp 136 +
STACK CFI 53fe2 .cfa: $rsp 144 +
STACK CFI 53fee .cfa: $rsp 8 +
STACK CFI INIT 53fef 39 .cfa: $rsp 8 + .ra: .cfa -8 + ^
STACK CFI 53ff3 .cfa: $rsp 24 +
STACK CFI 53ff5 .cfa: $rsp 32 +
STACK CFI 53ff7 .cfa: $rsp 40 +
STACK CFI 53ff9 .cfa: $rsp 48 +
STACK CFI 53ffb .cfa: $rsp 56 +
STACK CFI 53ffd .cfa: $rsp 64 +
STACK CFI 53fff .cfa: $rsp 72 +
STACK CFI 54001 .cfa: $rsp 80 +
STACK CFI 54003 .cfa: $rsp 88 +
STACK CFI 54005 .cfa: $rsp 96 +
STACK CFI 54007 .cfa: $rsp 104 +
STACK CFI 54009 .cfa: $rsp 112 +
STACK CFI 5400b .cfa: $rsp 120 +
STACK CFI 5400d .cfa: $rsp 128 +
STACK CFI 54014 .cfa: $rsp 136 +
STACK CFI 5401b .cfa: $rsp 144 +
STACK CFI 54027 .cfa: $rsp 8 +
STACK CFI INIT 54028 39 .cfa: $rsp 8 + .ra: .cfa -8 + ^
STACK CFI 5402c .cfa: $rsp 24 +
STACK CFI 5402e .cfa: $rsp 32 +
STACK CFI 54030 .cfa: $rsp 40 +
STACK CFI 54032 .cfa: $rsp 48 +
STACK CFI 54034 .cfa: $rsp 56 +
STACK CFI 54036 .cfa: $rsp 64 +
STACK CFI 54038 .cfa: $rsp 72 +
STACK CFI 5403a .cfa: $rsp 80 +
STACK CFI 5403c .cfa: $rsp 88 +
STACK CFI 5403e .cfa: $rsp 96 +
STACK CFI 54040 .cfa: $rsp 104 +
STACK CFI 54042 .cfa: $rsp 112 +
STACK CFI 54044 .cfa: $rsp 120 +
STACK CFI 54046 .cfa: $rsp 128 +
STACK CFI 5404d .cfa: $rsp 136 +
STACK CFI 54054 .cfa: $rsp 144 +
STACK CFI 54060 .cfa: $rsp 8 +
STACK CFI INIT 54061 39 .cfa: $rsp 8 + .ra: .cfa -8 + ^
STACK CFI 54065 .cfa: $rsp 24 +
STACK CFI 54067 .cfa: $rsp 32 +
STACK CFI 54069 .cfa: $rsp 40 +
STACK CFI 5406b .cfa: $rsp 48 +
STACK CFI 5406d .cfa: $rsp 56 +
STACK CFI 5406f .cfa: $rsp 64 +
STACK CFI 54071 .cfa: $rsp 72 +
STACK CFI 54073 .cfa: $rsp 80 +
STACK CFI 54075 .cfa: $rsp 88 +
STACK CFI 54077 .cfa: $rsp 96 +
STACK CFI 54079 .cfa: $rsp 104 +
STACK CFI 5407b .cfa: $rsp 112 +
STACK CFI 5407d .cfa: $rsp 120 +
STACK CFI 5407f .cfa: $rsp 128 +
STACK CFI 54086 .cfa: $rsp 136 +
STACK CFI 5408d .cfa: $rsp 144 +
STACK CFI 54099 .cfa: $rsp 8 +
STACK CFI INIT 5409a 39 .cfa: $rsp 8 + .ra: .cfa -8 + ^
STACK CFI 5409e .cfa: $rsp 24 +
STACK CFI 540a0 .cfa: $rsp 32 +
STACK CFI 540a2 .cfa: $rsp 40 +
STACK CFI 540a4 .cfa: $rsp 48 +
STACK CFI 540a6 .cfa: $rsp 56 +
STACK CFI 540a8 .cfa: $rsp 64 +
STACK CFI 540aa .cfa: $rsp 72 +
STACK CFI 540ac .cfa: $rsp 80 +
STACK CFI 540ae .cfa: $rsp 88 +
STACK CFI 540b0 .cfa: $rsp 96 +
STACK CFI 540b2 .cfa: $rsp 104 +
STACK CFI 540b4 .cfa: $rsp 112 +
STACK CFI 540b6 .cfa: $rsp 120 +
STACK CFI 540b8 .cfa: $rsp 128 +
STACK CFI 540bf .cfa: $rsp 136 +
STACK CFI 540c6 .cfa: $rsp 144 +
STACK CFI 540d2 .cfa: $rsp 8 +
STACK CFI INIT 540d3 39 .cfa: $rsp 8 + .ra: .cfa -8 + ^
STACK CFI 540d7 .cfa: $rsp 24 +
STACK CFI 540d9 .cfa: $rsp 32 +
STACK CFI 540db .cfa: $rsp 40 +
STACK CFI 540dd .cfa: $rsp 48 +
STACK CFI 540df .cfa: $rsp 56 +
STACK CFI 540e1 .cfa: $rsp 64 +
STACK CFI 540e3 .cfa: $rsp 72 +
STACK CFI 540e5 .cfa: $rsp 80 +
STACK CFI 540e7 .cfa: $rsp 88 +
STACK CFI 540e9 .cfa: $rsp 96 +
STACK CFI 540eb .cfa: $rsp 104 +
STACK CFI 540ed .cfa: $rsp 112 +
STACK CFI 540ef .cfa: $rsp 120 +
STACK CFI 540f1 .cfa: $rsp 128 +
STACK CFI 540f8 .cfa: $rsp 136 +
STACK CFI 540ff .cfa: $rsp 144 +
STACK CFI 5410b .cfa: $rsp 8 +
STACK CFI INIT 5410c 39 .cfa: $rsp 8 + .ra: .cfa -8 + ^
STACK CFI 54110 .cfa: $rsp 24 +
STACK CFI 54112 .cfa: $rsp 32 +
STACK CFI 54114 .cfa: $rsp 40 +
STACK CFI 54116 .cfa: $rsp 48 +
STACK CFI 54118 .cfa: $rsp 56 +
STACK CFI 5411a .cfa: $rsp 64 +
STACK CFI 5411c .cfa: $rsp 72 +
STACK CFI 5411e .cfa: $rsp 80 +
STACK CFI 54120 .cfa: $rsp 88 +
STACK CFI 54122 .cfa: $rsp 96 +
STACK CFI 54124 .cfa: $rsp 104 +
STACK CFI 54126 .cfa: $rsp 112 +
STACK CFI 54128 .cfa: $rsp 120 +
STACK CFI 5412a .cfa: $rsp 128 +
STACK CFI 54131 .cfa: $rsp 136 +
STACK CFI 54138 .cfa: $rsp 144 +
STACK CFI 54144 .cfa: $rsp 8 +
STACK CFI INIT 54145 39 .cfa: $rsp 8 + .ra: .cfa -8 + ^
STACK CFI 54149 .cfa: $rsp 24 +
STACK CFI 5414b .cfa: $rsp 32 +
STACK CFI 5414d .cfa: $rsp 40 +
STACK CFI 5414f .cfa: $rsp 48 +
STACK CFI 54151 .cfa: $rsp 56 +
STACK CFI 54153 .cfa: $rsp 64 +
STACK CFI 54155 .cfa: $rsp 72 +
STACK CFI 54157 .cfa: $rsp 80 +
STACK CFI 54159 .cfa: $rsp 88 +
STACK CFI 5415b .cfa: $rsp 96 +
STACK CFI 5415d .cfa: $rsp 104 +
STACK CFI 5415f .cfa: $rsp 112 +
STACK CFI 54161 .cfa: $rsp 120 +
STACK CFI 54163 .cfa: $rsp 128 +
STACK CFI 5416a .cfa: $rsp 136 +
STACK CFI 54171 .cfa: $rsp 144 +
STACK CFI 5417d .cfa: $rsp 8 +
STACK CFI INIT 5417e 39 .cfa: $rsp 8 + .ra: .cfa -8 + ^
STACK CFI 54182 .cfa: $rsp 24 +
STACK CFI 54184 .cfa: $rsp 32 +
STACK CFI 54186 .cfa: $rsp 40 +
STACK CFI 54188 .cfa: $rsp 48 +
STACK CFI 5418a .cfa: $rsp 56 +
STACK CFI 5418c .cfa: $rsp 64 +
STACK CFI 5418e .cfa: $rsp 72 +
STACK CFI 54190 .cfa: $rsp 80 +
STACK CFI 54192 .cfa: $rsp 88 +
STACK CFI 54194 .cfa: $rsp 96 +
STACK CFI 54196 .cfa: $rsp 104 +
STACK CFI 54198 .cfa: $rsp 112 +
STACK CFI 5419a .cfa: $rsp 120 +
STACK CFI 5419c .cfa: $rsp 128 +
STACK CFI 541a3 .cfa: $rsp 136 +
STACK CFI 541aa .cfa: $rsp 144 +
STACK CFI 541b6 .cfa: $rsp 8 +
STACK CFI INIT 541b7 39 .cfa: $rsp 8 + .ra: .cfa -8 + ^
STACK CFI 541bb .cfa: $rsp 24 +
STACK CFI 541bd .cfa: $rsp 32 +
STACK CFI 541bf .cfa: $rsp 40 +
STACK CFI 541c1 .cfa: $rsp 48 +
STACK CFI 541c3 .cfa: $rsp 56 +
STACK CFI 541c5 .cfa: $rsp 64 +
STACK CFI 541c7 .cfa: $rsp 72 +
STACK CFI 541c9 .cfa: $rsp 80 +
STACK CFI 541cb .cfa: $rsp 88 +
STACK CFI 541cd .cfa: $rsp 96 +
STACK CFI 541cf .cfa: $rsp 104 +
STACK CFI 541d1 .cfa: $rsp 112 +
STACK CFI 541d3 .cfa: $rsp 120 +
STACK CFI 541d5 .cfa: $rsp 128 +
STACK CFI 541dc .cfa: $rsp 136 +
STACK CFI 541e3 .cfa: $rsp 144 +
STACK CFI 541ef .cfa: $rsp 8 +
STACK CFI INIT 541f0 39 .cfa: $rsp 8 + .ra: .cfa -8 + ^
STACK CFI 541f4 .cfa: $rsp 24 +
STACK CFI 541f6 .cfa: $rsp 32 +
STACK CFI 541f8 .cfa: $rsp 40 +
STACK CFI 541fa .cfa: $rsp 48 +
STACK CFI 541fc .cfa: $rsp 56 +
STACK CFI 541fe .cfa: $rsp 64 +
STACK CFI 54200 .cfa: $rsp 72 +
STACK CFI 54202 .cfa: $rsp 80 +
STACK CFI 54204 .cfa: $rsp 88 +
STACK CFI 54206 .cfa: $rsp 96 +
STACK CFI 54208 .cfa: $rsp 104 +
STACK CFI 5420a .cfa: $rsp 112 +
STACK CFI 5420c .cfa: $rsp 120 +
STACK CFI 5420e .cfa: $rsp 128 +
STACK CFI 54215 .cfa: $rsp 136 +
STACK CFI 5421c .cfa: $rsp 144 +
STACK CFI 54228 .cfa: $rsp 8 +
STACK CFI INIT 54229 39 .cfa: $rsp 8 + .ra: .cfa -8 + ^
STACK CFI 5422d .cfa: $rsp 24 +
STACK CFI 5422f .cfa: $rsp 32 +
STACK CFI 54231 .cfa: $rsp 40 +
STACK CFI 54233 .cfa: $rsp 48 +
STACK CFI 54235 .cfa: $rsp 56 +
STACK CFI 54237 .cfa: $rsp 64 +
STACK CFI 54239 .cfa: $rsp 72 +
STACK CFI 5423b .cfa: $rsp 80 +
STACK CFI 5423d .cfa: $rsp 88 +
STACK CFI 5423f .cfa: $rsp 96 +
STACK CFI 54241 .cfa: $rsp 104 +
STACK CFI 54243 .cfa: $rsp 112 +
STACK CFI 54245 .cfa: $rsp 120 +
STACK CFI 54247 .cfa: $rsp 128 +
STACK CFI 5424e .cfa: $rsp 136 +
STACK CFI 54255 .cfa: $rsp 144 +
STACK CFI 54261 .cfa: $rsp 8 +
STACK CFI INIT 54262 39 .cfa: $rsp 8 + .ra: .cfa -8 + ^
STACK CFI 54266 .cfa: $rsp 24 +
STACK CFI 54268 .cfa: $rsp 32 +
STACK CFI 5426a .cfa: $rsp 40 +
STACK CFI 5426c .cfa: $rsp 48 +
STACK CFI 5426e .cfa: $rsp 56 +
STACK CFI 54270 .cfa: $rsp 64 +
STACK CFI 54272 .cfa: $rsp 72 +
STACK CFI 54274 .cfa: $rsp 80 +
STACK CFI 54276 .cfa: $rsp 88 +
STACK CFI 54278 .cfa: $rsp 96 +
STACK CFI 5427a .cfa: $rsp 104 +
STACK CFI 5427c .cfa: $rsp 112 +
STACK CFI 5427e .cfa: $rsp 120 +
STACK CFI 54280 .cfa: $rsp 128 +
STACK CFI 54287 .cfa: $rsp 136 +
STACK CFI 5428e .cfa: $rsp 144 +
STACK CFI 5429a .cfa: $rsp 8 +
STACK CFI INIT 5429b 39 .cfa: $rsp 8 + .ra: .cfa -8 + ^
STACK CFI 5429f .cfa: $rsp 24 +
STACK CFI 542a1 .cfa: $rsp 32 +
STACK CFI 542a3 .cfa: $rsp 40 +
STACK CFI 542a5 .cfa: $rsp 48 +
STACK CFI 542a7 .cfa: $rsp 56 +
STACK CFI 542a9 .cfa: $rsp 64 +
STACK CFI 542ab .cfa: $rsp 72 +
STACK CFI 542ad .cfa: $rsp 80 +
STACK CFI 542af .cfa: $rsp 88 +
STACK CFI 542b1 .cfa: $rsp 96 +
STACK CFI 542b3 .cfa: $rsp 104 +
STACK CFI 542b5 .cfa: $rsp 112 +
STACK CFI 542b7 .cfa: $rsp 120 +
STACK CFI 542b9 .cfa: $rsp 128 +
STACK CFI 542c0 .cfa: $rsp 136 +
STACK CFI 542c7 .cfa: $rsp 144 +
STACK CFI 542d3 .cfa: $rsp 8 +
STACK CFI INIT 542d4 39 .cfa: $rsp 8 + .ra: .cfa -8 + ^
STACK CFI 542d8 .cfa: $rsp 24 +
STACK CFI 542da .cfa: $rsp 32 +
STACK CFI 542dc .cfa: $rsp 40 +
STACK CFI 542de .cfa: $rsp 48 +
STACK CFI 542e0 .cfa: $rsp 56 +
STACK CFI 542e2 .cfa: $rsp 64 +
STACK CFI 542e4 .cfa: $rsp 72 +
STACK CFI 542e6 .cfa: $rsp 80 +
STACK CFI 542e8 .cfa: $rsp 88 +
STACK CFI 542ea .cfa: $rsp 96 +
STACK CFI 542ec .cfa: $rsp 104 +
STACK CFI 542ee .cfa: $rsp 112 +
STACK CFI 542f0 .cfa: $rsp 120 +
STACK CFI 542f2 .cfa: $rsp 128 +
STACK CFI 542f9 .cfa: $rsp 136 +
STACK CFI 54300 .cfa: $rsp 144 +
STACK CFI 5430c .cfa: $rsp 8 +
STACK CFI INIT 5430d 39 .cfa: $rsp 8 + .ra: .cfa -8 + ^
STACK CFI 54311 .cfa: $rsp 24 +
STACK CFI 54313 .cfa: $rsp 32 +
STACK CFI 54315 .cfa: $rsp 40 +
STACK CFI 54317 .cfa: $rsp 48 +
STACK CFI 54319 .cfa: $rsp 56 +
STACK CFI 5431b .cfa: $rsp 64 +
STACK CFI 5431d .cfa: $rsp 72 +
STACK CFI 5431f .cfa: $rsp 80 +
STACK CFI 54321 .cfa: $rsp 88 +
STACK CFI 54323 .cfa: $rsp 96 +
STACK CFI 54325 .cfa: $rsp 104 +
STACK CFI 54327 .cfa: $rsp 112 +
STACK CFI 54329 .cfa: $rsp 120 +
STACK CFI 5432b .cfa: $rsp 128 +
STACK CFI 54332 .cfa: $rsp 136 +
STACK CFI 54339 .cfa: $rsp 144 +
STACK CFI 54345 .cfa: $rsp 8 +
STACK CFI INIT 54346 39 .cfa: $rsp 8 + .ra: .cfa -8 + ^
STACK CFI 5434a .cfa: $rsp 24 +
STACK CFI 5434c .cfa: $rsp 32 +
STACK CFI 5434e .cfa: $rsp 40 +
STACK CFI 54350 .cfa: $rsp 48 +
STACK CFI 54352 .cfa: $rsp 56 +
STACK CFI 54354 .cfa: $rsp 64 +
STACK CFI 54356 .cfa: $rsp 72 +
STACK CFI 54358 .cfa: $rsp 80 +
STACK CFI 5435a .cfa: $rsp 88 +
STACK CFI 5435c .cfa: $rsp 96 +
STACK CFI 5435e .cfa: $rsp 104 +
STACK CFI 54360 .cfa: $rsp 112 +
STACK CFI 54362 .cfa: $rsp 120 +
STACK CFI 54364 .cfa: $rsp 128 +
STACK CFI 5436b .cfa: $rsp 136 +
STACK CFI 54372 .cfa: $rsp 144 +
STACK CFI 5437e .cfa: $rsp 8 +
STACK CFI INIT 5437f 39 .cfa: $rsp 8 + .ra: .cfa -8 + ^
STACK CFI 54383 .cfa: $rsp 24 +
STACK CFI 54385 .cfa: $rsp 32 +
STACK CFI 54387 .cfa: $rsp 40 +
STACK CFI 54389 .cfa: $rsp 48 +
STACK CFI 5438b .cfa: $rsp 56 +
STACK CFI 5438d .cfa: $rsp 64 +
STACK CFI 5438f .cfa: $rsp 72 +
STACK CFI 54391 .cfa: $rsp 80 +
STACK CFI 54393 .cfa: $rsp 88 +
STACK CFI 54395 .cfa: $rsp 96 +
STACK CFI 54397 .cfa: $rsp 104 +
STACK CFI 54399 .cfa: $rsp 112 +
STACK CFI 5439b .cfa: $rsp 120 +
STACK CFI 5439d .cfa: $rsp 128 +
STACK CFI 543a4 .cfa: $rsp 136 +
STACK CFI 543ab .cfa: $rsp 144 +
STACK CFI 543b7 .cfa: $rsp 8 +
STACK CFI INIT 543b8 39 .cfa: $rsp 8 + .ra: .cfa -8 + ^
STACK CFI 543bc .cfa: $rsp 24 +
STACK CFI 543be .cfa: $rsp 32 +
STACK CFI 543c0 .cfa: $rsp 40 +
STACK CFI 543c2 .cfa: $rsp 48 +
STACK CFI 543c4 .cfa: $rsp 56 +
STACK CFI 543c6 .cfa: $rsp 64 +
STACK CFI 543c8 .cfa: $rsp 72 +
STACK CFI 543ca .cfa: $rsp 80 +
STACK CFI 543cc .cfa: $rsp 88 +
STACK CFI 543ce .cfa: $rsp 96 +
STACK CFI 543d0 .cfa: $rsp 104 +
STACK CFI 543d2 .cfa: $rsp 112 +
STACK CFI 543d4 .cfa: $rsp 120 +
STACK CFI 543d6 .cfa: $rsp 128 +
STACK CFI 543dd .cfa: $rsp 136 +
STACK CFI 543e4 .cfa: $rsp 144 +
STACK CFI 543f0 .cfa: $rsp 8 +
STACK CFI INIT 543f1 39 .cfa: $rsp 8 + .ra: .cfa -8 + ^
STACK CFI 543f5 .cfa: $rsp 24 +
STACK CFI 543f7 .cfa: $rsp 32 +
STACK CFI 543f9 .cfa: $rsp 40 +
STACK CFI 543fb .cfa: $rsp 48 +
STACK CFI 543fd .cfa: $rsp 56 +
STACK CFI 543ff .cfa: $rsp 64 +
STACK CFI 54401 .cfa: $rsp 72 +
STACK CFI 54403 .cfa: $rsp 80 +
STACK CFI 54405 .cfa: $rsp 88 +
STACK CFI 54407 .cfa: $rsp 96 +
STACK CFI 54409 .cfa: $rsp 104 +
STACK CFI 5440b .cfa: $rsp 112 +
STACK CFI 5440d .cfa: $rsp 120 +
STACK CFI 5440f .cfa: $rsp 128 +
STACK CFI 54416 .cfa: $rsp 136 +
STACK CFI 5441d .cfa: $rsp 144 +
STACK CFI 54429 .cfa: $rsp 8 +
STACK CFI INIT 5442a 39 .cfa: $rsp 8 + .ra: .cfa -8 + ^
STACK CFI 5442e .cfa: $rsp 24 +
STACK CFI 54430 .cfa: $rsp 32 +
STACK CFI 54432 .cfa: $rsp 40 +
STACK CFI 54434 .cfa: $rsp 48 +
STACK CFI 54436 .cfa: $rsp 56 +
STACK CFI 54438 .cfa: $rsp 64 +
STACK CFI 5443a .cfa: $rsp 72 +
STACK CFI 5443c .cfa: $rsp 80 +
STACK CFI 5443e .cfa: $rsp 88 +
STACK CFI 54440 .cfa: $rsp 96 +
STACK CFI 54442 .cfa: $rsp 104 +
STACK CFI 54444 .cfa: $rsp 112 +
STACK CFI 54446 .cfa: $rsp 120 +
STACK CFI 54448 .cfa: $rsp 128 +
STACK CFI 5444f .cfa: $rsp 136 +
STACK CFI 54456 .cfa: $rsp 144 +
STACK CFI 54462 .cfa: $rsp 8 +
STACK CFI INIT 54463 39 .cfa: $rsp 8 + .ra: .cfa -8 + ^
STACK CFI 54467 .cfa: $rsp 24 +
STACK CFI 54469 .cfa: $rsp 32 +
STACK CFI 5446b .cfa: $rsp 40 +
STACK CFI 5446d .cfa: $rsp 48 +
STACK CFI 5446f .cfa: $rsp 56 +
STACK CFI 54471 .cfa: $rsp 64 +
STACK CFI 54473 .cfa: $rsp 72 +
STACK CFI 54475 .cfa: $rsp 80 +
STACK CFI 54477 .cfa: $rsp 88 +
STACK CFI 54479 .cfa: $rsp 96 +
STACK CFI 5447b .cfa: $rsp 104 +
STACK CFI 5447d .cfa: $rsp 112 +
STACK CFI 5447f .cfa: $rsp 120 +
STACK CFI 54481 .cfa: $rsp 128 +
STACK CFI 54488 .cfa: $rsp 136 +
STACK CFI 5448f .cfa: $rsp 144 +
STACK CFI 5449b .cfa: $rsp 8 +
STACK CFI INIT 5449c 39 .cfa: $rsp 8 + .ra: .cfa -8 + ^
STACK CFI 544a0 .cfa: $rsp 24 +
STACK CFI 544a2 .cfa: $rsp 32 +
STACK CFI 544a4 .cfa: $rsp 40 +
STACK CFI 544a6 .cfa: $rsp 48 +
STACK CFI 544a8 .cfa: $rsp 56 +
STACK CFI 544aa .cfa: $rsp 64 +
STACK CFI 544ac .cfa: $rsp 72 +
STACK CFI 544ae .cfa: $rsp 80 +
STACK CFI 544b0 .cfa: $rsp 88 +
STACK CFI 544b2 .cfa: $rsp 96 +
STACK CFI 544b4 .cfa: $rsp 104 +
STACK CFI 544b6 .cfa: $rsp 112 +
STACK CFI 544b8 .cfa: $rsp 120 +
STACK CFI 544ba .cfa: $rsp 128 +
STACK CFI 544c1 .cfa: $rsp 136 +
STACK CFI 544c8 .cfa: $rsp 144 +
STACK CFI 544d4 .cfa: $rsp 8 +
STACK CFI INIT 544d5 39 .cfa: $rsp 8 + .ra: .cfa -8 + ^
STACK CFI 544d9 .cfa: $rsp 24 +
STACK CFI 544db .cfa: $rsp 32 +
STACK CFI 544dd .cfa: $rsp 40 +
STACK CFI 544df .cfa: $rsp 48 +
STACK CFI 544e1 .cfa: $rsp 56 +
STACK CFI 544e3 .cfa: $rsp 64 +
STACK CFI 544e5 .cfa: $rsp 72 +
STACK CFI 544e7 .cfa: $rsp 80 +
STACK CFI 544e9 .cfa: $rsp 88 +
STACK CFI 544eb .cfa: $rsp 96 +
STACK CFI 544ed .cfa: $rsp 104 +
STACK CFI 544ef .cfa: $rsp 112 +
STACK CFI 544f1 .cfa: $rsp 120 +
STACK CFI 544f3 .cfa: $rsp 128 +
STACK CFI 544fa .cfa: $rsp 136 +
STACK CFI 54501 .cfa: $rsp 144 +
STACK CFI 5450d .cfa: $rsp 8 +
STACK CFI INIT 5450e 39 .cfa: $rsp 8 + .ra: .cfa -8 + ^
STACK CFI 54512 .cfa: $rsp 24 +
STACK CFI 54514 .cfa: $rsp 32 +
STACK CFI 54516 .cfa: $rsp 40 +
STACK CFI 54518 .cfa: $rsp 48 +
STACK CFI 5451a .cfa: $rsp 56 +
STACK CFI 5451c .cfa: $rsp 64 +
STACK CFI 5451e .cfa: $rsp 72 +
STACK CFI 54520 .cfa: $rsp 80 +
STACK CFI 54522 .cfa: $rsp 88 +
STACK CFI 54524 .cfa: $rsp 96 +
STACK CFI 54526 .cfa: $rsp 104 +
STACK CFI 54528 .cfa: $rsp 112 +
STACK CFI 5452a .cfa: $rsp 120 +
STACK CFI 5452c .cfa: $rsp 128 +
STACK CFI 54533 .cfa: $rsp 136 +
STACK CFI 5453a .cfa: $rsp 144 +
STACK CFI 54546 .cfa: $rsp 8 +
STACK CFI INIT 54547 39 .cfa: $rsp 8 + .ra: .cfa -8 + ^
STACK CFI 5454b .cfa: $rsp 24 +
STACK CFI 5454d .cfa: $rsp 32 +
STACK CFI 5454f .cfa: $rsp 40 +
STACK CFI 54551 .cfa: $rsp 48 +
STACK CFI 54553 .cfa: $rsp 56 +
STACK CFI 54555 .cfa: $rsp 64 +
STACK CFI 54557 .cfa: $rsp 72 +
STACK CFI 54559 .cfa: $rsp 80 +
STACK CFI 5455b .cfa: $rsp 88 +
STACK CFI 5455d .cfa: $rsp 96 +
STACK CFI 5455f .cfa: $rsp 104 +
STACK CFI 54561 .cfa: $rsp 112 +
STACK CFI 54563 .cfa: $rsp 120 +
STACK CFI 54565 .cfa: $rsp 128 +
STACK CFI 5456c .cfa: $rsp 136 +
STACK CFI 54573 .cfa: $rsp 144 +
STACK CFI 5457f .cfa: $rsp 8 +
STACK CFI INIT 54580 39 .cfa: $rsp 8 + .ra: .cfa -8 + ^
STACK CFI 54584 .cfa: $rsp 24 +
STACK CFI 54586 .cfa: $rsp 32 +
STACK CFI 54588 .cfa: $rsp 40 +
STACK CFI 5458a .cfa: $rsp 48 +
STACK CFI 5458c .cfa: $rsp 56 +
STACK CFI 5458e .cfa: $rsp 64 +
STACK CFI 54590 .cfa: $rsp 72 +
STACK CFI 54592 .cfa: $rsp 80 +
STACK CFI 54594 .cfa: $rsp 88 +
STACK CFI 54596 .cfa: $rsp 96 +
STACK CFI 54598 .cfa: $rsp 104 +
STACK CFI 5459a .cfa: $rsp 112 +
STACK CFI 5459c .cfa: $rsp 120 +
STACK CFI 5459e .cfa: $rsp 128 +
STACK CFI 545a5 .cfa: $rsp 136 +
STACK CFI 545ac .cfa: $rsp 144 +
STACK CFI 545b8 .cfa: $rsp 8 +
STACK CFI INIT 545b9 39 .cfa: $rsp 8 + .ra: .cfa -8 + ^
STACK CFI 545bd .cfa: $rsp 24 +
STACK CFI 545bf .cfa: $rsp 32 +
STACK CFI 545c1 .cfa: $rsp 40 +
STACK CFI 545c3 .cfa: $rsp 48 +
STACK CFI 545c5 .cfa: $rsp 56 +
STACK CFI 545c7 .cfa: $rsp 64 +
STACK CFI 545c9 .cfa: $rsp 72 +
STACK CFI 545cb .cfa: $rsp 80 +
STACK CFI 545cd .cfa: $rsp 88 +
STACK CFI 545cf .cfa: $rsp 96 +
STACK CFI 545d1 .cfa: $rsp 104 +
STACK CFI 545d3 .cfa: $rsp 112 +
STACK CFI 545d5 .cfa: $rsp 120 +
STACK CFI 545d7 .cfa: $rsp 128 +
STACK CFI 545de .cfa: $rsp 136 +
STACK CFI 545e5 .cfa: $rsp 144 +
STACK CFI 545f1 .cfa: $rsp 8 +
STACK CFI INIT 545f2 39 .cfa: $rsp 8 + .ra: .cfa -8 + ^
STACK CFI 545f6 .cfa: $rsp 24 +
STACK CFI 545f8 .cfa: $rsp 32 +
STACK CFI 545fa .cfa: $rsp 40 +
STACK CFI 545fc .cfa: $rsp 48 +
STACK CFI 545fe .cfa: $rsp 56 +
STACK CFI 54600 .cfa: $rsp 64 +
STACK CFI 54602 .cfa: $rsp 72 +
STACK CFI 54604 .cfa: $rsp 80 +
STACK CFI 54606 .cfa: $rsp 88 +
STACK CFI 54608 .cfa: $rsp 96 +
STACK CFI 5460a .cfa: $rsp 104 +
STACK CFI 5460c .cfa: $rsp 112 +
STACK CFI 5460e .cfa: $rsp 120 +
STACK CFI 54610 .cfa: $rsp 128 +
STACK CFI 54617 .cfa: $rsp 136 +
STACK CFI 5461e .cfa: $rsp 144 +
STACK CFI 5462a .cfa: $rsp 8 +
STACK CFI INIT 5462b 39 .cfa: $rsp 8 + .ra: .cfa -8 + ^
STACK CFI 5462f .cfa: $rsp 24 +
STACK CFI 54631 .cfa: $rsp 32 +
STACK CFI 54633 .cfa: $rsp 40 +
STACK CFI 54635 .cfa: $rsp 48 +
STACK CFI 54637 .cfa: $rsp 56 +
STACK CFI 54639 .cfa: $rsp 64 +
STACK CFI 5463b .cfa: $rsp 72 +
STACK CFI 5463d .cfa: $rsp 80 +
STACK CFI 5463f .cfa: $rsp 88 +
STACK CFI 54641 .cfa: $rsp 96 +
STACK CFI 54643 .cfa: $rsp 104 +
STACK CFI 54645 .cfa: $rsp 112 +
STACK CFI 54647 .cfa: $rsp 120 +
STACK CFI 54649 .cfa: $rsp 128 +
STACK CFI 54650 .cfa: $rsp 136 +
STACK CFI 54657 .cfa: $rsp 144 +
STACK CFI 54663 .cfa: $rsp 8 +
STACK CFI INIT 54664 39 .cfa: $rsp 8 + .ra: .cfa -8 + ^
STACK CFI 54668 .cfa: $rsp 24 +
STACK CFI 5466a .cfa: $rsp 32 +
STACK CFI 5466c .cfa: $rsp 40 +
STACK CFI 5466e .cfa: $rsp 48 +
STACK CFI 54670 .cfa: $rsp 56 +
STACK CFI 54672 .cfa: $rsp 64 +
STACK CFI 54674 .cfa: $rsp 72 +
STACK CFI 54676 .cfa: $rsp 80 +
STACK CFI 54678 .cfa: $rsp 88 +
STACK CFI 5467a .cfa: $rsp 96 +
STACK CFI 5467c .cfa: $rsp 104 +
STACK CFI 5467e .cfa: $rsp 112 +
STACK CFI 54680 .cfa: $rsp 120 +
STACK CFI 54682 .cfa: $rsp 128 +
STACK CFI 54689 .cfa: $rsp 136 +
STACK CFI 54690 .cfa: $rsp 144 +
STACK CFI 5469c .cfa: $rsp 8 +
STACK CFI INIT 5469d 39 .cfa: $rsp 8 + .ra: .cfa -8 + ^
STACK CFI 546a1 .cfa: $rsp 24 +
STACK CFI 546a3 .cfa: $rsp 32 +
STACK CFI 546a5 .cfa: $rsp 40 +
STACK CFI 546a7 .cfa: $rsp 48 +
STACK CFI 546a9 .cfa: $rsp 56 +
STACK CFI 546ab .cfa: $rsp 64 +
STACK CFI 546ad .cfa: $rsp 72 +
STACK CFI 546af .cfa: $rsp 80 +
STACK CFI 546b1 .cfa: $rsp 88 +
STACK CFI 546b3 .cfa: $rsp 96 +
STACK CFI 546b5 .cfa: $rsp 104 +
STACK CFI 546b7 .cfa: $rsp 112 +
STACK CFI 546b9 .cfa: $rsp 120 +
STACK CFI 546bb .cfa: $rsp 128 +
STACK CFI 546c2 .cfa: $rsp 136 +
STACK CFI 546c9 .cfa: $rsp 144 +
STACK CFI 546d5 .cfa: $rsp 8 +
STACK CFI INIT 546d6 39 .cfa: $rsp 8 + .ra: .cfa -8 + ^
STACK CFI 546da .cfa: $rsp 24 +
STACK CFI 546dc .cfa: $rsp 32 +
STACK CFI 546de .cfa: $rsp 40 +
STACK CFI 546e0 .cfa: $rsp 48 +
STACK CFI 546e2 .cfa: $rsp 56 +
STACK CFI 546e4 .cfa: $rsp 64 +
STACK CFI 546e6 .cfa: $rsp 72 +
STACK CFI 546e8 .cfa: $rsp 80 +
STACK CFI 546ea .cfa: $rsp 88 +
STACK CFI 546ec .cfa: $rsp 96 +
STACK CFI 546ee .cfa: $rsp 104 +
STACK CFI 546f0 .cfa: $rsp 112 +
STACK CFI 546f2 .cfa: $rsp 120 +
STACK CFI 546f4 .cfa: $rsp 128 +
STACK CFI 546fb .cfa: $rsp 136 +
STACK CFI 54702 .cfa: $rsp 144 +
STACK CFI 5470e .cfa: $rsp 8 +
STACK CFI INIT 5470f 39 .cfa: $rsp 8 + .ra: .cfa -8 + ^
STACK CFI 54713 .cfa: $rsp 24 +
STACK CFI 54715 .cfa: $rsp 32 +
STACK CFI 54717 .cfa: $rsp 40 +
STACK CFI 54719 .cfa: $rsp 48 +
STACK CFI 5471b .cfa: $rsp 56 +
STACK CFI 5471d .cfa: $rsp 64 +
STACK CFI 5471f .cfa: $rsp 72 +
STACK CFI 54721 .cfa: $rsp 80 +
STACK CFI 54723 .cfa: $rsp 88 +
STACK CFI 54725 .cfa: $rsp 96 +
STACK CFI 54727 .cfa: $rsp 104 +
STACK CFI 54729 .cfa: $rsp 112 +
STACK CFI 5472b .cfa: $rsp 120 +
STACK CFI 5472d .cfa: $rsp 128 +
STACK CFI 54734 .cfa: $rsp 136 +
STACK CFI 5473b .cfa: $rsp 144 +
STACK CFI 54747 .cfa: $rsp 8 +
STACK CFI INIT 54748 39 .cfa: $rsp 8 + .ra: .cfa -8 + ^
STACK CFI 5474c .cfa: $rsp 24 +
STACK CFI 5474e .cfa: $rsp 32 +
STACK CFI 54750 .cfa: $rsp 40 +
STACK CFI 54752 .cfa: $rsp 48 +
STACK CFI 54754 .cfa: $rsp 56 +
STACK CFI 54756 .cfa: $rsp 64 +
STACK CFI 54758 .cfa: $rsp 72 +
STACK CFI 5475a .cfa: $rsp 80 +
STACK CFI 5475c .cfa: $rsp 88 +
STACK CFI 5475e .cfa: $rsp 96 +
STACK CFI 54760 .cfa: $rsp 104 +
STACK CFI 54762 .cfa: $rsp 112 +
STACK CFI 54764 .cfa: $rsp 120 +
STACK CFI 54766 .cfa: $rsp 128 +
STACK CFI 5476d .cfa: $rsp 136 +
STACK CFI 54774 .cfa: $rsp 144 +
STACK CFI 54780 .cfa: $rsp 8 +
STACK CFI INIT 54781 39 .cfa: $rsp 8 + .ra: .cfa -8 + ^
STACK CFI 54785 .cfa: $rsp 24 +
STACK CFI 54787 .cfa: $rsp 32 +
STACK CFI 54789 .cfa: $rsp 40 +
STACK CFI 5478b .cfa: $rsp 48 +
STACK CFI 5478d .cfa: $rsp 56 +
STACK CFI 5478f .cfa: $rsp 64 +
STACK CFI 54791 .cfa: $rsp 72 +
STACK CFI 54793 .cfa: $rsp 80 +
STACK CFI 54795 .cfa: $rsp 88 +
STACK CFI 54797 .cfa: $rsp 96 +
STACK CFI 54799 .cfa: $rsp 104 +
STACK CFI 5479b .cfa: $rsp 112 +
STACK CFI 5479d .cfa: $rsp 120 +
STACK CFI 5479f .cfa: $rsp 128 +
STACK CFI 547a6 .cfa: $rsp 136 +
STACK CFI 547ad .cfa: $rsp 144 +
STACK CFI 547b9 .cfa: $rsp 8 +
STACK CFI INIT 547ba 39 .cfa: $rsp 8 + .ra: .cfa -8 + ^
STACK CFI 547be .cfa: $rsp 24 +
STACK CFI 547c0 .cfa: $rsp 32 +
STACK CFI 547c2 .cfa: $rsp 40 +
STACK CFI 547c4 .cfa: $rsp 48 +
STACK CFI 547c6 .cfa: $rsp 56 +
STACK CFI 547c8 .cfa: $rsp 64 +
STACK CFI 547ca .cfa: $rsp 72 +
STACK CFI 547cc .cfa: $rsp 80 +
STACK CFI 547ce .cfa: $rsp 88 +
STACK CFI 547d0 .cfa: $rsp 96 +
STACK CFI 547d2 .cfa: $rsp 104 +
STACK CFI 547d4 .cfa: $rsp 112 +
STACK CFI 547d6 .cfa: $rsp 120 +
STACK CFI 547d8 .cfa: $rsp 128 +
STACK CFI 547df .cfa: $rsp 136 +
STACK CFI 547e6 .cfa: $rsp 144 +
STACK CFI 547f2 .cfa: $rsp 8 +
STACK CFI INIT 547f3 39 .cfa: $rsp 8 + .ra: .cfa -8 + ^
STACK CFI 547f7 .cfa: $rsp 24 +
STACK CFI 547f9 .cfa: $rsp 32 +
STACK CFI 547fb .cfa: $rsp 40 +
STACK CFI 547fd .cfa: $rsp 48 +
STACK CFI 547ff .cfa: $rsp 56 +
STACK CFI 54801 .cfa: $rsp 64 +
STACK CFI 54803 .cfa: $rsp 72 +
STACK CFI 54805 .cfa: $rsp 80 +
STACK CFI 54807 .cfa: $rsp 88 +
STACK CFI 54809 .cfa: $rsp 96 +
STACK CFI 5480b .cfa: $rsp 104 +
STACK CFI 5480d .cfa: $rsp 112 +
STACK CFI 5480f .cfa: $rsp 120 +
STACK CFI 54811 .cfa: $rsp 128 +
STACK CFI 54818 .cfa: $rsp 136 +
STACK CFI 5481f .cfa: $rsp 144 +
STACK CFI 5482b .cfa: $rsp 8 +
STACK CFI INIT 5482c 39 .cfa: $rsp 8 + .ra: .cfa -8 + ^
STACK CFI 54830 .cfa: $rsp 24 +
STACK CFI 54832 .cfa: $rsp 32 +
STACK CFI 54834 .cfa: $rsp 40 +
STACK CFI 54836 .cfa: $rsp 48 +
STACK CFI 54838 .cfa: $rsp 56 +
STACK CFI 5483a .cfa: $rsp 64 +
STACK CFI 5483c .cfa: $rsp 72 +
STACK CFI 5483e .cfa: $rsp 80 +
STACK CFI 54840 .cfa: $rsp 88 +
STACK CFI 54842 .cfa: $rsp 96 +
STACK CFI 54844 .cfa: $rsp 104 +
STACK CFI 54846 .cfa: $rsp 112 +
STACK CFI 54848 .cfa: $rsp 120 +
STACK CFI 5484a .cfa: $rsp 128 +
STACK CFI 54851 .cfa: $rsp 136 +
STACK CFI 54858 .cfa: $rsp 144 +
STACK CFI 54864 .cfa: $rsp 8 +
STACK CFI INIT 54865 39 .cfa: $rsp 8 + .ra: .cfa -8 + ^
STACK CFI 54869 .cfa: $rsp 24 +
STACK CFI 5486b .cfa: $rsp 32 +
STACK CFI 5486d .cfa: $rsp 40 +
STACK CFI 5486f .cfa: $rsp 48 +
STACK CFI 54871 .cfa: $rsp 56 +
STACK CFI 54873 .cfa: $rsp 64 +
STACK CFI 54875 .cfa: $rsp 72 +
STACK CFI 54877 .cfa: $rsp 80 +
STACK CFI 54879 .cfa: $rsp 88 +
STACK CFI 5487b .cfa: $rsp 96 +
STACK CFI 5487d .cfa: $rsp 104 +
STACK CFI 5487f .cfa: $rsp 112 +
STACK CFI 54881 .cfa: $rsp 120 +
STACK CFI 54883 .cfa: $rsp 128 +
STACK CFI 5488a .cfa: $rsp 136 +
STACK CFI 54891 .cfa: $rsp 144 +
STACK CFI 5489d .cfa: $rsp 8 +
STACK CFI INIT 5489e 39 .cfa: $rsp 8 + .ra: .cfa -8 + ^
STACK CFI 548a2 .cfa: $rsp 24 +
STACK CFI 548a4 .cfa: $rsp 32 +
STACK CFI 548a6 .cfa: $rsp 40 +
STACK CFI 548a8 .cfa: $rsp 48 +
STACK CFI 548aa .cfa: $rsp 56 +
STACK CFI 548ac .cfa: $rsp 64 +
STACK CFI 548ae .cfa: $rsp 72 +
STACK CFI 548b0 .cfa: $rsp 80 +
STACK CFI 548b2 .cfa: $rsp 88 +
STACK CFI 548b4 .cfa: $rsp 96 +
STACK CFI 548b6 .cfa: $rsp 104 +
STACK CFI 548b8 .cfa: $rsp 112 +
STACK CFI 548ba .cfa: $rsp 120 +
STACK CFI 548bc .cfa: $rsp 128 +
STACK CFI 548c3 .cfa: $rsp 136 +
STACK CFI 548ca .cfa: $rsp 144 +
STACK CFI 548d6 .cfa: $rsp 8 +
STACK CFI INIT 548d7 39 .cfa: $rsp 8 + .ra: .cfa -8 + ^
STACK CFI 548db .cfa: $rsp 24 +
STACK CFI 548dd .cfa: $rsp 32 +
STACK CFI 548df .cfa: $rsp 40 +
STACK CFI 548e1 .cfa: $rsp 48 +
STACK CFI 548e3 .cfa: $rsp 56 +
STACK CFI 548e5 .cfa: $rsp 64 +
STACK CFI 548e7 .cfa: $rsp 72 +
STACK CFI 548e9 .cfa: $rsp 80 +
STACK CFI 548eb .cfa: $rsp 88 +
STACK CFI 548ed .cfa: $rsp 96 +
STACK CFI 548ef .cfa: $rsp 104 +
STACK CFI 548f1 .cfa: $rsp 112 +
STACK CFI 548f3 .cfa: $rsp 120 +
STACK CFI 548f5 .cfa: $rsp 128 +
STACK CFI 548fc .cfa: $rsp 136 +
STACK CFI 54903 .cfa: $rsp 144 +
STACK CFI 5490f .cfa: $rsp 8 +
STACK CFI INIT 54910 39 .cfa: $rsp 8 + .ra: .cfa -8 + ^
STACK CFI 54914 .cfa: $rsp 24 +
STACK CFI 54916 .cfa: $rsp 32 +
STACK CFI 54918 .cfa: $rsp 40 +
STACK CFI 5491a .cfa: $rsp 48 +
STACK CFI 5491c .cfa: $rsp 56 +
STACK CFI 5491e .cfa: $rsp 64 +
STACK CFI 54920 .cfa: $rsp 72 +
STACK CFI 54922 .cfa: $rsp 80 +
STACK CFI 54924 .cfa: $rsp 88 +
STACK CFI 54926 .cfa: $rsp 96 +
STACK CFI 54928 .cfa: $rsp 104 +
STACK CFI 5492a .cfa: $rsp 112 +
STACK CFI 5492c .cfa: $rsp 120 +
STACK CFI 5492e .cfa: $rsp 128 +
STACK CFI 54935 .cfa: $rsp 136 +
STACK CFI 5493c .cfa: $rsp 144 +
STACK CFI 54948 .cfa: $rsp 8 +
STACK CFI INIT 54949 39 .cfa: $rsp 8 + .ra: .cfa -8 + ^
STACK CFI 5494d .cfa: $rsp 24 +
STACK CFI 5494f .cfa: $rsp 32 +
STACK CFI 54951 .cfa: $rsp 40 +
STACK CFI 54953 .cfa: $rsp 48 +
STACK CFI 54955 .cfa: $rsp 56 +
STACK CFI 54957 .cfa: $rsp 64 +
STACK CFI 54959 .cfa: $rsp 72 +
STACK CFI 5495b .cfa: $rsp 80 +
STACK CFI 5495d .cfa: $rsp 88 +
STACK CFI 5495f .cfa: $rsp 96 +
STACK CFI 54961 .cfa: $rsp 104 +
STACK CFI 54963 .cfa: $rsp 112 +
STACK CFI 54965 .cfa: $rsp 120 +
STACK CFI 54967 .cfa: $rsp 128 +
STACK CFI 5496e .cfa: $rsp 136 +
STACK CFI 54975 .cfa: $rsp 144 +
STACK CFI 54981 .cfa: $rsp 8 +
STACK CFI INIT 54982 39 .cfa: $rsp 8 + .ra: .cfa -8 + ^
STACK CFI 54986 .cfa: $rsp 24 +
STACK CFI 54988 .cfa: $rsp 32 +
STACK CFI 5498a .cfa: $rsp 40 +
STACK CFI 5498c .cfa: $rsp 48 +
STACK CFI 5498e .cfa: $rsp 56 +
STACK CFI 54990 .cfa: $rsp 64 +
STACK CFI 54992 .cfa: $rsp 72 +
STACK CFI 54994 .cfa: $rsp 80 +
STACK CFI 54996 .cfa: $rsp 88 +
STACK CFI 54998 .cfa: $rsp 96 +
STACK CFI 5499a .cfa: $rsp 104 +
STACK CFI 5499c .cfa: $rsp 112 +
STACK CFI 5499e .cfa: $rsp 120 +
STACK CFI 549a0 .cfa: $rsp 128 +
STACK CFI 549a7 .cfa: $rsp 136 +
STACK CFI 549ae .cfa: $rsp 144 +
STACK CFI 549ba .cfa: $rsp 8 +
STACK CFI INIT 549bb 39 .cfa: $rsp 8 + .ra: .cfa -8 + ^
STACK CFI 549bf .cfa: $rsp 24 +
STACK CFI 549c1 .cfa: $rsp 32 +
STACK CFI 549c3 .cfa: $rsp 40 +
STACK CFI 549c5 .cfa: $rsp 48 +
STACK CFI 549c7 .cfa: $rsp 56 +
STACK CFI 549c9 .cfa: $rsp 64 +
STACK CFI 549cb .cfa: $rsp 72 +
STACK CFI 549cd .cfa: $rsp 80 +
STACK CFI 549cf .cfa: $rsp 88 +
STACK CFI 549d1 .cfa: $rsp 96 +
STACK CFI 549d3 .cfa: $rsp 104 +
STACK CFI 549d5 .cfa: $rsp 112 +
STACK CFI 549d7 .cfa: $rsp 120 +
STACK CFI 549d9 .cfa: $rsp 128 +
STACK CFI 549e0 .cfa: $rsp 136 +
STACK CFI 549e7 .cfa: $rsp 144 +
STACK CFI 549f3 .cfa: $rsp 8 +
STACK CFI INIT 549f4 39 .cfa: $rsp 8 + .ra: .cfa -8 + ^
STACK CFI 549f8 .cfa: $rsp 24 +
STACK CFI 549fa .cfa: $rsp 32 +
STACK CFI 549fc .cfa: $rsp 40 +
STACK CFI 549fe .cfa: $rsp 48 +
STACK CFI 54a00 .cfa: $rsp 56 +
STACK CFI 54a02 .cfa: $rsp 64 +
STACK CFI 54a04 .cfa: $rsp 72 +
STACK CFI 54a06 .cfa: $rsp 80 +
STACK CFI 54a08 .cfa: $rsp 88 +
STACK CFI 54a0a .cfa: $rsp 96 +
STACK CFI 54a0c .cfa: $rsp 104 +
STACK CFI 54a0e .cfa: $rsp 112 +
STACK CFI 54a10 .cfa: $rsp 120 +
STACK CFI 54a12 .cfa: $rsp 128 +
STACK CFI 54a19 .cfa: $rsp 136 +
STACK CFI 54a20 .cfa: $rsp 144 +
STACK CFI 54a2c .cfa: $rsp 8 +
STACK CFI INIT 54a2d 39 .cfa: $rsp 8 + .ra: .cfa -8 + ^
STACK CFI 54a31 .cfa: $rsp 24 +
STACK CFI 54a33 .cfa: $rsp 32 +
STACK CFI 54a35 .cfa: $rsp 40 +
STACK CFI 54a37 .cfa: $rsp 48 +
STACK CFI 54a39 .cfa: $rsp 56 +
STACK CFI 54a3b .cfa: $rsp 64 +
STACK CFI 54a3d .cfa: $rsp 72 +
STACK CFI 54a3f .cfa: $rsp 80 +
STACK CFI 54a41 .cfa: $rsp 88 +
STACK CFI 54a43 .cfa: $rsp 96 +
STACK CFI 54a45 .cfa: $rsp 104 +
STACK CFI 54a47 .cfa: $rsp 112 +
STACK CFI 54a49 .cfa: $rsp 120 +
STACK CFI 54a4b .cfa: $rsp 128 +
STACK CFI 54a52 .cfa: $rsp 136 +
STACK CFI 54a59 .cfa: $rsp 144 +
STACK CFI 54a65 .cfa: $rsp 8 +
STACK CFI INIT 54a66 39 .cfa: $rsp 8 + .ra: .cfa -8 + ^
STACK CFI 54a6a .cfa: $rsp 24 +
STACK CFI 54a6c .cfa: $rsp 32 +
STACK CFI 54a6e .cfa: $rsp 40 +
STACK CFI 54a70 .cfa: $rsp 48 +
STACK CFI 54a72 .cfa: $rsp 56 +
STACK CFI 54a74 .cfa: $rsp 64 +
STACK CFI 54a76 .cfa: $rsp 72 +
STACK CFI 54a78 .cfa: $rsp 80 +
STACK CFI 54a7a .cfa: $rsp 88 +
STACK CFI 54a7c .cfa: $rsp 96 +
STACK CFI 54a7e .cfa: $rsp 104 +
STACK CFI 54a80 .cfa: $rsp 112 +
STACK CFI 54a82 .cfa: $rsp 120 +
STACK CFI 54a84 .cfa: $rsp 128 +
STACK CFI 54a8b .cfa: $rsp 136 +
STACK CFI 54a92 .cfa: $rsp 144 +
STACK CFI 54a9e .cfa: $rsp 8 +
STACK CFI INIT 54a9f 39 .cfa: $rsp 8 + .ra: .cfa -8 + ^
STACK CFI 54aa3 .cfa: $rsp 24 +
STACK CFI 54aa5 .cfa: $rsp 32 +
STACK CFI 54aa7 .cfa: $rsp 40 +
STACK CFI 54aa9 .cfa: $rsp 48 +
STACK CFI 54aab .cfa: $rsp 56 +
STACK CFI 54aad .cfa: $rsp 64 +
STACK CFI 54aaf .cfa: $rsp 72 +
STACK CFI 54ab1 .cfa: $rsp 80 +
STACK CFI 54ab3 .cfa: $rsp 88 +
STACK CFI 54ab5 .cfa: $rsp 96 +
STACK CFI 54ab7 .cfa: $rsp 104 +
STACK CFI 54ab9 .cfa: $rsp 112 +
STACK CFI 54abb .cfa: $rsp 120 +
STACK CFI 54abd .cfa: $rsp 128 +
